
LaserRangeFinder.elf:     file format elf32-littleriscv
LaserRangeFinder.elf
architecture: riscv:rv32, flags 0x00000112:
EXEC_P, HAS_SYMS, D_PAGED
start address 0x00000000

Program Header:
    LOAD off    0x00001000 vaddr 0x00000000 paddr 0x00000000 align 2**12
         filesz 0x00000004 memsz 0x00000004 flags r-x
    LOAD off    0x00001800 vaddr 0x20003800 paddr 0x00000004 align 2**12
         filesz 0x00000718 memsz 0x00000718 flags r-x
    LOAD off    0x0000271c vaddr 0x0000071c paddr 0x0000071c align 2**12
         filesz 0x00002ef4 memsz 0x00002ef4 flags r-x
    LOAD off    0x00005f18 vaddr 0x20003f18 paddr 0x00003610 align 2**12
         filesz 0x00000000 memsz 0x000000e8 flags rw-
    LOAD off    0x00006000 vaddr 0x20004000 paddr 0x00003610 align 2**12
         filesz 0x00000068 memsz 0x000000b0 flags rw-
    LOAD off    0x00006e00 vaddr 0x20007e00 paddr 0x20007e00 align 2**12
         filesz 0x00000000 memsz 0x00000200 flags rw-

Sections:
Idx Name            Size      VMA       LMA       File off  Algn  Flags
  0 .init           00000004  00000000  00000000  00001000  2**1  CONTENTS, ALLOC, LOAD, READONLY, CODE
  1 .highcodelalign 00000000  00000004  00000004  00006068  2**0  CONTENTS
  2 .highcode       00000718  20003800  00000004  00001800  2**1  CONTENTS, ALLOC, LOAD, READONLY, CODE
  3 .text           00002ef4  0000071c  0000071c  0000271c  2**2  CONTENTS, ALLOC, LOAD, READONLY, CODE
  4 .fini           00000000  00003610  00003610  00006068  2**0  CONTENTS, ALLOC, LOAD, CODE
  5 .dalign         000000e8  20003f18  00003610  00005f18  2**0  ALLOC
  6 .dlalign        00000000  00003610  00003610  00006068  2**0  CONTENTS
  7 .data           00000068  20004000  00003610  00006000  2**2  CONTENTS, ALLOC, LOAD, DATA
  8 .bss            00000048  20004068  00003678  00006068  2**2  ALLOC
  9 .stack          00000200  20007e00  20007e00  00006e00  2**0  ALLOC
 10 .debug_info     0000d9b8  00000000  00000000  00006068  2**0  CONTENTS, READONLY, DEBUGGING
 11 .debug_abbrev   00001e61  00000000  00000000  00013a20  2**0  CONTENTS, READONLY, DEBUGGING
 12 .debug_loc      000045f3  00000000  00000000  00015881  2**0  CONTENTS, READONLY, DEBUGGING
 13 .debug_aranges  00000408  00000000  00000000  00019e78  2**3  CONTENTS, READONLY, DEBUGGING
 14 .debug_ranges   00000648  00000000  00000000  0001a280  2**3  CONTENTS, READONLY, DEBUGGING
 15 .debug_line     00007ca8  00000000  00000000  0001a8c8  2**0  CONTENTS, READONLY, DEBUGGING
 16 .debug_str      000018fa  00000000  00000000  00022570  2**0  CONTENTS, READONLY, DEBUGGING
 17 .comment        00000033  00000000  00000000  00023e6a  2**0  CONTENTS, READONLY
 18 .debug_frame    0000168c  00000000  00000000  00023ea0  2**2  CONTENTS, READONLY, DEBUGGING
 19 .stab           00000084  00000000  00000000  0002552c  2**2  CONTENTS, READONLY, DEBUGGING
 20 .stabstr        00000117  00000000  00000000  000255b0  2**0  CONTENTS, READONLY, DEBUGGING
SYMBOL TABLE:
00000000 l    d  .init	00000000 .init
00000004 l    d  .highcodelalign	00000000 .highcodelalign
20003800 l    d  .highcode	00000000 .highcode
0000071c l    d  .text	00000000 .text
00003610 l    d  .fini	00000000 .fini
20003f18 l    d  .dalign	00000000 .dalign
00003610 l    d  .dlalign	00000000 .dlalign
20004000 l    d  .data	00000000 .data
20004068 l    d  .bss	00000000 .bss
20007e00 l    d  .stack	00000000 .stack
00000000 l    d  .debug_info	00000000 .debug_info
00000000 l    d  .debug_abbrev	00000000 .debug_abbrev
00000000 l    d  .debug_loc	00000000 .debug_loc
00000000 l    d  .debug_aranges	00000000 .debug_aranges
00000000 l    d  .debug_ranges	00000000 .debug_ranges
00000000 l    d  .debug_line	00000000 .debug_line
00000000 l    d  .debug_str	00000000 .debug_str
00000000 l    d  .comment	00000000 .comment
00000000 l    d  .debug_frame	00000000 .debug_frame
00000000 l    d  .stab	00000000 .stab
00000000 l    d  .stabstr	00000000 .stabstr
00000000 l    df *ABS*	00000000 ./Startup/startup_CH573.o
20003800 l       .highcode	00000000 _vector_base
00000000 l    df *ABS*	00000000 Main.c
00000000 l    df *ABS*	00000000 CH57x_sys.c
20004060 l     O .data	00000004 curbrk.3772
00000000 l    df *ABS*	00000000 ISP573.c
20003b2c l       .highcode	00000000 .loop17
20003b3a l       .highcode	00000000 .loop28
20003b48 l       .highcode	00000000 .loop39
20003dd6 l       .highcode	00000000 .loop406
00000000 l    df *ABS*	00000000 TFT_CAD.c
00000000 l    df *ABS*	00000000 TFT_init.c
000008f8 l     F .text	00000042 TFT_Set_Direction
00000000 l    df *ABS*	00000000 TFT_io.c
00000b64 l     F .text	00000014 TFT_Wait_DMA_Transfer_Complete
20004068 l     O .bss	00000004 g_tft_handles
00000000 l    df *ABS*	00000000 TFT_text.c
00000000 l    df *ABS*	00000000 CH57x_gpio.c
00000000 l    df *ABS*	00000000 CH57x_spi0.c
00000000 l    df *ABS*	00000000 CH57x_uart1.c
00000000 l    df *ABS*	00000000 malloc.c
00000000 l    df *ABS*	00000000 nano-mallocr.c
00000000 l    df *ABS*	00000000 nano-mallocr.c
00000000 l    df *ABS*	00000000 printf.c
00000000 l    df *ABS*	00000000 puts.c
00000000 l    df *ABS*	00000000 sbrkr.c
00000000 l    df *ABS*	00000000 wbuf.c
00000000 l    df *ABS*	00000000 wsetup.c
00000000 l    df *ABS*	00000000 fflush.c
00000000 l    df *ABS*	00000000 findfp.c
00001c5c l     F .text	0000006a std
00000000 l    df *ABS*	00000000 fwalk.c
00000000 l    df *ABS*	00000000 makebuf.c
00000000 l    df *ABS*	00000000 mlock.c
00000000 l    df *ABS*	00000000 nano-vfprintf.c
00001f8c l     F .text	0000002a __sfputc_r
00000000 l    df *ABS*	00000000 nano-vfprintf_i.c
00000000 l    df *ABS*	00000000 stdio.c
00000000 l    df *ABS*	00000000 writer.c
00000000 l    df *ABS*	00000000 closer.c
00000000 l    df *ABS*	00000000 fstatr.c
00000000 l    df *ABS*	00000000 isattyr.c
00000000 l    df *ABS*	00000000 lseekr.c
00000000 l    df *ABS*	00000000 memchr.c
00000000 l    df *ABS*	00000000 readr.c
00000000 l    df *ABS*	00000000 close.c
00000000 l    df *ABS*	00000000 fstat.c
00000000 l    df *ABS*	00000000 isatty.c
00000000 l    df *ABS*	00000000 lseek.c
00000000 l    df *ABS*	00000000 read.c
00000000 l    df *ABS*	00000000 font.c
00000000 l    df *ABS*	00000000 impure.c
20004000 l     O .data	00000060 impure_data
00000000 l    df *ABS*	00000000 reent.c
0000277e g     F .text	00000028 _isatty_r
000017da g     F .text	000000da _puts_r
000027a6 g     F .text	0000002c _lseek_r
20003b48 g     F .highcode	0000000e FLASH_ROM_OUT
00000bb2 g     F .text	0000000e TFT_Config_Display
00001796 g     F .text	00000044 printf
20004860 g       .data	00000000 __global_pointer$
00000b9c g     F .text	00000016 TFT_Config_Pins
000026c2 g     F .text	00000036 __sseek
00001d18 g     F .text	0000006a __sinit
000018ea g     F .text	000000c0 __swbuf_r
20003ae6 g     F .highcode	0000000e mDelayuS
20003aa0  w    F .highcode	00000046 HardFault_Handler
00001cd0 g     F .text	00000048 __sfmoreglue
200038bc g     F .highcode	00000090 GPIOB_IRQHandler
00001f8a g     F .text	00000002 __malloc_unlock
2000389a  w      .highcode	00000000 GPIOA_IRQHandler
20003894  w      .highcode	00000000 SysTick_Handler
20003890  w      .highcode	00000000 NMI_Handler
200038ac  w      .highcode	00000000 UART1_IRQHandler
00002754 g     F .text	0000002a _fstat_r
200040ac g     O .bss	00000004 errno
20004068 g       .bss	00000000 _sbss
00000200 g       *ABS*	00000000 __stack_size
00000e88 g     F .text	00000038 TFT_Write_Command
20003b3a g     F .highcode	0000000e FLASH_ROM_IN
200038aa  w      .highcode	00000000 UART0_IRQHandler
00000d5a g     F .text	0000005c TFT_Buffer_Write16
00001cc6 g     F .text	0000000a _cleanup_r
000018b4 g     F .text	0000000e puts
0000160c g     F .text	0000000e malloc
00002824 g     F .text	0000000c _fstat
00000004 g       .init	00000000 _einit
200038a0  w      .highcode	00000000 BB_IRQHandler
20003bd6 g     F .highcode	00000340 FLASH_EEPROM_CMD
0000135e g     F .text	000000a6 GPIOB_ModeCfg
000018c2 g     F .text	00000028 _sbrk_r
000014c0 g     F .text	00000050 SPI0_MasterDMATrans
20003898  w      .highcode	00000000 TMR0_IRQHandler
000027ec g     F .text	0000002c _read_r
00000b78 g     F .text	00000024 TFT_Init_Instance
000035f4 g     O .text	00000008 afont12x6
20003b1c g     F .highcode	00000010 FLASH_ROM_BEG
00001404 g     F .text	0000008a GPIOB_ITModeCfg
20003af4 g     F .highcode	00000028 mDelaymS
20007e00 g       .stack	00000000 _heap_end
0000148e g     F .text	00000032 SPI0_MasterDefInit
00002830 g     F .text	0000000c _isatty
0000360c g     O .text	00000004 _global_impure_ptr
20003b56 g     F .highcode	00000048 FLASH_ROM_ADDR
0000157a g     F .text	00000030 _sbrk
2000406c g     O .bss	00000004 SPI0
20004078 g     O .bss	00000034 htft1
0000088e g     F .text	0000006a TFT_Fill_Area
200038ae  w      .highcode	00000000 RTC_IRQHandler
200040b0 g       .bss	00000000 _ebss
000015da g     F .text	00000032 UART1_DefInit
20003b9e g     F .highcode	00000038 FLASH_ROM_WAIT
00003558 g     O .text	00000020 __sf_fake_stderr
200038b6  w      .highcode	00000000 UART2_IRQHandler
000035fc g     O .text	00000008 afont16x8
200038b2  w      .highcode	00000000 PWMX_IRQHandler
00001fb6 g     F .text	00000042 __sfputs_r
000027d2 g     F .text	0000001a memchr
0000161a g     F .text	000000a8 _free_r
00003604 g     O .text	00000008 afont8x6
00000000 g       .init	00000000 _start
0000283c g     F .text	0000000c _lseek
00000f7a g     F .text	0000013c TFT_Show_Char
00000c40 g     F .text	00000040 TFT_Pin_CS_Set
200038b0  w      .highcode	00000000 ADC_IRQHandler
20003800 g       .highcode	00000000 _highcode_vma_start
00000db6 g     F .text	00000008 TFT_Reset_Buffer
200038a8  w      .highcode	00000000 TMR2_IRQHandler
000032b8 g     O .text	00000228 ascii_8x6
0000272c g     F .text	00000028 _close_r
20004000 g       .data	00000000 _data_vma
00000d34 g     F .text	00000026 TFT_Flush_Buffer
2000394c g     F .highcode	00000118 SetSysClock
200038a4  w      .highcode	00000000 USB_IRQHandler
000019aa g     F .text	00000110 __swsetup_r
00001d82 g     F .text	000000a0 __sfp
00002644 g     F .text	00000030 __sread
00000e14 g     F .text	00000036 TFT_Write_Data8
00001f88 g     F .text	00000002 __malloc_lock
00001bf8 g     F .text	00000064 _fflush_r
00003578 g     O .text	00000020 __sf_fake_stdin
000007e6 g     F .text	000000a8 memset
0000114e g     F .text	0000016a main
000026f8 g     F .text	00000006 __sclose
000016c2 g     F .text	000000d4 _malloc_r
000010b6 g     F .text	00000098 TFT_Show_String
0000093a g     F .text	0000022a TFT_Init_ST7789v3
00000004 g       .highcodelalign	00000000 _highcode_lma
00000bc0 g     F .text	00000040 TFT_Pin_RES_Set
00001796 g     F .text	00000044 iprintf
200038a2  w      .highcode	00000000 LLE_IRQHandler
00000000 g       .init	00000000 _sinit
000026fe g     F .text	0000002e _write_r
00002854 g     O .text	00000474 ascii_12x6
00002290 g     F .text	0000010c _printf_common
20004064 g     O .data	00000004 _impure_ptr
00001aba g     F .text	0000013e __sflush_r
00000e4a g     F .text	0000003e TFT_Write_Data16
200038ba  w      .highcode	00000000 WDOG_BAT_IRQHandler
200038b4  w      .highcode	00000000 TMR3_IRQHandler
00000dbe g     F .text	00000056 TFT_IO_Init
20008000 g       .stack	00000000 _eusrstack
20003896  w      .highcode	00000000 SW_Handler
000012b8 g     F .text	000000a6 GPIOA_ModeCfg
00001e8e g     F .text	0000005a __swhatbuf_r
00001510 g     F .text	00000042 GetSysClock
00001552 g     F .text	00000028 _write
20004068 g       .data	00000000 _edata
2000389e  w      .highcode	00000000 SPI0_IRQHandler
200040b0 g       .bss	00000000 _end
20003f18 g       .highcode	00000000 _highcode_vma_end
00003610 g       .dlalign	00000000 _data_lma
00002cc8 g     O .text	000005f0 ascii_16x8
00002674 g     F .text	0000004e __swrite
00001ff8 g     F .text	00000298 _vfiprintf_r
00001e22 g     F .text	0000006c _fwalk_reent
00000ec0 g     F .text	000000ba TFT_Set_Address
00003598 g     O .text	00000020 __sf_fake_stdout
00002848 g     F .text	0000000c _read
0000071c  w      .text	00000000 handle_reset
00001ee8 g     F .text	000000a0 __smakebuf_r
0000239c g     F .text	000002a8 _printf_i
00000cc0 g     F .text	00000074 TFT_SPI_Send
200038b8  w      .highcode	00000000 UART3_IRQHandler
20004074 g     O .bss	00000004 __malloc_sbrk_start
20003b2c g     F .highcode	0000000e FLASH_ROM_END
20004070 g     O .bss	00000004 __malloc_free_list
00001ff8 g     F .text	00000298 _vfprintf_r
200038a6  w      .highcode	00000000 TMR1_IRQHandler
00000c80 g     F .text	00000040 TFT_Pin_BLK_Set
20003a64 g     F .highcode	0000003c SYS_ResetExecute
00000c00 g     F .text	00000040 TFT_Pin_DC_Set
00002818 g     F .text	0000000c _close
000015aa g     F .text	00000030 UART1_BaudRateCfg



Disassembly of section .init:

00000000 <_sinit>:
_start():
d:\CH573FEVT\LaserRangeFinder\obj/../Startup/startup_CH573.S:17

	.section	.init,"ax",@progbits
	.global	_start
	.align	1
_start:
	j	handle_reset
   0:	71c0006f          	j	71c <handle_reset>

Disassembly of section .highcode:

20003800 <_highcode_vma_start>:
	...
_vector_base():
d:\CH573FEVT\LaserRangeFinder\obj/../Startup/startup_CH573.S:25
    .align  1
_vector_base:
    .option norvc;
    .word   0
    .word   0
        j   NMI_Handler                 /* NMI Handler */
20003808:	0880006f          	j	20003890 <NMI_Handler>
d:\CH573FEVT\LaserRangeFinder\obj/../Startup/startup_CH573.S:26
        j   HardFault_Handler           /* Hard Fault Handler */
2000380c:	2940006f          	j	20003aa0 <HardFault_Handler>
	...
d:\CH573FEVT\LaserRangeFinder\obj/../Startup/startup_CH573.S:35
    .word   0
    .word   0
    .word   0
    .word   0
    .word   0
        j   SysTick_Handler            /* SysTick Handler */
20003830:	0640006f          	j	20003894 <SysTick_Handler>
20003834:	0000                	unimp
20003836:	0000                	unimp
d:\CH573FEVT\LaserRangeFinder\obj/../Startup/startup_CH573.S:37
    .word   0
        j   SW_Handler                 /* SW Handler */
20003838:	05e0006f          	j	20003896 <SW_Handler>
2000383c:	0000                	unimp
2000383e:	0000                	unimp
d:\CH573FEVT\LaserRangeFinder\obj/../Startup/startup_CH573.S:40
    .word   0
    /* External Interrupts */
        j   TMR0_IRQHandler            /* 0:  TMR0 */
20003840:	0580006f          	j	20003898 <TMR0_IRQHandler>
d:\CH573FEVT\LaserRangeFinder\obj/../Startup/startup_CH573.S:41
        j   GPIOA_IRQHandler           /* GPIOA */
20003844:	0560006f          	j	2000389a <GPIOA_IRQHandler>
d:\CH573FEVT\LaserRangeFinder\obj/../Startup/startup_CH573.S:42
        j   GPIOB_IRQHandler           /* GPIOB */
20003848:	0740006f          	j	200038bc <GPIOB_IRQHandler>
d:\CH573FEVT\LaserRangeFinder\obj/../Startup/startup_CH573.S:43
        j   SPI0_IRQHandler            /* SPI0 */
2000384c:	0520006f          	j	2000389e <SPI0_IRQHandler>
d:\CH573FEVT\LaserRangeFinder\obj/../Startup/startup_CH573.S:44
        j   BB_IRQHandler              /* BLEB */
20003850:	0500006f          	j	200038a0 <BB_IRQHandler>
d:\CH573FEVT\LaserRangeFinder\obj/../Startup/startup_CH573.S:45
        j   LLE_IRQHandler             /* BLEL */
20003854:	04e0006f          	j	200038a2 <LLE_IRQHandler>
d:\CH573FEVT\LaserRangeFinder\obj/../Startup/startup_CH573.S:46
        j   USB_IRQHandler             /* USB */
20003858:	04c0006f          	j	200038a4 <USB_IRQHandler>
2000385c:	0000                	unimp
2000385e:	0000                	unimp
d:\CH573FEVT\LaserRangeFinder\obj/../Startup/startup_CH573.S:48
        .word   0
        j   TMR1_IRQHandler            /* TMR1 */
20003860:	0460006f          	j	200038a6 <TMR1_IRQHandler>
d:\CH573FEVT\LaserRangeFinder\obj/../Startup/startup_CH573.S:49
        j   TMR2_IRQHandler            /* TMR2 */
20003864:	0440006f          	j	200038a8 <TMR2_IRQHandler>
d:\CH573FEVT\LaserRangeFinder\obj/../Startup/startup_CH573.S:50
        j   UART0_IRQHandler           /* UART0 */
20003868:	0420006f          	j	200038aa <UART0_IRQHandler>
d:\CH573FEVT\LaserRangeFinder\obj/../Startup/startup_CH573.S:51
        j   UART1_IRQHandler           /* UART1 */
2000386c:	0400006f          	j	200038ac <UART1_IRQHandler>
d:\CH573FEVT\LaserRangeFinder\obj/../Startup/startup_CH573.S:52
        j   RTC_IRQHandler             /* RTC */
20003870:	03e0006f          	j	200038ae <RTC_IRQHandler>
d:\CH573FEVT\LaserRangeFinder\obj/../Startup/startup_CH573.S:53
        j   ADC_IRQHandler             /* ADC */
20003874:	03c0006f          	j	200038b0 <ADC_IRQHandler>
20003878:	0000                	unimp
2000387a:	0000                	unimp
d:\CH573FEVT\LaserRangeFinder\obj/../Startup/startup_CH573.S:55
        .word   0
        j   PWMX_IRQHandler            /* PWMX */
2000387c:	0360006f          	j	200038b2 <PWMX_IRQHandler>
d:\CH573FEVT\LaserRangeFinder\obj/../Startup/startup_CH573.S:56
        j   TMR3_IRQHandler            /* TMR3 */
20003880:	0340006f          	j	200038b4 <TMR3_IRQHandler>
d:\CH573FEVT\LaserRangeFinder\obj/../Startup/startup_CH573.S:57
        j   UART2_IRQHandler           /* UART2 */
20003884:	0320006f          	j	200038b6 <UART2_IRQHandler>
d:\CH573FEVT\LaserRangeFinder\obj/../Startup/startup_CH573.S:58
        j   UART3_IRQHandler           /* UART3 */
20003888:	0300006f          	j	200038b8 <UART3_IRQHandler>
d:\CH573FEVT\LaserRangeFinder\obj/../Startup/startup_CH573.S:59
        j   WDOG_BAT_IRQHandler        /* WDOG_BAT */
2000388c:	02e0006f          	j	200038ba <WDOG_BAT_IRQHandler>

20003890 <NMI_Handler>:
NMI_Handler():
d:\CH573FEVT\LaserRangeFinder\obj/../Startup/startup_CH573.S:87
    .weak   TMR3_IRQHandler
    .weak   UART2_IRQHandler
    .weak   UART3_IRQHandler
    .weak   WDOG_BAT_IRQHandler

NMI_Handler:  1:  j 1b
20003890:	a001                	j	20003890 <NMI_Handler>
d:\CH573FEVT\LaserRangeFinder\obj/../Startup/startup_CH573.S:88
HardFault_Handler:  1:  j 1b
20003892:	a001                	j	20003892 <NMI_Handler+0x2>

20003894 <SysTick_Handler>:
SysTick_Handler():
d:\CH573FEVT\LaserRangeFinder\obj/../Startup/startup_CH573.S:89
SysTick_Handler:  1:  j 1b
20003894:	a001                	j	20003894 <SysTick_Handler>

20003896 <SW_Handler>:
SW_Handler():
d:\CH573FEVT\LaserRangeFinder\obj/../Startup/startup_CH573.S:90
SW_Handler:  1:  j 1b
20003896:	a001                	j	20003896 <SW_Handler>

20003898 <TMR0_IRQHandler>:
TMR0_IRQHandler():
d:\CH573FEVT\LaserRangeFinder\obj/../Startup/startup_CH573.S:91
TMR0_IRQHandler:  1:  j 1b
20003898:	a001                	j	20003898 <TMR0_IRQHandler>

2000389a <GPIOA_IRQHandler>:
GPIOA_IRQHandler():
d:\CH573FEVT\LaserRangeFinder\obj/../Startup/startup_CH573.S:92
GPIOA_IRQHandler:  1:  j 1b
2000389a:	a001                	j	2000389a <GPIOA_IRQHandler>
d:\CH573FEVT\LaserRangeFinder\obj/../Startup/startup_CH573.S:93
GPIOB_IRQHandler:  1:  j 1b
2000389c:	a001                	j	2000389c <GPIOA_IRQHandler+0x2>

2000389e <SPI0_IRQHandler>:
SPI0_IRQHandler():
d:\CH573FEVT\LaserRangeFinder\obj/../Startup/startup_CH573.S:94
SPI0_IRQHandler:  1:  j 1b
2000389e:	a001                	j	2000389e <SPI0_IRQHandler>

200038a0 <BB_IRQHandler>:
BB_IRQHandler():
d:\CH573FEVT\LaserRangeFinder\obj/../Startup/startup_CH573.S:95
BB_IRQHandler:  1:  j 1b
200038a0:	a001                	j	200038a0 <BB_IRQHandler>

200038a2 <LLE_IRQHandler>:
LLE_IRQHandler():
d:\CH573FEVT\LaserRangeFinder\obj/../Startup/startup_CH573.S:96
LLE_IRQHandler:  1:  j 1b
200038a2:	a001                	j	200038a2 <LLE_IRQHandler>

200038a4 <USB_IRQHandler>:
USB_IRQHandler():
d:\CH573FEVT\LaserRangeFinder\obj/../Startup/startup_CH573.S:97
USB_IRQHandler:  1:  j 1b
200038a4:	a001                	j	200038a4 <USB_IRQHandler>

200038a6 <TMR1_IRQHandler>:
TMR1_IRQHandler():
d:\CH573FEVT\LaserRangeFinder\obj/../Startup/startup_CH573.S:98
TMR1_IRQHandler:  1:  j 1b
200038a6:	a001                	j	200038a6 <TMR1_IRQHandler>

200038a8 <TMR2_IRQHandler>:
TMR2_IRQHandler():
d:\CH573FEVT\LaserRangeFinder\obj/../Startup/startup_CH573.S:99
TMR2_IRQHandler:  1:  j 1b
200038a8:	a001                	j	200038a8 <TMR2_IRQHandler>

200038aa <UART0_IRQHandler>:
UART0_IRQHandler():
d:\CH573FEVT\LaserRangeFinder\obj/../Startup/startup_CH573.S:100
UART0_IRQHandler:  1:  j 1b
200038aa:	a001                	j	200038aa <UART0_IRQHandler>

200038ac <UART1_IRQHandler>:
UART1_IRQHandler():
d:\CH573FEVT\LaserRangeFinder\obj/../Startup/startup_CH573.S:101
UART1_IRQHandler:  1:  j 1b
200038ac:	a001                	j	200038ac <UART1_IRQHandler>

200038ae <RTC_IRQHandler>:
RTC_IRQHandler():
d:\CH573FEVT\LaserRangeFinder\obj/../Startup/startup_CH573.S:102
RTC_IRQHandler:  1:  j 1b
200038ae:	a001                	j	200038ae <RTC_IRQHandler>

200038b0 <ADC_IRQHandler>:
ADC_IRQHandler():
d:\CH573FEVT\LaserRangeFinder\obj/../Startup/startup_CH573.S:103
ADC_IRQHandler:  1:  j 1b
200038b0:	a001                	j	200038b0 <ADC_IRQHandler>

200038b2 <PWMX_IRQHandler>:
PWMX_IRQHandler():
d:\CH573FEVT\LaserRangeFinder\obj/../Startup/startup_CH573.S:104
PWMX_IRQHandler:  1:  j 1b
200038b2:	a001                	j	200038b2 <PWMX_IRQHandler>

200038b4 <TMR3_IRQHandler>:
TMR3_IRQHandler():
d:\CH573FEVT\LaserRangeFinder\obj/../Startup/startup_CH573.S:105
TMR3_IRQHandler:  1:  j 1b
200038b4:	a001                	j	200038b4 <TMR3_IRQHandler>

200038b6 <UART2_IRQHandler>:
UART2_IRQHandler():
d:\CH573FEVT\LaserRangeFinder\obj/../Startup/startup_CH573.S:106
UART2_IRQHandler:  1:  j 1b
200038b6:	a001                	j	200038b6 <UART2_IRQHandler>

200038b8 <UART3_IRQHandler>:
UART3_IRQHandler():
d:\CH573FEVT\LaserRangeFinder\obj/../Startup/startup_CH573.S:107
UART3_IRQHandler:  1:  j 1b
200038b8:	a001                	j	200038b8 <UART3_IRQHandler>

200038ba <WDOG_BAT_IRQHandler>:
WDOG_BAT_IRQHandler():
d:\CH573FEVT\LaserRangeFinder\obj/../Startup/startup_CH573.S:108
WDOG_BAT_IRQHandler:  1:  j 1b
200038ba:	a001                	j	200038ba <WDOG_BAT_IRQHandler>

200038bc <GPIOB_IRQHandler>:
GPIOB_IRQHandler():
d:\CH573FEVT\LaserRangeFinder\obj/../src/Main.c:128
 * @note 记得清除中断标志位。锐刻5 RISC-V芯片对应的中断函数名在Startup\startup_CH573.S文件里查看
 */
void
GPIOB_IRQHandler(void)
{
    if (GPIOB_ReadITFlagBit(KEY1_PIN))
200038bc:	400017b7          	lui	a5,0x40001
200038c0:	09e7d783          	lhu	a5,158(a5) # 4000109e <_eusrstack+0x1fff909e>
200038c4:	4007f793          	andi	a5,a5,1024
200038c8:	cb89                	beqz	a5,200038da <GPIOB_IRQHandler+0x1e>
d:\CH573FEVT\LaserRangeFinder\obj/../src/Main.c:130
    {
        PRINT("key1 \n");
200038ca:	e0000517          	auipc	a0,0xe0000
200038ce:	c4650513          	addi	a0,a0,-954 # 3510 <ascii_8x6+0x258>
200038d2:	dfffe097          	auipc	ra,0xdfffe
200038d6:	fe2080e7          	jalr	-30(ra) # 18b4 <puts>
d:\CH573FEVT\LaserRangeFinder\obj/../src/Main.c:132
    }
    if (GPIOB_ReadITFlagBit(KEY2_PIN))
200038da:	400017b7          	lui	a5,0x40001
200038de:	09e7d783          	lhu	a5,158(a5) # 4000109e <_eusrstack+0x1fff909e>
200038e2:	01479713          	slli	a4,a5,0x14
200038e6:	00075a63          	bgez	a4,200038fa <GPIOB_IRQHandler+0x3e>
d:\CH573FEVT\LaserRangeFinder\obj/../src/Main.c:134
    {
        PRINT("key2 \n");
200038ea:	e0000517          	auipc	a0,0xe0000
200038ee:	c2e50513          	addi	a0,a0,-978 # 3518 <ascii_8x6+0x260>
200038f2:	dfffe097          	auipc	ra,0xdfffe
200038f6:	fc2080e7          	jalr	-62(ra) # 18b4 <puts>
d:\CH573FEVT\LaserRangeFinder\obj/../src/Main.c:136
    }
    if (GPIOB_ReadITFlagBit(KEY3_PIN))
200038fa:	400017b7          	lui	a5,0x40001
200038fe:	09e7d783          	lhu	a5,158(a5) # 4000109e <_eusrstack+0x1fff909e>
20003902:	01379713          	slli	a4,a5,0x13
20003906:	00075a63          	bgez	a4,2000391a <GPIOB_IRQHandler+0x5e>
d:\CH573FEVT\LaserRangeFinder\obj/../src/Main.c:138
    {
        PRINT("key3 \n");
2000390a:	e0000517          	auipc	a0,0xe0000
2000390e:	c1650513          	addi	a0,a0,-1002 # 3520 <ascii_8x6+0x268>
20003912:	dfffe097          	auipc	ra,0xdfffe
20003916:	fa2080e7          	jalr	-94(ra) # 18b4 <puts>
d:\CH573FEVT\LaserRangeFinder\obj/../src/Main.c:140
    }
    if (GPIOB_ReadITFlagBit(KEY4_PIN))
2000391a:	400017b7          	lui	a5,0x40001
2000391e:	09e7d783          	lhu	a5,158(a5) # 4000109e <_eusrstack+0x1fff909e>
20003922:	01279713          	slli	a4,a5,0x12
20003926:	00075a63          	bgez	a4,2000393a <GPIOB_IRQHandler+0x7e>
d:\CH573FEVT\LaserRangeFinder\obj/../src/Main.c:142
    {
        PRINT("key4 \n");
2000392a:	e0000517          	auipc	a0,0xe0000
2000392e:	bfe50513          	addi	a0,a0,-1026 # 3528 <ascii_8x6+0x270>
20003932:	dfffe097          	auipc	ra,0xdfffe
20003936:	f82080e7          	jalr	-126(ra) # 18b4 <puts>
d:\CH573FEVT\LaserRangeFinder\obj/../src/Main.c:144
    }
    GPIOB_ClearITFlagBit(KEY1_PIN | KEY2_PIN | KEY3_PIN | KEY4_PIN); // 清除所有按键的中断标志位
2000393a:	6791                	lui	a5,0x4
2000393c:	40001737          	lui	a4,0x40001
20003940:	c0078793          	addi	a5,a5,-1024 # 3c00 <_data_lma+0x5f0>
20003944:	08f71f23          	sh	a5,158(a4) # 4000109e <_eusrstack+0x1fff909e>
d:\CH573FEVT\LaserRangeFinder\obj/../src/Main.c:145
20003948:	30200073          	mret

2000394c <SetSysClock>:
sys_safe_access_enable():
d:/CH573FEVT/LaserRangeFinder/StdPeriphDriver/inc/CH57x_sys.h:178
 * @NOTE: 进入安全访问模式后约16个系统主频周期都处于安全模式下，
 * 该有效期内可以改写一个或多个安全类寄存器，超出上述有效期后将自动终止安全模式。
 */
 __attribute__((always_inline)) static inline void sys_safe_access_enable(void)
{
    R8_SAFE_ACCESS_SIG = SAFE_ACCESS_SIG1;
2000394c:	400017b7          	lui	a5,0x40001
20003950:	05700693          	li	a3,87
20003954:	04d78023          	sb	a3,64(a5) # 40001040 <_eusrstack+0x1fff9040>
d:/CH573FEVT/LaserRangeFinder/StdPeriphDriver/inc/CH57x_sys.h:179
    R8_SAFE_ACCESS_SIG = SAFE_ACCESS_SIG2;
20003958:	fa800713          	li	a4,-88
2000395c:	04e78023          	sb	a4,64(a5)
d:/CH573FEVT/LaserRangeFinder/StdPeriphDriver/inc/CH57x_sys.h:180
    asm volatile("fence.i");
20003960:	0000100f          	fence.i
SetSysClock():
d:\CH573FEVT\LaserRangeFinder\obj/../StdPeriphDriver/CH57x_sys.c:29
__attribute__((section(".highcode")))
void SetSysClock(SYS_CLKTypeDef sc)
{
    uint32_t i;
    sys_safe_access_enable();
    R8_PLL_CONFIG &= ~(1 << 5); //
20003964:	04b7c603          	lbu	a2,75(a5)
20003968:	0df67613          	andi	a2,a2,223
2000396c:	04c785a3          	sb	a2,75(a5)
sys_safe_access_disable():
d:/CH573FEVT/LaserRangeFinder/StdPeriphDriver/inc/CH57x_sys.h:185
}

__attribute__((always_inline)) static inline void sys_safe_access_disable(void)
{
    R8_SAFE_ACCESS_SIG = 0;
20003970:	04078023          	sb	zero,64(a5)
SetSysClock():
d:\CH573FEVT\LaserRangeFinder\obj/../StdPeriphDriver/CH57x_sys.c:31
    sys_safe_access_disable();
    if(sc & 0x20)
20003974:	02057613          	andi	a2,a0,32
20003978:	ca3d                	beqz	a2,200039ee <SetSysClock+0xa2>
d:\CH573FEVT\LaserRangeFinder\obj/../StdPeriphDriver/CH57x_sys.c:33
    { // HSE div
        if(!(R8_HFCK_PWR_CTRL & RB_CLK_XT32M_PON))
2000397a:	00a7c603          	lbu	a2,10(a5)
2000397e:	8a11                	andi	a2,a2,4
20003980:	e21d                	bnez	a2,200039a6 <SetSysClock+0x5a>
sys_safe_access_enable():
d:/CH573FEVT/LaserRangeFinder/StdPeriphDriver/inc/CH57x_sys.h:178
    R8_SAFE_ACCESS_SIG = SAFE_ACCESS_SIG1;
20003982:	04d78023          	sb	a3,64(a5)
d:/CH573FEVT/LaserRangeFinder/StdPeriphDriver/inc/CH57x_sys.h:179
    R8_SAFE_ACCESS_SIG = SAFE_ACCESS_SIG2;
20003986:	04e78023          	sb	a4,64(a5)
d:/CH573FEVT/LaserRangeFinder/StdPeriphDriver/inc/CH57x_sys.h:180
    asm volatile("fence.i");
2000398a:	0000100f          	fence.i
SetSysClock():
d:\CH573FEVT\LaserRangeFinder\obj/../StdPeriphDriver/CH57x_sys.c:36
        {
            sys_safe_access_enable();
            R8_HFCK_PWR_CTRL |= RB_CLK_XT32M_PON; // HSE power on
2000398e:	00a7c703          	lbu	a4,10(a5)
20003992:	00476713          	ori	a4,a4,4
20003996:	00e78523          	sb	a4,10(a5)
2000399a:	4b000793          	li	a5,1200
d:\CH573FEVT\LaserRangeFinder\obj/../StdPeriphDriver/CH57x_sys.c:39 (discriminator 3)
            for(i = 0; i < 1200; i++)
            {
                __nop();
2000399e:	0001                	nop
d:\CH573FEVT\LaserRangeFinder\obj/../StdPeriphDriver/CH57x_sys.c:40 (discriminator 3)
                __nop();
200039a0:	0001                	nop
200039a2:	17fd                	addi	a5,a5,-1
d:\CH573FEVT\LaserRangeFinder\obj/../StdPeriphDriver/CH57x_sys.c:37 (discriminator 3)
            for(i = 0; i < 1200; i++)
200039a4:	ffed                	bnez	a5,2000399e <SetSysClock+0x52>
sys_safe_access_enable():
d:/CH573FEVT/LaserRangeFinder/StdPeriphDriver/inc/CH57x_sys.h:178
    R8_SAFE_ACCESS_SIG = SAFE_ACCESS_SIG1;
200039a6:	400017b7          	lui	a5,0x40001
200039aa:	05700693          	li	a3,87
200039ae:	04d78023          	sb	a3,64(a5) # 40001040 <_eusrstack+0x1fff9040>
d:/CH573FEVT/LaserRangeFinder/StdPeriphDriver/inc/CH57x_sys.h:179
    R8_SAFE_ACCESS_SIG = SAFE_ACCESS_SIG2;
200039b2:	fa800713          	li	a4,-88
200039b6:	04e78023          	sb	a4,64(a5)
d:/CH573FEVT/LaserRangeFinder/StdPeriphDriver/inc/CH57x_sys.h:180
    asm volatile("fence.i");
200039ba:	0000100f          	fence.i
SetSysClock():
d:\CH573FEVT\LaserRangeFinder\obj/../StdPeriphDriver/CH57x_sys.c:45
            }
        }

        sys_safe_access_enable();
        R16_CLK_SYS_CFG = (0 << 6) | (sc & 0x1f);
200039be:	897d                	andi	a0,a0,31
200039c0:	00a79423          	sh	a0,8(a5)
d:\CH573FEVT\LaserRangeFinder\obj/../StdPeriphDriver/CH57x_sys.c:46
        __nop();
200039c4:	0001                	nop
d:\CH573FEVT\LaserRangeFinder\obj/../StdPeriphDriver/CH57x_sys.c:47
        __nop();
200039c6:	0001                	nop
d:\CH573FEVT\LaserRangeFinder\obj/../StdPeriphDriver/CH57x_sys.c:48
        __nop();
200039c8:	0001                	nop
d:\CH573FEVT\LaserRangeFinder\obj/../StdPeriphDriver/CH57x_sys.c:49
        __nop();
200039ca:	0001                	nop
sys_safe_access_disable():
d:/CH573FEVT/LaserRangeFinder/StdPeriphDriver/inc/CH57x_sys.h:185
    R8_SAFE_ACCESS_SIG = 0;
200039cc:	04078023          	sb	zero,64(a5)
sys_safe_access_enable():
d:/CH573FEVT/LaserRangeFinder/StdPeriphDriver/inc/CH57x_sys.h:178
    R8_SAFE_ACCESS_SIG = SAFE_ACCESS_SIG1;
200039d0:	04d78023          	sb	a3,64(a5)
d:/CH573FEVT/LaserRangeFinder/StdPeriphDriver/inc/CH57x_sys.h:179
    R8_SAFE_ACCESS_SIG = SAFE_ACCESS_SIG2;
200039d4:	04e78023          	sb	a4,64(a5)
d:/CH573FEVT/LaserRangeFinder/StdPeriphDriver/inc/CH57x_sys.h:180
    asm volatile("fence.i");
200039d8:	0000100f          	fence.i
SetSysClock():
d:\CH573FEVT\LaserRangeFinder\obj/../StdPeriphDriver/CH57x_sys.c:52
        sys_safe_access_disable();
        sys_safe_access_enable();
        R8_FLASH_CFG = 0X51;
200039dc:	40002737          	lui	a4,0x40002
200039e0:	05100693          	li	a3,81
d:\CH573FEVT\LaserRangeFinder\obj/../StdPeriphDriver/CH57x_sys.c:76
        __nop();
        __nop();
        __nop();
        sys_safe_access_disable();
        sys_safe_access_enable();
        R8_FLASH_CFG = 0X53;
200039e4:	80d703a3          	sb	a3,-2041(a4) # 40001807 <_eusrstack+0x1fff9807>
sys_safe_access_disable():
d:/CH573FEVT/LaserRangeFinder/StdPeriphDriver/inc/CH57x_sys.h:185
    R8_SAFE_ACCESS_SIG = 0;
200039e8:	04078023          	sb	zero,64(a5)
SetSysClock():
d:\CH573FEVT\LaserRangeFinder\obj/../StdPeriphDriver/CH57x_sys.c:79
        sys_safe_access_disable();
    }
}
200039ec:	8082                	ret
d:\CH573FEVT\LaserRangeFinder\obj/../StdPeriphDriver/CH57x_sys.c:56
    else if(sc & 0x40)
200039ee:	04057613          	andi	a2,a0,64
200039f2:	de6d                	beqz	a2,200039ec <SetSysClock+0xa0>
d:\CH573FEVT\LaserRangeFinder\obj/../StdPeriphDriver/CH57x_sys.c:58
        if(!(R8_HFCK_PWR_CTRL & RB_CLK_PLL_PON))
200039f4:	00a7c603          	lbu	a2,10(a5)
200039f8:	8a41                	andi	a2,a2,16
200039fa:	e21d                	bnez	a2,20003a20 <SetSysClock+0xd4>
sys_safe_access_enable():
d:/CH573FEVT/LaserRangeFinder/StdPeriphDriver/inc/CH57x_sys.h:178
    R8_SAFE_ACCESS_SIG = SAFE_ACCESS_SIG1;
200039fc:	04d78023          	sb	a3,64(a5)
d:/CH573FEVT/LaserRangeFinder/StdPeriphDriver/inc/CH57x_sys.h:179
    R8_SAFE_ACCESS_SIG = SAFE_ACCESS_SIG2;
20003a00:	04e78023          	sb	a4,64(a5)
d:/CH573FEVT/LaserRangeFinder/StdPeriphDriver/inc/CH57x_sys.h:180
    asm volatile("fence.i");
20003a04:	0000100f          	fence.i
SetSysClock():
d:\CH573FEVT\LaserRangeFinder\obj/../StdPeriphDriver/CH57x_sys.c:61
            R8_HFCK_PWR_CTRL |= RB_CLK_PLL_PON; // PLL power on
20003a08:	00a7c703          	lbu	a4,10(a5)
20003a0c:	01076713          	ori	a4,a4,16
20003a10:	00e78523          	sb	a4,10(a5)
20003a14:	7d000793          	li	a5,2000
d:\CH573FEVT\LaserRangeFinder\obj/../StdPeriphDriver/CH57x_sys.c:64 (discriminator 3)
                __nop();
20003a18:	0001                	nop
d:\CH573FEVT\LaserRangeFinder\obj/../StdPeriphDriver/CH57x_sys.c:65 (discriminator 3)
                __nop();
20003a1a:	0001                	nop
20003a1c:	17fd                	addi	a5,a5,-1
d:\CH573FEVT\LaserRangeFinder\obj/../StdPeriphDriver/CH57x_sys.c:62 (discriminator 3)
            for(i = 0; i < 2000; i++)
20003a1e:	ffed                	bnez	a5,20003a18 <SetSysClock+0xcc>
sys_safe_access_enable():
d:/CH573FEVT/LaserRangeFinder/StdPeriphDriver/inc/CH57x_sys.h:178
    R8_SAFE_ACCESS_SIG = SAFE_ACCESS_SIG1;
20003a20:	400017b7          	lui	a5,0x40001
20003a24:	05700693          	li	a3,87
20003a28:	04d78023          	sb	a3,64(a5) # 40001040 <_eusrstack+0x1fff9040>
d:/CH573FEVT/LaserRangeFinder/StdPeriphDriver/inc/CH57x_sys.h:179
    R8_SAFE_ACCESS_SIG = SAFE_ACCESS_SIG2;
20003a2c:	fa800713          	li	a4,-88
20003a30:	04e78023          	sb	a4,64(a5)
d:/CH573FEVT/LaserRangeFinder/StdPeriphDriver/inc/CH57x_sys.h:180
    asm volatile("fence.i");
20003a34:	0000100f          	fence.i
SetSysClock():
d:\CH573FEVT\LaserRangeFinder\obj/../StdPeriphDriver/CH57x_sys.c:69
        R16_CLK_SYS_CFG = (1 << 6) | (sc & 0x1f);
20003a38:	897d                	andi	a0,a0,31
20003a3a:	04056513          	ori	a0,a0,64
20003a3e:	00a79423          	sh	a0,8(a5)
d:\CH573FEVT\LaserRangeFinder\obj/../StdPeriphDriver/CH57x_sys.c:70
        __nop();
20003a42:	0001                	nop
d:\CH573FEVT\LaserRangeFinder\obj/../StdPeriphDriver/CH57x_sys.c:71
        __nop();
20003a44:	0001                	nop
d:\CH573FEVT\LaserRangeFinder\obj/../StdPeriphDriver/CH57x_sys.c:72
        __nop();
20003a46:	0001                	nop
d:\CH573FEVT\LaserRangeFinder\obj/../StdPeriphDriver/CH57x_sys.c:73
        __nop();
20003a48:	0001                	nop
sys_safe_access_disable():
d:/CH573FEVT/LaserRangeFinder/StdPeriphDriver/inc/CH57x_sys.h:185
    R8_SAFE_ACCESS_SIG = 0;
20003a4a:	04078023          	sb	zero,64(a5)
sys_safe_access_enable():
d:/CH573FEVT/LaserRangeFinder/StdPeriphDriver/inc/CH57x_sys.h:178
    R8_SAFE_ACCESS_SIG = SAFE_ACCESS_SIG1;
20003a4e:	04d78023          	sb	a3,64(a5)
d:/CH573FEVT/LaserRangeFinder/StdPeriphDriver/inc/CH57x_sys.h:179
    R8_SAFE_ACCESS_SIG = SAFE_ACCESS_SIG2;
20003a52:	04e78023          	sb	a4,64(a5)
d:/CH573FEVT/LaserRangeFinder/StdPeriphDriver/inc/CH57x_sys.h:180
    asm volatile("fence.i");
20003a56:	0000100f          	fence.i
SetSysClock():
d:\CH573FEVT\LaserRangeFinder\obj/../StdPeriphDriver/CH57x_sys.c:76
        R8_FLASH_CFG = 0X53;
20003a5a:	40002737          	lui	a4,0x40002
20003a5e:	05300693          	li	a3,83
20003a62:	b749                	j	200039e4 <SetSysClock+0x98>

20003a64 <SYS_ResetExecute>:
SYS_ResetExecute():
d:\CH573FEVT\LaserRangeFinder\obj/../StdPeriphDriver/CH57x_sys.c:141
 *
 * @return  none
 */
__attribute__((section(".highcode")))
void SYS_ResetExecute(void)
{
20003a64:	1141                	addi	sp,sp,-16
d:\CH573FEVT\LaserRangeFinder\obj/../StdPeriphDriver/CH57x_sys.c:142
    FLASH_ROM_SW_RESET();
20003a66:	4681                	li	a3,0
20003a68:	4601                	li	a2,0
20003a6a:	4581                	li	a1,0
20003a6c:	4511                	li	a0,4
d:\CH573FEVT\LaserRangeFinder\obj/../StdPeriphDriver/CH57x_sys.c:141
{
20003a6e:	c606                	sw	ra,12(sp)
d:\CH573FEVT\LaserRangeFinder\obj/../StdPeriphDriver/CH57x_sys.c:142
    FLASH_ROM_SW_RESET();
20003a70:	229d                	jal	20003bd6 <FLASH_EEPROM_CMD>
sys_safe_access_enable():
d:/CH573FEVT/LaserRangeFinder/StdPeriphDriver/inc/CH57x_sys.h:178
    R8_SAFE_ACCESS_SIG = SAFE_ACCESS_SIG1;
20003a72:	400017b7          	lui	a5,0x40001
20003a76:	05700713          	li	a4,87
20003a7a:	04e78023          	sb	a4,64(a5) # 40001040 <_eusrstack+0x1fff9040>
d:/CH573FEVT/LaserRangeFinder/StdPeriphDriver/inc/CH57x_sys.h:179
    R8_SAFE_ACCESS_SIG = SAFE_ACCESS_SIG2;
20003a7e:	fa800713          	li	a4,-88
20003a82:	04e78023          	sb	a4,64(a5)
d:/CH573FEVT/LaserRangeFinder/StdPeriphDriver/inc/CH57x_sys.h:180
    asm volatile("fence.i");
20003a86:	0000100f          	fence.i
SYS_ResetExecute():
d:\CH573FEVT\LaserRangeFinder\obj/../StdPeriphDriver/CH57x_sys.c:144
    sys_safe_access_enable();
    R8_RST_WDOG_CTRL |= RB_SOFTWARE_RESET;
20003a8a:	0467c703          	lbu	a4,70(a5)
20003a8e:	00176713          	ori	a4,a4,1
20003a92:	04e78323          	sb	a4,70(a5)
sys_safe_access_disable():
d:/CH573FEVT/LaserRangeFinder/StdPeriphDriver/inc/CH57x_sys.h:185
    R8_SAFE_ACCESS_SIG = 0;
20003a96:	04078023          	sb	zero,64(a5)
SYS_ResetExecute():
d:\CH573FEVT\LaserRangeFinder\obj/../StdPeriphDriver/CH57x_sys.c:146
    sys_safe_access_disable();
}
20003a9a:	40b2                	lw	ra,12(sp)
20003a9c:	0141                	addi	sp,sp,16
20003a9e:	8082                	ret

20003aa0 <HardFault_Handler>:
HardFault_Handler():
d:\CH573FEVT\LaserRangeFinder\obj/../StdPeriphDriver/CH57x_sys.c:281
__attribute__((interrupt("WCH-Interrupt-fast")))
__attribute__((section(".highcode")))
__attribute__((weak))
void HardFault_Handler(void)
{
    FLASH_ROM_SW_RESET();
20003aa0:	4681                	li	a3,0
20003aa2:	4601                	li	a2,0
20003aa4:	4581                	li	a1,0
20003aa6:	4511                	li	a0,4
20003aa8:	223d                	jal	20003bd6 <FLASH_EEPROM_CMD>
sys_safe_access_enable():
d:/CH573FEVT/LaserRangeFinder/StdPeriphDriver/inc/CH57x_sys.h:178
    R8_SAFE_ACCESS_SIG = SAFE_ACCESS_SIG1;
20003aaa:	400017b7          	lui	a5,0x40001
20003aae:	05700693          	li	a3,87
20003ab2:	04d78023          	sb	a3,64(a5) # 40001040 <_eusrstack+0x1fff9040>
d:/CH573FEVT/LaserRangeFinder/StdPeriphDriver/inc/CH57x_sys.h:179
    R8_SAFE_ACCESS_SIG = SAFE_ACCESS_SIG2;
20003ab6:	fa800713          	li	a4,-88
20003aba:	04e78023          	sb	a4,64(a5)
d:/CH573FEVT/LaserRangeFinder/StdPeriphDriver/inc/CH57x_sys.h:180
    asm volatile("fence.i");
20003abe:	0000100f          	fence.i
HardFault_Handler():
d:\CH573FEVT\LaserRangeFinder\obj/../StdPeriphDriver/CH57x_sys.c:283
    sys_safe_access_enable();
    R16_INT32K_TUNE = 0xFFFF;
20003ac2:	567d                	li	a2,-1
20003ac4:	02c79623          	sh	a2,44(a5)
sys_safe_access_enable():
d:/CH573FEVT/LaserRangeFinder/StdPeriphDriver/inc/CH57x_sys.h:178
    R8_SAFE_ACCESS_SIG = SAFE_ACCESS_SIG1;
20003ac8:	04d78023          	sb	a3,64(a5)
d:/CH573FEVT/LaserRangeFinder/StdPeriphDriver/inc/CH57x_sys.h:179
    R8_SAFE_ACCESS_SIG = SAFE_ACCESS_SIG2;
20003acc:	04e78023          	sb	a4,64(a5)
d:/CH573FEVT/LaserRangeFinder/StdPeriphDriver/inc/CH57x_sys.h:180
    asm volatile("fence.i");
20003ad0:	0000100f          	fence.i
HardFault_Handler():
d:\CH573FEVT\LaserRangeFinder\obj/../StdPeriphDriver/CH57x_sys.c:285
    sys_safe_access_enable();
    R8_RST_WDOG_CTRL |= RB_SOFTWARE_RESET;
20003ad4:	0467c703          	lbu	a4,70(a5)
20003ad8:	00176713          	ori	a4,a4,1
20003adc:	04e78323          	sb	a4,70(a5)
sys_safe_access_disable():
d:/CH573FEVT/LaserRangeFinder/StdPeriphDriver/inc/CH57x_sys.h:185
    R8_SAFE_ACCESS_SIG = 0;
20003ae0:	04078023          	sb	zero,64(a5)
HardFault_Handler():
d:\CH573FEVT\LaserRangeFinder\obj/../StdPeriphDriver/CH57x_sys.c:287 (discriminator 1)
    sys_safe_access_disable();
    while(1);
20003ae4:	a001                	j	20003ae4 <HardFault_Handler+0x44>

20003ae6 <mDelayuS>:
mDelayuS():
d:\CH573FEVT\LaserRangeFinder\obj/../StdPeriphDriver/CH57x_sys.c:304
__attribute__((section(".highcode")))
void mDelayuS(uint16_t t)
{
    uint32_t i;
#if(FREQ_SYS == 60000000)
    i = t * 15;
20003ae6:	47bd                	li	a5,15
20003ae8:	02f50533          	mul	a0,a0,a5
d:\CH573FEVT\LaserRangeFinder\obj/../StdPeriphDriver/CH57x_sys.c:326 (discriminator 1)
#elif(FREQ_SYS == 1000000)
    i = t >> 2;
#endif
    do
    {
        __nop();
20003aec:	0001                	nop
d:\CH573FEVT\LaserRangeFinder\obj/../StdPeriphDriver/CH57x_sys.c:327 (discriminator 1)
    } while(--i);
20003aee:	157d                	addi	a0,a0,-1
20003af0:	fd75                	bnez	a0,20003aec <mDelayuS+0x6>
d:\CH573FEVT\LaserRangeFinder\obj/../StdPeriphDriver/CH57x_sys.c:328
}
20003af2:	8082                	ret

20003af4 <mDelaymS>:
mDelaymS():
d:\CH573FEVT\LaserRangeFinder\obj/../StdPeriphDriver/CH57x_sys.c:341
 *
 * @return  none
 */
__attribute__((section(".highcode")))
void mDelaymS(uint16_t t)
{
20003af4:	1141                	addi	sp,sp,-16
20003af6:	c422                	sw	s0,8(sp)
20003af8:	c226                	sw	s1,4(sp)
20003afa:	c606                	sw	ra,12(sp)
20003afc:	84aa                	mv	s1,a0
d:\CH573FEVT\LaserRangeFinder\obj/../StdPeriphDriver/CH57x_sys.c:344
    uint16_t i;

    for(i = 0; i < t; i++)
20003afe:	4401                	li	s0,0
d:\CH573FEVT\LaserRangeFinder\obj/../StdPeriphDriver/CH57x_sys.c:344 (discriminator 1)
20003b00:	00941763          	bne	s0,s1,20003b0e <mDelaymS+0x1a>
d:\CH573FEVT\LaserRangeFinder\obj/../StdPeriphDriver/CH57x_sys.c:348
    {
        mDelayuS(1000);
    }
}
20003b04:	40b2                	lw	ra,12(sp)
20003b06:	4422                	lw	s0,8(sp)
20003b08:	4492                	lw	s1,4(sp)
20003b0a:	0141                	addi	sp,sp,16
20003b0c:	8082                	ret
d:\CH573FEVT\LaserRangeFinder\obj/../StdPeriphDriver/CH57x_sys.c:344 (discriminator 3)
    for(i = 0; i < t; i++)
20003b0e:	0405                	addi	s0,s0,1
d:\CH573FEVT\LaserRangeFinder\obj/../StdPeriphDriver/CH57x_sys.c:346 (discriminator 3)
        mDelayuS(1000);
20003b10:	3e800513          	li	a0,1000
d:\CH573FEVT\LaserRangeFinder\obj/../StdPeriphDriver/CH57x_sys.c:344 (discriminator 3)
    for(i = 0; i < t; i++)
20003b14:	0442                	slli	s0,s0,0x10
d:\CH573FEVT\LaserRangeFinder\obj/../StdPeriphDriver/CH57x_sys.c:346 (discriminator 3)
        mDelayuS(1000);
20003b16:	3fc1                	jal	20003ae6 <mDelayuS>
d:\CH573FEVT\LaserRangeFinder\obj/../StdPeriphDriver/CH57x_sys.c:344 (discriminator 3)
    for(i = 0; i < t; i++)
20003b18:	8041                	srli	s0,s0,0x10
20003b1a:	b7dd                	j	20003b00 <mDelaymS+0xc>

20003b1c <FLASH_ROM_BEG>:
FLASH_ROM_BEG():
20003b1c:	80040323          	sb	zero,-2042(s0)
20003b20:	4795                	li	a5,5
20003b22:	80f40323          	sb	a5,-2042(s0)
20003b26:	80a40223          	sb	a0,-2044(s0)
20003b2a:	8082                	ret

20003b2c <FLASH_ROM_END>:
FLASH_ROM_END():
20003b2c:	80640783          	lb	a5,-2042(s0)
20003b30:	fe07cee3          	bltz	a5,20003b2c <FLASH_ROM_END>
20003b34:	80040323          	sb	zero,-2042(s0)
20003b38:	8082                	ret

20003b3a <FLASH_ROM_IN>:
FLASH_ROM_IN():
20003b3a:	80640783          	lb	a5,-2042(s0)
20003b3e:	fe07cee3          	bltz	a5,20003b3a <FLASH_ROM_IN>
20003b42:	80444503          	lbu	a0,-2044(s0)
20003b46:	8082                	ret

20003b48 <FLASH_ROM_OUT>:
FLASH_ROM_OUT():
20003b48:	80640783          	lb	a5,-2042(s0)
20003b4c:	fe07cee3          	bltz	a5,20003b48 <FLASH_ROM_OUT>
20003b50:	80a40223          	sb	a0,-2044(s0)
20003b54:	8082                	ret

20003b56 <FLASH_ROM_ADDR>:
FLASH_ROM_ADDR():
20003b56:	1141                	addi	sp,sp,-16
20003b58:	c426                	sw	s1,8(sp)
20003b5a:	c24a                	sw	s2,4(sp)
20003b5c:	c04e                	sw	s3,0(sp)
20003b5e:	c606                	sw	ra,12(sp)
20003b60:	0bf57713          	andi	a4,a0,191
20003b64:	47ad                	li	a5,11
20003b66:	89aa                	mv	s3,a0
20003b68:	892e                	mv	s2,a1
20003b6a:	4495                	li	s1,5
20003b6c:	00f70663          	beq	a4,a5,20003b78 <FLASH_ROM_ADDR+0x22>
20003b70:	4519                	li	a0,6
20003b72:	376d                	jal	20003b1c <FLASH_ROM_BEG>
20003b74:	3f65                	jal	20003b2c <FLASH_ROM_END>
20003b76:	448d                	li	s1,3
20003b78:	854e                	mv	a0,s3
20003b7a:	374d                	jal	20003b1c <FLASH_ROM_BEG>
20003b7c:	59fd                	li	s3,-1
20003b7e:	14fd                	addi	s1,s1,-1
20003b80:	01349863          	bne	s1,s3,20003b90 <FLASH_ROM_ADDR+0x3a>
20003b84:	40b2                	lw	ra,12(sp)
20003b86:	44a2                	lw	s1,8(sp)
20003b88:	4912                	lw	s2,4(sp)
20003b8a:	4982                	lw	s3,0(sp)
20003b8c:	0141                	addi	sp,sp,16
20003b8e:	8082                	ret
20003b90:	01095513          	srli	a0,s2,0x10
20003b94:	0ff57513          	andi	a0,a0,255
20003b98:	3f45                	jal	20003b48 <FLASH_ROM_OUT>
20003b9a:	0922                	slli	s2,s2,0x8
20003b9c:	b7cd                	j	20003b7e <FLASH_ROM_ADDR+0x28>

20003b9e <FLASH_ROM_WAIT>:
FLASH_ROM_WAIT():
20003b9e:	1101                	addi	sp,sp,-32
20003ba0:	cc26                	sw	s1,24(sp)
20003ba2:	ce06                	sw	ra,28(sp)
20003ba4:	000804b7          	lui	s1,0x80
20003ba8:	3751                	jal	20003b2c <FLASH_ROM_END>
20003baa:	4515                	li	a0,5
20003bac:	3f85                	jal	20003b1c <FLASH_ROM_BEG>
20003bae:	3771                	jal	20003b3a <FLASH_ROM_IN>
20003bb0:	3769                	jal	20003b3a <FLASH_ROM_IN>
20003bb2:	c62a                	sw	a0,12(sp)
20003bb4:	3fa5                	jal	20003b2c <FLASH_ROM_END>
20003bb6:	4532                	lw	a0,12(sp)
20003bb8:	00157793          	andi	a5,a0,1
20003bbc:	eb89                	bnez	a5,20003bce <FLASH_ROM_WAIT+0x30>
20003bbe:	00156513          	ori	a0,a0,1
20003bc2:	0ff57513          	andi	a0,a0,255
20003bc6:	40f2                	lw	ra,28(sp)
20003bc8:	44e2                	lw	s1,24(sp)
20003bca:	6105                	addi	sp,sp,32
20003bcc:	8082                	ret
20003bce:	14fd                	addi	s1,s1,-1
20003bd0:	fce9                	bnez	s1,20003baa <FLASH_ROM_WAIT+0xc>
20003bd2:	4501                	li	a0,0
20003bd4:	bfcd                	j	20003bc6 <FLASH_ROM_WAIT+0x28>

20003bd6 <FLASH_EEPROM_CMD>:
FLASH_EEPROM_CMD():
20003bd6:	7139                	addi	sp,sp,-64
20003bd8:	dc26                	sw	s1,56(sp)
20003bda:	da4a                	sw	s2,52(sp)
20003bdc:	d84e                	sw	s3,48(sp)
20003bde:	d652                	sw	s4,44(sp)
20003be0:	d456                	sw	s5,40(sp)
20003be2:	d25a                	sw	s6,36(sp)
20003be4:	d05e                	sw	s7,32(sp)
20003be6:	ce62                	sw	s8,28(sp)
20003be8:	e000e7b7          	lui	a5,0xe000e
20003bec:	de06                	sw	ra,60(sp)
20003bee:	cc66                	sw	s9,24(sp)
20003bf0:	ca6a                	sw	s10,20(sp)
20003bf2:	4741                	li	a4,16
20003bf4:	0407ab83          	lw	s7,64(a5) # e000e040 <_eusrstack+0xc0006040>
20003bf8:	c622                	sw	s0,12(sp)
20003bfa:	c3b8                	sw	a4,64(a5)
20003bfc:	577d                	li	a4,-1
20003bfe:	0007ab03          	lw	s6,0(a5)
20003c02:	0047aa83          	lw	s5,4(a5)
20003c06:	18e7a023          	sw	a4,384(a5)
20003c0a:	18e7a223          	sw	a4,388(a5)
20003c0e:	400017b7          	lui	a5,0x40001
20003c12:	05700713          	li	a4,87
20003c16:	04e78023          	sb	a4,64(a5) # 40001040 <_eusrstack+0x1fff9040>
20003c1a:	fa800713          	li	a4,-88
20003c1e:	04e78023          	sb	a4,64(a5)
20003c22:	0447c783          	lbu	a5,68(a5)
20003c26:	ff750c13          	addi	s8,a0,-9
20003c2a:	84b6                	mv	s1,a3
20003c2c:	07e2                	slli	a5,a5,0x18
20003c2e:	0ffc7c13          	andi	s8,s8,255
20003c32:	4685                	li	a3,1
20003c34:	8a2a                	mv	s4,a0
20003c36:	892e                	mv	s2,a1
20003c38:	89b2                	mv	s3,a2
20003c3a:	40002437          	lui	s0,0x40002
20003c3e:	87e1                	srai	a5,a5,0x18
20003c40:	5701                	li	a4,-32
20003c42:	0186fa63          	bgeu	a3,s8,20003c56 <FLASH_EEPROM_CMD+0x80>
20003c46:	00d50863          	beq	a0,a3,20003c56 <FLASH_EEPROM_CMD+0x80>
20003c4a:	4689                	li	a3,2
20003c4c:	02000713          	li	a4,32
20003c50:	00d51363          	bne	a0,a3,20003c56 <FLASH_EEPROM_CMD+0x80>
20003c54:	5701                	li	a4,-32
20003c56:	8fd9                	or	a5,a5,a4
20003c58:	0ff7f793          	andi	a5,a5,255
20003c5c:	40001d37          	lui	s10,0x40001
20003c60:	04fd0223          	sb	a5,68(s10) # 40001044 <_eusrstack+0x1fff9044>
20003c64:	4711                	li	a4,4
20003c66:	80e40323          	sb	a4,-2042(s0) # 40001806 <_eusrstack+0x1fff9806>
20003c6a:	0ff00513          	li	a0,255
20003c6e:	357d                	jal	20003b1c <FLASH_ROM_BEG>
20003c70:	4c89                	li	s9,2
20003c72:	3d6d                	jal	20003b2c <FLASH_ROM_END>
20003c74:	118ceb63          	bltu	s9,s8,20003d8a <FLASH_EEPROM_CMD+0x1b4>
20003c78:	000707b7          	lui	a5,0x70
20003c7c:	993e                	add	s2,s2,a5
20003c7e:	00078737          	lui	a4,0x78
20003c82:	5579                	li	a0,-2
20003c84:	02e97e63          	bgeu	s2,a4,20003cc0 <FLASH_EEPROM_CMD+0xea>
20003c88:	009907b3          	add	a5,s2,s1
20003c8c:	02f76a63          	bltu	a4,a5,20003cc0 <FLASH_EEPROM_CMD+0xea>
20003c90:	47a9                	li	a5,10
20003c92:	06fa1c63          	bne	s4,a5,20003d0a <FLASH_EEPROM_CMD+0x134>
20003c96:	e489                	bnez	s1,20003ca0 <FLASH_EEPROM_CMD+0xca>
20003c98:	4481                	li	s1,0
20003c9a:	3d49                	jal	20003b2c <FLASH_ROM_END>
20003c9c:	8526                	mv	a0,s1
20003c9e:	a00d                	j	20003cc0 <FLASH_EEPROM_CMD+0xea>
20003ca0:	85ca                	mv	a1,s2
20003ca2:	4509                	li	a0,2
20003ca4:	3d4d                	jal	20003b56 <FLASH_ROM_ADDR>
20003ca6:	0985                	addi	s3,s3,1
20003ca8:	fff9c503          	lbu	a0,-1(s3)
20003cac:	14fd                	addi	s1,s1,-1
20003cae:	0905                	addi	s2,s2,1
20003cb0:	3d61                	jal	20003b48 <FLASH_ROM_OUT>
20003cb2:	c481                	beqz	s1,20003cba <FLASH_EEPROM_CMD+0xe4>
20003cb4:	0ff97793          	andi	a5,s2,255
20003cb8:	f7fd                	bnez	a5,20003ca6 <FLASH_EEPROM_CMD+0xd0>
20003cba:	35d5                	jal	20003b9e <FLASH_ROM_WAIT>
20003cbc:	fd69                	bnez	a0,20003c96 <FLASH_EEPROM_CMD+0xc0>
20003cbe:	557d                	li	a0,-1
20003cc0:	400017b7          	lui	a5,0x40001
20003cc4:	05700713          	li	a4,87
20003cc8:	04e78023          	sb	a4,64(a5) # 40001040 <_eusrstack+0x1fff9040>
20003ccc:	fa800713          	li	a4,-88
20003cd0:	04e78023          	sb	a4,64(a5)
20003cd4:	0447c703          	lbu	a4,68(a5)
20003cd8:	8b41                	andi	a4,a4,16
20003cda:	04e78223          	sb	a4,68(a5)
20003cde:	e000e7b7          	lui	a5,0xe000e
20003ce2:	0577a023          	sw	s7,64(a5) # e000e040 <_eusrstack+0xc0006040>
20003ce6:	50f2                	lw	ra,60(sp)
20003ce8:	1167a023          	sw	s6,256(a5)
20003cec:	1157a223          	sw	s5,260(a5)
20003cf0:	54e2                	lw	s1,56(sp)
20003cf2:	4432                	lw	s0,12(sp)
20003cf4:	5952                	lw	s2,52(sp)
20003cf6:	59c2                	lw	s3,48(sp)
20003cf8:	5a32                	lw	s4,44(sp)
20003cfa:	5aa2                	lw	s5,40(sp)
20003cfc:	5b12                	lw	s6,36(sp)
20003cfe:	5b82                	lw	s7,32(sp)
20003d00:	4c72                	lw	s8,28(sp)
20003d02:	4ce2                	lw	s9,24(sp)
20003d04:	4d52                	lw	s10,20(sp)
20003d06:	6121                	addi	sp,sp,64
20003d08:	8082                	ret
20003d0a:	47a5                	li	a5,9
20003d0c:	06fa1463          	bne	s4,a5,20003d74 <FLASH_EEPROM_CMD+0x19e>
20003d10:	6985                	lui	s3,0x1
20003d12:	0ff00793          	li	a5,255
20003d16:	009786b3          	add	a3,a5,s1
20003d1a:	00f974b3          	and	s1,s2,a5
20003d1e:	94b6                	add	s1,s1,a3
20003d20:	fff7c793          	not	a5,a5
20003d24:	8cfd                	and	s1,s1,a5
20003d26:	0127f933          	and	s2,a5,s2
20003d2a:	6a41                	lui	s4,0x10
20003d2c:	6c05                	lui	s8,0x1
20003d2e:	fff98793          	addi	a5,s3,-1 # fff <TFT_Show_Char+0x85>
20003d32:	0127f7b3          	and	a5,a5,s2
20003d36:	e399                	bnez	a5,20003d3c <FLASH_EEPROM_CMD+0x166>
20003d38:	0134fc63          	bgeu	s1,s3,20003d50 <FLASH_EEPROM_CMD+0x17a>
20003d3c:	0049d993          	srli	s3,s3,0x4
20003d40:	47c1                	li	a5,16
20003d42:	ff37e6e3          	bltu	a5,s3,20003d2e <FLASH_EEPROM_CMD+0x158>
20003d46:	bf89                	j	20003c98 <FLASH_EEPROM_CMD+0xc2>
20003d48:	6785                	lui	a5,0x1
20003d4a:	69c1                	lui	s3,0x10
20003d4c:	17fd                	addi	a5,a5,-1
20003d4e:	b7e1                	j	20003d16 <FLASH_EEPROM_CMD+0x140>
20003d50:	0d800513          	li	a0,216
20003d54:	01498863          	beq	s3,s4,20003d64 <FLASH_EEPROM_CMD+0x18e>
20003d58:	02000513          	li	a0,32
20003d5c:	01898463          	beq	s3,s8,20003d64 <FLASH_EEPROM_CMD+0x18e>
20003d60:	08100513          	li	a0,129
20003d64:	85ca                	mv	a1,s2
20003d66:	3bc5                	jal	20003b56 <FLASH_ROM_ADDR>
20003d68:	3d1d                	jal	20003b9e <FLASH_ROM_WAIT>
20003d6a:	d931                	beqz	a0,20003cbe <FLASH_EEPROM_CMD+0xe8>
20003d6c:	994e                	add	s2,s2,s3
20003d6e:	413484b3          	sub	s1,s1,s3
20003d72:	b7d9                	j	20003d38 <FLASH_EEPROM_CMD+0x162>
20003d74:	85ca                	mv	a1,s2
20003d76:	452d                	li	a0,11
20003d78:	3bf9                	jal	20003b56 <FLASH_ROM_ADDR>
20003d7a:	94ce                	add	s1,s1,s3
20003d7c:	f0998ee3          	beq	s3,s1,20003c98 <FLASH_EEPROM_CMD+0xc2>
20003d80:	0985                	addi	s3,s3,1
20003d82:	3b65                	jal	20003b3a <FLASH_ROM_IN>
20003d84:	fea98fa3          	sb	a0,-1(s3) # ffff <_data_lma+0xc9ef>
20003d88:	bfd5                	j	20003d7c <FLASH_EEPROM_CMD+0x1a6>
20003d8a:	fffa0793          	addi	a5,s4,-1 # ffff <_data_lma+0xc9ef>
20003d8e:	0ff7f793          	andi	a5,a5,255
20003d92:	08fcec63          	bltu	s9,a5,20003e2a <.loop406+0x54>
20003d96:	045d4703          	lbu	a4,69(s10)
20003d9a:	000807b7          	lui	a5,0x80
20003d9e:	02077713          	andi	a4,a4,32
20003da2:	e319                	bnez	a4,20003da8 <FLASH_EEPROM_CMD+0x1d2>
20003da4:	000787b7          	lui	a5,0x78
20003da8:	5579                	li	a0,-2
20003daa:	f0f97be3          	bgeu	s2,a5,20003cc0 <FLASH_EEPROM_CMD+0xea>
20003dae:	00990733          	add	a4,s2,s1
20003db2:	f0e7e7e3          	bltu	a5,a4,20003cc0 <FLASH_EEPROM_CMD+0xea>
20003db6:	4789                	li	a5,2
20003db8:	04fa1063          	bne	s4,a5,20003df8 <.loop406+0x22>
20003dbc:	8089                	srli	s1,s1,0x2
20003dbe:	4a55                	li	s4,21
20003dc0:	ec048ce3          	beqz	s1,20003c98 <FLASH_EEPROM_CMD+0xc2>
20003dc4:	85ca                	mv	a1,s2
20003dc6:	4509                	li	a0,2
20003dc8:	3379                	jal	20003b56 <FLASH_ROM_ADDR>
20003dca:	0991                	addi	s3,s3,4
20003dcc:	ffc9a703          	lw	a4,-4(s3)
20003dd0:	4791                	li	a5,4
20003dd2:	80e42023          	sw	a4,-2048(s0)

20003dd6 <.loop406>:
20003dd6:	80640703          	lb	a4,-2042(s0)
20003dda:	fe074ee3          	bltz	a4,20003dd6 <.loop406>
20003dde:	81440323          	sb	s4,-2042(s0)
20003de2:	17fd                	addi	a5,a5,-1
20003de4:	fbed                	bnez	a5,20003dd6 <.loop406>
20003de6:	14fd                	addi	s1,s1,-1
20003de8:	0911                	addi	s2,s2,4
20003dea:	c481                	beqz	s1,20003df2 <.loop406+0x1c>
20003dec:	0ff97793          	andi	a5,s2,255
20003df0:	ffe9                	bnez	a5,20003dca <FLASH_EEPROM_CMD+0x1f4>
20003df2:	3375                	jal	20003b9e <FLASH_ROM_WAIT>
20003df4:	f571                	bnez	a0,20003dc0 <FLASH_EEPROM_CMD+0x1ea>
20003df6:	b5e1                	j	20003cbe <FLASH_EEPROM_CMD+0xe8>
20003df8:	4785                	li	a5,1
20003dfa:	f4fa07e3          	beq	s4,a5,20003d48 <FLASH_EEPROM_CMD+0x172>
20003dfe:	85ca                	mv	a1,s2
20003e00:	452d                	li	a0,11
20003e02:	3b91                	jal	20003b56 <FLASH_ROM_ADDR>
20003e04:	fff48913          	addi	s2,s1,-1 # 7ffff <_data_lma+0x7c9ef>
20003e08:	e80488e3          	beqz	s1,20003c98 <FLASH_EEPROM_CMD+0xc2>
20003e0c:	333d                	jal	20003b3a <FLASH_ROM_IN>
20003e0e:	00397793          	andi	a5,s2,3
20003e12:	eb91                	bnez	a5,20003e26 <.loop406+0x50>
20003e14:	80042683          	lw	a3,-2048(s0)
20003e18:	0009a703          	lw	a4,0(s3)
20003e1c:	00498793          	addi	a5,s3,4
20003e20:	e6e69de3          	bne	a3,a4,20003c9a <FLASH_EEPROM_CMD+0xc4>
20003e24:	89be                	mv	s3,a5
20003e26:	84ca                	mv	s1,s2
20003e28:	bff1                	j	20003e04 <.loop406+0x2e>
20003e2a:	47b5                	li	a5,13
20003e2c:	00fa1663          	bne	s4,a5,20003e38 <.loop406+0x62>
20003e30:	0b900513          	li	a0,185
20003e34:	31e5                	jal	20003b1c <FLASH_ROM_BEG>
20003e36:	b58d                	j	20003c98 <FLASH_EEPROM_CMD+0xc2>
20003e38:	47b1                	li	a5,12
20003e3a:	0ab00513          	li	a0,171
20003e3e:	fefa0be3          	beq	s4,a5,20003e34 <.loop406+0x5e>
20003e42:	4799                	li	a5,6
20003e44:	02fa1e63          	bne	s4,a5,20003e80 <.loop406+0xaa>
20003e48:	85ca                	mv	a1,s2
20003e4a:	452d                	li	a0,11
20003e4c:	3329                	jal	20003b56 <FLASH_ROM_ADDR>
20003e4e:	4481                	li	s1,0
20003e50:	4c0d                	li	s8,3
20003e52:	4a21                	li	s4,8
20003e54:	31dd                	jal	20003b3a <FLASH_ROM_IN>
20003e56:	01849663          	bne	s1,s8,20003e62 <.loop406+0x8c>
20003e5a:	80042783          	lw	a5,-2048(s0)
20003e5e:	00f9a023          	sw	a5,0(s3)
20003e62:	0485                	addi	s1,s1,1
20003e64:	ff4498e3          	bne	s1,s4,20003e54 <.loop406+0x7e>
20003e68:	80042783          	lw	a5,-2048(s0)
20003e6c:	01291713          	slli	a4,s2,0x12
20003e70:	00075563          	bgez	a4,20003e7a <.loop406+0xa4>
20003e74:	00f99223          	sh	a5,4(s3)
20003e78:	b505                	j	20003c98 <FLASH_EEPROM_CMD+0xc2>
20003e7a:	00f9a223          	sw	a5,4(s3)
20003e7e:	bd29                	j	20003c98 <FLASH_EEPROM_CMD+0xc2>
20003e80:	479d                	li	a5,7
20003e82:	02fa1963          	bne	s4,a5,20003eb4 <.loop406+0xde>
20003e86:	4581                	li	a1,0
20003e88:	04b00513          	li	a0,75
20003e8c:	31e9                	jal	20003b56 <FLASH_ROM_ADDR>
20003e8e:	44bd                	li	s1,15
20003e90:	0009a023          	sw	zero,0(s3)
20003e94:	0009a223          	sw	zero,4(s3)
20003e98:	597d                	li	s2,-1
20003e9a:	3145                	jal	20003b3a <FLASH_ROM_IN>
20003e9c:	0074f793          	andi	a5,s1,7
20003ea0:	97ce                	add	a5,a5,s3
20003ea2:	0007c703          	lbu	a4,0(a5) # 78000 <_data_lma+0x749f0>
20003ea6:	14fd                	addi	s1,s1,-1
20003ea8:	8d39                	xor	a0,a0,a4
20003eaa:	00a78023          	sb	a0,0(a5)
20003eae:	ff2496e3          	bne	s1,s2,20003e9a <.loop406+0xc4>
20003eb2:	b3dd                	j	20003c98 <FLASH_EEPROM_CMD+0xc2>
20003eb4:	47a1                	li	a5,8
20003eb6:	04fa1263          	bne	s4,a5,20003efa <.loop406+0x124>
20003eba:	31d5                	jal	20003b9e <FLASH_ROM_WAIT>
20003ebc:	4481                	li	s1,0
20003ebe:	00090d63          	beqz	s2,20003ed8 <.loop406+0x102>
20003ec2:	478d                	li	a5,3
20003ec4:	03c00493          	li	s1,60
20003ec8:	00f90863          	beq	s2,a5,20003ed8 <.loop406+0x102>
20003ecc:	05000493          	li	s1,80
20003ed0:	01990463          	beq	s2,s9,20003ed8 <.loop406+0x102>
20003ed4:	04400493          	li	s1,68
20003ed8:	07c57513          	andi	a0,a0,124
20003edc:	da950ee3          	beq	a0,s1,20003c98 <FLASH_EEPROM_CMD+0xc2>
20003ee0:	4519                	li	a0,6
20003ee2:	392d                	jal	20003b1c <FLASH_ROM_BEG>
20003ee4:	31a1                	jal	20003b2c <FLASH_ROM_END>
20003ee6:	4505                	li	a0,1
20003ee8:	3915                	jal	20003b1c <FLASH_ROM_BEG>
20003eea:	8526                	mv	a0,s1
20003eec:	39b1                	jal	20003b48 <FLASH_ROM_OUT>
20003eee:	4509                	li	a0,2
20003ef0:	39a1                	jal	20003b48 <FLASH_ROM_OUT>
20003ef2:	3175                	jal	20003b9e <FLASH_ROM_WAIT>
20003ef4:	da0512e3          	bnez	a0,20003c98 <FLASH_EEPROM_CMD+0xc2>
20003ef8:	b3d9                	j	20003cbe <FLASH_EEPROM_CMD+0xe8>
20003efa:	4791                	li	a5,4
20003efc:	00fa1963          	bne	s4,a5,20003f0e <.loop406+0x138>
20003f00:	06600513          	li	a0,102
20003f04:	3921                	jal	20003b1c <FLASH_ROM_BEG>
20003f06:	311d                	jal	20003b2c <FLASH_ROM_END>
20003f08:	09900513          	li	a0,153
20003f0c:	b725                	j	20003e34 <.loop406+0x5e>
20003f0e:	d80a05e3          	beqz	s4,20003c98 <FLASH_EEPROM_CMD+0xc2>
20003f12:	54f1                	li	s1,-4
20003f14:	b359                	j	20003c9a <FLASH_EEPROM_CMD+0xc4>
	...

Disassembly of section .text:

0000071c <handle_reset>:
handle_reset():
d:\CH573FEVT\LaserRangeFinder\obj/../Startup/startup_CH573.S:116
	.weak	handle_reset
	.align	1
handle_reset:
.option push 
.option	norelax 
	la gp, __global_pointer$
     71c:	20004197          	auipc	gp,0x20004
     720:	14418193          	addi	gp,gp,324 # 20004860 <__global_pointer$>
d:\CH573FEVT\LaserRangeFinder\obj/../Startup/startup_CH573.S:119
.option	pop 
1:
	la sp, _eusrstack 
     724:	20008117          	auipc	sp,0x20008
     728:	8dc10113          	addi	sp,sp,-1828 # 20008000 <_eusrstack>
d:\CH573FEVT\LaserRangeFinder\obj/../Startup/startup_CH573.S:123

/* Load highcode code  section from flash to RAM */
2:
    la a0, _highcode_lma
     72c:	00400513          	li	a0,4
d:\CH573FEVT\LaserRangeFinder\obj/../Startup/startup_CH573.S:124
    la a1, _highcode_vma_start
     730:	20003597          	auipc	a1,0x20003
     734:	0d058593          	addi	a1,a1,208 # 20003800 <_highcode_vma_start>
d:\CH573FEVT\LaserRangeFinder\obj/../Startup/startup_CH573.S:125
    la a2, _highcode_vma_end
     738:	20003617          	auipc	a2,0x20003
     73c:	7e060613          	addi	a2,a2,2016 # 20003f18 <_highcode_vma_end>
d:\CH573FEVT\LaserRangeFinder\obj/../Startup/startup_CH573.S:126
    bgeu a1, a2, 2f
     740:	00c5fa63          	bgeu	a1,a2,754 <handle_reset+0x38>
d:\CH573FEVT\LaserRangeFinder\obj/../Startup/startup_CH573.S:128
1:
    lw t0, (a0)
     744:	00052283          	lw	t0,0(a0)
d:\CH573FEVT\LaserRangeFinder\obj/../Startup/startup_CH573.S:129
    sw t0, (a1)
     748:	0055a023          	sw	t0,0(a1)
d:\CH573FEVT\LaserRangeFinder\obj/../Startup/startup_CH573.S:130
    addi a0, a0, 4
     74c:	0511                	addi	a0,a0,4
d:\CH573FEVT\LaserRangeFinder\obj/../Startup/startup_CH573.S:131
    addi a1, a1, 4
     74e:	0591                	addi	a1,a1,4
d:\CH573FEVT\LaserRangeFinder\obj/../Startup/startup_CH573.S:132
    bltu a1, a2, 1b
     750:	fec5eae3          	bltu	a1,a2,744 <handle_reset+0x28>
d:\CH573FEVT\LaserRangeFinder\obj/../Startup/startup_CH573.S:136

/* Load data section from flash to RAM */
2:
	la a0, _data_lma
     754:	00003517          	auipc	a0,0x3
     758:	ebc50513          	addi	a0,a0,-324 # 3610 <_data_lma>
d:\CH573FEVT\LaserRangeFinder\obj/../Startup/startup_CH573.S:137
	la a1, _data_vma
     75c:	20004597          	auipc	a1,0x20004
     760:	8a458593          	addi	a1,a1,-1884 # 20004000 <_data_vma>
d:\CH573FEVT\LaserRangeFinder\obj/../Startup/startup_CH573.S:138
	la a2, _edata
     764:	80818613          	addi	a2,gp,-2040 # 20004068 <_edata>
d:\CH573FEVT\LaserRangeFinder\obj/../Startup/startup_CH573.S:139
	bgeu a1, a2, 2f
     768:	00c5fa63          	bgeu	a1,a2,77c <handle_reset+0x60>
d:\CH573FEVT\LaserRangeFinder\obj/../Startup/startup_CH573.S:141
1:
	lw t0, (a0)
     76c:	00052283          	lw	t0,0(a0)
d:\CH573FEVT\LaserRangeFinder\obj/../Startup/startup_CH573.S:142
	sw t0, (a1)
     770:	0055a023          	sw	t0,0(a1)
d:\CH573FEVT\LaserRangeFinder\obj/../Startup/startup_CH573.S:143
	addi a0, a0, 4
     774:	0511                	addi	a0,a0,4
d:\CH573FEVT\LaserRangeFinder\obj/../Startup/startup_CH573.S:144
	addi a1, a1, 4
     776:	0591                	addi	a1,a1,4
d:\CH573FEVT\LaserRangeFinder\obj/../Startup/startup_CH573.S:145
	bltu a1, a2, 1b
     778:	fec5eae3          	bltu	a1,a2,76c <handle_reset+0x50>
d:\CH573FEVT\LaserRangeFinder\obj/../Startup/startup_CH573.S:148
2:
	/* clear bss section */
	la a0, _sbss
     77c:	80818513          	addi	a0,gp,-2040 # 20004068 <_edata>
d:\CH573FEVT\LaserRangeFinder\obj/../Startup/startup_CH573.S:149
	la a1, _ebss
     780:	85018593          	addi	a1,gp,-1968 # 200040b0 <_ebss>
d:\CH573FEVT\LaserRangeFinder\obj/../Startup/startup_CH573.S:150
	bgeu a0, a1, 2f
     784:	00b57763          	bgeu	a0,a1,792 <handle_reset+0x76>
d:\CH573FEVT\LaserRangeFinder\obj/../Startup/startup_CH573.S:152
1:
	sw zero, (a0)
     788:	00052023          	sw	zero,0(a0)
d:\CH573FEVT\LaserRangeFinder\obj/../Startup/startup_CH573.S:153
	addi a0, a0, 4
     78c:	0511                	addi	a0,a0,4
d:\CH573FEVT\LaserRangeFinder\obj/../Startup/startup_CH573.S:154
	bltu a0, a1, 1b
     78e:	feb56de3          	bltu	a0,a1,788 <handle_reset+0x6c>
d:\CH573FEVT\LaserRangeFinder\obj/../Startup/startup_CH573.S:156
2:
    li t0, 0x88
     792:	08800293          	li	t0,136
d:\CH573FEVT\LaserRangeFinder\obj/../Startup/startup_CH573.S:157
    csrs mstatus, t0
     796:	3002a073          	csrs	mstatus,t0
d:\CH573FEVT\LaserRangeFinder\obj/../Startup/startup_CH573.S:158
	la t0, _vector_base
     79a:	20003297          	auipc	t0,0x20003
     79e:	06628293          	addi	t0,t0,102 # 20003800 <_highcode_vma_start>
d:\CH573FEVT\LaserRangeFinder\obj/../Startup/startup_CH573.S:159
    ori t0, t0, 1
     7a2:	0012e293          	ori	t0,t0,1
d:\CH573FEVT\LaserRangeFinder\obj/../Startup/startup_CH573.S:160
	csrw mtvec, t0
     7a6:	30529073          	csrw	mtvec,t0
d:\CH573FEVT\LaserRangeFinder\obj/../Startup/startup_CH573.S:162

    lui a4,0x40001
     7aa:	40001737          	lui	a4,0x40001
d:\CH573FEVT\LaserRangeFinder\obj/../Startup/startup_CH573.S:163
    li  a5,87
     7ae:	05700793          	li	a5,87
d:\CH573FEVT\LaserRangeFinder\obj/../Startup/startup_CH573.S:164
    sb  a5,64(a4)
     7b2:	04f70023          	sb	a5,64(a4) # 40001040 <_eusrstack+0x1fff9040>
d:\CH573FEVT\LaserRangeFinder\obj/../Startup/startup_CH573.S:165
    li  a5,-88
     7b6:	fa800793          	li	a5,-88
d:\CH573FEVT\LaserRangeFinder\obj/../Startup/startup_CH573.S:166
    sb  a5,64(a4)
     7ba:	04f70023          	sb	a5,64(a4)
d:\CH573FEVT\LaserRangeFinder\obj/../Startup/startup_CH573.S:167
    fence.i
     7be:	0000100f          	fence.i
d:\CH573FEVT\LaserRangeFinder\obj/../Startup/startup_CH573.S:168
    lw  a5,72(a4)
     7c2:	473c                	lw	a5,72(a4)
d:\CH573FEVT\LaserRangeFinder\obj/../Startup/startup_CH573.S:169
    lui a3,0xfa000
     7c4:	fa0006b7          	lui	a3,0xfa000
d:\CH573FEVT\LaserRangeFinder\obj/../Startup/startup_CH573.S:170
    addi  a3,a3,-8
     7c8:	16e1                	addi	a3,a3,-8
d:\CH573FEVT\LaserRangeFinder\obj/../Startup/startup_CH573.S:171
    and a5,a5,a3
     7ca:	8ff5                	and	a5,a5,a3
d:\CH573FEVT\LaserRangeFinder\obj/../Startup/startup_CH573.S:172
    lui a3,0x6000
     7cc:	060006b7          	lui	a3,0x6000
d:\CH573FEVT\LaserRangeFinder\obj/../Startup/startup_CH573.S:173
    addi a3,a3,5
     7d0:	0695                	addi	a3,a3,5
d:\CH573FEVT\LaserRangeFinder\obj/../Startup/startup_CH573.S:174
    or  a5,a5,a3
     7d2:	8fd5                	or	a5,a5,a3
d:\CH573FEVT\LaserRangeFinder\obj/../Startup/startup_CH573.S:175
    sw  a5,72(a4)
     7d4:	c73c                	sw	a5,72(a4)
d:\CH573FEVT\LaserRangeFinder\obj/../Startup/startup_CH573.S:177

	la t0, main
     7d6:	00001297          	auipc	t0,0x1
     7da:	97828293          	addi	t0,t0,-1672 # 114e <main>
d:\CH573FEVT\LaserRangeFinder\obj/../Startup/startup_CH573.S:178
	csrw mepc, t0
     7de:	34129073          	csrw	mepc,t0
d:\CH573FEVT\LaserRangeFinder\obj/../Startup/startup_CH573.S:185
	/* enable vector relocation
	li t0, 0xE000ED14
	li t1, 1
	sw t1, 0(t0)*/
	
	mret
     7e2:	30200073          	mret

000007e6 <memset>:
memset():
     7e6:	433d                	li	t1,15
     7e8:	872a                	mv	a4,a0
     7ea:	02c37363          	bgeu	t1,a2,810 <memset+0x2a>
     7ee:	00f77793          	andi	a5,a4,15
     7f2:	efbd                	bnez	a5,870 <memset+0x8a>
     7f4:	e5ad                	bnez	a1,85e <memset+0x78>
     7f6:	ff067693          	andi	a3,a2,-16
     7fa:	8a3d                	andi	a2,a2,15
     7fc:	96ba                	add	a3,a3,a4
     7fe:	c30c                	sw	a1,0(a4)
     800:	c34c                	sw	a1,4(a4)
     802:	c70c                	sw	a1,8(a4)
     804:	c74c                	sw	a1,12(a4)
     806:	0741                	addi	a4,a4,16
     808:	fed76be3          	bltu	a4,a3,7fe <memset+0x18>
     80c:	e211                	bnez	a2,810 <memset+0x2a>
     80e:	8082                	ret
     810:	40c306b3          	sub	a3,t1,a2
     814:	068a                	slli	a3,a3,0x2
     816:	00000297          	auipc	t0,0x0
     81a:	9696                	add	a3,a3,t0
     81c:	00a68067          	jr	10(a3) # 600000a <_data_lma+0x5ffc9fa>
     820:	00b70723          	sb	a1,14(a4)
     824:	00b706a3          	sb	a1,13(a4)
     828:	00b70623          	sb	a1,12(a4)
     82c:	00b705a3          	sb	a1,11(a4)
     830:	00b70523          	sb	a1,10(a4)
     834:	00b704a3          	sb	a1,9(a4)
     838:	00b70423          	sb	a1,8(a4)
     83c:	00b703a3          	sb	a1,7(a4)
     840:	00b70323          	sb	a1,6(a4)
     844:	00b702a3          	sb	a1,5(a4)
     848:	00b70223          	sb	a1,4(a4)
     84c:	00b701a3          	sb	a1,3(a4)
     850:	00b70123          	sb	a1,2(a4)
     854:	00b700a3          	sb	a1,1(a4)
     858:	00b70023          	sb	a1,0(a4)
     85c:	8082                	ret
     85e:	0ff5f593          	andi	a1,a1,255
     862:	00859693          	slli	a3,a1,0x8
     866:	8dd5                	or	a1,a1,a3
     868:	01059693          	slli	a3,a1,0x10
     86c:	8dd5                	or	a1,a1,a3
     86e:	b761                	j	7f6 <memset+0x10>
     870:	00279693          	slli	a3,a5,0x2
     874:	00000297          	auipc	t0,0x0
     878:	9696                	add	a3,a3,t0
     87a:	8286                	mv	t0,ra
     87c:	fa8680e7          	jalr	-88(a3)
     880:	8096                	mv	ra,t0
     882:	17c1                	addi	a5,a5,-16
     884:	8f1d                	sub	a4,a4,a5
     886:	963e                	add	a2,a2,a5
     888:	f8c374e3          	bgeu	t1,a2,810 <memset+0x2a>
     88c:	b7a5                	j	7f4 <memset+0xe>

0000088e <TFT_Fill_Area>:
TFT_Fill_Area():
d:\CH573FEVT\LaserRangeFinder\obj/../src/TFTc/TFT_CAD.c:75
 * @retval 
 */
void TFT_Fill_Area(TFT_HandleTypeDef *htft, uint16_t x_start, uint16_t y_start, uint16_t x_end, uint16_t y_end, uint16_t color)
{
	// 妫ュэ叉 x_end <= x_start  y_end <= y_start
	if (x_end <= x_start || y_end <= y_start)
     88e:	06d5f463          	bgeu	a1,a3,8f6 <TFT_Fill_Area+0x68>
d:\CH573FEVT\LaserRangeFinder\obj/../src/TFTc/TFT_CAD.c:75 (discriminator 1)
     892:	06e67263          	bgeu	a2,a4,8f6 <TFT_Fill_Area+0x68>
d:\CH573FEVT\LaserRangeFinder\obj/../src/TFTc/TFT_CAD.c:73
{
     896:	1101                	addi	sp,sp,-32
     898:	cc22                	sw	s0,24(sp)
d:\CH573FEVT\LaserRangeFinder\obj/../src/TFTc/TFT_CAD.c:78
		return;

	uint32_t total_pixels = (uint32_t)(x_end - x_start) * (y_end - y_start);
     89a:	40c70833          	sub	a6,a4,a2
     89e:	40b68433          	sub	s0,a3,a1
     8a2:	03040433          	mul	s0,s0,a6
d:\CH573FEVT\LaserRangeFinder\obj/../src/TFTc/TFT_CAD.c:73
{
     8a6:	ce06                	sw	ra,28(sp)
     8a8:	ca26                	sw	s1,20(sp)
     8aa:	c84a                	sw	s2,16(sp)
     8ac:	c64e                	sw	s3,12(sp)
d:\CH573FEVT\LaserRangeFinder\obj/../src/TFTc/TFT_CAD.c:79
	if (total_pixels == 0)
     8ae:	cc0d                	beqz	s0,8e8 <TFT_Fill_Area+0x5a>
d:\CH573FEVT\LaserRangeFinder\obj/../src/TFTc/TFT_CAD.c:82
		return;

	TFT_Set_Address(htft, x_start, y_start, x_end - 1, y_end - 1); // 璁剧疆剧ず (Set_Address 浣跨ㄥ)
     8b0:	177d                	addi	a4,a4,-1
     8b2:	16fd                	addi	a3,a3,-1
     8b4:	0742                	slli	a4,a4,0x10
     8b6:	06c2                	slli	a3,a3,0x10
     8b8:	8341                	srli	a4,a4,0x10
     8ba:	82c1                	srli	a3,a3,0x10
     8bc:	84aa                	mv	s1,a0
     8be:	89be                	mv	s3,a5
     8c0:	600000ef          	jal	ra,ec0 <TFT_Set_Address>
d:\CH573FEVT\LaserRangeFinder\obj/../src/TFTc/TFT_CAD.c:85

	// 缃缂插轰互纭淇浠涓涓骞插缂插哄濮
	TFT_Reset_Buffer(htft);
     8c4:	8526                	mv	a0,s1
     8c6:	29c5                	jal	db6 <TFT_Reset_Buffer>
d:\CH573FEVT\LaserRangeFinder\obj/../src/TFTc/TFT_CAD.c:88

	// 归濉绱锛╃ㄧ插烘楂ц
	for (uint32_t i = 0; i < total_pixels; i++)
     8c8:	4901                	li	s2,0
d:\CH573FEVT\LaserRangeFinder\obj/../src/TFTc/TFT_CAD.c:90
	{
		TFT_Buffer_Write16(htft, color); // ラ叉版扮插猴缂插烘弧朵ㄥ
     8ca:	85ce                	mv	a1,s3
     8cc:	8526                	mv	a0,s1
d:\CH573FEVT\LaserRangeFinder\obj/../src/TFTc/TFT_CAD.c:88
	for (uint32_t i = 0; i < total_pixels; i++)
     8ce:	0905                	addi	s2,s2,1
d:\CH573FEVT\LaserRangeFinder\obj/../src/TFTc/TFT_CAD.c:90
		TFT_Buffer_Write16(htft, color); // ラ叉版扮插猴缂插烘弧朵ㄥ
     8d0:	2169                	jal	d5a <TFT_Buffer_Write16>
d:\CH573FEVT\LaserRangeFinder\obj/../src/TFTc/TFT_CAD.c:88
	for (uint32_t i = 0; i < total_pixels; i++)
     8d2:	ff241ce3          	bne	s0,s2,8ca <TFT_Fill_Area+0x3c>
d:\CH573FEVT\LaserRangeFinder\obj/../src/TFTc/TFT_CAD.c:95
	}

	// 纭淇╀版借
	TFT_Flush_Buffer(htft, 1);
}
     8d6:	4462                	lw	s0,24(sp)
     8d8:	40f2                	lw	ra,28(sp)
     8da:	4942                	lw	s2,16(sp)
     8dc:	49b2                	lw	s3,12(sp)
d:\CH573FEVT\LaserRangeFinder\obj/../src/TFTc/TFT_CAD.c:94
	TFT_Flush_Buffer(htft, 1);
     8de:	8526                	mv	a0,s1
d:\CH573FEVT\LaserRangeFinder\obj/../src/TFTc/TFT_CAD.c:95
}
     8e0:	44d2                	lw	s1,20(sp)
d:\CH573FEVT\LaserRangeFinder\obj/../src/TFTc/TFT_CAD.c:94
	TFT_Flush_Buffer(htft, 1);
     8e2:	4585                	li	a1,1
d:\CH573FEVT\LaserRangeFinder\obj/../src/TFTc/TFT_CAD.c:95
}
     8e4:	6105                	addi	sp,sp,32
d:\CH573FEVT\LaserRangeFinder\obj/../src/TFTc/TFT_CAD.c:94
	TFT_Flush_Buffer(htft, 1);
     8e6:	a1b9                	j	d34 <TFT_Flush_Buffer>
d:\CH573FEVT\LaserRangeFinder\obj/../src/TFTc/TFT_CAD.c:95
}
     8e8:	40f2                	lw	ra,28(sp)
     8ea:	4462                	lw	s0,24(sp)
     8ec:	44d2                	lw	s1,20(sp)
     8ee:	4942                	lw	s2,16(sp)
     8f0:	49b2                	lw	s3,12(sp)
     8f2:	6105                	addi	sp,sp,32
     8f4:	8082                	ret
     8f6:	8082                	ret

000008f8 <TFT_Set_Direction>:
TFT_Set_Direction():
d:\CH573FEVT\LaserRangeFinder\obj/../src/TFTc/TFT_init.c:162
 * @retval 
 * @note   绉TFT灞骞MADCTL璁剧疆戒锛璇锋规版璋
 *         ST7735S绾㈡垮ST7735R榛跨MADCTL璁剧疆棰查『搴涓
 */
static void TFT_Set_Direction(TFT_HandleTypeDef *htft, uint8_t direction)
{
     8f8:	1141                	addi	sp,sp,-16
     8fa:	c226                	sw	s1,4(sp)
     8fc:	84ae                	mv	s1,a1
d:\CH573FEVT\LaserRangeFinder\obj/../src/TFTc/TFT_init.c:163
	TFT_Write_Command(htft, 0x36); // MADCTL - Memory Data Access Control
     8fe:	03600593          	li	a1,54
d:\CH573FEVT\LaserRangeFinder\obj/../src/TFTc/TFT_init.c:162
{
     902:	c422                	sw	s0,8(sp)
     904:	c606                	sw	ra,12(sp)
     906:	842a                	mv	s0,a0
d:\CH573FEVT\LaserRangeFinder\obj/../src/TFTc/TFT_init.c:163
	TFT_Write_Command(htft, 0x36); // MADCTL - Memory Data Access Control
     908:	2341                	jal	e88 <TFT_Write_Command>
d:\CH573FEVT\LaserRangeFinder\obj/../src/TFTc/TFT_init.c:173
	// MX: 板椤哄 (0=浠宸板, 1=浠冲板乏)
	// MV: 琛/浜ゆ (0=姝ｅ父, 1=浜ゆ)
	// ML: 村锋伴『搴 (0=浠涓颁, 1=浠涓颁)
	// RGB: 棰查『搴 (0=RGB, 1=BGR)
	// MH: 姘村钩锋伴『搴 (0=浠宸板, 1=浠冲板乏)
	switch (direction)
     90a:	4785                	li	a5,1
d:\CH573FEVT\LaserRangeFinder\obj/../src/TFTc/TFT_init.c:179
	{
	case 0:							 // 0搴杞
		TFT_Write_Data8(htft, 0x00); // MY=0, MX=0, MV=0, RGB
		break;
	case 1:							 // 90搴杞
		TFT_Write_Data8(htft, 0xA0); // MY=1, MX=0, MV=1, RGB
     90c:	0a000593          	li	a1,160
     910:	00f48f63          	beq	s1,a5,92e <TFT_Set_Direction+0x36>
d:\CH573FEVT\LaserRangeFinder\obj/../src/TFTc/TFT_init.c:176
		TFT_Write_Data8(htft, 0x00); // MY=0, MX=0, MV=0, RGB
     914:	4581                	li	a1,0
     916:	cc81                	beqz	s1,92e <TFT_Set_Direction+0x36>
     918:	4789                	li	a5,2
     91a:	00f48863          	beq	s1,a5,92a <TFT_Set_Direction+0x32>
     91e:	478d                	li	a5,3
     920:	00f49563          	bne	s1,a5,92a <TFT_Set_Direction+0x32>
d:\CH573FEVT\LaserRangeFinder\obj/../src/TFTc/TFT_init.c:185
		break;
	case 2:							 // 180搴杞
		TFT_Write_Data8(htft, 0xC0); // MY=1, MX=1, MV=0, RGB
		break;
	case 3:							 // 270搴杞
		TFT_Write_Data8(htft, 0x60); // MY=0, MX=1, MV=1, RGB
     924:	06000593          	li	a1,96
     928:	a019                	j	92e <TFT_Set_Direction+0x36>
d:\CH573FEVT\LaserRangeFinder\obj/../src/TFTc/TFT_init.c:182
		TFT_Write_Data8(htft, 0xC0); // MY=1, MX=1, MV=0, RGB
     92a:	0c000593          	li	a1,192
d:\CH573FEVT\LaserRangeFinder\obj/../src/TFTc/TFT_init.c:185
		TFT_Write_Data8(htft, 0x60); // MY=0, MX=1, MV=1, RGB
     92e:	8522                	mv	a0,s0
d:\CH573FEVT\LaserRangeFinder\obj/../src/TFTc/TFT_init.c:191
		break;
	default:						 // 榛璁0搴杞
		TFT_Write_Data8(htft, 0xC0); // MY=1, MX=1, MV=0, RGB
		break;
	}
}
     930:	4422                	lw	s0,8(sp)
     932:	40b2                	lw	ra,12(sp)
     934:	4492                	lw	s1,4(sp)
     936:	0141                	addi	sp,sp,16
d:\CH573FEVT\LaserRangeFinder\obj/../src/TFTc/TFT_init.c:185
		TFT_Write_Data8(htft, 0x60); // MY=0, MX=1, MV=1, RGB
     938:	a9f1                	j	e14 <TFT_Write_Data8>

0000093a <TFT_Init_ST7789v3>:
TFT_Init_ST7789v3():
d:\CH573FEVT\LaserRangeFinder\obj/../src/TFTc/TFT_init.c:200
 * @param  htft TFTユ
 * @retval 
 * @note   ㄤST7789v3椹卞ㄧTFT灞骞锛240x240杈ㄧ
 */
void TFT_Init_ST7789v3(TFT_HandleTypeDef *htft)
{
     93a:	1141                	addi	sp,sp,-16
     93c:	c606                	sw	ra,12(sp)
     93e:	c422                	sw	s0,8(sp)
     940:	842a                	mv	s0,a0
d:\CH573FEVT\LaserRangeFinder\obj/../src/TFTc/TFT_init.c:202
	// 1. 濮搴灞IO锛GPIO/SPI绛锛
	TFT_IO_Init(htft);
     942:	29b5                	jal	dbe <TFT_IO_Init>
d:\CH573FEVT\LaserRangeFinder\obj/../src/TFTc/TFT_init.c:205

	// 2. 纭浠跺浣娴绋
	TFT_Pin_RES_Set(htft, 0); // 浣澶浣寮
     944:	4581                	li	a1,0
     946:	8522                	mv	a0,s0
     948:	2ca5                	jal	bc0 <TFT_Pin_RES_Set>
d:\CH573FEVT\LaserRangeFinder\obj/../src/TFTc/TFT_init.c:206
	HAL_Delay(100);			  // 淇100ms浣靛钩
     94a:	06400513          	li	a0,100
     94e:	20003097          	auipc	ra,0x20003
     952:	1a6080e7          	jalr	422(ra) # 20003af4 <mDelaymS>
d:\CH573FEVT\LaserRangeFinder\obj/../src/TFTc/TFT_init.c:207
	TFT_Pin_RES_Set(htft, 1); // 惧浣寮
     956:	4585                	li	a1,1
     958:	8522                	mv	a0,s0
     95a:	249d                	jal	bc0 <TFT_Pin_RES_Set>
d:\CH573FEVT\LaserRangeFinder\obj/../src/TFTc/TFT_init.c:208
	HAL_Delay(100);			  // 绛寰澶浣瀹
     95c:	06400513          	li	a0,100
     960:	20003097          	auipc	ra,0x20003
     964:	194080e7          	jalr	404(ra) # 20003af4 <mDelaymS>
d:\CH573FEVT\LaserRangeFinder\obj/../src/TFTc/TFT_init.c:210

	TFT_Pin_BLK_Set(htft, 1); // 寮
     968:	4585                	li	a1,1
     96a:	8522                	mv	a0,s0
     96c:	2e11                	jal	c80 <TFT_Pin_BLK_Set>
d:\CH573FEVT\LaserRangeFinder\obj/../src/TFTc/TFT_init.c:211
	HAL_Delay(100);			  // 绋冲堕
     96e:	06400513          	li	a0,100
     972:	20003097          	auipc	ra,0x20003
     976:	182080e7          	jalr	386(ra) # 20003af4 <mDelaymS>
d:\CH573FEVT\LaserRangeFinder\obj/../src/TFTc/TFT_init.c:214

	// 3. 杞浠跺浣戒护
	TFT_Write_Command(htft, 0x01); // 杞浠跺浣
     97a:	4585                	li	a1,1
     97c:	8522                	mv	a0,s0
     97e:	2329                	jal	e88 <TFT_Write_Command>
d:\CH573FEVT\LaserRangeFinder\obj/../src/TFTc/TFT_init.c:215
	HAL_Delay(120);				   // 绛寰澶浣瀹
     980:	07800513          	li	a0,120
     984:	20003097          	auipc	ra,0x20003
     988:	170080e7          	jalr	368(ra) # 20003af4 <mDelaymS>
d:\CH573FEVT\LaserRangeFinder\obj/../src/TFTc/TFT_init.c:218

	// 4. 虹＄妯″
	TFT_Write_Command(htft, 0x11); // 虹＄妯″(Sleep OUT)
     98c:	45c5                	li	a1,17
     98e:	8522                	mv	a0,s0
     990:	29e5                	jal	e88 <TFT_Write_Command>
d:\CH573FEVT\LaserRangeFinder\obj/../src/TFTc/TFT_init.c:219
	HAL_Delay(120);				   // 绛寰ら瀹
     992:	07800513          	li	a0,120
     996:	20003097          	auipc	ra,0x20003
     99a:	15e080e7          	jalr	350(ra) # 20003af4 <mDelaymS>
d:\CH573FEVT\LaserRangeFinder\obj/../src/TFTc/TFT_init.c:222

	// 5. 璁剧疆灞骞剧ず瑰
	TFT_Set_Direction(htft, htft->display_direction);
     99e:	02e44583          	lbu	a1,46(s0)
     9a2:	8522                	mv	a0,s0
     9a4:	3f91                	jal	8f8 <TFT_Set_Direction>
d:\CH573FEVT\LaserRangeFinder\obj/../src/TFTc/TFT_init.c:225

	// 6. 璁剧疆绱煎涓16浣RGB565
	TFT_Write_Command(htft, 0x3A); // 绱煎璁剧疆戒护
     9a6:	8522                	mv	a0,s0
     9a8:	03a00593          	li	a1,58
     9ac:	29f1                	jal	e88 <TFT_Write_Command>
d:\CH573FEVT\LaserRangeFinder\obj/../src/TFTc/TFT_init.c:226
	TFT_Write_Data8(htft, 0x05);   // 0x05琛ㄧず16浣/pixel
     9ae:	8522                	mv	a0,s0
     9b0:	4595                	li	a1,5
     9b2:	218d                	jal	e14 <TFT_Write_Data8>
d:\CH573FEVT\LaserRangeFinder\obj/../src/TFTc/TFT_init.c:229

	// 7. 璁剧疆Porchу讹甯у姝ヤ俊凤
	TFT_Write_Command(htft, 0xB2); // Porch璁剧疆戒护
     9b4:	8522                	mv	a0,s0
     9b6:	0b200593          	li	a1,178
     9ba:	21f9                	jal	e88 <TFT_Write_Command>
d:\CH573FEVT\LaserRangeFinder\obj/../src/TFTc/TFT_init.c:230
	TFT_Write_Data8(htft, 0x0C);   // 寤
     9bc:	8522                	mv	a0,s0
     9be:	45b1                	li	a1,12
     9c0:	2991                	jal	e14 <TFT_Write_Data8>
d:\CH573FEVT\LaserRangeFinder\obj/../src/TFTc/TFT_init.c:231
	TFT_Write_Data8(htft, 0x0C);   // 寤
     9c2:	8522                	mv	a0,s0
     9c4:	45b1                	li	a1,12
     9c6:	21b9                	jal	e14 <TFT_Write_Data8>
d:\CH573FEVT\LaserRangeFinder\obj/../src/TFTc/TFT_init.c:232
	TFT_Write_Data8(htft, 0x00);   // 绌洪叉ā寮
     9c8:	8522                	mv	a0,s0
     9ca:	4581                	li	a1,0
     9cc:	21a1                	jal	e14 <TFT_Write_Data8>
d:\CH573FEVT\LaserRangeFinder\obj/../src/TFTc/TFT_init.c:233
	TFT_Write_Data8(htft, 0x33);   // 琛姝
     9ce:	8522                	mv	a0,s0
     9d0:	03300593          	li	a1,51
     9d4:	2181                	jal	e14 <TFT_Write_Data8>
d:\CH573FEVT\LaserRangeFinder\obj/../src/TFTc/TFT_init.c:234
	TFT_Write_Data8(htft, 0x33);   // 甯у姝
     9d6:	8522                	mv	a0,s0
     9d8:	03300593          	li	a1,51
     9dc:	2925                	jal	e14 <TFT_Write_Data8>
d:\CH573FEVT\LaserRangeFinder\obj/../src/TFTc/TFT_init.c:237

	// 8. 璁剧疆Gateу
	TFT_Write_Command(htft, 0xB7); // Gateу跺戒护
     9de:	8522                	mv	a0,s0
     9e0:	0b700593          	li	a1,183
     9e4:	2155                	jal	e88 <TFT_Write_Command>
d:\CH573FEVT\LaserRangeFinder\obj/../src/TFTc/TFT_init.c:238
	TFT_Write_Data8(htft, 0x72);   // 蜂拌版
     9e6:	8522                	mv	a0,s0
     9e8:	07200593          	li	a1,114
     9ec:	2125                	jal	e14 <TFT_Write_Data8>
d:\CH573FEVT\LaserRangeFinder\obj/../src/TFTc/TFT_init.c:241

	// 9. 璁剧疆VCOM靛
	TFT_Write_Command(htft, 0xBB); // VCOM璁剧疆
     9ee:	8522                	mv	a0,s0
     9f0:	0bb00593          	li	a1,187
     9f4:	2951                	jal	e88 <TFT_Write_Command>
d:\CH573FEVT\LaserRangeFinder\obj/../src/TFTc/TFT_init.c:242
	TFT_Write_Data8(htft, 0x3D);   // VCOM靛
     9f6:	8522                	mv	a0,s0
     9f8:	03d00593          	li	a1,61
     9fc:	2921                	jal	e14 <TFT_Write_Data8>
d:\CH573FEVT\LaserRangeFinder\obj/../src/TFTc/TFT_init.c:245

	// 10. 璁剧疆LCMу
	TFT_Write_Command(htft, 0xC0); // LCMу跺戒护
     9fe:	8522                	mv	a0,s0
     a00:	0c000593          	li	a1,192
     a04:	2151                	jal	e88 <TFT_Write_Command>
d:\CH573FEVT\LaserRangeFinder\obj/../src/TFTc/TFT_init.c:246
	TFT_Write_Data8(htft, 0x2C);   // 蜂
     a06:	8522                	mv	a0,s0
     a08:	02c00593          	li	a1,44
     a0c:	2121                	jal	e14 <TFT_Write_Data8>
d:\CH573FEVT\LaserRangeFinder\obj/../src/TFTc/TFT_init.c:249

	// 11. 璁剧疆VDVVRH戒护浣胯
	TFT_Write_Command(htft, 0xC2); // VDV/VRHу
     a0e:	8522                	mv	a0,s0
     a10:	0c200593          	li	a1,194
     a14:	2995                	jal	e88 <TFT_Write_Command>
d:\CH573FEVT\LaserRangeFinder\obj/../src/TFTc/TFT_init.c:250
	TFT_Write_Data8(htft, 0x01);   // 浣胯
     a16:	8522                	mv	a0,s0
     a18:	4585                	li	a1,1
     a1a:	2eed                	jal	e14 <TFT_Write_Data8>
d:\CH573FEVT\LaserRangeFinder\obj/../src/TFTc/TFT_init.c:253

	// 12. 璁剧疆VRH靛
	TFT_Write_Command(htft, 0xC3); // VRH璁剧疆
     a1c:	8522                	mv	a0,s0
     a1e:	0c300593          	li	a1,195
     a22:	219d                	jal	e88 <TFT_Write_Command>
d:\CH573FEVT\LaserRangeFinder\obj/../src/TFTc/TFT_init.c:254
	TFT_Write_Data8(htft, 0x19);   // VRH靛
     a24:	8522                	mv	a0,s0
     a26:	45e5                	li	a1,25
     a28:	26f5                	jal	e14 <TFT_Write_Data8>
d:\CH573FEVT\LaserRangeFinder\obj/../src/TFTc/TFT_init.c:257

	// 13. 璁剧疆VDV靛
	TFT_Write_Command(htft, 0xC4); // VDV璁剧疆
     a2a:	8522                	mv	a0,s0
     a2c:	0c400593          	li	a1,196
     a30:	29a1                	jal	e88 <TFT_Write_Command>
d:\CH573FEVT\LaserRangeFinder\obj/../src/TFTc/TFT_init.c:258
	TFT_Write_Data8(htft, 0x20);   // VDV靛
     a32:	8522                	mv	a0,s0
     a34:	02000593          	li	a1,32
     a38:	2ef1                	jal	e14 <TFT_Write_Data8>
d:\CH573FEVT\LaserRangeFinder\obj/../src/TFTc/TFT_init.c:261

	// 14. 璁剧疆姝ｅ父妯″涓甯ху
	TFT_Write_Command(htft, 0xC6); // 甯ху
     a3a:	8522                	mv	a0,s0
     a3c:	0c600593          	li	a1,198
     a40:	21a1                	jal	e88 <TFT_Write_Command>
d:\CH573FEVT\LaserRangeFinder\obj/../src/TFTc/TFT_init.c:264

	// TFT_Write_Data8(htft, 0x00); // 119Hz锋扮
	TFT_Write_Data8(htft, 0x05); // 90Hz锋扮
     a42:	8522                	mv	a0,s0
     a44:	4595                	li	a1,5
     a46:	26f9                	jal	e14 <TFT_Write_Data8>
d:\CH573FEVT\LaserRangeFinder\obj/../src/TFTc/TFT_init.c:268
	// TFT_Write_Data8(htft, 0x0F);   // 60Hz锋扮

	// 15. 璁剧疆垫у1
	TFT_Write_Command(htft, 0xD0); // 垫у1
     a48:	8522                	mv	a0,s0
     a4a:	0d000593          	li	a1,208
     a4e:	292d                	jal	e88 <TFT_Write_Command>
d:\CH573FEVT\LaserRangeFinder\obj/../src/TFTc/TFT_init.c:269
	TFT_Write_Data8(htft, 0xA4);   // 1
     a50:	8522                	mv	a0,s0
     a52:	0a400593          	li	a1,164
     a56:	2e7d                	jal	e14 <TFT_Write_Data8>
d:\CH573FEVT\LaserRangeFinder\obj/../src/TFTc/TFT_init.c:270
	TFT_Write_Data8(htft, 0xA1);   // 2
     a58:	8522                	mv	a0,s0
     a5a:	0a100593          	li	a1,161
     a5e:	2e5d                	jal	e14 <TFT_Write_Data8>
d:\CH573FEVT\LaserRangeFinder\obj/../src/TFTc/TFT_init.c:273

	// 16. 璁剧疆Gateу2
	TFT_Write_Command(htft, 0xD6); // Gateу2
     a60:	8522                	mv	a0,s0
     a62:	0d600593          	li	a1,214
     a66:	210d                	jal	e88 <TFT_Write_Command>
d:\CH573FEVT\LaserRangeFinder\obj/../src/TFTc/TFT_init.c:274
	TFT_Write_Data8(htft, 0xA1);   // ＄妯″涓Gate杈GND
     a68:	8522                	mv	a0,s0
     a6a:	0a100593          	li	a1,161
     a6e:	265d                	jal	e14 <TFT_Write_Data8>
d:\CH573FEVT\LaserRangeFinder\obj/../src/TFTc/TFT_init.c:277

	// 17. 姝ｆт冀椹℃
	TFT_Write_Command(htft, 0xE0); // 姝ｄ冀椹℃
     a70:	8522                	mv	a0,s0
     a72:	0e000593          	li	a1,224
     a76:	2909                	jal	e88 <TFT_Write_Command>
d:\CH573FEVT\LaserRangeFinder\obj/../src/TFTc/TFT_init.c:278
	TFT_Write_Data8(htft, 0xD0);   // 浼介┈1
     a78:	8522                	mv	a0,s0
     a7a:	0d000593          	li	a1,208
     a7e:	2e59                	jal	e14 <TFT_Write_Data8>
d:\CH573FEVT\LaserRangeFinder\obj/../src/TFTc/TFT_init.c:279
	TFT_Write_Data8(htft, 0x04);   // 浼介┈2
     a80:	8522                	mv	a0,s0
     a82:	4591                	li	a1,4
     a84:	2e41                	jal	e14 <TFT_Write_Data8>
d:\CH573FEVT\LaserRangeFinder\obj/../src/TFTc/TFT_init.c:281
	/* 缁14涓浼介┈℃ｅ */
	TFT_Write_Data8(htft, 0x0D);
     a86:	8522                	mv	a0,s0
     a88:	45b5                	li	a1,13
     a8a:	2669                	jal	e14 <TFT_Write_Data8>
d:\CH573FEVT\LaserRangeFinder\obj/../src/TFTc/TFT_init.c:282
	TFT_Write_Data8(htft, 0x11);
     a8c:	8522                	mv	a0,s0
     a8e:	45c5                	li	a1,17
     a90:	2651                	jal	e14 <TFT_Write_Data8>
d:\CH573FEVT\LaserRangeFinder\obj/../src/TFTc/TFT_init.c:283
	TFT_Write_Data8(htft, 0x13);
     a92:	8522                	mv	a0,s0
     a94:	45cd                	li	a1,19
     a96:	2ebd                	jal	e14 <TFT_Write_Data8>
d:\CH573FEVT\LaserRangeFinder\obj/../src/TFTc/TFT_init.c:284
	TFT_Write_Data8(htft, 0x2B);
     a98:	8522                	mv	a0,s0
     a9a:	02b00593          	li	a1,43
     a9e:	2e9d                	jal	e14 <TFT_Write_Data8>
d:\CH573FEVT\LaserRangeFinder\obj/../src/TFTc/TFT_init.c:285
	TFT_Write_Data8(htft, 0x3F);
     aa0:	8522                	mv	a0,s0
     aa2:	03f00593          	li	a1,63
     aa6:	26bd                	jal	e14 <TFT_Write_Data8>
d:\CH573FEVT\LaserRangeFinder\obj/../src/TFTc/TFT_init.c:286
	TFT_Write_Data8(htft, 0x54);
     aa8:	8522                	mv	a0,s0
     aaa:	05400593          	li	a1,84
     aae:	269d                	jal	e14 <TFT_Write_Data8>
d:\CH573FEVT\LaserRangeFinder\obj/../src/TFTc/TFT_init.c:287
	TFT_Write_Data8(htft, 0x4C);
     ab0:	8522                	mv	a0,s0
     ab2:	04c00593          	li	a1,76
     ab6:	2eb9                	jal	e14 <TFT_Write_Data8>
d:\CH573FEVT\LaserRangeFinder\obj/../src/TFTc/TFT_init.c:288
	TFT_Write_Data8(htft, 0x18);
     ab8:	8522                	mv	a0,s0
     aba:	45e1                	li	a1,24
     abc:	2ea1                	jal	e14 <TFT_Write_Data8>
d:\CH573FEVT\LaserRangeFinder\obj/../src/TFTc/TFT_init.c:289
	TFT_Write_Data8(htft, 0x0D);
     abe:	8522                	mv	a0,s0
     ac0:	45b5                	li	a1,13
     ac2:	2e89                	jal	e14 <TFT_Write_Data8>
d:\CH573FEVT\LaserRangeFinder\obj/../src/TFTc/TFT_init.c:290
	TFT_Write_Data8(htft, 0x0B);
     ac4:	8522                	mv	a0,s0
     ac6:	45ad                	li	a1,11
     ac8:	26b1                	jal	e14 <TFT_Write_Data8>
d:\CH573FEVT\LaserRangeFinder\obj/../src/TFTc/TFT_init.c:291
	TFT_Write_Data8(htft, 0x1F);
     aca:	8522                	mv	a0,s0
     acc:	45fd                	li	a1,31
     ace:	2699                	jal	e14 <TFT_Write_Data8>
d:\CH573FEVT\LaserRangeFinder\obj/../src/TFTc/TFT_init.c:292
	TFT_Write_Data8(htft, 0x23);
     ad0:	8522                	mv	a0,s0
     ad2:	02300593          	li	a1,35
     ad6:	2e3d                	jal	e14 <TFT_Write_Data8>
d:\CH573FEVT\LaserRangeFinder\obj/../src/TFTc/TFT_init.c:295

	// 18. 璐т冀椹℃
	TFT_Write_Command(htft, 0xE1); // 璐浼介┈℃
     ad8:	8522                	mv	a0,s0
     ada:	0e100593          	li	a1,225
     ade:	266d                	jal	e88 <TFT_Write_Command>
d:\CH573FEVT\LaserRangeFinder\obj/../src/TFTc/TFT_init.c:296
	TFT_Write_Data8(htft, 0xD0);   // 浼介┈1
     ae0:	8522                	mv	a0,s0
     ae2:	0d000593          	li	a1,208
     ae6:	263d                	jal	e14 <TFT_Write_Data8>
d:\CH573FEVT\LaserRangeFinder\obj/../src/TFTc/TFT_init.c:297
	TFT_Write_Data8(htft, 0x04);   // 浼介┈2
     ae8:	8522                	mv	a0,s0
     aea:	4591                	li	a1,4
     aec:	2625                	jal	e14 <TFT_Write_Data8>
d:\CH573FEVT\LaserRangeFinder\obj/../src/TFTc/TFT_init.c:299
	/* 缁14涓浼介┈℃ｅ */
	TFT_Write_Data8(htft, 0x0C);
     aee:	8522                	mv	a0,s0
     af0:	45b1                	li	a1,12
     af2:	260d                	jal	e14 <TFT_Write_Data8>
d:\CH573FEVT\LaserRangeFinder\obj/../src/TFTc/TFT_init.c:300
	TFT_Write_Data8(htft, 0x11);
     af4:	8522                	mv	a0,s0
     af6:	45c5                	li	a1,17
     af8:	2e31                	jal	e14 <TFT_Write_Data8>
d:\CH573FEVT\LaserRangeFinder\obj/../src/TFTc/TFT_init.c:301
	TFT_Write_Data8(htft, 0x13);
     afa:	8522                	mv	a0,s0
     afc:	45cd                	li	a1,19
     afe:	2e19                	jal	e14 <TFT_Write_Data8>
d:\CH573FEVT\LaserRangeFinder\obj/../src/TFTc/TFT_init.c:302
	TFT_Write_Data8(htft, 0x2C);
     b00:	8522                	mv	a0,s0
     b02:	02c00593          	li	a1,44
     b06:	2639                	jal	e14 <TFT_Write_Data8>
d:\CH573FEVT\LaserRangeFinder\obj/../src/TFTc/TFT_init.c:303
	TFT_Write_Data8(htft, 0x3F);
     b08:	8522                	mv	a0,s0
     b0a:	03f00593          	li	a1,63
     b0e:	2619                	jal	e14 <TFT_Write_Data8>
d:\CH573FEVT\LaserRangeFinder\obj/../src/TFTc/TFT_init.c:304
	TFT_Write_Data8(htft, 0x44);
     b10:	8522                	mv	a0,s0
     b12:	04400593          	li	a1,68
     b16:	2cfd                	jal	e14 <TFT_Write_Data8>
d:\CH573FEVT\LaserRangeFinder\obj/../src/TFTc/TFT_init.c:305
	TFT_Write_Data8(htft, 0x51);
     b18:	8522                	mv	a0,s0
     b1a:	05100593          	li	a1,81
     b1e:	2cdd                	jal	e14 <TFT_Write_Data8>
d:\CH573FEVT\LaserRangeFinder\obj/../src/TFTc/TFT_init.c:306
	TFT_Write_Data8(htft, 0x2F);
     b20:	8522                	mv	a0,s0
     b22:	02f00593          	li	a1,47
     b26:	24fd                	jal	e14 <TFT_Write_Data8>
d:\CH573FEVT\LaserRangeFinder\obj/../src/TFTc/TFT_init.c:307
	TFT_Write_Data8(htft, 0x1F);
     b28:	8522                	mv	a0,s0
     b2a:	45fd                	li	a1,31
     b2c:	24e5                	jal	e14 <TFT_Write_Data8>
d:\CH573FEVT\LaserRangeFinder\obj/../src/TFTc/TFT_init.c:308
	TFT_Write_Data8(htft, 0x1F);
     b2e:	8522                	mv	a0,s0
     b30:	45fd                	li	a1,31
     b32:	24cd                	jal	e14 <TFT_Write_Data8>
d:\CH573FEVT\LaserRangeFinder\obj/../src/TFTc/TFT_init.c:309
	TFT_Write_Data8(htft, 0x20);
     b34:	8522                	mv	a0,s0
     b36:	02000593          	li	a1,32
     b3a:	2ce9                	jal	e14 <TFT_Write_Data8>
d:\CH573FEVT\LaserRangeFinder\obj/../src/TFTc/TFT_init.c:310
	TFT_Write_Data8(htft, 0x23);
     b3c:	8522                	mv	a0,s0
     b3e:	02300593          	li	a1,35
     b42:	2cc9                	jal	e14 <TFT_Write_Data8>
d:\CH573FEVT\LaserRangeFinder\obj/../src/TFTc/TFT_init.c:313

	// 19. 寮剧ず杞锛锛
	TFT_Write_Command(htft, 0x21); // 剧ず杞ON
     b44:	8522                	mv	a0,s0
     b46:	02100593          	li	a1,33
     b4a:	2e3d                	jal	e88 <TFT_Write_Command>
d:\CH573FEVT\LaserRangeFinder\obj/../src/TFTc/TFT_init.c:316

	// 20. 寮剧ず
	TFT_Write_Command(htft, 0x29); // 剧ずON
     b4c:	8522                	mv	a0,s0
     b4e:	02900593          	li	a1,41
     b52:	2e1d                	jal	e88 <TFT_Write_Command>
d:\CH573FEVT\LaserRangeFinder\obj/../src/TFTc/TFT_init.c:318
	HAL_Delay(20);				   // 绛寰剧ず绋冲
}
     b54:	4422                	lw	s0,8(sp)
     b56:	40b2                	lw	ra,12(sp)
d:\CH573FEVT\LaserRangeFinder\obj/../src/TFTc/TFT_init.c:317
	HAL_Delay(20);				   // 绛寰剧ず绋冲
     b58:	4551                	li	a0,20
d:\CH573FEVT\LaserRangeFinder\obj/../src/TFTc/TFT_init.c:318
}
     b5a:	0141                	addi	sp,sp,16
d:\CH573FEVT\LaserRangeFinder\obj/../src/TFTc/TFT_init.c:317
	HAL_Delay(20);				   // 绛寰剧ず绋冲
     b5c:	20003317          	auipc	t1,0x20003
     b60:	f9830067          	jr	-104(t1) # 20003af4 <mDelaymS>

00000b64 <TFT_Wait_DMA_Transfer_Complete>:
TFT_Wait_DMA_Transfer_Complete():
d:\CH573FEVT\LaserRangeFinder\obj/../src/TFTc/TFT_io.c:458
 * @retval 
 * @note   浠 DMA 妯″涓涓 DMA 浼杈姝ｅㄨ琛堕诲
 */
static void TFT_Wait_DMA_Transfer_Complete(TFT_HandleTypeDef *htft)
{
	if (htft == NULL)
     b64:	c909                	beqz	a0,b76 <TFT_Wait_DMA_Transfer_Complete+0x12>
d:\CH573FEVT\LaserRangeFinder\obj/../src/TFTc/TFT_io.c:462
		return;

	// 浠褰 DMA 琚ㄤ褰娲诲ㄧ DMA 浼杈舵瑕绛寰
	if (htft->is_dma_enabled)
     b66:	02c54783          	lbu	a5,44(a0)
     b6a:	c791                	beqz	a5,b76 <TFT_Wait_DMA_Transfer_Complete+0x12>
d:\CH573FEVT\LaserRangeFinder\obj/../src/TFTc/TFT_io.c:464 (discriminator 1)
	{
		while (htft->is_dma_transfer_active)
     b6c:	02d54783          	lbu	a5,45(a0)
     b70:	0ff7f793          	andi	a5,a5,255
     b74:	bfdd                	j	b6a <TFT_Wait_DMA_Transfer_Complete+0x6>
d:\CH573FEVT\LaserRangeFinder\obj/../src/TFTc/TFT_io.c:472
			// 渚濡: osSemaphoreWait(spiDmaSemaphore, osWaitForever);
			// 浣跨 __WFI() 浠よ CPU 杩ヤ妯″绛寰涓
		}
	}
	// 濡 DMA ㄦ娌℃娲诲ㄧ浼杈锛姝ゅ芥扮宠
}
     b76:	8082                	ret

00000b78 <TFT_Init_Instance>:
TFT_Init_Instance():
d:\CH573FEVT\LaserRangeFinder\obj/../src/TFTc/TFT_io.c:45
	htft->buffer_size = TFT_BUFFER_SIZE;
     b78:	6785                	lui	a5,0x1
     b7a:	80078793          	addi	a5,a5,-2048 # 800 <memset+0x1a>
     b7e:	d51c                	sw	a5,40(a0)
d:\CH573FEVT\LaserRangeFinder\obj/../src/TFTc/TFT_io.c:50
	htft->display_direction = DISPLAY_DIRECTION;
     b80:	20000793          	li	a5,512
     b84:	02f51723          	sh	a5,46(a0)
d:\CH573FEVT\LaserRangeFinder\obj/../src/TFTc/TFT_io.c:52
	htft->y_offset = TFT_Y_OFFSET;
     b88:	4785                	li	a5,1
d:\CH573FEVT\LaserRangeFinder\obj/../src/TFTc/TFT_io.c:40
	htft->spi_handle = hspi;
     b8a:	c10c                	sw	a1,0(a0)
d:\CH573FEVT\LaserRangeFinder\obj/../src/TFTc/TFT_io.c:41
	htft->cs_port = cs_port;
     b8c:	00c50223          	sb	a2,4(a0)
d:\CH573FEVT\LaserRangeFinder\obj/../src/TFTc/TFT_io.c:42
	htft->cs_pin = cs_pin;
     b90:	c514                	sw	a3,8(a0)
d:\CH573FEVT\LaserRangeFinder\obj/../src/TFTc/TFT_io.c:47
	htft->tx_buffer = NULL; // 缁浼瀛
     b92:	02052223          	sw	zero,36(a0)
d:\CH573FEVT\LaserRangeFinder\obj/../src/TFTc/TFT_io.c:52
	htft->y_offset = TFT_Y_OFFSET;
     b96:	02f50823          	sb	a5,48(a0)
d:\CH573FEVT\LaserRangeFinder\obj/../src/TFTc/TFT_io.c:53
}
     b9a:	8082                	ret

00000b9c <TFT_Config_Pins>:
TFT_Config_Pins():
d:\CH573FEVT\LaserRangeFinder\obj/../src/TFTc/TFT_io.c:71
	htft->dc_port = dc_port;
     b9c:	00b50623          	sb	a1,12(a0)
d:\CH573FEVT\LaserRangeFinder\obj/../src/TFTc/TFT_io.c:72
	htft->dc_pin = dc_pin;
     ba0:	c910                	sw	a2,16(a0)
d:\CH573FEVT\LaserRangeFinder\obj/../src/TFTc/TFT_io.c:73
	htft->res_port = res_port;
     ba2:	00d50a23          	sb	a3,20(a0)
d:\CH573FEVT\LaserRangeFinder\obj/../src/TFTc/TFT_io.c:74
	htft->res_pin = res_pin;
     ba6:	cd18                	sw	a4,24(a0)
d:\CH573FEVT\LaserRangeFinder\obj/../src/TFTc/TFT_io.c:75
	htft->bl_port = bl_port;
     ba8:	00f50e23          	sb	a5,28(a0)
d:\CH573FEVT\LaserRangeFinder\obj/../src/TFTc/TFT_io.c:76
	htft->bl_pin = bl_pin;
     bac:	03052023          	sw	a6,32(a0)
d:\CH573FEVT\LaserRangeFinder\obj/../src/TFTc/TFT_io.c:77
}
     bb0:	8082                	ret

00000bb2 <TFT_Config_Display>:
TFT_Config_Display():
d:\CH573FEVT\LaserRangeFinder\obj/../src/TFTc/TFT_io.c:91
	htft->display_direction = display_direction;
     bb2:	02b50723          	sb	a1,46(a0)
d:\CH573FEVT\LaserRangeFinder\obj/../src/TFTc/TFT_io.c:92
	htft->x_offset = x_offset;
     bb6:	02c507a3          	sb	a2,47(a0)
d:\CH573FEVT\LaserRangeFinder\obj/../src/TFTc/TFT_io.c:93
	htft->y_offset = y_offset;
     bba:	02d50823          	sb	a3,48(a0)
d:\CH573FEVT\LaserRangeFinder\obj/../src/TFTc/TFT_io.c:94
}
     bbe:	8082                	ret

00000bc0 <TFT_Pin_RES_Set>:
TFT_Pin_RES_Set():
d:\CH573FEVT\LaserRangeFinder\obj/../src/TFTc/TFT_io.c:128
	if (htft->res_port == 0)
     bc0:	01454703          	lbu	a4,20(a0)
     bc4:	4d1c                	lw	a5,24(a0)
d:\CH573FEVT\LaserRangeFinder\obj/../src/TFTc/TFT_io.c:131
			GPIOA_SetBits(htft->res_pin);
     bc6:	400016b7          	lui	a3,0x40001
d:\CH573FEVT\LaserRangeFinder\obj/../src/TFTc/TFT_io.c:128
	if (htft->res_port == 0)
     bca:	ef11                	bnez	a4,be6 <TFT_Pin_RES_Set+0x26>
d:\CH573FEVT\LaserRangeFinder\obj/../src/TFTc/TFT_io.c:130
		if (level)
     bcc:	c599                	beqz	a1,bda <TFT_Pin_RES_Set+0x1a>
d:\CH573FEVT\LaserRangeFinder\obj/../src/TFTc/TFT_io.c:131
			GPIOA_SetBits(htft->res_pin);
     bce:	0a86a703          	lw	a4,168(a3) # 400010a8 <_eusrstack+0x1fff90a8>
     bd2:	8fd9                	or	a5,a5,a4
     bd4:	0af6a423          	sw	a5,168(a3)
     bd8:	8082                	ret
d:\CH573FEVT\LaserRangeFinder\obj/../src/TFTc/TFT_io.c:133
			GPIOA_ResetBits(htft->res_pin);
     bda:	0ac6a703          	lw	a4,172(a3)
     bde:	8fd9                	or	a5,a5,a4
     be0:	0af6a623          	sw	a5,172(a3)
     be4:	8082                	ret
d:\CH573FEVT\LaserRangeFinder\obj/../src/TFTc/TFT_io.c:137
		if (level)
     be6:	c599                	beqz	a1,bf4 <TFT_Pin_RES_Set+0x34>
d:\CH573FEVT\LaserRangeFinder\obj/../src/TFTc/TFT_io.c:138
			GPIOB_SetBits(htft->res_pin);
     be8:	0c86a703          	lw	a4,200(a3)
     bec:	8fd9                	or	a5,a5,a4
     bee:	0cf6a423          	sw	a5,200(a3)
     bf2:	8082                	ret
d:\CH573FEVT\LaserRangeFinder\obj/../src/TFTc/TFT_io.c:140
			GPIOB_ResetBits(htft->res_pin);
     bf4:	0cc6a703          	lw	a4,204(a3)
     bf8:	8fd9                	or	a5,a5,a4
     bfa:	0cf6a623          	sw	a5,204(a3)
d:\CH573FEVT\LaserRangeFinder\obj/../src/TFTc/TFT_io.c:148
}
     bfe:	8082                	ret

00000c00 <TFT_Pin_DC_Set>:
TFT_Pin_DC_Set():
d:\CH573FEVT\LaserRangeFinder\obj/../src/TFTc/TFT_io.c:160
	if (htft->dc_port == 0)
     c00:	00c54703          	lbu	a4,12(a0)
     c04:	491c                	lw	a5,16(a0)
d:\CH573FEVT\LaserRangeFinder\obj/../src/TFTc/TFT_io.c:163
			GPIOA_SetBits(htft->dc_pin);
     c06:	400016b7          	lui	a3,0x40001
d:\CH573FEVT\LaserRangeFinder\obj/../src/TFTc/TFT_io.c:160
	if (htft->dc_port == 0)
     c0a:	ef11                	bnez	a4,c26 <TFT_Pin_DC_Set+0x26>
d:\CH573FEVT\LaserRangeFinder\obj/../src/TFTc/TFT_io.c:162
		if (level)
     c0c:	c599                	beqz	a1,c1a <TFT_Pin_DC_Set+0x1a>
d:\CH573FEVT\LaserRangeFinder\obj/../src/TFTc/TFT_io.c:163
			GPIOA_SetBits(htft->dc_pin);
     c0e:	0a86a703          	lw	a4,168(a3) # 400010a8 <_eusrstack+0x1fff90a8>
     c12:	8fd9                	or	a5,a5,a4
     c14:	0af6a423          	sw	a5,168(a3)
     c18:	8082                	ret
d:\CH573FEVT\LaserRangeFinder\obj/../src/TFTc/TFT_io.c:165
			GPIOA_ResetBits(htft->dc_pin);
     c1a:	0ac6a703          	lw	a4,172(a3)
     c1e:	8fd9                	or	a5,a5,a4
     c20:	0af6a623          	sw	a5,172(a3)
     c24:	8082                	ret
d:\CH573FEVT\LaserRangeFinder\obj/../src/TFTc/TFT_io.c:169
		if (level)
     c26:	c599                	beqz	a1,c34 <TFT_Pin_DC_Set+0x34>
d:\CH573FEVT\LaserRangeFinder\obj/../src/TFTc/TFT_io.c:170
			GPIOB_SetBits(htft->dc_pin);
     c28:	0c86a703          	lw	a4,200(a3)
     c2c:	8fd9                	or	a5,a5,a4
     c2e:	0cf6a423          	sw	a5,200(a3)
     c32:	8082                	ret
d:\CH573FEVT\LaserRangeFinder\obj/../src/TFTc/TFT_io.c:172
			GPIOB_ResetBits(htft->dc_pin);
     c34:	0cc6a703          	lw	a4,204(a3)
     c38:	8fd9                	or	a5,a5,a4
     c3a:	0cf6a623          	sw	a5,204(a3)
d:\CH573FEVT\LaserRangeFinder\obj/../src/TFTc/TFT_io.c:180
}
     c3e:	8082                	ret

00000c40 <TFT_Pin_CS_Set>:
TFT_Pin_CS_Set():
d:\CH573FEVT\LaserRangeFinder\obj/../src/TFTc/TFT_io.c:192
	if (htft->cs_port == 0)
     c40:	00454703          	lbu	a4,4(a0)
     c44:	451c                	lw	a5,8(a0)
d:\CH573FEVT\LaserRangeFinder\obj/../src/TFTc/TFT_io.c:195
			GPIOA_SetBits(htft->cs_pin);
     c46:	400016b7          	lui	a3,0x40001
d:\CH573FEVT\LaserRangeFinder\obj/../src/TFTc/TFT_io.c:192
	if (htft->cs_port == 0)
     c4a:	ef11                	bnez	a4,c66 <TFT_Pin_CS_Set+0x26>
d:\CH573FEVT\LaserRangeFinder\obj/../src/TFTc/TFT_io.c:194
		if (level)
     c4c:	c599                	beqz	a1,c5a <TFT_Pin_CS_Set+0x1a>
d:\CH573FEVT\LaserRangeFinder\obj/../src/TFTc/TFT_io.c:195
			GPIOA_SetBits(htft->cs_pin);
     c4e:	0a86a703          	lw	a4,168(a3) # 400010a8 <_eusrstack+0x1fff90a8>
     c52:	8fd9                	or	a5,a5,a4
     c54:	0af6a423          	sw	a5,168(a3)
     c58:	8082                	ret
d:\CH573FEVT\LaserRangeFinder\obj/../src/TFTc/TFT_io.c:197
			GPIOA_ResetBits(htft->cs_pin);
     c5a:	0ac6a703          	lw	a4,172(a3)
     c5e:	8fd9                	or	a5,a5,a4
     c60:	0af6a623          	sw	a5,172(a3)
     c64:	8082                	ret
d:\CH573FEVT\LaserRangeFinder\obj/../src/TFTc/TFT_io.c:201
		if (level)
     c66:	c599                	beqz	a1,c74 <TFT_Pin_CS_Set+0x34>
d:\CH573FEVT\LaserRangeFinder\obj/../src/TFTc/TFT_io.c:202
			GPIOB_SetBits(htft->cs_pin);
     c68:	0c86a703          	lw	a4,200(a3)
     c6c:	8fd9                	or	a5,a5,a4
     c6e:	0cf6a423          	sw	a5,200(a3)
     c72:	8082                	ret
d:\CH573FEVT\LaserRangeFinder\obj/../src/TFTc/TFT_io.c:204
			GPIOB_ResetBits(htft->cs_pin);
     c74:	0cc6a703          	lw	a4,204(a3)
     c78:	8fd9                	or	a5,a5,a4
     c7a:	0cf6a623          	sw	a5,204(a3)
d:\CH573FEVT\LaserRangeFinder\obj/../src/TFTc/TFT_io.c:212
}
     c7e:	8082                	ret

00000c80 <TFT_Pin_BLK_Set>:
TFT_Pin_BLK_Set():
d:\CH573FEVT\LaserRangeFinder\obj/../src/TFTc/TFT_io.c:225
	if (htft->bl_port == 0)
     c80:	01c54703          	lbu	a4,28(a0)
     c84:	511c                	lw	a5,32(a0)
d:\CH573FEVT\LaserRangeFinder\obj/../src/TFTc/TFT_io.c:228
			GPIOA_SetBits(htft->bl_pin);
     c86:	400016b7          	lui	a3,0x40001
d:\CH573FEVT\LaserRangeFinder\obj/../src/TFTc/TFT_io.c:225
	if (htft->bl_port == 0)
     c8a:	ef11                	bnez	a4,ca6 <TFT_Pin_BLK_Set+0x26>
d:\CH573FEVT\LaserRangeFinder\obj/../src/TFTc/TFT_io.c:227
		if (level)
     c8c:	c599                	beqz	a1,c9a <TFT_Pin_BLK_Set+0x1a>
d:\CH573FEVT\LaserRangeFinder\obj/../src/TFTc/TFT_io.c:228
			GPIOA_SetBits(htft->bl_pin);
     c8e:	0a86a703          	lw	a4,168(a3) # 400010a8 <_eusrstack+0x1fff90a8>
     c92:	8fd9                	or	a5,a5,a4
     c94:	0af6a423          	sw	a5,168(a3)
     c98:	8082                	ret
d:\CH573FEVT\LaserRangeFinder\obj/../src/TFTc/TFT_io.c:230
			GPIOA_ResetBits(htft->bl_pin);
     c9a:	0ac6a703          	lw	a4,172(a3)
     c9e:	8fd9                	or	a5,a5,a4
     ca0:	0af6a623          	sw	a5,172(a3)
     ca4:	8082                	ret
d:\CH573FEVT\LaserRangeFinder\obj/../src/TFTc/TFT_io.c:234
		if (level)
     ca6:	c599                	beqz	a1,cb4 <TFT_Pin_BLK_Set+0x34>
d:\CH573FEVT\LaserRangeFinder\obj/../src/TFTc/TFT_io.c:235
			GPIOB_SetBits(htft->bl_pin);
     ca8:	0c86a703          	lw	a4,200(a3)
     cac:	8fd9                	or	a5,a5,a4
     cae:	0cf6a423          	sw	a5,200(a3)
     cb2:	8082                	ret
d:\CH573FEVT\LaserRangeFinder\obj/../src/TFTc/TFT_io.c:237
			GPIOB_ResetBits(htft->bl_pin);
     cb4:	0cc6a703          	lw	a4,204(a3)
     cb8:	8fd9                	or	a5,a5,a4
     cba:	0cf6a623          	sw	a5,204(a3)
d:\CH573FEVT\LaserRangeFinder\obj/../src/TFTc/TFT_io.c:245
}
     cbe:	8082                	ret

00000cc0 <TFT_SPI_Send>:
TFT_SPI_Send():
d:\CH573FEVT\LaserRangeFinder\obj/../src/TFTc/TFT_io.c:311
	if (htft == NULL || htft->spi_handle == NULL || length == 0 || data_buffer == NULL)
     cc0:	c92d                	beqz	a0,d32 <TFT_SPI_Send+0x72>
d:\CH573FEVT\LaserRangeFinder\obj/../src/TFTc/TFT_io.c:311 (discriminator 1)
     cc2:	411c                	lw	a5,0(a0)
d:\CH573FEVT\LaserRangeFinder\obj/../src/TFTc/TFT_io.c:310 (discriminator 1)
{
     cc4:	1101                	addi	sp,sp,-32
     cc6:	cc22                	sw	s0,24(sp)
     cc8:	ce06                	sw	ra,28(sp)
     cca:	ca26                	sw	s1,20(sp)
     ccc:	c84a                	sw	s2,16(sp)
     cce:	c64e                	sw	s3,12(sp)
     cd0:	842a                	mv	s0,a0
d:\CH573FEVT\LaserRangeFinder\obj/../src/TFTc/TFT_io.c:311 (discriminator 1)
	if (htft == NULL || htft->spi_handle == NULL || length == 0 || data_buffer == NULL)
     cd2:	cba9                	beqz	a5,d24 <TFT_SPI_Send+0x64>
d:\CH573FEVT\LaserRangeFinder\obj/../src/TFTc/TFT_io.c:311 (discriminator 2)
     cd4:	ca21                	beqz	a2,d24 <TFT_SPI_Send+0x64>
d:\CH573FEVT\LaserRangeFinder\obj/../src/TFTc/TFT_io.c:311 (discriminator 3)
     cd6:	c5b9                	beqz	a1,d24 <TFT_SPI_Send+0x64>
     cd8:	89b6                	mv	s3,a3
     cda:	8932                	mv	s2,a2
     cdc:	84ae                	mv	s1,a1
d:\CH573FEVT\LaserRangeFinder\obj/../src/TFTc/TFT_io.c:314
	TFT_Wait_DMA_Transfer_Complete(htft); // 纭淇涓涓娆 DMA 浼杈 (濡) 宸插
     cde:	3559                	jal	b64 <TFT_Wait_DMA_Transfer_Complete>
d:\CH573FEVT\LaserRangeFinder\obj/../src/TFTc/TFT_io.c:316
	TFT_Pin_DC_Set(htft, 1); // 璁剧疆涓烘版妯″
     ce0:	4585                	li	a1,1
     ce2:	8522                	mv	a0,s0
     ce4:	3f31                	jal	c00 <TFT_Pin_DC_Set>
d:\CH573FEVT\LaserRangeFinder\obj/../src/TFTc/TFT_io.c:317
	TFT_Pin_CS_Set(htft, 0); // 浣锛寮濮浼杈
     ce6:	4581                	li	a1,0
     ce8:	8522                	mv	a0,s0
     cea:	3f99                	jal	c40 <TFT_Pin_CS_Set>
d:\CH573FEVT\LaserRangeFinder\obj/../src/TFTc/TFT_io.c:319
	if (htft->is_dma_enabled) // 濡ㄤ DMA
     cec:	02c44783          	lbu	a5,44(s0)
     cf0:	c78d                	beqz	a5,d1a <TFT_SPI_Send+0x5a>
d:\CH573FEVT\LaserRangeFinder\obj/../src/TFTc/TFT_io.c:321
		htft->is_dma_transfer_active = 1; // 璁剧疆 DMA 蹇蹇
     cf2:	4785                	li	a5,1
     cf4:	02f406a3          	sb	a5,45(s0)
TFT_Platform_SPI_Transmit_DMA_Start():
d:\CH573FEVT\LaserRangeFinder\obj/../src/TFTc/TFT_io.c:288
	SPI0_MasterDMATrans(pData, Size); // 浣跨ㄦSPI0 DMA浼杈褰跺杩涓芥版涓STM32DMA诲寮锛瑕跺娌涓
     cf8:	85ca                	mv	a1,s2
     cfa:	8526                	mv	a0,s1
     cfc:	7c4000ef          	jal	ra,14c0 <SPI0_MasterDMATrans>
TFT_SPI_Send():
d:\CH573FEVT\LaserRangeFinder\obj/../src/TFTc/TFT_io.c:325
		if (wait_completion)
     d00:	02098263          	beqz	s3,d24 <TFT_SPI_Send+0x64>
d:\CH573FEVT\LaserRangeFinder\obj/../src/TFTc/TFT_io.c:327
			TFT_Wait_DMA_Transfer_Complete(htft); // 绛寰 DMA 瀹
     d04:	8522                	mv	a0,s0
     d06:	3db9                	jal	b64 <TFT_Wait_DMA_Transfer_Complete>
d:\CH573FEVT\LaserRangeFinder\obj/../src/TFTc/TFT_io.c:336
		TFT_Pin_CS_Set(htft, 1);														// 诲浼杈瀹绔虫楂
     d08:	8522                	mv	a0,s0
d:\CH573FEVT\LaserRangeFinder\obj/../src/TFTc/TFT_io.c:338
}
     d0a:	4462                	lw	s0,24(sp)
     d0c:	40f2                	lw	ra,28(sp)
     d0e:	44d2                	lw	s1,20(sp)
     d10:	4942                	lw	s2,16(sp)
     d12:	49b2                	lw	s3,12(sp)
d:\CH573FEVT\LaserRangeFinder\obj/../src/TFTc/TFT_io.c:336
		TFT_Pin_CS_Set(htft, 1);														// 诲浼杈瀹绔虫楂
     d14:	4585                	li	a1,1
d:\CH573FEVT\LaserRangeFinder\obj/../src/TFTc/TFT_io.c:338
}
     d16:	6105                	addi	sp,sp,32
d:\CH573FEVT\LaserRangeFinder\obj/../src/TFTc/TFT_io.c:336
		TFT_Pin_CS_Set(htft, 1);														// 诲浼杈瀹绔虫楂
     d18:	b725                	j	c40 <TFT_Pin_CS_Set>
TFT_Platform_SPI_Transmit_Blocking():
d:\CH573FEVT\LaserRangeFinder\obj/../src/TFTc/TFT_io.c:264
	SPI0_MasterDMATrans(pData, Size); // 浣跨ㄦSPI0 DMA浼杈瀹娴璇跺版DMA诲寮锛涓ㄨ跺棰
     d1a:	85ca                	mv	a1,s2
     d1c:	8526                	mv	a0,s1
     d1e:	7a2000ef          	jal	ra,14c0 <SPI0_MasterDMATrans>
     d22:	b7dd                	j	d08 <TFT_SPI_Send+0x48>
TFT_SPI_Send():
d:\CH573FEVT\LaserRangeFinder\obj/../src/TFTc/TFT_io.c:338
}
     d24:	40f2                	lw	ra,28(sp)
     d26:	4462                	lw	s0,24(sp)
     d28:	44d2                	lw	s1,20(sp)
     d2a:	4942                	lw	s2,16(sp)
     d2c:	49b2                	lw	s3,12(sp)
     d2e:	6105                	addi	sp,sp,32
     d30:	8082                	ret
     d32:	8082                	ret

00000d34 <TFT_Flush_Buffer>:
TFT_Flush_Buffer():
d:\CH573FEVT\LaserRangeFinder\obj/../src/TFTc/TFT_io.c:373
	if (htft == NULL || htft->tx_buffer == NULL || htft->buffer_write_index == 0)
     d34:	c115                	beqz	a0,d58 <TFT_Flush_Buffer+0x24>
     d36:	86ae                	mv	a3,a1
d:\CH573FEVT\LaserRangeFinder\obj/../src/TFTc/TFT_io.c:373 (discriminator 1)
     d38:	514c                	lw	a1,36(a0)
d:\CH573FEVT\LaserRangeFinder\obj/../src/TFTc/TFT_io.c:372 (discriminator 1)
{
     d3a:	1141                	addi	sp,sp,-16
     d3c:	c422                	sw	s0,8(sp)
     d3e:	c606                	sw	ra,12(sp)
     d40:	842a                	mv	s0,a0
d:\CH573FEVT\LaserRangeFinder\obj/../src/TFTc/TFT_io.c:373 (discriminator 1)
	if (htft == NULL || htft->tx_buffer == NULL || htft->buffer_write_index == 0)
     d42:	c599                	beqz	a1,d50 <TFT_Flush_Buffer+0x1c>
d:\CH573FEVT\LaserRangeFinder\obj/../src/TFTc/TFT_io.c:373 (discriminator 2)
     d44:	02a55603          	lhu	a2,42(a0)
     d48:	c601                	beqz	a2,d50 <TFT_Flush_Buffer+0x1c>
d:\CH573FEVT\LaserRangeFinder\obj/../src/TFTc/TFT_io.c:377
	TFT_SPI_Send(htft, htft->tx_buffer, htft->buffer_write_index, wait_completion);
     d4a:	3f9d                	jal	cc0 <TFT_SPI_Send>
d:\CH573FEVT\LaserRangeFinder\obj/../src/TFTc/TFT_io.c:379
	htft->buffer_write_index = 0; // 缃缂插虹储寮
     d4c:	02041523          	sh	zero,42(s0)
d:\CH573FEVT\LaserRangeFinder\obj/../src/TFTc/TFT_io.c:380
}
     d50:	40b2                	lw	ra,12(sp)
     d52:	4422                	lw	s0,8(sp)
     d54:	0141                	addi	sp,sp,16
     d56:	8082                	ret
     d58:	8082                	ret

00000d5a <TFT_Buffer_Write16>:
TFT_Buffer_Write16():
d:\CH573FEVT\LaserRangeFinder\obj/../src/TFTc/TFT_io.c:351
	if (htft == NULL || htft->tx_buffer == NULL)
     d5a:	cd29                	beqz	a0,db4 <TFT_Buffer_Write16+0x5a>
d:\CH573FEVT\LaserRangeFinder\obj/../src/TFTc/TFT_io.c:351 (discriminator 1)
     d5c:	515c                	lw	a5,36(a0)
d:\CH573FEVT\LaserRangeFinder\obj/../src/TFTc/TFT_io.c:349 (discriminator 1)
{
     d5e:	1141                	addi	sp,sp,-16
     d60:	c422                	sw	s0,8(sp)
     d62:	c606                	sw	ra,12(sp)
     d64:	c226                	sw	s1,4(sp)
     d66:	842a                	mv	s0,a0
d:\CH573FEVT\LaserRangeFinder\obj/../src/TFTc/TFT_io.c:351 (discriminator 1)
	if (htft == NULL || htft->tx_buffer == NULL)
     d68:	c3a9                	beqz	a5,daa <TFT_Buffer_Write16+0x50>
d:\CH573FEVT\LaserRangeFinder\obj/../src/TFTc/TFT_io.c:355
	if (htft->buffer_write_index >= htft->buffer_size - 1)
     d6a:	02855783          	lhu	a5,40(a0)
     d6e:	02a55703          	lhu	a4,42(a0)
     d72:	84ae                	mv	s1,a1
     d74:	17fd                	addi	a5,a5,-1
     d76:	00f74463          	blt	a4,a5,d7e <TFT_Buffer_Write16+0x24>
d:\CH573FEVT\LaserRangeFinder\obj/../src/TFTc/TFT_io.c:357
		TFT_Flush_Buffer(htft, 0); // 缂插烘弧锛锋扮插猴涓绛寰瀹
     d7a:	4581                	li	a1,0
     d7c:	3f65                	jal	d34 <TFT_Flush_Buffer>
d:\CH573FEVT\LaserRangeFinder\obj/../src/TFTc/TFT_io.c:361
	htft->tx_buffer[htft->buffer_write_index++] = (data >> 8) & 0xFF; // 楂瀛
     d7e:	02a45703          	lhu	a4,42(s0)
     d82:	505c                	lw	a5,36(s0)
     d84:	00170693          	addi	a3,a4,1
     d88:	02d41523          	sh	a3,42(s0)
     d8c:	97ba                	add	a5,a5,a4
     d8e:	0084d713          	srli	a4,s1,0x8
     d92:	00e78023          	sb	a4,0(a5)
d:\CH573FEVT\LaserRangeFinder\obj/../src/TFTc/TFT_io.c:362
	htft->tx_buffer[htft->buffer_write_index++] = data & 0xFF;		  // 浣瀛
     d96:	02a45703          	lhu	a4,42(s0)
     d9a:	505c                	lw	a5,36(s0)
     d9c:	00170693          	addi	a3,a4,1
     da0:	02d41523          	sh	a3,42(s0)
     da4:	97ba                	add	a5,a5,a4
     da6:	00978023          	sb	s1,0(a5)
d:\CH573FEVT\LaserRangeFinder\obj/../src/TFTc/TFT_io.c:363
}
     daa:	40b2                	lw	ra,12(sp)
     dac:	4422                	lw	s0,8(sp)
     dae:	4492                	lw	s1,4(sp)
     db0:	0141                	addi	sp,sp,16
     db2:	8082                	ret
     db4:	8082                	ret

00000db6 <TFT_Reset_Buffer>:
TFT_Reset_Buffer():
d:\CH573FEVT\LaserRangeFinder\obj/../src/TFTc/TFT_io.c:389
	if (htft == NULL)
     db6:	c119                	beqz	a0,dbc <TFT_Reset_Buffer+0x6>
d:\CH573FEVT\LaserRangeFinder\obj/../src/TFTc/TFT_io.c:392
	htft->buffer_write_index = 0;
     db8:	02051523          	sh	zero,42(a0)
d:\CH573FEVT\LaserRangeFinder\obj/../src/TFTc/TFT_io.c:393
}
     dbc:	8082                	ret

00000dbe <TFT_IO_Init>:
TFT_IO_Init():
d:\CH573FEVT\LaserRangeFinder\obj/../src/TFTc/TFT_io.c:402
	if (htft == NULL || htft->spi_handle == NULL)
     dbe:	c931                	beqz	a0,e12 <TFT_IO_Init+0x54>
d:\CH573FEVT\LaserRangeFinder\obj/../src/TFTc/TFT_io.c:402 (discriminator 1)
     dc0:	411c                	lw	a5,0(a0)
     dc2:	cba1                	beqz	a5,e12 <TFT_IO_Init+0x54>
d:\CH573FEVT\LaserRangeFinder\obj/../src/TFTc/TFT_io.c:409
	if (htft->tx_buffer == NULL)
     dc4:	515c                	lw	a5,36(a0)
d:\CH573FEVT\LaserRangeFinder\obj/../src/TFTc/TFT_io.c:401
{
     dc6:	1141                	addi	sp,sp,-16
     dc8:	c422                	sw	s0,8(sp)
     dca:	c606                	sw	ra,12(sp)
     dcc:	842a                	mv	s0,a0
d:\CH573FEVT\LaserRangeFinder\obj/../src/TFTc/TFT_io.c:409
	if (htft->tx_buffer == NULL)
     dce:	c39d                	beqz	a5,df4 <TFT_IO_Init+0x36>
d:\CH573FEVT\LaserRangeFinder\obj/../src/TFTc/TFT_io.c:432
	GPIOA_ModeCfg(GPIO_Pin_12 | GPIO_Pin_13 | GPIO_Pin_14, GPIO_ModeOut_PP_5mA); // 濮SPI0瀵瑰GPIO
     dd0:	458d                	li	a1,3
     dd2:	651d                	lui	a0,0x7
d:\CH573FEVT\LaserRangeFinder\obj/../src/TFTc/TFT_io.c:419
	htft->buffer_write_index = 0; // 濮缂插虹储寮
     dd4:	02041523          	sh	zero,42(s0)
d:\CH573FEVT\LaserRangeFinder\obj/../src/TFTc/TFT_io.c:432
	GPIOA_ModeCfg(GPIO_Pin_12 | GPIO_Pin_13 | GPIO_Pin_14, GPIO_ModeOut_PP_5mA); // 濮SPI0瀵瑰GPIO
     dd8:	21c5                	jal	12b8 <GPIOA_ModeCfg>
d:\CH573FEVT\LaserRangeFinder\obj/../src/TFTc/TFT_io.c:433
	SPI0_MasterDefInit();														 // 濮SPI0涓轰富妯″
     dda:	6b4000ef          	jal	ra,148e <SPI0_MasterDefInit>
TFT_Register_Device():
d:\CH573FEVT\LaserRangeFinder\obj/../src/TFTc/TFT_io.c:106
		if (g_tft_handles[i] == NULL || g_tft_handles[i]->spi_handle == htft->spi_handle)
     dde:	80818793          	addi	a5,gp,-2040 # 20004068 <_edata>
     de2:	439c                	lw	a5,0(a5)
TFT_IO_Init():
d:\CH573FEVT\LaserRangeFinder\obj/../src/TFTc/TFT_io.c:435
	htft->is_dma_enabled = 0; // 璇蜂瑕淇逛负1娌DMA诲寮锛宸茬TFT_Platform_SPI_Transmit_Blocking挎涓DMA浼杈
     de4:	02040623          	sb	zero,44(s0)
d:\CH573FEVT\LaserRangeFinder\obj/../src/TFTc/TFT_io.c:444
	htft->is_dma_transfer_active = 0; // 濮 DMA 浼杈舵蹇
     de8:	020406a3          	sb	zero,45(s0)
TFT_Register_Device():
d:\CH573FEVT\LaserRangeFinder\obj/../src/TFTc/TFT_io.c:106
		if (g_tft_handles[i] == NULL || g_tft_handles[i]->spi_handle == htft->spi_handle)
     dec:	ef91                	bnez	a5,e08 <TFT_IO_Init+0x4a>
d:\CH573FEVT\LaserRangeFinder\obj/../src/TFTc/TFT_io.c:108
			g_tft_handles[i] = htft;
     dee:	8081a423          	sw	s0,-2040(gp) # 20004068 <_edata>
d:\CH573FEVT\LaserRangeFinder\obj/../src/TFTc/TFT_io.c:109
			break;
     df2:	a039                	j	e00 <TFT_IO_Init+0x42>
TFT_IO_Init():
d:\CH573FEVT\LaserRangeFinder\obj/../src/TFTc/TFT_io.c:411
		htft->tx_buffer = (uint8_t *)malloc(htft->buffer_size);
     df4:	02855503          	lhu	a0,40(a0) # 7028 <_data_lma+0x3a18>
     df8:	015000ef          	jal	ra,160c <malloc>
     dfc:	d048                	sw	a0,36(s0)
d:\CH573FEVT\LaserRangeFinder\obj/../src/TFTc/TFT_io.c:412
		if (htft->tx_buffer == NULL)
     dfe:	f969                	bnez	a0,dd0 <TFT_IO_Init+0x12>
d:\CH573FEVT\LaserRangeFinder\obj/../src/TFTc/TFT_io.c:448
}
     e00:	40b2                	lw	ra,12(sp)
     e02:	4422                	lw	s0,8(sp)
     e04:	0141                	addi	sp,sp,16
     e06:	8082                	ret
TFT_Register_Device():
d:\CH573FEVT\LaserRangeFinder\obj/../src/TFTc/TFT_io.c:106
		if (g_tft_handles[i] == NULL || g_tft_handles[i]->spi_handle == htft->spi_handle)
     e08:	4398                	lw	a4,0(a5)
     e0a:	401c                	lw	a5,0(s0)
     e0c:	fef71ae3          	bne	a4,a5,e00 <TFT_IO_Init+0x42>
     e10:	bff9                	j	dee <TFT_IO_Init+0x30>
     e12:	8082                	ret

00000e14 <TFT_Write_Data8>:
TFT_Write_Data8():
d:\CH573FEVT\LaserRangeFinder\obj/../src/TFTc/TFT_io.c:483
 * @retval 
 * @note   姝ゅ芥版绘浣跨ㄩ诲寮 SPI 浼杈锛骞跺瀹ㄥ DC 寮宸茶句负版妯″
 *         甯稿ㄥ戒护璋锛ㄤ戒护般
 */
void TFT_Write_Data8(TFT_HandleTypeDef *htft, uint8_t data)
{
     e14:	1101                	addi	sp,sp,-32
     e16:	ce06                	sw	ra,28(sp)
     e18:	cc22                	sw	s0,24(sp)
     e1a:	00b107a3          	sb	a1,15(sp)
d:\CH573FEVT\LaserRangeFinder\obj/../src/TFTc/TFT_io.c:484
	if (htft == NULL || htft->spi_handle == NULL)
     e1e:	c115                	beqz	a0,e42 <TFT_Write_Data8+0x2e>
d:\CH573FEVT\LaserRangeFinder\obj/../src/TFTc/TFT_io.c:484 (discriminator 1)
     e20:	411c                	lw	a5,0(a0)
     e22:	842a                	mv	s0,a0
     e24:	cf99                	beqz	a5,e42 <TFT_Write_Data8+0x2e>
d:\CH573FEVT\LaserRangeFinder\obj/../src/TFTc/TFT_io.c:487
		return;

	TFT_Wait_DMA_Transfer_Complete(htft); // 纭淇涔 DMA 浣瀹
     e26:	3b3d                	jal	b64 <TFT_Wait_DMA_Transfer_Complete>
d:\CH573FEVT\LaserRangeFinder\obj/../src/TFTc/TFT_io.c:488
	TFT_Pin_DC_Set(htft, 1);			  // 纭淇版妯″
     e28:	4585                	li	a1,1
     e2a:	8522                	mv	a0,s0
     e2c:	3bd1                	jal	c00 <TFT_Pin_DC_Set>
d:\CH573FEVT\LaserRangeFinder\obj/../src/TFTc/TFT_io.c:489
	TFT_Pin_CS_Set(htft, 0);			  // 涓
     e2e:	4581                	li	a1,0
     e30:	8522                	mv	a0,s0
     e32:	3539                	jal	c40 <TFT_Pin_CS_Set>
TFT_Platform_SPI_Transmit_Blocking():
d:\CH573FEVT\LaserRangeFinder\obj/../src/TFTc/TFT_io.c:264
	SPI0_MasterDMATrans(pData, Size); // 浣跨ㄦSPI0 DMA浼杈瀹娴璇跺版DMA诲寮锛涓ㄨ跺棰
     e34:	4585                	li	a1,1
     e36:	00f10513          	addi	a0,sp,15
     e3a:	2559                	jal	14c0 <SPI0_MasterDMATrans>
TFT_Write_Data8():
d:\CH573FEVT\LaserRangeFinder\obj/../src/TFTc/TFT_io.c:494

	// 浣跨ㄥ钩版借薄诲寮涓瀛
	TFT_Platform_SPI_Transmit_Blocking(htft->spi_handle, &data, 1, 100);

	TFT_Pin_CS_Set(htft, 1); // 浼杈瀹楂 CS
     e3c:	4585                	li	a1,1
     e3e:	8522                	mv	a0,s0
     e40:	3501                	jal	c40 <TFT_Pin_CS_Set>
d:\CH573FEVT\LaserRangeFinder\obj/../src/TFTc/TFT_io.c:495
}
     e42:	40f2                	lw	ra,28(sp)
     e44:	4462                	lw	s0,24(sp)
     e46:	6105                	addi	sp,sp,32
     e48:	8082                	ret

00000e4a <TFT_Write_Data16>:
TFT_Write_Data16():
d:\CH573FEVT\LaserRangeFinder\obj/../src/TFTc/TFT_io.c:507
 * @note   姝ゅ芥版绘浣跨ㄩ诲寮 SPI 浼杈
 *         涓昏ㄤ缁跺涓规灏版锛涓缁杩缂插恒
 */
void TFT_Write_Data16(TFT_HandleTypeDef *htft, uint16_t data)
{
	if (htft == NULL || htft->spi_handle == NULL)
     e4a:	cd15                	beqz	a0,e86 <TFT_Write_Data16+0x3c>
d:\CH573FEVT\LaserRangeFinder\obj/../src/TFTc/TFT_io.c:507 (discriminator 1)
     e4c:	411c                	lw	a5,0(a0)
d:\CH573FEVT\LaserRangeFinder\obj/../src/TFTc/TFT_io.c:506 (discriminator 1)
{
     e4e:	1101                	addi	sp,sp,-32
     e50:	cc22                	sw	s0,24(sp)
     e52:	ce06                	sw	ra,28(sp)
     e54:	842a                	mv	s0,a0
d:\CH573FEVT\LaserRangeFinder\obj/../src/TFTc/TFT_io.c:507 (discriminator 1)
	if (htft == NULL || htft->spi_handle == NULL)
     e56:	c785                	beqz	a5,e7e <TFT_Write_Data16+0x34>
d:\CH573FEVT\LaserRangeFinder\obj/../src/TFTc/TFT_io.c:511
		return;

	uint8_t spi_data[2];
	spi_data[0] = (data >> 8) & 0xFF; // 楂瀛 (澶х)
     e58:	00859793          	slli	a5,a1,0x8
     e5c:	81a1                	srli	a1,a1,0x8
     e5e:	8ddd                	or	a1,a1,a5
     e60:	00b11623          	sh	a1,12(sp)
d:\CH573FEVT\LaserRangeFinder\obj/../src/TFTc/TFT_io.c:514
	spi_data[1] = data & 0xFF;		  // 浣瀛

	TFT_Wait_DMA_Transfer_Complete(htft); // 纭淇涔 DMA 浣瀹
     e64:	3301                	jal	b64 <TFT_Wait_DMA_Transfer_Complete>
d:\CH573FEVT\LaserRangeFinder\obj/../src/TFTc/TFT_io.c:515
	TFT_Pin_DC_Set(htft, 1);			  // 版妯″
     e66:	4585                	li	a1,1
     e68:	8522                	mv	a0,s0
     e6a:	3b59                	jal	c00 <TFT_Pin_DC_Set>
d:\CH573FEVT\LaserRangeFinder\obj/../src/TFTc/TFT_io.c:516
	TFT_Pin_CS_Set(htft, 0);			  // 涓
     e6c:	4581                	li	a1,0
     e6e:	8522                	mv	a0,s0
     e70:	3bc1                	jal	c40 <TFT_Pin_CS_Set>
TFT_Platform_SPI_Transmit_Blocking():
d:\CH573FEVT\LaserRangeFinder\obj/../src/TFTc/TFT_io.c:264
	SPI0_MasterDMATrans(pData, Size); // 浣跨ㄦSPI0 DMA浼杈瀹娴璇跺版DMA诲寮锛涓ㄨ跺棰
     e72:	4589                	li	a1,2
     e74:	0068                	addi	a0,sp,12
     e76:	25a9                	jal	14c0 <SPI0_MasterDMATrans>
TFT_Write_Data16():
d:\CH573FEVT\LaserRangeFinder\obj/../src/TFTc/TFT_io.c:521

	// 浣跨ㄥ钩版借薄诲寮 2 涓瀛
	TFT_Platform_SPI_Transmit_Blocking(htft->spi_handle, spi_data, 2, 100);

	TFT_Pin_CS_Set(htft, 1); // 浼杈瀹楂 CS
     e78:	4585                	li	a1,1
     e7a:	8522                	mv	a0,s0
     e7c:	33d1                	jal	c40 <TFT_Pin_CS_Set>
d:\CH573FEVT\LaserRangeFinder\obj/../src/TFTc/TFT_io.c:522
}
     e7e:	40f2                	lw	ra,28(sp)
     e80:	4462                	lw	s0,24(sp)
     e82:	6105                	addi	sp,sp,32
     e84:	8082                	ret
     e86:	8082                	ret

00000e88 <TFT_Write_Command>:
TFT_Write_Command():
d:\CH573FEVT\LaserRangeFinder\obj/../src/TFTc/TFT_io.c:533
 * @retval 
 * @note   戒护浼锋扮插 (诲绛寰)
 *         戒护韬浣跨ㄩ诲寮 SPI 浼杈
 */
void TFT_Write_Command(TFT_HandleTypeDef *htft, uint8_t command)
{
     e88:	1101                	addi	sp,sp,-32
     e8a:	ce06                	sw	ra,28(sp)
     e8c:	cc22                	sw	s0,24(sp)
     e8e:	00b107a3          	sb	a1,15(sp)
d:\CH573FEVT\LaserRangeFinder\obj/../src/TFTc/TFT_io.c:534
	if (htft == NULL || htft->spi_handle == NULL)
     e92:	c11d                	beqz	a0,eb8 <TFT_Write_Command+0x30>
d:\CH573FEVT\LaserRangeFinder\obj/../src/TFTc/TFT_io.c:534 (discriminator 1)
     e94:	411c                	lw	a5,0(a0)
     e96:	842a                	mv	s0,a0
     e98:	c385                	beqz	a5,eb8 <TFT_Write_Command+0x30>
d:\CH573FEVT\LaserRangeFinder\obj/../src/TFTc/TFT_io.c:538
		return;

	// 戒护锛纭淇缂插轰腑版宸插瀹
	TFT_Flush_Buffer(htft, 1); // 绛寰缂插哄锋板
     e9a:	4585                	li	a1,1
     e9c:	3d61                	jal	d34 <TFT_Flush_Buffer>
d:\CH573FEVT\LaserRangeFinder\obj/../src/TFTc/TFT_io.c:542

	// 涓瑕娆¤ TFT_Wait_DMA_Transfer_Complete()锛涓 Flush_Buffer(1) 宸茬绛寰浜

	TFT_Pin_DC_Set(htft, 0); // 璁剧疆涓哄戒护妯″
     e9e:	4581                	li	a1,0
     ea0:	8522                	mv	a0,s0
     ea2:	3bb9                	jal	c00 <TFT_Pin_DC_Set>
d:\CH573FEVT\LaserRangeFinder\obj/../src/TFTc/TFT_io.c:543
	TFT_Pin_CS_Set(htft, 0); // 涓
     ea4:	4581                	li	a1,0
     ea6:	8522                	mv	a0,s0
     ea8:	3b61                	jal	c40 <TFT_Pin_CS_Set>
TFT_Platform_SPI_Transmit_Blocking():
d:\CH573FEVT\LaserRangeFinder\obj/../src/TFTc/TFT_io.c:264
	SPI0_MasterDMATrans(pData, Size); // 浣跨ㄦSPI0 DMA浼杈瀹娴璇跺版DMA诲寮锛涓ㄨ跺棰
     eaa:	4585                	li	a1,1
     eac:	00f10513          	addi	a0,sp,15
     eb0:	2d01                	jal	14c0 <SPI0_MasterDMATrans>
TFT_Write_Command():
d:\CH573FEVT\LaserRangeFinder\obj/../src/TFTc/TFT_io.c:548

	// 浣跨ㄥ钩版借薄诲寮戒护瀛
	TFT_Platform_SPI_Transmit_Blocking(htft->spi_handle, &command, 1, 100);

	TFT_Pin_CS_Set(htft, 1); // 戒护瀹绔虫楂 CS
     eb2:	4585                	li	a1,1
     eb4:	8522                	mv	a0,s0
     eb6:	3369                	jal	c40 <TFT_Pin_CS_Set>
d:\CH573FEVT\LaserRangeFinder\obj/../src/TFTc/TFT_io.c:549
}
     eb8:	40f2                	lw	ra,28(sp)
     eba:	4462                	lw	s0,24(sp)
     ebc:	6105                	addi	sp,sp,32
     ebe:	8082                	ret

00000ec0 <TFT_Set_Address>:
TFT_Set_Address():
d:\CH573FEVT\LaserRangeFinder\obj/../src/TFTc/TFT_io.c:563
 * @retval 
 * @note   璁剧疆锛缁版浼杈戒ユゅ哄锛绐ｅㄤ灞骞瑰涓浼ㄩ
 */
void TFT_Set_Address(TFT_HandleTypeDef *htft, uint16_t x_start, uint16_t y_start, uint16_t x_end, uint16_t y_end)
{
	if (htft == NULL)
     ec0:	cd45                	beqz	a0,f78 <TFT_Set_Address+0xb8>
d:\CH573FEVT\LaserRangeFinder\obj/../src/TFTc/TFT_io.c:562
{
     ec2:	1101                	addi	sp,sp,-32
     ec4:	ca26                	sw	s1,20(sp)
     ec6:	84ae                	mv	s1,a1
d:\CH573FEVT\LaserRangeFinder\obj/../src/TFTc/TFT_io.c:567
		return;

	// 璁剧疆板锛纭淇缂插轰腑版宸插瀹
	TFT_Flush_Buffer(htft, 1); // 绛寰缂插哄锋板
     ec8:	4585                	li	a1,1
d:\CH573FEVT\LaserRangeFinder\obj/../src/TFTc/TFT_io.c:562
{
     eca:	ce06                	sw	ra,28(sp)
     ecc:	cc22                	sw	s0,24(sp)
     ece:	c84a                	sw	s2,16(sp)
     ed0:	842a                	mv	s0,a0
     ed2:	c64e                	sw	s3,12(sp)
     ed4:	c452                	sw	s4,8(sp)
     ed6:	893a                	mv	s2,a4
     ed8:	8a36                	mv	s4,a3
     eda:	89b2                	mv	s3,a2
d:\CH573FEVT\LaserRangeFinder\obj/../src/TFTc/TFT_io.c:567
	TFT_Flush_Buffer(htft, 1); // 绛寰缂插哄锋板
     edc:	3da1                	jal	d34 <TFT_Flush_Buffer>
d:\CH573FEVT\LaserRangeFinder\obj/../src/TFTc/TFT_io.c:570

	// --- 璁剧疆板 (Column Address Set, CASET, 0x2A) ---
	TFT_Write_Command(htft, 0x2A);
     ede:	02a00593          	li	a1,42
     ee2:	8522                	mv	a0,s0
     ee4:	3755                	jal	e88 <TFT_Write_Command>
d:\CH573FEVT\LaserRangeFinder\obj/../src/TFTc/TFT_io.c:573

	// 规灞骞瑰疯剧疆板
	if (htft->display_direction == 0 || htft->display_direction == 2) // 0掳180掳
     ee6:	02e44783          	lbu	a5,46(s0)
     eea:	0fd7f793          	andi	a5,a5,253
     eee:	e3ad                	bnez	a5,f50 <TFT_Set_Address+0x90>
d:\CH573FEVT\LaserRangeFinder\obj/../src/TFTc/TFT_io.c:575
	{
		TFT_Write_Data16(htft, x_start + htft->x_offset);
     ef0:	02f44583          	lbu	a1,47(s0)
     ef4:	8522                	mv	a0,s0
     ef6:	95a6                	add	a1,a1,s1
     ef8:	05c2                	slli	a1,a1,0x10
     efa:	81c1                	srli	a1,a1,0x10
     efc:	37b9                	jal	e4a <TFT_Write_Data16>
d:\CH573FEVT\LaserRangeFinder\obj/../src/TFTc/TFT_io.c:576
		TFT_Write_Data16(htft, x_end + htft->x_offset);
     efe:	02f44583          	lbu	a1,47(s0)
d:\CH573FEVT\LaserRangeFinder\obj/../src/TFTc/TFT_io.c:581
	}
	else // 90掳270掳
	{
		TFT_Write_Data16(htft, x_start + htft->y_offset);
		TFT_Write_Data16(htft, x_end + htft->y_offset);
     f02:	95d2                	add	a1,a1,s4
     f04:	05c2                	slli	a1,a1,0x10
     f06:	81c1                	srli	a1,a1,0x10
     f08:	8522                	mv	a0,s0
     f0a:	3781                	jal	e4a <TFT_Write_Data16>
d:\CH573FEVT\LaserRangeFinder\obj/../src/TFTc/TFT_io.c:585
	}

	// --- 璁剧疆琛板 (Set Row Address, 0x2B) ---
	TFT_Write_Command(htft, 0x2B);
     f0c:	02b00593          	li	a1,43
     f10:	8522                	mv	a0,s0
     f12:	3f9d                	jal	e88 <TFT_Write_Command>
d:\CH573FEVT\LaserRangeFinder\obj/../src/TFTc/TFT_io.c:588

	// 规灞骞瑰疯剧疆琛板
	if (htft->display_direction == 0 || htft->display_direction == 2) // 0掳180掳
     f14:	02e44783          	lbu	a5,46(s0)
     f18:	0fd7f793          	andi	a5,a5,253
     f1c:	e7a1                	bnez	a5,f64 <TFT_Set_Address+0xa4>
d:\CH573FEVT\LaserRangeFinder\obj/../src/TFTc/TFT_io.c:590
	{
		TFT_Write_Data16(htft, y_start + htft->y_offset);
     f1e:	03044583          	lbu	a1,48(s0)
     f22:	8522                	mv	a0,s0
     f24:	95ce                	add	a1,a1,s3
     f26:	05c2                	slli	a1,a1,0x10
     f28:	81c1                	srli	a1,a1,0x10
     f2a:	3705                	jal	e4a <TFT_Write_Data16>
d:\CH573FEVT\LaserRangeFinder\obj/../src/TFTc/TFT_io.c:591
		TFT_Write_Data16(htft, y_end + htft->y_offset);
     f2c:	03044583          	lbu	a1,48(s0)
d:\CH573FEVT\LaserRangeFinder\obj/../src/TFTc/TFT_io.c:596
	}
	else // 90掳270掳
	{
		TFT_Write_Data16(htft, y_start + htft->x_offset);
		TFT_Write_Data16(htft, y_end + htft->x_offset);
     f30:	95ca                	add	a1,a1,s2
     f32:	05c2                	slli	a1,a1,0x10
     f34:	8522                	mv	a0,s0
     f36:	81c1                	srli	a1,a1,0x10
     f38:	3f09                	jal	e4a <TFT_Write_Data16>
d:\CH573FEVT\LaserRangeFinder\obj/../src/TFTc/TFT_io.c:601
	}

	// ---  GRAM 戒护 (Memory Write, 0x2C) ---
	// 缁版灏琚ョ辨ょｅ涔 GRAM 哄
	TFT_Write_Command(htft, 0x2C);
     f3a:	8522                	mv	a0,s0
d:\CH573FEVT\LaserRangeFinder\obj/../src/TFTc/TFT_io.c:602
}
     f3c:	4462                	lw	s0,24(sp)
     f3e:	40f2                	lw	ra,28(sp)
     f40:	44d2                	lw	s1,20(sp)
     f42:	4942                	lw	s2,16(sp)
     f44:	49b2                	lw	s3,12(sp)
     f46:	4a22                	lw	s4,8(sp)
d:\CH573FEVT\LaserRangeFinder\obj/../src/TFTc/TFT_io.c:601
	TFT_Write_Command(htft, 0x2C);
     f48:	02c00593          	li	a1,44
d:\CH573FEVT\LaserRangeFinder\obj/../src/TFTc/TFT_io.c:602
}
     f4c:	6105                	addi	sp,sp,32
d:\CH573FEVT\LaserRangeFinder\obj/../src/TFTc/TFT_io.c:601
	TFT_Write_Command(htft, 0x2C);
     f4e:	bf2d                	j	e88 <TFT_Write_Command>
d:\CH573FEVT\LaserRangeFinder\obj/../src/TFTc/TFT_io.c:580
		TFT_Write_Data16(htft, x_start + htft->y_offset);
     f50:	03044583          	lbu	a1,48(s0)
     f54:	8522                	mv	a0,s0
     f56:	95a6                	add	a1,a1,s1
     f58:	05c2                	slli	a1,a1,0x10
     f5a:	81c1                	srli	a1,a1,0x10
     f5c:	35fd                	jal	e4a <TFT_Write_Data16>
d:\CH573FEVT\LaserRangeFinder\obj/../src/TFTc/TFT_io.c:581
		TFT_Write_Data16(htft, x_end + htft->y_offset);
     f5e:	03044583          	lbu	a1,48(s0)
     f62:	b745                	j	f02 <TFT_Set_Address+0x42>
d:\CH573FEVT\LaserRangeFinder\obj/../src/TFTc/TFT_io.c:595
		TFT_Write_Data16(htft, y_start + htft->x_offset);
     f64:	02f44583          	lbu	a1,47(s0)
     f68:	8522                	mv	a0,s0
     f6a:	95ce                	add	a1,a1,s3
     f6c:	05c2                	slli	a1,a1,0x10
     f6e:	81c1                	srli	a1,a1,0x10
     f70:	3de9                	jal	e4a <TFT_Write_Data16>
d:\CH573FEVT\LaserRangeFinder\obj/../src/TFTc/TFT_io.c:596
		TFT_Write_Data16(htft, y_end + htft->x_offset);
     f72:	02f44583          	lbu	a1,47(s0)
     f76:	bf6d                	j	f30 <TFT_Set_Address+0x70>
     f78:	8082                	ret

00000f7a <TFT_Show_Char>:
TFT_Show_Char():
d:\CH573FEVT\LaserRangeFinder\obj/../src/TFTc/TFT_text.c:112
 * @param  back_color 棰
 * @param  size       瀛浣澶у ( 8, 12, 16)
 * @param  mode       妯″ (0: 涓, 1: )
 */
void TFT_Show_Char(TFT_HandleTypeDef *htft, uint16_t x, uint16_t y, uint8_t chr, uint16_t color, uint16_t back_color, uint8_t size, uint8_t mode)
{
     f7a:	715d                	addi	sp,sp,-80
     f7c:	c4a2                	sw	s0,72(sp)
     f7e:	c2a6                	sw	s1,68(sp)
     f80:	d65e                	sw	s7,44(sp)
     f82:	d462                	sw	s8,40(sp)
     f84:	8bbe                	mv	s7,a5
     f86:	c686                	sw	ra,76(sp)
     f88:	c0ca                	sw	s2,64(sp)
     f8a:	de4e                	sw	s3,60(sp)
     f8c:	dc52                	sw	s4,56(sp)
     f8e:	da56                	sw	s5,52(sp)
     f90:	d85a                	sw	s6,48(sp)
     f92:	d266                	sw	s9,36(sp)
     f94:	d06a                	sw	s10,32(sp)
     f96:	ce6e                	sw	s11,28(sp)
     f98:	c63a                	sw	a4,12(sp)
d:\CH573FEVT\LaserRangeFinder\obj/../src/TFTc/TFT_text.c:120
    uint8_t char_width, char_height;
    uint16_t char_index;
    uint16_t bytes_per_char;

    // 规瀛浣澶у╁瑰瀛搴
    if (size == 16)
     f9a:	47c1                	li	a5,16
d:\CH573FEVT\LaserRangeFinder\obj/../src/TFTc/TFT_text.c:112
{
     f9c:	84aa                	mv	s1,a0
     f9e:	8436                	mv	s0,a3
     fa0:	8c46                	mv	s8,a7
d:\CH573FEVT\LaserRangeFinder\obj/../src/TFTc/TFT_text.c:120
    if (size == 16)
     fa2:	0af80063          	beq	a6,a5,1042 <TFT_Show_Char+0xc8>
d:\CH573FEVT\LaserRangeFinder\obj/../src/TFTc/TFT_text.c:125
    {
        ascii_font = &afont16x8;
        bytes_per_char = 16; // 816琛锛姣2瀛锛16瀛
    }
    else if (size == 12)
     fa6:	47b1                	li	a5,12
     fa8:	0af80363          	beq	a6,a5,104e <TFT_Show_Char+0xd4>
d:\CH573FEVT\LaserRangeFinder\obj/../src/TFTc/TFT_text.c:134
    }
    else
    {
        ascii_font = &afont8x6;
        size = 8;
        bytes_per_char = 6; // 68琛锛姣1瀛锛6瀛
     fac:	4d19                	li	s10,6
d:\CH573FEVT\LaserRangeFinder\obj/../src/TFTc/TFT_text.c:132
        ascii_font = &afont8x6;
     fae:	00002797          	auipc	a5,0x2
     fb2:	65678793          	addi	a5,a5,1622 # 3604 <afont8x6>
d:\CH573FEVT\LaserRangeFinder\obj/../src/TFTc/TFT_text.c:141

    char_width = ascii_font->w;
    char_height = ascii_font->h;

    // 妫ュ绗ㄥ剧ず村
    if (chr < ' ' || chr > '~')
     fb6:	fe040713          	addi	a4,s0,-32
     fba:	0ff77713          	andi	a4,a4,255
     fbe:	05e00693          	li	a3,94
d:\CH573FEVT\LaserRangeFinder\obj/../src/TFTc/TFT_text.c:137
    char_width = ascii_font->w;
     fc2:	0017c983          	lbu	s3,1(a5)
d:\CH573FEVT\LaserRangeFinder\obj/../src/TFTc/TFT_text.c:138
    char_height = ascii_font->h;
     fc6:	0007c903          	lbu	s2,0(a5)
d:\CH573FEVT\LaserRangeFinder\obj/../src/TFTc/TFT_text.c:141
    if (chr < ' ' || chr > '~')
     fca:	00e6f463          	bgeu	a3,a4,fd2 <TFT_Show_Char+0x58>
d:\CH573FEVT\LaserRangeFinder\obj/../src/TFTc/TFT_text.c:143
    {
        chr = ' '; // 涓剧ず瀛绗剧ず涓虹┖
     fce:	02000413          	li	s0,32
d:\CH573FEVT\LaserRangeFinder\obj/../src/TFTc/TFT_text.c:146
    }

    char_index = chr - ' ';                                       // 璁＄瀛绗ㄥ搴涓绱㈠浣缃
     fd2:	1401                	addi	s0,s0,-32
d:\CH573FEVT\LaserRangeFinder\obj/../src/TFTc/TFT_text.c:147
    glyph_data = ascii_font->chars + char_index * bytes_per_char; // 瀵瑰瀛妯℃版
     fd4:	0442                	slli	s0,s0,0x10
     fd6:	8041                	srli	s0,s0,0x10
     fd8:	03a40433          	mul	s0,s0,s10
_TFT_Draw_Glyph():
d:\CH573FEVT\LaserRangeFinder\obj/../src/TFTc/TFT_text.c:25
    uint8_t bytes_per_column = (height + 7) / 8; // 姣瀛帮8琛=1, 12琛=2锛
     fdc:	00790a13          	addi	s4,s2,7
d:\CH573FEVT\LaserRangeFinder\obj/../src/TFTc/TFT_text.c:27
    TFT_Set_Address(htft, x, y, x + width - 1, y + height - 1);
     fe0:	09c2                	slli	s3,s3,0x10
     fe2:	0942                	slli	s2,s2,0x10
     fe4:	fff60713          	addi	a4,a2,-1
     fe8:	fff58693          	addi	a3,a1,-1
     fec:	0109d993          	srli	s3,s3,0x10
     ff0:	01095913          	srli	s2,s2,0x10
     ff4:	974a                	add	a4,a4,s2
     ff6:	96ce                	add	a3,a3,s3
d:\CH573FEVT\LaserRangeFinder\obj/../src/TFTc/TFT_text.c:25
    uint8_t bytes_per_column = (height + 7) / 8; // 姣瀛帮8琛=1, 12琛=2锛
     ff8:	403a5a13          	srai	s4,s4,0x3
d:\CH573FEVT\LaserRangeFinder\obj/../src/TFTc/TFT_text.c:27
    TFT_Set_Address(htft, x, y, x + width - 1, y + height - 1);
     ffc:	0742                	slli	a4,a4,0x10
     ffe:	06c2                	slli	a3,a3,0x10
TFT_Show_Char():
d:\CH573FEVT\LaserRangeFinder\obj/../src/TFTc/TFT_text.c:147
    glyph_data = ascii_font->chars + char_index * bytes_per_char; // 瀵瑰瀛妯℃版
    1000:	0047ac83          	lw	s9,4(a5)
_TFT_Draw_Glyph():
d:\CH573FEVT\LaserRangeFinder\obj/../src/TFTc/TFT_text.c:27
    TFT_Set_Address(htft, x, y, x + width - 1, y + height - 1);
    1004:	8341                	srli	a4,a4,0x10
d:\CH573FEVT\LaserRangeFinder\obj/../src/TFTc/TFT_text.c:25
    uint8_t bytes_per_column = (height + 7) / 8; // 姣瀛帮8琛=1, 12琛=2锛
    1006:	0ffa7793          	andi	a5,s4,255
d:\CH573FEVT\LaserRangeFinder\obj/../src/TFTc/TFT_text.c:27
    TFT_Set_Address(htft, x, y, x + width - 1, y + height - 1);
    100a:	82c1                	srli	a3,a3,0x10
    100c:	8526                	mv	a0,s1
d:\CH573FEVT\LaserRangeFinder\obj/../src/TFTc/TFT_text.c:25
    uint8_t bytes_per_column = (height + 7) / 8; // 姣瀛帮8琛=1, 12琛=2锛
    100e:	c23e                	sw	a5,4(sp)
d:\CH573FEVT\LaserRangeFinder\obj/../src/TFTc/TFT_text.c:27
    TFT_Set_Address(htft, x, y, x + width - 1, y + height - 1);
    1010:	3d45                	jal	ec0 <TFT_Set_Address>
d:\CH573FEVT\LaserRangeFinder\obj/../src/TFTc/TFT_text.c:28
    TFT_Reset_Buffer(htft);
    1012:	8526                	mv	a0,s1
    1014:	9466                	add	s0,s0,s9
    1016:	3345                	jal	db6 <TFT_Reset_Buffer>
d:\CH573FEVT\LaserRangeFinder\obj/../src/TFTc/TFT_text.c:31
    for (col = 0; col < width; col++)
    1018:	4c81                	li	s9,0
d:\CH573FEVT\LaserRangeFinder\obj/../src/TFTc/TFT_text.c:36
            for (row = 0; row < 8; row++)
    101a:	4da1                	li	s11,8
d:\CH573FEVT\LaserRangeFinder\obj/../src/TFTc/TFT_text.c:31
    for (col = 0; col < width; col++)
    101c:	093ceb63          	bltu	s9,s3,10b2 <TFT_Show_Char+0x138>
TFT_Show_Char():
d:\CH573FEVT\LaserRangeFinder\obj/../src/TFTc/TFT_text.c:151

    // 璋ㄧ跺芥
    _TFT_Draw_Glyph(htft, x, y, glyph_data, char_width, char_height, color, back_color, mode);
}
    1020:	4426                	lw	s0,72(sp)
    1022:	40b6                	lw	ra,76(sp)
    1024:	4906                	lw	s2,64(sp)
    1026:	59f2                	lw	s3,60(sp)
    1028:	5a62                	lw	s4,56(sp)
    102a:	5ad2                	lw	s5,52(sp)
    102c:	5b42                	lw	s6,48(sp)
    102e:	5bb2                	lw	s7,44(sp)
    1030:	5c22                	lw	s8,40(sp)
    1032:	5c92                	lw	s9,36(sp)
    1034:	5d02                	lw	s10,32(sp)
    1036:	4df2                	lw	s11,28(sp)
_TFT_Draw_Glyph():
d:\CH573FEVT\LaserRangeFinder\obj/../src/TFTc/TFT_text.c:61
    TFT_Flush_Buffer(htft, 1);
    1038:	8526                	mv	a0,s1
TFT_Show_Char():
d:\CH573FEVT\LaserRangeFinder\obj/../src/TFTc/TFT_text.c:151
}
    103a:	4496                	lw	s1,68(sp)
_TFT_Draw_Glyph():
d:\CH573FEVT\LaserRangeFinder\obj/../src/TFTc/TFT_text.c:61
    TFT_Flush_Buffer(htft, 1);
    103c:	4585                	li	a1,1
TFT_Show_Char():
d:\CH573FEVT\LaserRangeFinder\obj/../src/TFTc/TFT_text.c:151
}
    103e:	6161                	addi	sp,sp,80
_TFT_Draw_Glyph():
d:\CH573FEVT\LaserRangeFinder\obj/../src/TFTc/TFT_text.c:61
    TFT_Flush_Buffer(htft, 1);
    1040:	b9d5                	j	d34 <TFT_Flush_Buffer>
TFT_Show_Char():
d:\CH573FEVT\LaserRangeFinder\obj/../src/TFTc/TFT_text.c:123
        bytes_per_char = 16; // 816琛锛姣2瀛锛16瀛
    1042:	4d41                	li	s10,16
d:\CH573FEVT\LaserRangeFinder\obj/../src/TFTc/TFT_text.c:122
        ascii_font = &afont16x8;
    1044:	00002797          	auipc	a5,0x2
    1048:	5b878793          	addi	a5,a5,1464 # 35fc <afont16x8>
    104c:	b7ad                	j	fb6 <TFT_Show_Char+0x3c>
d:\CH573FEVT\LaserRangeFinder\obj/../src/TFTc/TFT_text.c:128
        bytes_per_char = 12; // 612琛锛姣2瀛锛12瀛
    104e:	4d31                	li	s10,12
d:\CH573FEVT\LaserRangeFinder\obj/../src/TFTc/TFT_text.c:127
        ascii_font = &afont12x6;
    1050:	00002797          	auipc	a5,0x2
    1054:	5a478793          	addi	a5,a5,1444 # 35f4 <afont12x6>
    1058:	bfb9                	j	fb6 <TFT_Show_Char+0x3c>
_TFT_Draw_Glyph():
d:\CH573FEVT\LaserRangeFinder\obj/../src/TFTc/TFT_text.c:35
            byte = glyph_data[col * bytes_per_column + byte_idx];
    105a:	015406b3          	add	a3,s0,s5
    105e:	0006c783          	lbu	a5,0(a3)
    1062:	003a9d13          	slli	s10,s5,0x3
    1066:	0d42                	slli	s10,s10,0x10
    1068:	c43e                	sw	a5,8(sp)
d:\CH573FEVT\LaserRangeFinder\obj/../src/TFTc/TFT_text.c:36
            for (row = 0; row < 8; row++)
    106a:	010d5d13          	srli	s10,s10,0x10
d:\CH573FEVT\LaserRangeFinder\obj/../src/TFTc/TFT_text.c:35
            byte = glyph_data[col * bytes_per_column + byte_idx];
    106e:	4b01                	li	s6,0
d:\CH573FEVT\LaserRangeFinder\obj/../src/TFTc/TFT_text.c:39
                if (pixel_row >= height)
    1070:	016d0633          	add	a2,s10,s6
    1074:	0642                	slli	a2,a2,0x10
    1076:	8241                	srli	a2,a2,0x10
    1078:	01267d63          	bgeu	a2,s2,1092 <TFT_Show_Char+0x118>
d:\CH573FEVT\LaserRangeFinder\obj/../src/TFTc/TFT_text.c:44
                bit = (byte >> row) & 0x01; // 瑰2锛LSBㄤ
    107c:	47a2                	lw	a5,8(sp)
    107e:	4167d633          	sra	a2,a5,s6
d:\CH573FEVT\LaserRangeFinder\obj/../src/TFTc/TFT_text.c:46
                if (bit)
    1082:	8a05                	andi	a2,a2,1
    1084:	c21d                	beqz	a2,10aa <TFT_Show_Char+0x130>
d:\CH573FEVT\LaserRangeFinder\obj/../src/TFTc/TFT_text.c:48
                    TFT_Buffer_Write16(htft, color); // 
    1086:	45b2                	lw	a1,12(sp)
d:\CH573FEVT\LaserRangeFinder\obj/../src/TFTc/TFT_text.c:52
                    TFT_Buffer_Write16(htft, back_color); // 
    1088:	8526                	mv	a0,s1
    108a:	39c1                	jal	d5a <TFT_Buffer_Write16>
d:\CH573FEVT\LaserRangeFinder\obj/../src/TFTc/TFT_text.c:57
                }
    108c:	0b05                	addi	s6,s6,1
d:\CH573FEVT\LaserRangeFinder\obj/../src/TFTc/TFT_text.c:36
            for (row = 0; row < 8; row++)
    108e:	ffbb11e3          	bne	s6,s11,1070 <TFT_Show_Char+0xf6>
    1092:	0a85                	addi	s5,s5,1
d:\CH573FEVT\LaserRangeFinder\obj/../src/TFTc/TFT_text.c:33
        for (uint8_t byte_idx = 0; byte_idx < bytes_per_column; byte_idx++)
    1094:	4792                	lw	a5,4(sp)
    1096:	0ffaf693          	andi	a3,s5,255
    109a:	fcf6e0e3          	bltu	a3,a5,105a <TFT_Show_Char+0xe0>
d:\CH573FEVT\LaserRangeFinder\obj/../src/TFTc/TFT_text.c:31
    for (col = 0; col < width; col++)
    109e:	0c85                	addi	s9,s9,1
    10a0:	0cc2                	slli	s9,s9,0x10
    10a2:	010cdc93          	srli	s9,s9,0x10
    10a6:	9452                	add	s0,s0,s4
    10a8:	bf95                	j	101c <TFT_Show_Char+0xa2>
d:\CH573FEVT\LaserRangeFinder\obj/../src/TFTc/TFT_text.c:50
                else if (mode == 0)
    10aa:	fe0c11e3          	bnez	s8,108c <TFT_Show_Char+0x112>
d:\CH573FEVT\LaserRangeFinder\obj/../src/TFTc/TFT_text.c:52
                    TFT_Buffer_Write16(htft, back_color); // 
    10ae:	85de                	mv	a1,s7
    10b0:	bfe1                	j	1088 <TFT_Show_Char+0x10e>
d:\CH573FEVT\LaserRangeFinder\obj/../src/TFTc/TFT_text.c:31
    for (col = 0; col < width; col++)
    10b2:	4a81                	li	s5,0
    10b4:	b7c5                	j	1094 <TFT_Show_Char+0x11a>

000010b6 <TFT_Show_String>:
TFT_Show_String():
d:\CH573FEVT\LaserRangeFinder\obj/../src/TFTc/TFT_text.c:78
{
    10b6:	715d                	addi	sp,sp,-80
    10b8:	c4a2                	sw	s0,72(sp)
    10ba:	c2a6                	sw	s1,68(sp)
    10bc:	c0ca                	sw	s2,64(sp)
    10be:	de4e                	sw	s3,60(sp)
    10c0:	dc52                	sw	s4,56(sp)
    10c2:	da56                	sw	s5,52(sp)
    10c4:	d85a                	sw	s6,48(sp)
    10c6:	d65e                	sw	s7,44(sp)
    10c8:	d462                	sw	s8,40(sp)
    10ca:	d266                	sw	s9,36(sp)
    10cc:	d06a                	sw	s10,32(sp)
    10ce:	ce6e                	sw	s11,28(sp)
    10d0:	c686                	sw	ra,76(sp)
    10d2:	89aa                	mv	s3,a0
    10d4:	842e                	mv	s0,a1
    10d6:	8a32                	mv	s4,a2
    10d8:	84b6                	mv	s1,a3
    10da:	8aba                	mv	s5,a4
    10dc:	8b3e                	mv	s6,a5
    10de:	8942                	mv	s2,a6
    10e0:	8bc6                	mv	s7,a7
d:\CH573FEVT\LaserRangeFinder\obj/../src/TFTc/TFT_text.c:88
        if (size == 16)
    10e2:	4c41                	li	s8,16
d:\CH573FEVT\LaserRangeFinder\obj/../src/TFTc/TFT_text.c:90
        else if (size == 12)
    10e4:	4cb1                	li	s9,12
d:\CH573FEVT\LaserRangeFinder\obj/../src/TFTc/TFT_text.c:93
            char_width = afont8x6.w;
    10e6:	00002d17          	auipc	s10,0x2
    10ea:	51fd4d03          	lbu	s10,1311(s10) # 3605 <afont8x6+0x1>
d:\CH573FEVT\LaserRangeFinder\obj/../src/TFTc/TFT_text.c:91
            char_width = afont12x6.w;
    10ee:	00002d97          	auipc	s11,0x2
    10f2:	507dcd83          	lbu	s11,1287(s11) # 35f5 <afont12x6+0x1>
d:\CH573FEVT\LaserRangeFinder\obj/../src/TFTc/TFT_text.c:89
            char_width = afont16x8.w;
    10f6:	00002317          	auipc	t1,0x2
    10fa:	50734303          	lbu	t1,1287(t1) # 35fd <afont16x8+0x1>
d:\CH573FEVT\LaserRangeFinder\obj/../src/TFTc/TFT_text.c:82
    while (*str) // 瀛绗涓茬村伴 null 缁姝㈢
    10fe:	0004c683          	lbu	a3,0(s1)
    1102:	e285                	bnez	a3,1122 <TFT_Show_String+0x6c>
d:\CH573FEVT\LaserRangeFinder\obj/../src/TFTc/TFT_text.c:98
}
    1104:	40b6                	lw	ra,76(sp)
    1106:	4426                	lw	s0,72(sp)
    1108:	4496                	lw	s1,68(sp)
    110a:	4906                	lw	s2,64(sp)
    110c:	59f2                	lw	s3,60(sp)
    110e:	5a62                	lw	s4,56(sp)
    1110:	5ad2                	lw	s5,52(sp)
    1112:	5b42                	lw	s6,48(sp)
    1114:	5bb2                	lw	s7,44(sp)
    1116:	5c22                	lw	s8,40(sp)
    1118:	5c92                	lw	s9,36(sp)
    111a:	5d02                	lw	s10,32(sp)
    111c:	4df2                	lw	s11,28(sp)
    111e:	6161                	addi	sp,sp,80
    1120:	8082                	ret
d:\CH573FEVT\LaserRangeFinder\obj/../src/TFTc/TFT_text.c:85
        TFT_Show_Char(htft, current_x, y, *str, color, back_color, size, mode);
    1122:	87da                	mv	a5,s6
    1124:	88de                	mv	a7,s7
    1126:	884a                	mv	a6,s2
    1128:	8756                	mv	a4,s5
    112a:	8652                	mv	a2,s4
    112c:	85a2                	mv	a1,s0
    112e:	854e                	mv	a0,s3
    1130:	c61a                	sw	t1,12(sp)
    1132:	35a1                	jal	f7a <TFT_Show_Char>
d:\CH573FEVT\LaserRangeFinder\obj/../src/TFTc/TFT_text.c:88
        if (size == 16)
    1134:	4332                	lw	t1,12(sp)
d:\CH573FEVT\LaserRangeFinder\obj/../src/TFTc/TFT_text.c:89
            char_width = afont16x8.w;
    1136:	879a                	mv	a5,t1
d:\CH573FEVT\LaserRangeFinder\obj/../src/TFTc/TFT_text.c:88
        if (size == 16)
    1138:	01890663          	beq	s2,s8,1144 <TFT_Show_String+0x8e>
d:\CH573FEVT\LaserRangeFinder\obj/../src/TFTc/TFT_text.c:93
            char_width = afont8x6.w;
    113c:	87ea                	mv	a5,s10
d:\CH573FEVT\LaserRangeFinder\obj/../src/TFTc/TFT_text.c:90
        else if (size == 12)
    113e:	01991363          	bne	s2,s9,1144 <TFT_Show_String+0x8e>
d:\CH573FEVT\LaserRangeFinder\obj/../src/TFTc/TFT_text.c:91
            char_width = afont12x6.w;
    1142:	87ee                	mv	a5,s11
d:\CH573FEVT\LaserRangeFinder\obj/../src/TFTc/TFT_text.c:95
        current_x += char_width; // 绉诲ㄥ颁涓涓瀛绗浣缃
    1144:	943e                	add	s0,s0,a5
    1146:	0442                	slli	s0,s0,0x10
    1148:	8041                	srli	s0,s0,0x10
d:\CH573FEVT\LaserRangeFinder\obj/../src/TFTc/TFT_text.c:96
        str++;                   // 涓涓涓瀛绗
    114a:	0485                	addi	s1,s1,1
    114c:	bf4d                	j	10fe <TFT_Show_String+0x48>

0000114e <main>:
main():
d:\CH573FEVT\LaserRangeFinder\obj/../src/Main.c:50
{
    114e:	1141                	addi	sp,sp,-16
d:\CH573FEVT\LaserRangeFinder\obj/../src/Main.c:51
    SetSysClock(CLK_SOURCE_PLL_60MHz);
    1150:	04800513          	li	a0,72
d:\CH573FEVT\LaserRangeFinder\obj/../src/Main.c:50
{
    1154:	c606                	sw	ra,12(sp)
    1156:	c422                	sw	s0,8(sp)
    1158:	c226                	sw	s1,4(sp)
d:\CH573FEVT\LaserRangeFinder\obj/../src/Main.c:54
    GPIOA_SetBits(GPIO_Pin_9);
    115a:	40001437          	lui	s0,0x40001
d:\CH573FEVT\LaserRangeFinder\obj/../src/Main.c:51
    SetSysClock(CLK_SOURCE_PLL_60MHz);
    115e:	20002097          	auipc	ra,0x20002
    1162:	7ee080e7          	jalr	2030(ra) # 2000394c <SetSysClock>
d:\CH573FEVT\LaserRangeFinder\obj/../src/Main.c:54
    GPIOA_SetBits(GPIO_Pin_9);
    1166:	0a842783          	lw	a5,168(s0) # 400010a8 <_eusrstack+0x1fff90a8>
d:\CH573FEVT\LaserRangeFinder\obj/../src/Main.c:55
    GPIOA_ModeCfg(GPIO_Pin_8, GPIO_ModeIN_PU);
    116a:	4585                	li	a1,1
    116c:	10000513          	li	a0,256
d:\CH573FEVT\LaserRangeFinder\obj/../src/Main.c:54
    GPIOA_SetBits(GPIO_Pin_9);
    1170:	2007e793          	ori	a5,a5,512
    1174:	0af42423          	sw	a5,168(s0)
d:\CH573FEVT\LaserRangeFinder\obj/../src/Main.c:55
    GPIOA_ModeCfg(GPIO_Pin_8, GPIO_ModeIN_PU);
    1178:	2281                	jal	12b8 <GPIOA_ModeCfg>
d:\CH573FEVT\LaserRangeFinder\obj/../src/Main.c:56
    GPIOA_ModeCfg(GPIO_Pin_9, GPIO_ModeOut_PP_5mA);
    117a:	458d                	li	a1,3
    117c:	20000513          	li	a0,512
    1180:	2a25                	jal	12b8 <GPIOA_ModeCfg>
d:\CH573FEVT\LaserRangeFinder\obj/../src/Main.c:57
    UART1_DefInit();
    1182:	29a1                	jal	15da <UART1_DefInit>
d:\CH573FEVT\LaserRangeFinder\obj/../src/Main.c:58
    PRINT("Start @ChipID=%02X\n", R8_CHIP_ID);
    1184:	04144583          	lbu	a1,65(s0)
    1188:	00002517          	auipc	a0,0x2
    118c:	35850513          	addi	a0,a0,856 # 34e0 <ascii_8x6+0x228>
d:\CH573FEVT\LaserRangeFinder\obj/../src/Main.c:61
    GPIOA_ModeCfg(TFT_RES_Pin, GPIO_ModeOut_PP_5mA);
    1190:	6485                	lui	s1,0x1
d:\CH573FEVT\LaserRangeFinder\obj/../src/Main.c:58
    PRINT("Start @ChipID=%02X\n", R8_CHIP_ID);
    1192:	2511                	jal	1796 <iprintf>
d:\CH573FEVT\LaserRangeFinder\obj/../src/Main.c:60
    GPIOA_ModeCfg(TFT_CS_Pin, GPIO_ModeOut_PP_5mA);
    1194:	458d                	li	a1,3
    1196:	6505                	lui	a0,0x1
    1198:	2205                	jal	12b8 <GPIOA_ModeCfg>
d:\CH573FEVT\LaserRangeFinder\obj/../src/Main.c:61
    GPIOA_ModeCfg(TFT_RES_Pin, GPIO_ModeOut_PP_5mA);
    119a:	80048513          	addi	a0,s1,-2048 # 800 <memset+0x1a>
    119e:	458d                	li	a1,3
    11a0:	2a21                	jal	12b8 <GPIOA_ModeCfg>
d:\CH573FEVT\LaserRangeFinder\obj/../src/Main.c:62
    GPIOA_ModeCfg(TFT_DC_Pin, GPIO_ModeOut_PP_5mA);
    11a2:	458d                	li	a1,3
    11a4:	40000513          	li	a0,1024
    11a8:	2a01                	jal	12b8 <GPIOA_ModeCfg>
d:\CH573FEVT\LaserRangeFinder\obj/../src/Main.c:63
    GPIOB_ModeCfg(TFT_BLK_Pin, GPIO_ModeOut_PP_5mA);
    11aa:	458d                	li	a1,3
    11ac:	00400537          	lui	a0,0x400
    11b0:	227d                	jal	135e <GPIOB_ModeCfg>
d:\CH573FEVT\LaserRangeFinder\obj/../src/Main.c:65
    TFT_Init_Instance(&htft1, &SPI0, TFT_CS_GPIO_Port, TFT_CS_Pin);
    11b2:	6685                	lui	a3,0x1
    11b4:	4601                	li	a2,0
    11b6:	80c18593          	addi	a1,gp,-2036 # 2000406c <SPI0>
    11ba:	81818513          	addi	a0,gp,-2024 # 20004078 <htft1>
    11be:	9bbff0ef          	jal	ra,b78 <TFT_Init_Instance>
d:\CH573FEVT\LaserRangeFinder\obj/../src/Main.c:66
    TFT_Config_Pins(&htft1, TFT_DC_GPIO_Port, TFT_DC_Pin, TFT_RES_GPIO_Port, TFT_RES_Pin, TFT_BLK_GPIO_Port, TFT_BLK_Pin); // 必须手动设置引脚
    11c2:	80048713          	addi	a4,s1,-2048
    11c6:	00400837          	lui	a6,0x400
    11ca:	4785                	li	a5,1
    11cc:	4681                	li	a3,0
    11ce:	40000613          	li	a2,1024
    11d2:	4581                	li	a1,0
    11d4:	81818513          	addi	a0,gp,-2024 # 20004078 <htft1>
    11d8:	9c5ff0ef          	jal	ra,b9c <TFT_Config_Pins>
d:\CH573FEVT\LaserRangeFinder\obj/../src/Main.c:67
    TFT_Config_Display(&htft1, 0, 0, 0);                                                                                   // 设置方向、X/Y偏移
    11dc:	4681                	li	a3,0
    11de:	4601                	li	a2,0
    11e0:	4581                	li	a1,0
    11e2:	81818513          	addi	a0,gp,-2024 # 20004078 <htft1>
    11e6:	9cdff0ef          	jal	ra,bb2 <TFT_Config_Display>
d:\CH573FEVT\LaserRangeFinder\obj/../src/Main.c:68
    TFT_Init_ST7789v3(&htft1);                                                                                             // ST7789v3屏幕初始化,右键进入tft_init.c查看更多屏幕的初始化函数
    11ea:	81818513          	addi	a0,gp,-2024 # 20004078 <htft1>
    11ee:	f4cff0ef          	jal	ra,93a <TFT_Init_ST7789v3>
d:\CH573FEVT\LaserRangeFinder\obj/../src/Main.c:69
    TFT_Show_String(&htft1, 20, 20, "now ST7789v3", WHITE, BLACK, 16, 0);
    11f2:	6441                	lui	s0,0x10
    11f4:	fff40713          	addi	a4,s0,-1 # ffff <_data_lma+0xc9ef>
    11f8:	4881                	li	a7,0
    11fa:	4841                	li	a6,16
    11fc:	4781                	li	a5,0
    11fe:	00002697          	auipc	a3,0x2
    1202:	2f668693          	addi	a3,a3,758 # 34f4 <ascii_8x6+0x23c>
    1206:	4651                	li	a2,20
    1208:	45d1                	li	a1,20
    120a:	81818513          	addi	a0,gp,-2024 # 20004078 <htft1>
    120e:	3565                	jal	10b6 <TFT_Show_String>
d:\CH573FEVT\LaserRangeFinder\obj/../src/Main.c:78
    GPIOB_ModeCfg(KEY1_PIN, GPIO_ModeIN_PU);         // 按键1上拉输入
    1210:	4585                	li	a1,1
    1212:	40000513          	li	a0,1024
    1216:	22a1                	jal	135e <GPIOB_ModeCfg>
d:\CH573FEVT\LaserRangeFinder\obj/../src/Main.c:79
    GPIOB_ITModeCfg(KEY1_PIN, GPIO_ITMode_FallEdge); // 按键1下降沿触发
    1218:	4589                	li	a1,2
    121a:	40000513          	li	a0,1024
    121e:	22dd                	jal	1404 <GPIOB_ITModeCfg>
d:\CH573FEVT\LaserRangeFinder\obj/../src/Main.c:80
    GPIOB_ModeCfg(KEY2_PIN, GPIO_ModeIN_PU);         // 按键2上拉输入
    1220:	80048513          	addi	a0,s1,-2048
    1224:	4585                	li	a1,1
    1226:	2a25                	jal	135e <GPIOB_ModeCfg>
d:\CH573FEVT\LaserRangeFinder\obj/../src/Main.c:81
    GPIOB_ITModeCfg(KEY2_PIN, GPIO_ITMode_FallEdge); // 按键2下降沿触发
    1228:	80048513          	addi	a0,s1,-2048
    122c:	4589                	li	a1,2
    122e:	2ad9                	jal	1404 <GPIOB_ITModeCfg>
d:\CH573FEVT\LaserRangeFinder\obj/../src/Main.c:82
    GPIOB_ModeCfg(KEY3_PIN, GPIO_ModeIN_PU);         // 按键3上拉输入
    1230:	4585                	li	a1,1
    1232:	6505                	lui	a0,0x1
    1234:	222d                	jal	135e <GPIOB_ModeCfg>
d:\CH573FEVT\LaserRangeFinder\obj/../src/Main.c:83
    GPIOB_ITModeCfg(KEY3_PIN, GPIO_ITMode_FallEdge); // 按键3下降沿触发
    1236:	4589                	li	a1,2
    1238:	6505                	lui	a0,0x1
    123a:	22e9                	jal	1404 <GPIOB_ITModeCfg>
d:\CH573FEVT\LaserRangeFinder\obj/../src/Main.c:84
    GPIOB_ModeCfg(KEY4_PIN, GPIO_ModeIN_PU);         // 按键4上拉输入
    123c:	4585                	li	a1,1
    123e:	6509                	lui	a0,0x2
    1240:	2a39                	jal	135e <GPIOB_ModeCfg>
d:\CH573FEVT\LaserRangeFinder\obj/../src/Main.c:85
    GPIOB_ITModeCfg(KEY4_PIN, GPIO_ITMode_FallEdge); // 按键4下降沿触发
    1242:	4589                	li	a1,2
    1244:	6509                	lui	a0,0x2
    1246:	2a7d                	jal	1404 <GPIOB_ITModeCfg>
PFIC_EnableIRQ():
d:/CH573FEVT/LaserRangeFinder/RVMSIS/core_riscv.h:99
 *
 * @param   IRQn    - Interrupt Numbers
 */
RV_STATIC_INLINE void PFIC_EnableIRQ(IRQn_Type IRQn)
{
    PFIC->IENR[((uint32_t)(IRQn) >> 5)] = (1 << ((uint32_t)(IRQn)&0x1F));
    1248:	e000e7b7          	lui	a5,0xe000e
    124c:	00040737          	lui	a4,0x40
    1250:	10e7a023          	sw	a4,256(a5) # e000e100 <_eusrstack+0xc0006100>
main():
d:\CH573FEVT\LaserRangeFinder\obj/../src/Main.c:88
    PRINT("Press Key \n");
    1254:	00002517          	auipc	a0,0x2
    1258:	2b050513          	addi	a0,a0,688 # 3504 <ascii_8x6+0x24c>
    125c:	2da1                	jal	18b4 <puts>
d:\CH573FEVT\LaserRangeFinder\obj/../src/Main.c:93
        TFT_Fill_Area(&htft1, 0, 40, WIDTH, HEIGHT, RED);
    125e:	80040413          	addi	s0,s0,-2048
    1262:	81818493          	addi	s1,gp,-2024 # 20004078 <htft1>
d:\CH573FEVT\LaserRangeFinder\obj/../src/Main.c:93 (discriminator 1)
    1266:	87a2                	mv	a5,s0
    1268:	8526                	mv	a0,s1
    126a:	14000713          	li	a4,320
    126e:	0f000693          	li	a3,240
    1272:	02800613          	li	a2,40
    1276:	4581                	li	a1,0
    1278:	e16ff0ef          	jal	ra,88e <TFT_Fill_Area>
d:\CH573FEVT\LaserRangeFinder\obj/../src/Main.c:94 (discriminator 1)
        TFT_Fill_Area(&htft1, 0, 40, WIDTH, HEIGHT, GREEN);
    127c:	8526                	mv	a0,s1
    127e:	7e000793          	li	a5,2016
    1282:	14000713          	li	a4,320
    1286:	0f000693          	li	a3,240
    128a:	02800613          	li	a2,40
    128e:	4581                	li	a1,0
    1290:	dfeff0ef          	jal	ra,88e <TFT_Fill_Area>
d:\CH573FEVT\LaserRangeFinder\obj/../src/Main.c:95 (discriminator 1)
        TFT_Fill_Area(&htft1, 0, 40, WIDTH, HEIGHT, BLUE);
    1294:	8526                	mv	a0,s1
    1296:	47fd                	li	a5,31
    1298:	14000713          	li	a4,320
    129c:	0f000693          	li	a3,240
    12a0:	02800613          	li	a2,40
    12a4:	4581                	li	a1,0
    12a6:	de8ff0ef          	jal	ra,88e <TFT_Fill_Area>
d:\CH573FEVT\LaserRangeFinder\obj/../src/Main.c:96 (discriminator 1)
        DelayMs(500);
    12aa:	1f400513          	li	a0,500
    12ae:	20003097          	auipc	ra,0x20003
    12b2:	846080e7          	jalr	-1978(ra) # 20003af4 <mDelaymS>
    12b6:	bf45                	j	1266 <main+0x118>

000012b8 <GPIOA_ModeCfg>:
GPIOA_ModeCfg():
d:\CH573FEVT\LaserRangeFinder\obj/../StdPeriphDriver/CH57x_gpio.c:27
 *
 * @return  none
 */
void GPIOA_ModeCfg(uint32_t pin, GPIOModeTypeDef mode)
{
    switch(mode)
    12b8:	4791                	li	a5,4
    12ba:	02b7ee63          	bltu	a5,a1,12f6 <GPIOA_ModeCfg+0x3e>
    12be:	00002717          	auipc	a4,0x2
    12c2:	27270713          	addi	a4,a4,626 # 3530 <ascii_8x6+0x278>
    12c6:	058a                	slli	a1,a1,0x2
    12c8:	95ba                	add	a1,a1,a4
    12ca:	419c                	lw	a5,0(a1)
    12cc:	97ba                	add	a5,a5,a4
    12ce:	8782                	jr	a5
d:\CH573FEVT\LaserRangeFinder\obj/../StdPeriphDriver/CH57x_gpio.c:30
    {
        case GPIO_ModeIN_Floating:
            R32_PA_PD_DRV &= ~pin;
    12d0:	400017b7          	lui	a5,0x40001
    12d4:	0b47a703          	lw	a4,180(a5) # 400010b4 <_eusrstack+0x1fff90b4>
    12d8:	fff54513          	not	a0,a0
    12dc:	8f69                	and	a4,a4,a0
    12de:	0ae7aa23          	sw	a4,180(a5)
d:\CH573FEVT\LaserRangeFinder\obj/../StdPeriphDriver/CH57x_gpio.c:31
            R32_PA_PU &= ~pin;
    12e2:	0b07a703          	lw	a4,176(a5)
d:\CH573FEVT\LaserRangeFinder\obj/../StdPeriphDriver/CH57x_gpio.c:43
            R32_PA_DIR &= ~pin;
            break;

        case GPIO_ModeIN_PD:
            R32_PA_PD_DRV |= pin;
            R32_PA_PU &= ~pin;
    12e6:	8f69                	and	a4,a4,a0
    12e8:	0ae7a823          	sw	a4,176(a5)
d:\CH573FEVT\LaserRangeFinder\obj/../StdPeriphDriver/CH57x_gpio.c:44
            R32_PA_DIR &= ~pin;
    12ec:	0a07a703          	lw	a4,160(a5)
    12f0:	8d79                	and	a0,a0,a4
d:\CH573FEVT\LaserRangeFinder\obj/../StdPeriphDriver/CH57x_gpio.c:54
            R32_PA_DIR |= pin;
            break;

        case GPIO_ModeOut_PP_20mA:
            R32_PA_PD_DRV |= pin;
            R32_PA_DIR |= pin;
    12f2:	0aa7a023          	sw	a0,160(a5)
d:\CH573FEVT\LaserRangeFinder\obj/../StdPeriphDriver/CH57x_gpio.c:60
            break;

        default:
            break;
    }
}
    12f6:	8082                	ret
d:\CH573FEVT\LaserRangeFinder\obj/../StdPeriphDriver/CH57x_gpio.c:36
            R32_PA_PD_DRV &= ~pin;
    12f8:	400017b7          	lui	a5,0x40001
    12fc:	0b47a683          	lw	a3,180(a5) # 400010b4 <_eusrstack+0x1fff90b4>
    1300:	fff54713          	not	a4,a0
    1304:	8ef9                	and	a3,a3,a4
    1306:	0ad7aa23          	sw	a3,180(a5)
d:\CH573FEVT\LaserRangeFinder\obj/../StdPeriphDriver/CH57x_gpio.c:37
            R32_PA_PU |= pin;
    130a:	0b07a683          	lw	a3,176(a5)
    130e:	8d55                	or	a0,a0,a3
    1310:	0aa7a823          	sw	a0,176(a5)
d:\CH573FEVT\LaserRangeFinder\obj/../StdPeriphDriver/CH57x_gpio.c:38
            R32_PA_DIR &= ~pin;
    1314:	0a07a683          	lw	a3,160(a5)
    1318:	8f75                	and	a4,a4,a3
    131a:	0ae7a023          	sw	a4,160(a5)
d:\CH573FEVT\LaserRangeFinder\obj/../StdPeriphDriver/CH57x_gpio.c:39
            break;
    131e:	8082                	ret
d:\CH573FEVT\LaserRangeFinder\obj/../StdPeriphDriver/CH57x_gpio.c:42
            R32_PA_PD_DRV |= pin;
    1320:	400017b7          	lui	a5,0x40001
    1324:	0b47a703          	lw	a4,180(a5) # 400010b4 <_eusrstack+0x1fff90b4>
    1328:	8f49                	or	a4,a4,a0
    132a:	0ae7aa23          	sw	a4,180(a5)
d:\CH573FEVT\LaserRangeFinder\obj/../StdPeriphDriver/CH57x_gpio.c:43
            R32_PA_PU &= ~pin;
    132e:	0b07a703          	lw	a4,176(a5)
    1332:	fff54513          	not	a0,a0
    1336:	bf45                	j	12e6 <GPIOA_ModeCfg+0x2e>
d:\CH573FEVT\LaserRangeFinder\obj/../StdPeriphDriver/CH57x_gpio.c:48
            R32_PA_PD_DRV &= ~pin;
    1338:	400017b7          	lui	a5,0x40001
    133c:	0b47a683          	lw	a3,180(a5) # 400010b4 <_eusrstack+0x1fff90b4>
    1340:	fff54713          	not	a4,a0
    1344:	8f75                	and	a4,a4,a3
d:\CH573FEVT\LaserRangeFinder\obj/../StdPeriphDriver/CH57x_gpio.c:53
            R32_PA_PD_DRV |= pin;
    1346:	0ae7aa23          	sw	a4,180(a5)
d:\CH573FEVT\LaserRangeFinder\obj/../StdPeriphDriver/CH57x_gpio.c:54
            R32_PA_DIR |= pin;
    134a:	0a07a703          	lw	a4,160(a5)
    134e:	8d59                	or	a0,a0,a4
    1350:	b74d                	j	12f2 <GPIOA_ModeCfg+0x3a>
d:\CH573FEVT\LaserRangeFinder\obj/../StdPeriphDriver/CH57x_gpio.c:53
            R32_PA_PD_DRV |= pin;
    1352:	400017b7          	lui	a5,0x40001
    1356:	0b47a703          	lw	a4,180(a5) # 400010b4 <_eusrstack+0x1fff90b4>
    135a:	8f49                	or	a4,a4,a0
    135c:	b7ed                	j	1346 <GPIOA_ModeCfg+0x8e>

0000135e <GPIOB_ModeCfg>:
GPIOB_ModeCfg():
d:\CH573FEVT\LaserRangeFinder\obj/../StdPeriphDriver/CH57x_gpio.c:74
 *
 * @return  none
 */
void GPIOB_ModeCfg(uint32_t pin, GPIOModeTypeDef mode)
{
    switch(mode)
    135e:	4791                	li	a5,4
    1360:	02b7ee63          	bltu	a5,a1,139c <GPIOB_ModeCfg+0x3e>
    1364:	00002717          	auipc	a4,0x2
    1368:	1e070713          	addi	a4,a4,480 # 3544 <ascii_8x6+0x28c>
    136c:	058a                	slli	a1,a1,0x2
    136e:	95ba                	add	a1,a1,a4
    1370:	419c                	lw	a5,0(a1)
    1372:	97ba                	add	a5,a5,a4
    1374:	8782                	jr	a5
d:\CH573FEVT\LaserRangeFinder\obj/../StdPeriphDriver/CH57x_gpio.c:77
    {
        case GPIO_ModeIN_Floating:
            R32_PB_PD_DRV &= ~pin;
    1376:	400017b7          	lui	a5,0x40001
    137a:	0d47a703          	lw	a4,212(a5) # 400010d4 <_eusrstack+0x1fff90d4>
    137e:	fff54513          	not	a0,a0
    1382:	8f69                	and	a4,a4,a0
    1384:	0ce7aa23          	sw	a4,212(a5)
d:\CH573FEVT\LaserRangeFinder\obj/../StdPeriphDriver/CH57x_gpio.c:78
            R32_PB_PU &= ~pin;
    1388:	0d07a703          	lw	a4,208(a5)
d:\CH573FEVT\LaserRangeFinder\obj/../StdPeriphDriver/CH57x_gpio.c:90
            R32_PB_DIR &= ~pin;
            break;

        case GPIO_ModeIN_PD:
            R32_PB_PD_DRV |= pin;
            R32_PB_PU &= ~pin;
    138c:	8f69                	and	a4,a4,a0
    138e:	0ce7a823          	sw	a4,208(a5)
d:\CH573FEVT\LaserRangeFinder\obj/../StdPeriphDriver/CH57x_gpio.c:91
            R32_PB_DIR &= ~pin;
    1392:	0c07a703          	lw	a4,192(a5)
    1396:	8d79                	and	a0,a0,a4
d:\CH573FEVT\LaserRangeFinder\obj/../StdPeriphDriver/CH57x_gpio.c:101
            R32_PB_DIR |= pin;
            break;

        case GPIO_ModeOut_PP_20mA:
            R32_PB_PD_DRV |= pin;
            R32_PB_DIR |= pin;
    1398:	0ca7a023          	sw	a0,192(a5)
d:\CH573FEVT\LaserRangeFinder\obj/../StdPeriphDriver/CH57x_gpio.c:107
            break;

        default:
            break;
    }
}
    139c:	8082                	ret
d:\CH573FEVT\LaserRangeFinder\obj/../StdPeriphDriver/CH57x_gpio.c:83
            R32_PB_PD_DRV &= ~pin;
    139e:	400017b7          	lui	a5,0x40001
    13a2:	0d47a683          	lw	a3,212(a5) # 400010d4 <_eusrstack+0x1fff90d4>
    13a6:	fff54713          	not	a4,a0
    13aa:	8ef9                	and	a3,a3,a4
    13ac:	0cd7aa23          	sw	a3,212(a5)
d:\CH573FEVT\LaserRangeFinder\obj/../StdPeriphDriver/CH57x_gpio.c:84
            R32_PB_PU |= pin;
    13b0:	0d07a683          	lw	a3,208(a5)
    13b4:	8d55                	or	a0,a0,a3
    13b6:	0ca7a823          	sw	a0,208(a5)
d:\CH573FEVT\LaserRangeFinder\obj/../StdPeriphDriver/CH57x_gpio.c:85
            R32_PB_DIR &= ~pin;
    13ba:	0c07a683          	lw	a3,192(a5)
    13be:	8f75                	and	a4,a4,a3
    13c0:	0ce7a023          	sw	a4,192(a5)
d:\CH573FEVT\LaserRangeFinder\obj/../StdPeriphDriver/CH57x_gpio.c:86
            break;
    13c4:	8082                	ret
d:\CH573FEVT\LaserRangeFinder\obj/../StdPeriphDriver/CH57x_gpio.c:89
            R32_PB_PD_DRV |= pin;
    13c6:	400017b7          	lui	a5,0x40001
    13ca:	0d47a703          	lw	a4,212(a5) # 400010d4 <_eusrstack+0x1fff90d4>
    13ce:	8f49                	or	a4,a4,a0
    13d0:	0ce7aa23          	sw	a4,212(a5)
d:\CH573FEVT\LaserRangeFinder\obj/../StdPeriphDriver/CH57x_gpio.c:90
            R32_PB_PU &= ~pin;
    13d4:	0d07a703          	lw	a4,208(a5)
    13d8:	fff54513          	not	a0,a0
    13dc:	bf45                	j	138c <GPIOB_ModeCfg+0x2e>
d:\CH573FEVT\LaserRangeFinder\obj/../StdPeriphDriver/CH57x_gpio.c:95
            R32_PB_PD_DRV &= ~pin;
    13de:	400017b7          	lui	a5,0x40001
    13e2:	0d47a683          	lw	a3,212(a5) # 400010d4 <_eusrstack+0x1fff90d4>
    13e6:	fff54713          	not	a4,a0
    13ea:	8f75                	and	a4,a4,a3
d:\CH573FEVT\LaserRangeFinder\obj/../StdPeriphDriver/CH57x_gpio.c:100
            R32_PB_PD_DRV |= pin;
    13ec:	0ce7aa23          	sw	a4,212(a5)
d:\CH573FEVT\LaserRangeFinder\obj/../StdPeriphDriver/CH57x_gpio.c:101
            R32_PB_DIR |= pin;
    13f0:	0c07a703          	lw	a4,192(a5)
    13f4:	8d59                	or	a0,a0,a4
    13f6:	b74d                	j	1398 <GPIOB_ModeCfg+0x3a>
d:\CH573FEVT\LaserRangeFinder\obj/../StdPeriphDriver/CH57x_gpio.c:100
            R32_PB_PD_DRV |= pin;
    13f8:	400017b7          	lui	a5,0x40001
    13fc:	0d47a703          	lw	a4,212(a5) # 400010d4 <_eusrstack+0x1fff90d4>
    1400:	8f49                	or	a4,a4,a0
    1402:	b7ed                	j	13ec <GPIOB_ModeCfg+0x8e>

00001404 <GPIOB_ITModeCfg>:
GPIOB_ITModeCfg():
d:\CH573FEVT\LaserRangeFinder\obj/../StdPeriphDriver/CH57x_gpio.c:162
 *
 * @return  none
 */
void GPIOB_ITModeCfg(uint32_t pin, GPIOITModeTpDef mode)
{
    uint32_t Pin = pin | ((pin & (GPIO_Pin_22 | GPIO_Pin_23)) >> 14);
    1404:	00e55793          	srli	a5,a0,0xe
    1408:	3007f793          	andi	a5,a5,768
    140c:	8fc9                	or	a5,a5,a0
    140e:	07c2                	slli	a5,a5,0x10
    1410:	4705                	li	a4,1
    1412:	83c1                	srli	a5,a5,0x10
    1414:	04e58263          	beq	a1,a4,1458 <GPIOB_ITModeCfg+0x54>
    1418:	c18d                	beqz	a1,143a <GPIOB_ITModeCfg+0x36>
    141a:	4709                	li	a4,2
    141c:	04e58d63          	beq	a1,a4,1476 <GPIOB_ITModeCfg+0x72>
    1420:	470d                	li	a4,3
    1422:	06e58063          	beq	a1,a4,1482 <GPIOB_ITModeCfg+0x7e>
d:\CH573FEVT\LaserRangeFinder\obj/../StdPeriphDriver/CH57x_gpio.c:188
            break;

        default:
            break;
    }
    R16_PB_INT_IF = Pin;
    1426:	40001737          	lui	a4,0x40001
    142a:	08f71f23          	sh	a5,158(a4) # 4000109e <_eusrstack+0x1fff909e>
d:\CH573FEVT\LaserRangeFinder\obj/../StdPeriphDriver/CH57x_gpio.c:189
    R16_PB_INT_EN |= Pin;
    142e:	09275683          	lhu	a3,146(a4)
    1432:	8fd5                	or	a5,a5,a3
    1434:	08f71923          	sh	a5,146(a4)
d:\CH573FEVT\LaserRangeFinder\obj/../StdPeriphDriver/CH57x_gpio.c:190
}
    1438:	8082                	ret
d:\CH573FEVT\LaserRangeFinder\obj/../StdPeriphDriver/CH57x_gpio.c:166
            R16_PB_INT_MODE &= ~Pin;
    143a:	40001737          	lui	a4,0x40001
    143e:	09675603          	lhu	a2,150(a4) # 40001096 <_eusrstack+0x1fff9096>
    1442:	fff7c693          	not	a3,a5
    1446:	8ef1                	and	a3,a3,a2
d:\CH573FEVT\LaserRangeFinder\obj/../StdPeriphDriver/CH57x_gpio.c:176
            R16_PB_INT_MODE |= Pin;
    1448:	08d71b23          	sh	a3,150(a4)
d:\CH573FEVT\LaserRangeFinder\obj/../StdPeriphDriver/CH57x_gpio.c:177
            R32_PB_CLR |= pin;
    144c:	0cc72683          	lw	a3,204(a4)
    1450:	8d55                	or	a0,a0,a3
    1452:	0ca72623          	sw	a0,204(a4)
d:\CH573FEVT\LaserRangeFinder\obj/../StdPeriphDriver/CH57x_gpio.c:178
            break;
    1456:	bfc1                	j	1426 <GPIOB_ITModeCfg+0x22>
d:\CH573FEVT\LaserRangeFinder\obj/../StdPeriphDriver/CH57x_gpio.c:171
            R16_PB_INT_MODE &= ~Pin;
    1458:	40001737          	lui	a4,0x40001
    145c:	09675603          	lhu	a2,150(a4) # 40001096 <_eusrstack+0x1fff9096>
    1460:	fff7c693          	not	a3,a5
    1464:	8ef1                	and	a3,a3,a2
d:\CH573FEVT\LaserRangeFinder\obj/../StdPeriphDriver/CH57x_gpio.c:181
            R16_PB_INT_MODE |= Pin;
    1466:	08d71b23          	sh	a3,150(a4)
d:\CH573FEVT\LaserRangeFinder\obj/../StdPeriphDriver/CH57x_gpio.c:182
            R32_PB_OUT |= pin;
    146a:	0c872683          	lw	a3,200(a4)
    146e:	8d55                	or	a0,a0,a3
    1470:	0ca72423          	sw	a0,200(a4)
d:\CH573FEVT\LaserRangeFinder\obj/../StdPeriphDriver/CH57x_gpio.c:183
            break;
    1474:	bf4d                	j	1426 <GPIOB_ITModeCfg+0x22>
d:\CH573FEVT\LaserRangeFinder\obj/../StdPeriphDriver/CH57x_gpio.c:176
            R16_PB_INT_MODE |= Pin;
    1476:	40001737          	lui	a4,0x40001
    147a:	09675683          	lhu	a3,150(a4) # 40001096 <_eusrstack+0x1fff9096>
    147e:	8edd                	or	a3,a3,a5
    1480:	b7e1                	j	1448 <GPIOB_ITModeCfg+0x44>
d:\CH573FEVT\LaserRangeFinder\obj/../StdPeriphDriver/CH57x_gpio.c:181
            R16_PB_INT_MODE |= Pin;
    1482:	40001737          	lui	a4,0x40001
    1486:	09675683          	lhu	a3,150(a4) # 40001096 <_eusrstack+0x1fff9096>
    148a:	8edd                	or	a3,a3,a5
    148c:	bfe9                	j	1466 <GPIOB_ITModeCfg+0x62>

0000148e <SPI0_MasterDefInit>:
SPI0_MasterDefInit():
d:\CH573FEVT\LaserRangeFinder\obj/../StdPeriphDriver/CH57x_spi0.c:26
 *
 * @return  none
 */
void SPI0_MasterDefInit(void)
{
    R8_SPI0_CLOCK_DIV = 4; // 主频时钟4分频
    148e:	400047b7          	lui	a5,0x40004
    1492:	4711                	li	a4,4
    1494:	00e781a3          	sb	a4,3(a5) # 40004003 <_eusrstack+0x1fffc003>
d:\CH573FEVT\LaserRangeFinder\obj/../StdPeriphDriver/CH57x_spi0.c:27
    R8_SPI0_CTRL_MOD = RB_SPI_ALL_CLEAR;
    1498:	4709                	li	a4,2
    149a:	00e78023          	sb	a4,0(a5)
d:\CH573FEVT\LaserRangeFinder\obj/../StdPeriphDriver/CH57x_spi0.c:28
    R8_SPI0_CTRL_MOD = RB_SPI_MOSI_OE | RB_SPI_SCK_OE;
    149e:	06000713          	li	a4,96
    14a2:	00e78023          	sb	a4,0(a5)
d:\CH573FEVT\LaserRangeFinder\obj/../StdPeriphDriver/CH57x_spi0.c:29
    R8_SPI0_CTRL_CFG |= RB_SPI_AUTO_IF;     // 访问BUFFER/FIFO自动清除IF_BYTE_END标志
    14a6:	0017c703          	lbu	a4,1(a5)
    14aa:	01076713          	ori	a4,a4,16
    14ae:	00e780a3          	sb	a4,1(a5)
d:\CH573FEVT\LaserRangeFinder\obj/../StdPeriphDriver/CH57x_spi0.c:30
    R8_SPI0_CTRL_CFG &= ~RB_SPI_DMA_ENABLE; // 不启动DMA方式
    14b2:	0017c703          	lbu	a4,1(a5)
    14b6:	0fe77713          	andi	a4,a4,254
    14ba:	00e780a3          	sb	a4,1(a5)
d:\CH573FEVT\LaserRangeFinder\obj/../StdPeriphDriver/CH57x_spi0.c:31
}
    14be:	8082                	ret

000014c0 <SPI0_MasterDMATrans>:
SPI0_MasterDMATrans():
d:\CH573FEVT\LaserRangeFinder\obj/../StdPeriphDriver/CH57x_spi0.c:193
 *
 * @return  none
 */
void SPI0_MasterDMATrans(uint8_t *pbuf, uint16_t len)
{
    R8_SPI0_CTRL_MOD &= ~RB_SPI_FIFO_DIR;
    14c0:	400047b7          	lui	a5,0x40004
    14c4:	0007c703          	lbu	a4,0(a5) # 40004000 <_eusrstack+0x1fffc000>
    14c8:	0ef77713          	andi	a4,a4,239
    14cc:	00e78023          	sb	a4,0(a5)
d:\CH573FEVT\LaserRangeFinder\obj/../StdPeriphDriver/CH57x_spi0.c:194
    R16_SPI0_DMA_BEG = (uint32_t)pbuf;
    14d0:	01051713          	slli	a4,a0,0x10
d:\CH573FEVT\LaserRangeFinder\obj/../StdPeriphDriver/CH57x_spi0.c:195
    R16_SPI0_DMA_END = (uint32_t)(pbuf + len);
    14d4:	952e                	add	a0,a0,a1
d:\CH573FEVT\LaserRangeFinder\obj/../StdPeriphDriver/CH57x_spi0.c:194
    R16_SPI0_DMA_BEG = (uint32_t)pbuf;
    14d6:	8341                	srli	a4,a4,0x10
d:\CH573FEVT\LaserRangeFinder\obj/../StdPeriphDriver/CH57x_spi0.c:195
    R16_SPI0_DMA_END = (uint32_t)(pbuf + len);
    14d8:	0542                	slli	a0,a0,0x10
d:\CH573FEVT\LaserRangeFinder\obj/../StdPeriphDriver/CH57x_spi0.c:194
    R16_SPI0_DMA_BEG = (uint32_t)pbuf;
    14da:	00e79c23          	sh	a4,24(a5)
d:\CH573FEVT\LaserRangeFinder\obj/../StdPeriphDriver/CH57x_spi0.c:195
    R16_SPI0_DMA_END = (uint32_t)(pbuf + len);
    14de:	8141                	srli	a0,a0,0x10
    14e0:	00a79e23          	sh	a0,28(a5)
d:\CH573FEVT\LaserRangeFinder\obj/../StdPeriphDriver/CH57x_spi0.c:196
    R16_SPI0_TOTAL_CNT = len;
    14e4:	00b79623          	sh	a1,12(a5)
d:\CH573FEVT\LaserRangeFinder\obj/../StdPeriphDriver/CH57x_spi0.c:197
    R8_SPI0_INT_FLAG = RB_SPI_IF_CNT_END | RB_SPI_IF_DMA_END;
    14e8:	4725                	li	a4,9
    14ea:	00e78323          	sb	a4,6(a5)
d:\CH573FEVT\LaserRangeFinder\obj/../StdPeriphDriver/CH57x_spi0.c:198
    R8_SPI0_CTRL_CFG |= RB_SPI_DMA_ENABLE;
    14ee:	0017c703          	lbu	a4,1(a5)
    14f2:	00176713          	ori	a4,a4,1
    14f6:	00e780a3          	sb	a4,1(a5)
d:\CH573FEVT\LaserRangeFinder\obj/../StdPeriphDriver/CH57x_spi0.c:199 (discriminator 1)
    while(!(R8_SPI0_INT_FLAG & RB_SPI_IF_CNT_END));
    14fa:	0067c703          	lbu	a4,6(a5)
    14fe:	8b05                	andi	a4,a4,1
    1500:	df6d                	beqz	a4,14fa <SPI0_MasterDMATrans+0x3a>
d:\CH573FEVT\LaserRangeFinder\obj/../StdPeriphDriver/CH57x_spi0.c:200
    R8_SPI0_CTRL_CFG &= ~RB_SPI_DMA_ENABLE;
    1502:	0017c703          	lbu	a4,1(a5)
    1506:	0fe77713          	andi	a4,a4,254
    150a:	00e780a3          	sb	a4,1(a5)
d:\CH573FEVT\LaserRangeFinder\obj/../StdPeriphDriver/CH57x_spi0.c:201
}
    150e:	8082                	ret

00001510 <GetSysClock>:
GetSysClock():
d:\CH573FEVT\LaserRangeFinder\obj/../StdPeriphDriver/CH57x_sys.c:94
    rev = R16_CLK_SYS_CFG & 0xff;
    1510:	400017b7          	lui	a5,0x40001
    1514:	0087d503          	lhu	a0,8(a5) # 40001008 <_eusrstack+0x1fff9008>
    1518:	0542                	slli	a0,a0,0x10
    151a:	8141                	srli	a0,a0,0x10
d:\CH573FEVT\LaserRangeFinder\obj/../StdPeriphDriver/CH57x_sys.c:95
    if((rev & 0x40) == (0 << 6))
    151c:	04057793          	andi	a5,a0,64
    1520:	eb91                	bnez	a5,1534 <GetSysClock+0x24>
d:\CH573FEVT\LaserRangeFinder\obj/../StdPeriphDriver/CH57x_sys.c:97
        return (32000000 / (rev & 0x1f));
    1522:	01f57793          	andi	a5,a0,31
    1526:	01e85537          	lui	a0,0x1e85
d:\CH573FEVT\LaserRangeFinder\obj/../StdPeriphDriver/CH57x_sys.c:101
        return (480000000 / (rev & 0x1f));
    152a:	80050513          	addi	a0,a0,-2048 # 1e84800 <_data_lma+0x1e811f0>
    152e:	02f54533          	div	a0,a0,a5
    1532:	8082                	ret
d:\CH573FEVT\LaserRangeFinder\obj/../StdPeriphDriver/CH57x_sys.c:99
    else if((rev & RB_CLK_SYS_MOD) == (1 << 6))
    1534:	0c057793          	andi	a5,a0,192
    1538:	04000713          	li	a4,64
    153c:	00e79763          	bne	a5,a4,154a <GetSysClock+0x3a>
d:\CH573FEVT\LaserRangeFinder\obj/../StdPeriphDriver/CH57x_sys.c:101
        return (480000000 / (rev & 0x1f));
    1540:	01f57793          	andi	a5,a0,31
    1544:	1c9c4537          	lui	a0,0x1c9c4
    1548:	b7cd                	j	152a <GetSysClock+0x1a>
d:\CH573FEVT\LaserRangeFinder\obj/../StdPeriphDriver/CH57x_sys.c:105
        return (32000);
    154a:	6521                	lui	a0,0x8
    154c:	d0050513          	addi	a0,a0,-768 # 7d00 <_data_lma+0x46f0>
d:\CH573FEVT\LaserRangeFinder\obj/../StdPeriphDriver/CH57x_sys.c:107
}
    1550:	8082                	ret

00001552 <_write>:
_write():
d:\CH573FEVT\LaserRangeFinder\obj/../StdPeriphDriver/CH57x_sys.c:354

#ifdef DEBUG
int _write(int fd, char *buf, int size)
{
    int i;
    for(i = 0; i < size; i++)
    1552:	4781                	li	a5,0
d:\CH573FEVT\LaserRangeFinder\obj/../StdPeriphDriver/CH57x_sys.c:360
    {
#if DEBUG == Debug_UART0
        while(R8_UART0_TFC == UART_FIFO_SIZE);                  /* 等待数据发送 */
        R8_UART0_THR = *buf++; /* 发送数据 */
#elif DEBUG == Debug_UART1
        while(R8_UART1_TFC == UART_FIFO_SIZE);                  /* 等待数据发送 */
    1554:	40003737          	lui	a4,0x40003
    1558:	46a1                	li	a3,8
d:\CH573FEVT\LaserRangeFinder\obj/../StdPeriphDriver/CH57x_sys.c:354 (discriminator 1)
    for(i = 0; i < size; i++)
    155a:	00c7c463          	blt	a5,a2,1562 <_write+0x10>
d:\CH573FEVT\LaserRangeFinder\obj/../StdPeriphDriver/CH57x_sys.c:371
        while(R8_UART3_TFC == UART_FIFO_SIZE);                  /* 等待数据发送 */
        R8_UART3_THR = *buf++; /* 发送数据 */
#endif
    }
    return size;
}
    155e:	8532                	mv	a0,a2
    1560:	8082                	ret
d:\CH573FEVT\LaserRangeFinder\obj/../StdPeriphDriver/CH57x_sys.c:360 (discriminator 1)
        while(R8_UART1_TFC == UART_FIFO_SIZE);                  /* 等待数据发送 */
    1562:	40b74503          	lbu	a0,1035(a4) # 4000340b <_eusrstack+0x1fffb40b>
    1566:	fea68ee3          	beq	a3,a0,1562 <_write+0x10>
d:\CH573FEVT\LaserRangeFinder\obj/../StdPeriphDriver/CH57x_sys.c:361 (discriminator 2)
        R8_UART1_THR = *buf++; /* 发送数据 */
    156a:	00f58533          	add	a0,a1,a5
    156e:	00054503          	lbu	a0,0(a0)
d:\CH573FEVT\LaserRangeFinder\obj/../StdPeriphDriver/CH57x_sys.c:354 (discriminator 2)
    for(i = 0; i < size; i++)
    1572:	0785                	addi	a5,a5,1
d:\CH573FEVT\LaserRangeFinder\obj/../StdPeriphDriver/CH57x_sys.c:361 (discriminator 2)
        R8_UART1_THR = *buf++; /* 发送数据 */
    1574:	40a70423          	sb	a0,1032(a4)
    1578:	b7cd                	j	155a <_write+0x8>

0000157a <_sbrk>:
_sbrk():
d:\CH573FEVT\LaserRangeFinder\obj/../StdPeriphDriver/CH57x_sys.c:389
{
    extern char _end[];
    extern char _heap_end[];
    static char *curbrk = _end;

    if ((curbrk + incr < _end) || (curbrk + incr > _heap_end))
    157a:	20003797          	auipc	a5,0x20003
    157e:	ae678793          	addi	a5,a5,-1306 # 20004060 <curbrk.3772>
    1582:	439c                	lw	a5,0(a5)
    1584:	85018713          	addi	a4,gp,-1968 # 200040b0 <_ebss>
    1588:	953e                	add	a0,a0,a5
    158a:	00e56e63          	bltu	a0,a4,15a6 <_sbrk+0x2c>
d:\CH573FEVT\LaserRangeFinder\obj/../StdPeriphDriver/CH57x_sys.c:389 (discriminator 1)
    158e:	20007717          	auipc	a4,0x20007
    1592:	87270713          	addi	a4,a4,-1934 # 20007e00 <_heap_end>
    1596:	00a76863          	bltu	a4,a0,15a6 <_sbrk+0x2c>
d:\CH573FEVT\LaserRangeFinder\obj/../StdPeriphDriver/CH57x_sys.c:392
    return NULL - 1;

    curbrk += incr;
    159a:	20003717          	auipc	a4,0x20003
    159e:	aca72323          	sw	a0,-1338(a4) # 20004060 <curbrk.3772>
d:\CH573FEVT\LaserRangeFinder\obj/../StdPeriphDriver/CH57x_sys.c:394
    return curbrk - incr;
}
    15a2:	853e                	mv	a0,a5
    15a4:	8082                	ret
d:\CH573FEVT\LaserRangeFinder\obj/../StdPeriphDriver/CH57x_sys.c:390
    return NULL - 1;
    15a6:	57fd                	li	a5,-1
    15a8:	bfed                	j	15a2 <_sbrk+0x28>

000015aa <UART1_BaudRateCfg>:
UART1_BaudRateCfg():
d:\CH573FEVT\LaserRangeFinder\obj/../StdPeriphDriver/CH57x_uart1.c:43
 * @param   baudrate    - 波特率
 *
 * @return  none
 */
void UART1_BaudRateCfg(uint32_t baudrate)
{
    15aa:	1141                	addi	sp,sp,-16
    15ac:	c422                	sw	s0,8(sp)
    15ae:	c606                	sw	ra,12(sp)
    15b0:	842a                	mv	s0,a0
d:\CH573FEVT\LaserRangeFinder\obj/../StdPeriphDriver/CH57x_uart1.c:46
    uint32_t x;

    x = 10 * GetSysClock() / 8 / baudrate;
    15b2:	3fb9                	jal	1510 <GetSysClock>
    15b4:	4729                	li	a4,10
    15b6:	02e507b3          	mul	a5,a0,a4
d:\CH573FEVT\LaserRangeFinder\obj/../StdPeriphDriver/CH57x_uart1.c:49
    x = (x + 5) / 10;
    R16_UART1_DL = (uint16_t)x;
}
    15ba:	40b2                	lw	ra,12(sp)
d:\CH573FEVT\LaserRangeFinder\obj/../StdPeriphDriver/CH57x_uart1.c:46
    x = 10 * GetSysClock() / 8 / baudrate;
    15bc:	838d                	srli	a5,a5,0x3
    15be:	0287d7b3          	divu	a5,a5,s0
d:\CH573FEVT\LaserRangeFinder\obj/../StdPeriphDriver/CH57x_uart1.c:49
}
    15c2:	4422                	lw	s0,8(sp)
d:\CH573FEVT\LaserRangeFinder\obj/../StdPeriphDriver/CH57x_uart1.c:47
    x = (x + 5) / 10;
    15c4:	0795                	addi	a5,a5,5
    15c6:	02e7d7b3          	divu	a5,a5,a4
d:\CH573FEVT\LaserRangeFinder\obj/../StdPeriphDriver/CH57x_uart1.c:48
    R16_UART1_DL = (uint16_t)x;
    15ca:	40003737          	lui	a4,0x40003
    15ce:	07c2                	slli	a5,a5,0x10
    15d0:	83c1                	srli	a5,a5,0x10
    15d2:	40f71623          	sh	a5,1036(a4) # 4000340c <_eusrstack+0x1fffb40c>
d:\CH573FEVT\LaserRangeFinder\obj/../StdPeriphDriver/CH57x_uart1.c:49
}
    15d6:	0141                	addi	sp,sp,16
    15d8:	8082                	ret

000015da <UART1_DefInit>:
UART1_DefInit():
d:\CH573FEVT\LaserRangeFinder\obj/../StdPeriphDriver/CH57x_uart1.c:26
    UART1_BaudRateCfg(115200);
    15da:	6571                	lui	a0,0x1c
d:\CH573FEVT\LaserRangeFinder\obj/../StdPeriphDriver/CH57x_uart1.c:25
{
    15dc:	1141                	addi	sp,sp,-16
d:\CH573FEVT\LaserRangeFinder\obj/../StdPeriphDriver/CH57x_uart1.c:26
    UART1_BaudRateCfg(115200);
    15de:	20050513          	addi	a0,a0,512 # 1c200 <_data_lma+0x18bf0>
d:\CH573FEVT\LaserRangeFinder\obj/../StdPeriphDriver/CH57x_uart1.c:25
{
    15e2:	c606                	sw	ra,12(sp)
d:\CH573FEVT\LaserRangeFinder\obj/../StdPeriphDriver/CH57x_uart1.c:26
    UART1_BaudRateCfg(115200);
    15e4:	37d9                	jal	15aa <UART1_BaudRateCfg>
d:\CH573FEVT\LaserRangeFinder\obj/../StdPeriphDriver/CH57x_uart1.c:27
    R8_UART1_FCR = (2 << 6) | RB_FCR_TX_FIFO_CLR | RB_FCR_RX_FIFO_CLR | RB_FCR_FIFO_EN; // FIFO打开，触发点4字节
    15e6:	400037b7          	lui	a5,0x40003
    15ea:	f8700713          	li	a4,-121
    15ee:	40e78123          	sb	a4,1026(a5) # 40003402 <_eusrstack+0x1fffb402>
d:\CH573FEVT\LaserRangeFinder\obj/../StdPeriphDriver/CH57x_uart1.c:28
    R8_UART1_LCR = RB_LCR_WORD_SZ;
    15f2:	470d                	li	a4,3
    15f4:	40e781a3          	sb	a4,1027(a5)
d:\CH573FEVT\LaserRangeFinder\obj/../StdPeriphDriver/CH57x_uart1.c:29
    R8_UART1_IER = RB_IER_TXD_EN;
    15f8:	04000713          	li	a4,64
    15fc:	40e780a3          	sb	a4,1025(a5)
d:\CH573FEVT\LaserRangeFinder\obj/../StdPeriphDriver/CH57x_uart1.c:30
    R8_UART1_DIV = 1;
    1600:	4705                	li	a4,1
    1602:	40e78723          	sb	a4,1038(a5)
d:\CH573FEVT\LaserRangeFinder\obj/../StdPeriphDriver/CH57x_uart1.c:31
}
    1606:	40b2                	lw	ra,12(sp)
    1608:	0141                	addi	sp,sp,16
    160a:	8082                	ret

0000160c <malloc>:
malloc():
    160c:	20003797          	auipc	a5,0x20003
    1610:	a5878793          	addi	a5,a5,-1448 # 20004064 <_impure_ptr>
    1614:	85aa                	mv	a1,a0
    1616:	4388                	lw	a0,0(a5)
    1618:	a06d                	j	16c2 <_malloc_r>

0000161a <_free_r>:
_free_r():
    161a:	c1dd                	beqz	a1,16c0 <_free_r+0xa6>
    161c:	ffc5a783          	lw	a5,-4(a1)
    1620:	1141                	addi	sp,sp,-16
    1622:	c422                	sw	s0,8(sp)
    1624:	c606                	sw	ra,12(sp)
    1626:	c226                	sw	s1,4(sp)
    1628:	ffc58413          	addi	s0,a1,-4
    162c:	0007d363          	bgez	a5,1632 <_free_r+0x18>
    1630:	943e                	add	s0,s0,a5
    1632:	84aa                	mv	s1,a0
    1634:	155000ef          	jal	ra,1f88 <__malloc_lock>
    1638:	81018793          	addi	a5,gp,-2032 # 20004070 <__malloc_free_list>
    163c:	439c                	lw	a5,0(a5)
    163e:	ef81                	bnez	a5,1656 <_free_r+0x3c>
    1640:	00042223          	sw	zero,4(s0)
    1644:	8081a823          	sw	s0,-2032(gp) # 20004070 <__malloc_free_list>
    1648:	4422                	lw	s0,8(sp)
    164a:	40b2                	lw	ra,12(sp)
    164c:	8526                	mv	a0,s1
    164e:	4492                	lw	s1,4(sp)
    1650:	0141                	addi	sp,sp,16
    1652:	1390006f          	j	1f8a <__malloc_unlock>
    1656:	00f47e63          	bgeu	s0,a5,1672 <_free_r+0x58>
    165a:	4014                	lw	a3,0(s0)
    165c:	00d40733          	add	a4,s0,a3
    1660:	00e79663          	bne	a5,a4,166c <_free_r+0x52>
    1664:	4398                	lw	a4,0(a5)
    1666:	43dc                	lw	a5,4(a5)
    1668:	9736                	add	a4,a4,a3
    166a:	c018                	sw	a4,0(s0)
    166c:	c05c                	sw	a5,4(s0)
    166e:	bfd9                	j	1644 <_free_r+0x2a>
    1670:	87ba                	mv	a5,a4
    1672:	43d8                	lw	a4,4(a5)
    1674:	c319                	beqz	a4,167a <_free_r+0x60>
    1676:	fee47de3          	bgeu	s0,a4,1670 <_free_r+0x56>
    167a:	4394                	lw	a3,0(a5)
    167c:	00d78633          	add	a2,a5,a3
    1680:	00861f63          	bne	a2,s0,169e <_free_r+0x84>
    1684:	4010                	lw	a2,0(s0)
    1686:	96b2                	add	a3,a3,a2
    1688:	c394                	sw	a3,0(a5)
    168a:	00d78633          	add	a2,a5,a3
    168e:	fac71de3          	bne	a4,a2,1648 <_free_r+0x2e>
    1692:	4310                	lw	a2,0(a4)
    1694:	4358                	lw	a4,4(a4)
    1696:	96b2                	add	a3,a3,a2
    1698:	c394                	sw	a3,0(a5)
    169a:	c3d8                	sw	a4,4(a5)
    169c:	b775                	j	1648 <_free_r+0x2e>
    169e:	00c47563          	bgeu	s0,a2,16a8 <_free_r+0x8e>
    16a2:	47b1                	li	a5,12
    16a4:	c09c                	sw	a5,0(s1)
    16a6:	b74d                	j	1648 <_free_r+0x2e>
    16a8:	4010                	lw	a2,0(s0)
    16aa:	00c406b3          	add	a3,s0,a2
    16ae:	00d71663          	bne	a4,a3,16ba <_free_r+0xa0>
    16b2:	4314                	lw	a3,0(a4)
    16b4:	4358                	lw	a4,4(a4)
    16b6:	96b2                	add	a3,a3,a2
    16b8:	c014                	sw	a3,0(s0)
    16ba:	c058                	sw	a4,4(s0)
    16bc:	c3c0                	sw	s0,4(a5)
    16be:	b769                	j	1648 <_free_r+0x2e>
    16c0:	8082                	ret

000016c2 <_malloc_r>:
_malloc_r():
    16c2:	1101                	addi	sp,sp,-32
    16c4:	ca26                	sw	s1,20(sp)
    16c6:	00358493          	addi	s1,a1,3
    16ca:	98f1                	andi	s1,s1,-4
    16cc:	ce06                	sw	ra,28(sp)
    16ce:	cc22                	sw	s0,24(sp)
    16d0:	c84a                	sw	s2,16(sp)
    16d2:	c64e                	sw	s3,12(sp)
    16d4:	04a1                	addi	s1,s1,8
    16d6:	47b1                	li	a5,12
    16d8:	04f4f363          	bgeu	s1,a5,171e <_malloc_r+0x5c>
    16dc:	44b1                	li	s1,12
    16de:	04b4e263          	bltu	s1,a1,1722 <_malloc_r+0x60>
    16e2:	892a                	mv	s2,a0
    16e4:	0a5000ef          	jal	ra,1f88 <__malloc_lock>
    16e8:	81018793          	addi	a5,gp,-2032 # 20004070 <__malloc_free_list>
    16ec:	4398                	lw	a4,0(a5)
    16ee:	843a                	mv	s0,a4
    16f0:	e039                	bnez	s0,1736 <_malloc_r+0x74>
    16f2:	81418793          	addi	a5,gp,-2028 # 20004074 <__malloc_sbrk_start>
    16f6:	439c                	lw	a5,0(a5)
    16f8:	e791                	bnez	a5,1704 <_malloc_r+0x42>
    16fa:	4581                	li	a1,0
    16fc:	854a                	mv	a0,s2
    16fe:	22d1                	jal	18c2 <_sbrk_r>
    1700:	80a1aa23          	sw	a0,-2028(gp) # 20004074 <__malloc_sbrk_start>
    1704:	85a6                	mv	a1,s1
    1706:	854a                	mv	a0,s2
    1708:	2a6d                	jal	18c2 <_sbrk_r>
    170a:	59fd                	li	s3,-1
    170c:	07351963          	bne	a0,s3,177e <_malloc_r+0xbc>
    1710:	47b1                	li	a5,12
    1712:	00f92023          	sw	a5,0(s2)
    1716:	854a                	mv	a0,s2
    1718:	073000ef          	jal	ra,1f8a <__malloc_unlock>
    171c:	a029                	j	1726 <_malloc_r+0x64>
    171e:	fc04d0e3          	bgez	s1,16de <_malloc_r+0x1c>
    1722:	47b1                	li	a5,12
    1724:	c11c                	sw	a5,0(a0)
    1726:	4501                	li	a0,0
    1728:	40f2                	lw	ra,28(sp)
    172a:	4462                	lw	s0,24(sp)
    172c:	44d2                	lw	s1,20(sp)
    172e:	4942                	lw	s2,16(sp)
    1730:	49b2                	lw	s3,12(sp)
    1732:	6105                	addi	sp,sp,32
    1734:	8082                	ret
    1736:	401c                	lw	a5,0(s0)
    1738:	8f85                	sub	a5,a5,s1
    173a:	0207cf63          	bltz	a5,1778 <_malloc_r+0xb6>
    173e:	46ad                	li	a3,11
    1740:	00f6f663          	bgeu	a3,a5,174c <_malloc_r+0x8a>
    1744:	c01c                	sw	a5,0(s0)
    1746:	943e                	add	s0,s0,a5
    1748:	c004                	sw	s1,0(s0)
    174a:	a031                	j	1756 <_malloc_r+0x94>
    174c:	405c                	lw	a5,4(s0)
    174e:	02871363          	bne	a4,s0,1774 <_malloc_r+0xb2>
    1752:	80f1a823          	sw	a5,-2032(gp) # 20004070 <__malloc_free_list>
    1756:	854a                	mv	a0,s2
    1758:	033000ef          	jal	ra,1f8a <__malloc_unlock>
    175c:	00b40513          	addi	a0,s0,11
    1760:	00440793          	addi	a5,s0,4
    1764:	9961                	andi	a0,a0,-8
    1766:	40f50733          	sub	a4,a0,a5
    176a:	df5d                	beqz	a4,1728 <_malloc_r+0x66>
    176c:	943a                	add	s0,s0,a4
    176e:	8f89                	sub	a5,a5,a0
    1770:	c01c                	sw	a5,0(s0)
    1772:	bf5d                	j	1728 <_malloc_r+0x66>
    1774:	c35c                	sw	a5,4(a4)
    1776:	b7c5                	j	1756 <_malloc_r+0x94>
    1778:	8722                	mv	a4,s0
    177a:	4040                	lw	s0,4(s0)
    177c:	bf95                	j	16f0 <_malloc_r+0x2e>
    177e:	00350413          	addi	s0,a0,3
    1782:	9871                	andi	s0,s0,-4
    1784:	fc8502e3          	beq	a0,s0,1748 <_malloc_r+0x86>
    1788:	40a405b3          	sub	a1,s0,a0
    178c:	854a                	mv	a0,s2
    178e:	2a15                	jal	18c2 <_sbrk_r>
    1790:	fb351ce3          	bne	a0,s3,1748 <_malloc_r+0x86>
    1794:	bfb5                	j	1710 <_malloc_r+0x4e>

00001796 <iprintf>:
printf():
    1796:	7139                	addi	sp,sp,-64
    1798:	da3e                	sw	a5,52(sp)
    179a:	d22e                	sw	a1,36(sp)
    179c:	d432                	sw	a2,40(sp)
    179e:	d636                	sw	a3,44(sp)
    17a0:	d83a                	sw	a4,48(sp)
    17a2:	dc42                	sw	a6,56(sp)
    17a4:	de46                	sw	a7,60(sp)
    17a6:	20003797          	auipc	a5,0x20003
    17aa:	8be78793          	addi	a5,a5,-1858 # 20004064 <_impure_ptr>
    17ae:	cc22                	sw	s0,24(sp)
    17b0:	4380                	lw	s0,0(a5)
    17b2:	ca26                	sw	s1,20(sp)
    17b4:	ce06                	sw	ra,28(sp)
    17b6:	84aa                	mv	s1,a0
    17b8:	c409                	beqz	s0,17c2 <iprintf+0x2c>
    17ba:	4c1c                	lw	a5,24(s0)
    17bc:	e399                	bnez	a5,17c2 <iprintf+0x2c>
    17be:	8522                	mv	a0,s0
    17c0:	2ba1                	jal	1d18 <__sinit>
    17c2:	440c                	lw	a1,8(s0)
    17c4:	1054                	addi	a3,sp,36
    17c6:	8626                	mv	a2,s1
    17c8:	8522                	mv	a0,s0
    17ca:	c636                	sw	a3,12(sp)
    17cc:	02d000ef          	jal	ra,1ff8 <_vfiprintf_r>
    17d0:	40f2                	lw	ra,28(sp)
    17d2:	4462                	lw	s0,24(sp)
    17d4:	44d2                	lw	s1,20(sp)
    17d6:	6121                	addi	sp,sp,64
    17d8:	8082                	ret

000017da <_puts_r>:
_puts_r():
    17da:	1101                	addi	sp,sp,-32
    17dc:	ca26                	sw	s1,20(sp)
    17de:	c84a                	sw	s2,16(sp)
    17e0:	ce06                	sw	ra,28(sp)
    17e2:	cc22                	sw	s0,24(sp)
    17e4:	c64e                	sw	s3,12(sp)
    17e6:	c452                	sw	s4,8(sp)
    17e8:	84aa                	mv	s1,a0
    17ea:	892e                	mv	s2,a1
    17ec:	c501                	beqz	a0,17f4 <_puts_r+0x1a>
    17ee:	4d1c                	lw	a5,24(a0)
    17f0:	e391                	bnez	a5,17f4 <_puts_r+0x1a>
    17f2:	231d                	jal	1d18 <__sinit>
    17f4:	4c9c                	lw	a5,24(s1)
    17f6:	4480                	lw	s0,8(s1)
    17f8:	e399                	bnez	a5,17fe <_puts_r+0x24>
    17fa:	8526                	mv	a0,s1
    17fc:	2b31                	jal	1d18 <__sinit>
    17fe:	00002797          	auipc	a5,0x2
    1802:	d7a78793          	addi	a5,a5,-646 # 3578 <__sf_fake_stdin>
    1806:	02f41c63          	bne	s0,a5,183e <_puts_r+0x64>
    180a:	40c0                	lw	s0,4(s1)
    180c:	00c45783          	lhu	a5,12(s0)
    1810:	8ba1                	andi	a5,a5,8
    1812:	c7b1                	beqz	a5,185e <_puts_r+0x84>
    1814:	481c                	lw	a5,16(s0)
    1816:	c7a1                	beqz	a5,185e <_puts_r+0x84>
    1818:	59fd                	li	s3,-1
    181a:	4a29                	li	s4,10
    181c:	441c                	lw	a5,8(s0)
    181e:	00094583          	lbu	a1,0(s2)
    1822:	17fd                	addi	a5,a5,-1
    1824:	e9b1                	bnez	a1,1878 <_puts_r+0x9e>
    1826:	c41c                	sw	a5,8(s0)
    1828:	0607de63          	bgez	a5,18a4 <_puts_r+0xca>
    182c:	8622                	mv	a2,s0
    182e:	45a9                	li	a1,10
    1830:	8526                	mv	a0,s1
    1832:	2865                	jal	18ea <__swbuf_r>
    1834:	57fd                	li	a5,-1
    1836:	02f50863          	beq	a0,a5,1866 <_puts_r+0x8c>
    183a:	4529                	li	a0,10
    183c:	a035                	j	1868 <_puts_r+0x8e>
    183e:	00002797          	auipc	a5,0x2
    1842:	d5a78793          	addi	a5,a5,-678 # 3598 <__sf_fake_stdout>
    1846:	00f41463          	bne	s0,a5,184e <_puts_r+0x74>
    184a:	4480                	lw	s0,8(s1)
    184c:	b7c1                	j	180c <_puts_r+0x32>
    184e:	00002797          	auipc	a5,0x2
    1852:	d0a78793          	addi	a5,a5,-758 # 3558 <__sf_fake_stderr>
    1856:	faf41be3          	bne	s0,a5,180c <_puts_r+0x32>
    185a:	44c0                	lw	s0,12(s1)
    185c:	bf45                	j	180c <_puts_r+0x32>
    185e:	85a2                	mv	a1,s0
    1860:	8526                	mv	a0,s1
    1862:	22a1                	jal	19aa <__swsetup_r>
    1864:	d955                	beqz	a0,1818 <_puts_r+0x3e>
    1866:	557d                	li	a0,-1
    1868:	40f2                	lw	ra,28(sp)
    186a:	4462                	lw	s0,24(sp)
    186c:	44d2                	lw	s1,20(sp)
    186e:	4942                	lw	s2,16(sp)
    1870:	49b2                	lw	s3,12(sp)
    1872:	4a22                	lw	s4,8(sp)
    1874:	6105                	addi	sp,sp,32
    1876:	8082                	ret
    1878:	c41c                	sw	a5,8(s0)
    187a:	0905                	addi	s2,s2,1
    187c:	0007d763          	bgez	a5,188a <_puts_r+0xb0>
    1880:	4c18                	lw	a4,24(s0)
    1882:	00e7cb63          	blt	a5,a4,1898 <_puts_r+0xbe>
    1886:	01458963          	beq	a1,s4,1898 <_puts_r+0xbe>
    188a:	401c                	lw	a5,0(s0)
    188c:	00178713          	addi	a4,a5,1
    1890:	c018                	sw	a4,0(s0)
    1892:	00b78023          	sb	a1,0(a5)
    1896:	b759                	j	181c <_puts_r+0x42>
    1898:	8622                	mv	a2,s0
    189a:	8526                	mv	a0,s1
    189c:	20b9                	jal	18ea <__swbuf_r>
    189e:	f7351fe3          	bne	a0,s3,181c <_puts_r+0x42>
    18a2:	b7d1                	j	1866 <_puts_r+0x8c>
    18a4:	401c                	lw	a5,0(s0)
    18a6:	00178713          	addi	a4,a5,1
    18aa:	c018                	sw	a4,0(s0)
    18ac:	4729                	li	a4,10
    18ae:	00e78023          	sb	a4,0(a5)
    18b2:	b761                	j	183a <_puts_r+0x60>

000018b4 <puts>:
puts():
    18b4:	20002797          	auipc	a5,0x20002
    18b8:	7b078793          	addi	a5,a5,1968 # 20004064 <_impure_ptr>
    18bc:	85aa                	mv	a1,a0
    18be:	4388                	lw	a0,0(a5)
    18c0:	bf29                	j	17da <_puts_r>

000018c2 <_sbrk_r>:
_sbrk_r():
    18c2:	1141                	addi	sp,sp,-16
    18c4:	c422                	sw	s0,8(sp)
    18c6:	842a                	mv	s0,a0
    18c8:	852e                	mv	a0,a1
    18ca:	8401a623          	sw	zero,-1972(gp) # 200040ac <errno>
    18ce:	c606                	sw	ra,12(sp)
    18d0:	316d                	jal	157a <_sbrk>
    18d2:	57fd                	li	a5,-1
    18d4:	00f51763          	bne	a0,a5,18e2 <_sbrk_r+0x20>
    18d8:	84c18793          	addi	a5,gp,-1972 # 200040ac <errno>
    18dc:	439c                	lw	a5,0(a5)
    18de:	c391                	beqz	a5,18e2 <_sbrk_r+0x20>
    18e0:	c01c                	sw	a5,0(s0)
    18e2:	40b2                	lw	ra,12(sp)
    18e4:	4422                	lw	s0,8(sp)
    18e6:	0141                	addi	sp,sp,16
    18e8:	8082                	ret

000018ea <__swbuf_r>:
__swbuf_r():
    18ea:	1101                	addi	sp,sp,-32
    18ec:	cc22                	sw	s0,24(sp)
    18ee:	ca26                	sw	s1,20(sp)
    18f0:	c84a                	sw	s2,16(sp)
    18f2:	ce06                	sw	ra,28(sp)
    18f4:	c64e                	sw	s3,12(sp)
    18f6:	84aa                	mv	s1,a0
    18f8:	892e                	mv	s2,a1
    18fa:	8432                	mv	s0,a2
    18fc:	c501                	beqz	a0,1904 <__swbuf_r+0x1a>
    18fe:	4d1c                	lw	a5,24(a0)
    1900:	e391                	bnez	a5,1904 <__swbuf_r+0x1a>
    1902:	2919                	jal	1d18 <__sinit>
    1904:	00002797          	auipc	a5,0x2
    1908:	c7478793          	addi	a5,a5,-908 # 3578 <__sf_fake_stdin>
    190c:	06f41963          	bne	s0,a5,197e <__swbuf_r+0x94>
    1910:	40c0                	lw	s0,4(s1)
    1912:	4c1c                	lw	a5,24(s0)
    1914:	c41c                	sw	a5,8(s0)
    1916:	00c45783          	lhu	a5,12(s0)
    191a:	8ba1                	andi	a5,a5,8
    191c:	c3c9                	beqz	a5,199e <__swbuf_r+0xb4>
    191e:	481c                	lw	a5,16(s0)
    1920:	cfbd                	beqz	a5,199e <__swbuf_r+0xb4>
    1922:	481c                	lw	a5,16(s0)
    1924:	4008                	lw	a0,0(s0)
    1926:	0ff97993          	andi	s3,s2,255
    192a:	0ff97913          	andi	s2,s2,255
    192e:	8d1d                	sub	a0,a0,a5
    1930:	485c                	lw	a5,20(s0)
    1932:	00f54663          	blt	a0,a5,193e <__swbuf_r+0x54>
    1936:	85a2                	mv	a1,s0
    1938:	8526                	mv	a0,s1
    193a:	2c7d                	jal	1bf8 <_fflush_r>
    193c:	e52d                	bnez	a0,19a6 <__swbuf_r+0xbc>
    193e:	441c                	lw	a5,8(s0)
    1940:	0505                	addi	a0,a0,1
    1942:	17fd                	addi	a5,a5,-1
    1944:	c41c                	sw	a5,8(s0)
    1946:	401c                	lw	a5,0(s0)
    1948:	00178713          	addi	a4,a5,1
    194c:	c018                	sw	a4,0(s0)
    194e:	01378023          	sb	s3,0(a5)
    1952:	485c                	lw	a5,20(s0)
    1954:	00a78963          	beq	a5,a0,1966 <__swbuf_r+0x7c>
    1958:	00c45783          	lhu	a5,12(s0)
    195c:	8b85                	andi	a5,a5,1
    195e:	cb81                	beqz	a5,196e <__swbuf_r+0x84>
    1960:	47a9                	li	a5,10
    1962:	00f91663          	bne	s2,a5,196e <__swbuf_r+0x84>
    1966:	85a2                	mv	a1,s0
    1968:	8526                	mv	a0,s1
    196a:	2479                	jal	1bf8 <_fflush_r>
    196c:	ed0d                	bnez	a0,19a6 <__swbuf_r+0xbc>
    196e:	40f2                	lw	ra,28(sp)
    1970:	4462                	lw	s0,24(sp)
    1972:	854a                	mv	a0,s2
    1974:	44d2                	lw	s1,20(sp)
    1976:	4942                	lw	s2,16(sp)
    1978:	49b2                	lw	s3,12(sp)
    197a:	6105                	addi	sp,sp,32
    197c:	8082                	ret
    197e:	00002797          	auipc	a5,0x2
    1982:	c1a78793          	addi	a5,a5,-998 # 3598 <__sf_fake_stdout>
    1986:	00f41463          	bne	s0,a5,198e <__swbuf_r+0xa4>
    198a:	4480                	lw	s0,8(s1)
    198c:	b759                	j	1912 <__swbuf_r+0x28>
    198e:	00002797          	auipc	a5,0x2
    1992:	bca78793          	addi	a5,a5,-1078 # 3558 <__sf_fake_stderr>
    1996:	f6f41ee3          	bne	s0,a5,1912 <__swbuf_r+0x28>
    199a:	44c0                	lw	s0,12(s1)
    199c:	bf9d                	j	1912 <__swbuf_r+0x28>
    199e:	85a2                	mv	a1,s0
    19a0:	8526                	mv	a0,s1
    19a2:	2021                	jal	19aa <__swsetup_r>
    19a4:	dd3d                	beqz	a0,1922 <__swbuf_r+0x38>
    19a6:	597d                	li	s2,-1
    19a8:	b7d9                	j	196e <__swbuf_r+0x84>

000019aa <__swsetup_r>:
__swsetup_r():
    19aa:	1141                	addi	sp,sp,-16
    19ac:	20002797          	auipc	a5,0x20002
    19b0:	6b878793          	addi	a5,a5,1720 # 20004064 <_impure_ptr>
    19b4:	c226                	sw	s1,4(sp)
    19b6:	4384                	lw	s1,0(a5)
    19b8:	c422                	sw	s0,8(sp)
    19ba:	c04a                	sw	s2,0(sp)
    19bc:	c606                	sw	ra,12(sp)
    19be:	892a                	mv	s2,a0
    19c0:	842e                	mv	s0,a1
    19c2:	c489                	beqz	s1,19cc <__swsetup_r+0x22>
    19c4:	4c9c                	lw	a5,24(s1)
    19c6:	e399                	bnez	a5,19cc <__swsetup_r+0x22>
    19c8:	8526                	mv	a0,s1
    19ca:	26b9                	jal	1d18 <__sinit>
    19cc:	00002797          	auipc	a5,0x2
    19d0:	bac78793          	addi	a5,a5,-1108 # 3578 <__sf_fake_stdin>
    19d4:	02f41c63          	bne	s0,a5,1a0c <__swsetup_r+0x62>
    19d8:	40c0                	lw	s0,4(s1)
    19da:	00c41703          	lh	a4,12(s0)
    19de:	01071793          	slli	a5,a4,0x10
    19e2:	83c1                	srli	a5,a5,0x10
    19e4:	0087f693          	andi	a3,a5,8
    19e8:	eeb5                	bnez	a3,1a64 <__swsetup_r+0xba>
    19ea:	0107f693          	andi	a3,a5,16
    19ee:	ee9d                	bnez	a3,1a2c <__swsetup_r+0x82>
    19f0:	47a5                	li	a5,9
    19f2:	00f92023          	sw	a5,0(s2)
    19f6:	04076713          	ori	a4,a4,64
    19fa:	00e41623          	sh	a4,12(s0)
    19fe:	557d                	li	a0,-1
    1a00:	40b2                	lw	ra,12(sp)
    1a02:	4422                	lw	s0,8(sp)
    1a04:	4492                	lw	s1,4(sp)
    1a06:	4902                	lw	s2,0(sp)
    1a08:	0141                	addi	sp,sp,16
    1a0a:	8082                	ret
    1a0c:	00002797          	auipc	a5,0x2
    1a10:	b8c78793          	addi	a5,a5,-1140 # 3598 <__sf_fake_stdout>
    1a14:	00f41463          	bne	s0,a5,1a1c <__swsetup_r+0x72>
    1a18:	4480                	lw	s0,8(s1)
    1a1a:	b7c1                	j	19da <__swsetup_r+0x30>
    1a1c:	00002797          	auipc	a5,0x2
    1a20:	b3c78793          	addi	a5,a5,-1220 # 3558 <__sf_fake_stderr>
    1a24:	faf41be3          	bne	s0,a5,19da <__swsetup_r+0x30>
    1a28:	44c0                	lw	s0,12(s1)
    1a2a:	bf45                	j	19da <__swsetup_r+0x30>
    1a2c:	8b91                	andi	a5,a5,4
    1a2e:	c78d                	beqz	a5,1a58 <__swsetup_r+0xae>
    1a30:	584c                	lw	a1,52(s0)
    1a32:	c989                	beqz	a1,1a44 <__swsetup_r+0x9a>
    1a34:	04440793          	addi	a5,s0,68
    1a38:	00f58463          	beq	a1,a5,1a40 <__swsetup_r+0x96>
    1a3c:	854a                	mv	a0,s2
    1a3e:	3ef1                	jal	161a <_free_r>
    1a40:	02042a23          	sw	zero,52(s0)
    1a44:	00c45783          	lhu	a5,12(s0)
    1a48:	00042223          	sw	zero,4(s0)
    1a4c:	fdb7f793          	andi	a5,a5,-37
    1a50:	00f41623          	sh	a5,12(s0)
    1a54:	481c                	lw	a5,16(s0)
    1a56:	c01c                	sw	a5,0(s0)
    1a58:	00c45783          	lhu	a5,12(s0)
    1a5c:	0087e793          	ori	a5,a5,8
    1a60:	00f41623          	sh	a5,12(s0)
    1a64:	481c                	lw	a5,16(s0)
    1a66:	ef81                	bnez	a5,1a7e <__swsetup_r+0xd4>
    1a68:	00c45783          	lhu	a5,12(s0)
    1a6c:	20000713          	li	a4,512
    1a70:	2807f793          	andi	a5,a5,640
    1a74:	00e78563          	beq	a5,a4,1a7e <__swsetup_r+0xd4>
    1a78:	85a2                	mv	a1,s0
    1a7a:	854a                	mv	a0,s2
    1a7c:	21b5                	jal	1ee8 <__smakebuf_r>
    1a7e:	00c45783          	lhu	a5,12(s0)
    1a82:	0017f713          	andi	a4,a5,1
    1a86:	c705                	beqz	a4,1aae <__swsetup_r+0x104>
    1a88:	485c                	lw	a5,20(s0)
    1a8a:	00042423          	sw	zero,8(s0)
    1a8e:	40f007b3          	neg	a5,a5
    1a92:	cc1c                	sw	a5,24(s0)
    1a94:	481c                	lw	a5,16(s0)
    1a96:	4501                	li	a0,0
    1a98:	f7a5                	bnez	a5,1a00 <__swsetup_r+0x56>
    1a9a:	00c41783          	lh	a5,12(s0)
    1a9e:	0807f713          	andi	a4,a5,128
    1aa2:	df39                	beqz	a4,1a00 <__swsetup_r+0x56>
    1aa4:	0407e793          	ori	a5,a5,64
    1aa8:	00f41623          	sh	a5,12(s0)
    1aac:	bf89                	j	19fe <__swsetup_r+0x54>
    1aae:	8b89                	andi	a5,a5,2
    1ab0:	4701                	li	a4,0
    1ab2:	e391                	bnez	a5,1ab6 <__swsetup_r+0x10c>
    1ab4:	4858                	lw	a4,20(s0)
    1ab6:	c418                	sw	a4,8(s0)
    1ab8:	bff1                	j	1a94 <__swsetup_r+0xea>

00001aba <__sflush_r>:
__sflush_r():
    1aba:	00c5d783          	lhu	a5,12(a1)
    1abe:	1101                	addi	sp,sp,-32
    1ac0:	cc22                	sw	s0,24(sp)
    1ac2:	ca26                	sw	s1,20(sp)
    1ac4:	ce06                	sw	ra,28(sp)
    1ac6:	c84a                	sw	s2,16(sp)
    1ac8:	c64e                	sw	s3,12(sp)
    1aca:	0087f713          	andi	a4,a5,8
    1ace:	84aa                	mv	s1,a0
    1ad0:	842e                	mv	s0,a1
    1ad2:	ef79                	bnez	a4,1bb0 <__sflush_r+0xf6>
    1ad4:	41d8                	lw	a4,4(a1)
    1ad6:	00e04d63          	bgtz	a4,1af0 <__sflush_r+0x36>
    1ada:	41b8                	lw	a4,64(a1)
    1adc:	00e04a63          	bgtz	a4,1af0 <__sflush_r+0x36>
    1ae0:	4501                	li	a0,0
    1ae2:	40f2                	lw	ra,28(sp)
    1ae4:	4462                	lw	s0,24(sp)
    1ae6:	44d2                	lw	s1,20(sp)
    1ae8:	4942                	lw	s2,16(sp)
    1aea:	49b2                	lw	s3,12(sp)
    1aec:	6105                	addi	sp,sp,32
    1aee:	8082                	ret
    1af0:	5458                	lw	a4,44(s0)
    1af2:	d77d                	beqz	a4,1ae0 <__sflush_r+0x26>
    1af4:	0004a903          	lw	s2,0(s1)
    1af8:	01379693          	slli	a3,a5,0x13
    1afc:	0004a023          	sw	zero,0(s1)
    1b00:	0606de63          	bgez	a3,1b7c <__sflush_r+0xc2>
    1b04:	4870                	lw	a2,84(s0)
    1b06:	00c45783          	lhu	a5,12(s0)
    1b0a:	8b91                	andi	a5,a5,4
    1b0c:	c799                	beqz	a5,1b1a <__sflush_r+0x60>
    1b0e:	405c                	lw	a5,4(s0)
    1b10:	8e1d                	sub	a2,a2,a5
    1b12:	585c                	lw	a5,52(s0)
    1b14:	c399                	beqz	a5,1b1a <__sflush_r+0x60>
    1b16:	403c                	lw	a5,64(s0)
    1b18:	8e1d                	sub	a2,a2,a5
    1b1a:	545c                	lw	a5,44(s0)
    1b1c:	500c                	lw	a1,32(s0)
    1b1e:	4681                	li	a3,0
    1b20:	8526                	mv	a0,s1
    1b22:	9782                	jalr	a5
    1b24:	57fd                	li	a5,-1
    1b26:	00c45703          	lhu	a4,12(s0)
    1b2a:	00f51d63          	bne	a0,a5,1b44 <__sflush_r+0x8a>
    1b2e:	4094                	lw	a3,0(s1)
    1b30:	47f5                	li	a5,29
    1b32:	06d7e963          	bltu	a5,a3,1ba4 <__sflush_r+0xea>
    1b36:	204007b7          	lui	a5,0x20400
    1b3a:	0785                	addi	a5,a5,1
    1b3c:	00d7d7b3          	srl	a5,a5,a3
    1b40:	8b85                	andi	a5,a5,1
    1b42:	c3ad                	beqz	a5,1ba4 <__sflush_r+0xea>
    1b44:	481c                	lw	a5,16(s0)
    1b46:	00042223          	sw	zero,4(s0)
    1b4a:	c01c                	sw	a5,0(s0)
    1b4c:	01371793          	slli	a5,a4,0x13
    1b50:	0007d863          	bgez	a5,1b60 <__sflush_r+0xa6>
    1b54:	57fd                	li	a5,-1
    1b56:	00f51463          	bne	a0,a5,1b5e <__sflush_r+0xa4>
    1b5a:	409c                	lw	a5,0(s1)
    1b5c:	e391                	bnez	a5,1b60 <__sflush_r+0xa6>
    1b5e:	c868                	sw	a0,84(s0)
    1b60:	584c                	lw	a1,52(s0)
    1b62:	0124a023          	sw	s2,0(s1)
    1b66:	ddad                	beqz	a1,1ae0 <__sflush_r+0x26>
    1b68:	04440793          	addi	a5,s0,68
    1b6c:	00f58563          	beq	a1,a5,1b76 <__sflush_r+0xbc>
    1b70:	8526                	mv	a0,s1
    1b72:	aa9ff0ef          	jal	ra,161a <_free_r>
    1b76:	02042a23          	sw	zero,52(s0)
    1b7a:	b79d                	j	1ae0 <__sflush_r+0x26>
    1b7c:	500c                	lw	a1,32(s0)
    1b7e:	4601                	li	a2,0
    1b80:	4685                	li	a3,1
    1b82:	8526                	mv	a0,s1
    1b84:	9702                	jalr	a4
    1b86:	57fd                	li	a5,-1
    1b88:	862a                	mv	a2,a0
    1b8a:	f6f51ee3          	bne	a0,a5,1b06 <__sflush_r+0x4c>
    1b8e:	409c                	lw	a5,0(s1)
    1b90:	dbbd                	beqz	a5,1b06 <__sflush_r+0x4c>
    1b92:	4775                	li	a4,29
    1b94:	00e78563          	beq	a5,a4,1b9e <__sflush_r+0xe4>
    1b98:	4759                	li	a4,22
    1b9a:	04e79463          	bne	a5,a4,1be2 <__sflush_r+0x128>
    1b9e:	0124a023          	sw	s2,0(s1)
    1ba2:	bf3d                	j	1ae0 <__sflush_r+0x26>
    1ba4:	04076713          	ori	a4,a4,64
    1ba8:	00e41623          	sh	a4,12(s0)
    1bac:	557d                	li	a0,-1
    1bae:	bf15                	j	1ae2 <__sflush_r+0x28>
    1bb0:	0105a983          	lw	s3,16(a1)
    1bb4:	f20986e3          	beqz	s3,1ae0 <__sflush_r+0x26>
    1bb8:	0005a903          	lw	s2,0(a1)
    1bbc:	8b8d                	andi	a5,a5,3
    1bbe:	0135a023          	sw	s3,0(a1)
    1bc2:	41390933          	sub	s2,s2,s3
    1bc6:	4701                	li	a4,0
    1bc8:	e391                	bnez	a5,1bcc <__sflush_r+0x112>
    1bca:	49d8                	lw	a4,20(a1)
    1bcc:	c418                	sw	a4,8(s0)
    1bce:	f12059e3          	blez	s2,1ae0 <__sflush_r+0x26>
    1bd2:	541c                	lw	a5,40(s0)
    1bd4:	500c                	lw	a1,32(s0)
    1bd6:	86ca                	mv	a3,s2
    1bd8:	864e                	mv	a2,s3
    1bda:	8526                	mv	a0,s1
    1bdc:	9782                	jalr	a5
    1bde:	00a04963          	bgtz	a0,1bf0 <__sflush_r+0x136>
    1be2:	00c45783          	lhu	a5,12(s0)
    1be6:	0407e793          	ori	a5,a5,64
    1bea:	00f41623          	sh	a5,12(s0)
    1bee:	bf7d                	j	1bac <__sflush_r+0xf2>
    1bf0:	99aa                	add	s3,s3,a0
    1bf2:	40a90933          	sub	s2,s2,a0
    1bf6:	bfe1                	j	1bce <__sflush_r+0x114>

00001bf8 <_fflush_r>:
_fflush_r():
    1bf8:	499c                	lw	a5,16(a1)
    1bfa:	cfb9                	beqz	a5,1c58 <_fflush_r+0x60>
    1bfc:	1101                	addi	sp,sp,-32
    1bfe:	cc22                	sw	s0,24(sp)
    1c00:	ce06                	sw	ra,28(sp)
    1c02:	842a                	mv	s0,a0
    1c04:	c511                	beqz	a0,1c10 <_fflush_r+0x18>
    1c06:	4d1c                	lw	a5,24(a0)
    1c08:	e781                	bnez	a5,1c10 <_fflush_r+0x18>
    1c0a:	c62e                	sw	a1,12(sp)
    1c0c:	2231                	jal	1d18 <__sinit>
    1c0e:	45b2                	lw	a1,12(sp)
    1c10:	00002797          	auipc	a5,0x2
    1c14:	96878793          	addi	a5,a5,-1688 # 3578 <__sf_fake_stdin>
    1c18:	00f59b63          	bne	a1,a5,1c2e <_fflush_r+0x36>
    1c1c:	404c                	lw	a1,4(s0)
    1c1e:	00c59783          	lh	a5,12(a1)
    1c22:	c795                	beqz	a5,1c4e <_fflush_r+0x56>
    1c24:	8522                	mv	a0,s0
    1c26:	4462                	lw	s0,24(sp)
    1c28:	40f2                	lw	ra,28(sp)
    1c2a:	6105                	addi	sp,sp,32
    1c2c:	b579                	j	1aba <__sflush_r>
    1c2e:	00002797          	auipc	a5,0x2
    1c32:	96a78793          	addi	a5,a5,-1686 # 3598 <__sf_fake_stdout>
    1c36:	00f59463          	bne	a1,a5,1c3e <_fflush_r+0x46>
    1c3a:	440c                	lw	a1,8(s0)
    1c3c:	b7cd                	j	1c1e <_fflush_r+0x26>
    1c3e:	00002797          	auipc	a5,0x2
    1c42:	91a78793          	addi	a5,a5,-1766 # 3558 <__sf_fake_stderr>
    1c46:	fcf59ce3          	bne	a1,a5,1c1e <_fflush_r+0x26>
    1c4a:	444c                	lw	a1,12(s0)
    1c4c:	bfc9                	j	1c1e <_fflush_r+0x26>
    1c4e:	40f2                	lw	ra,28(sp)
    1c50:	4462                	lw	s0,24(sp)
    1c52:	4501                	li	a0,0
    1c54:	6105                	addi	sp,sp,32
    1c56:	8082                	ret
    1c58:	4501                	li	a0,0
    1c5a:	8082                	ret

00001c5c <std>:
std():
    1c5c:	1141                	addi	sp,sp,-16
    1c5e:	c422                	sw	s0,8(sp)
    1c60:	c606                	sw	ra,12(sp)
    1c62:	842a                	mv	s0,a0
    1c64:	00b51623          	sh	a1,12(a0)
    1c68:	00c51723          	sh	a2,14(a0)
    1c6c:	00052023          	sw	zero,0(a0)
    1c70:	00052223          	sw	zero,4(a0)
    1c74:	00052423          	sw	zero,8(a0)
    1c78:	06052223          	sw	zero,100(a0)
    1c7c:	00052823          	sw	zero,16(a0)
    1c80:	00052a23          	sw	zero,20(a0)
    1c84:	00052c23          	sw	zero,24(a0)
    1c88:	4621                	li	a2,8
    1c8a:	4581                	li	a1,0
    1c8c:	05c50513          	addi	a0,a0,92
    1c90:	b57fe0ef          	jal	ra,7e6 <memset>
    1c94:	00001797          	auipc	a5,0x1
    1c98:	9b078793          	addi	a5,a5,-1616 # 2644 <__sread>
    1c9c:	d05c                	sw	a5,36(s0)
    1c9e:	00001797          	auipc	a5,0x1
    1ca2:	9d678793          	addi	a5,a5,-1578 # 2674 <__swrite>
    1ca6:	d41c                	sw	a5,40(s0)
    1ca8:	00001797          	auipc	a5,0x1
    1cac:	a1a78793          	addi	a5,a5,-1510 # 26c2 <__sseek>
    1cb0:	d45c                	sw	a5,44(s0)
    1cb2:	00001797          	auipc	a5,0x1
    1cb6:	a4678793          	addi	a5,a5,-1466 # 26f8 <__sclose>
    1cba:	d000                	sw	s0,32(s0)
    1cbc:	d81c                	sw	a5,48(s0)
    1cbe:	40b2                	lw	ra,12(sp)
    1cc0:	4422                	lw	s0,8(sp)
    1cc2:	0141                	addi	sp,sp,16
    1cc4:	8082                	ret

00001cc6 <_cleanup_r>:
_cleanup_r():
    1cc6:	00000597          	auipc	a1,0x0
    1cca:	f3258593          	addi	a1,a1,-206 # 1bf8 <_fflush_r>
    1cce:	aa91                	j	1e22 <_fwalk_reent>

00001cd0 <__sfmoreglue>:
__sfmoreglue():
    1cd0:	1141                	addi	sp,sp,-16
    1cd2:	c226                	sw	s1,4(sp)
    1cd4:	06800613          	li	a2,104
    1cd8:	fff58493          	addi	s1,a1,-1
    1cdc:	02c484b3          	mul	s1,s1,a2
    1ce0:	c04a                	sw	s2,0(sp)
    1ce2:	892e                	mv	s2,a1
    1ce4:	c422                	sw	s0,8(sp)
    1ce6:	c606                	sw	ra,12(sp)
    1ce8:	07448593          	addi	a1,s1,116
    1cec:	9d7ff0ef          	jal	ra,16c2 <_malloc_r>
    1cf0:	842a                	mv	s0,a0
    1cf2:	cd01                	beqz	a0,1d0a <__sfmoreglue+0x3a>
    1cf4:	00052023          	sw	zero,0(a0)
    1cf8:	01252223          	sw	s2,4(a0)
    1cfc:	0531                	addi	a0,a0,12
    1cfe:	c408                	sw	a0,8(s0)
    1d00:	06848613          	addi	a2,s1,104
    1d04:	4581                	li	a1,0
    1d06:	ae1fe0ef          	jal	ra,7e6 <memset>
    1d0a:	8522                	mv	a0,s0
    1d0c:	40b2                	lw	ra,12(sp)
    1d0e:	4422                	lw	s0,8(sp)
    1d10:	4492                	lw	s1,4(sp)
    1d12:	4902                	lw	s2,0(sp)
    1d14:	0141                	addi	sp,sp,16
    1d16:	8082                	ret

00001d18 <__sinit>:
__sinit():
    1d18:	4d1c                	lw	a5,24(a0)
    1d1a:	e3bd                	bnez	a5,1d80 <__sinit+0x68>
    1d1c:	1141                	addi	sp,sp,-16
    1d1e:	c606                	sw	ra,12(sp)
    1d20:	c422                	sw	s0,8(sp)
    1d22:	00000797          	auipc	a5,0x0
    1d26:	fa478793          	addi	a5,a5,-92 # 1cc6 <_cleanup_r>
    1d2a:	d51c                	sw	a5,40(a0)
    1d2c:	00002797          	auipc	a5,0x2
    1d30:	8e078793          	addi	a5,a5,-1824 # 360c <_global_impure_ptr>
    1d34:	439c                	lw	a5,0(a5)
    1d36:	04052423          	sw	zero,72(a0)
    1d3a:	04052623          	sw	zero,76(a0)
    1d3e:	04052823          	sw	zero,80(a0)
    1d42:	00f51463          	bne	a0,a5,1d4a <__sinit+0x32>
    1d46:	4785                	li	a5,1
    1d48:	cd1c                	sw	a5,24(a0)
    1d4a:	842a                	mv	s0,a0
    1d4c:	281d                	jal	1d82 <__sfp>
    1d4e:	c048                	sw	a0,4(s0)
    1d50:	8522                	mv	a0,s0
    1d52:	2805                	jal	1d82 <__sfp>
    1d54:	c408                	sw	a0,8(s0)
    1d56:	8522                	mv	a0,s0
    1d58:	202d                	jal	1d82 <__sfp>
    1d5a:	c448                	sw	a0,12(s0)
    1d5c:	4048                	lw	a0,4(s0)
    1d5e:	4601                	li	a2,0
    1d60:	4591                	li	a1,4
    1d62:	3ded                	jal	1c5c <std>
    1d64:	4408                	lw	a0,8(s0)
    1d66:	4605                	li	a2,1
    1d68:	45a5                	li	a1,9
    1d6a:	3dcd                	jal	1c5c <std>
    1d6c:	4448                	lw	a0,12(s0)
    1d6e:	4609                	li	a2,2
    1d70:	45c9                	li	a1,18
    1d72:	35ed                	jal	1c5c <std>
    1d74:	4785                	li	a5,1
    1d76:	cc1c                	sw	a5,24(s0)
    1d78:	40b2                	lw	ra,12(sp)
    1d7a:	4422                	lw	s0,8(sp)
    1d7c:	0141                	addi	sp,sp,16
    1d7e:	8082                	ret
    1d80:	8082                	ret

00001d82 <__sfp>:
__sfp():
    1d82:	1141                	addi	sp,sp,-16
    1d84:	00002797          	auipc	a5,0x2
    1d88:	88878793          	addi	a5,a5,-1912 # 360c <_global_impure_ptr>
    1d8c:	c226                	sw	s1,4(sp)
    1d8e:	4384                	lw	s1,0(a5)
    1d90:	c04a                	sw	s2,0(sp)
    1d92:	c606                	sw	ra,12(sp)
    1d94:	4c9c                	lw	a5,24(s1)
    1d96:	c422                	sw	s0,8(sp)
    1d98:	892a                	mv	s2,a0
    1d9a:	e399                	bnez	a5,1da0 <__sfp+0x1e>
    1d9c:	8526                	mv	a0,s1
    1d9e:	3fad                	jal	1d18 <__sinit>
    1da0:	04848493          	addi	s1,s1,72
    1da4:	4480                	lw	s0,8(s1)
    1da6:	40dc                	lw	a5,4(s1)
    1da8:	17fd                	addi	a5,a5,-1
    1daa:	0007d663          	bgez	a5,1db6 <__sfp+0x34>
    1dae:	409c                	lw	a5,0(s1)
    1db0:	cfb9                	beqz	a5,1e0e <__sfp+0x8c>
    1db2:	4084                	lw	s1,0(s1)
    1db4:	bfc5                	j	1da4 <__sfp+0x22>
    1db6:	00c41703          	lh	a4,12(s0)
    1dba:	e739                	bnez	a4,1e08 <__sfp+0x86>
    1dbc:	77c1                	lui	a5,0xffff0
    1dbe:	0785                	addi	a5,a5,1
    1dc0:	06042223          	sw	zero,100(s0)
    1dc4:	00042023          	sw	zero,0(s0)
    1dc8:	00042223          	sw	zero,4(s0)
    1dcc:	00042423          	sw	zero,8(s0)
    1dd0:	c45c                	sw	a5,12(s0)
    1dd2:	00042823          	sw	zero,16(s0)
    1dd6:	00042a23          	sw	zero,20(s0)
    1dda:	00042c23          	sw	zero,24(s0)
    1dde:	4621                	li	a2,8
    1de0:	4581                	li	a1,0
    1de2:	05c40513          	addi	a0,s0,92
    1de6:	a01fe0ef          	jal	ra,7e6 <memset>
    1dea:	02042a23          	sw	zero,52(s0)
    1dee:	02042c23          	sw	zero,56(s0)
    1df2:	04042423          	sw	zero,72(s0)
    1df6:	04042623          	sw	zero,76(s0)
    1dfa:	8522                	mv	a0,s0
    1dfc:	40b2                	lw	ra,12(sp)
    1dfe:	4422                	lw	s0,8(sp)
    1e00:	4492                	lw	s1,4(sp)
    1e02:	4902                	lw	s2,0(sp)
    1e04:	0141                	addi	sp,sp,16
    1e06:	8082                	ret
    1e08:	06840413          	addi	s0,s0,104
    1e0c:	bf71                	j	1da8 <__sfp+0x26>
    1e0e:	4591                	li	a1,4
    1e10:	854a                	mv	a0,s2
    1e12:	3d7d                	jal	1cd0 <__sfmoreglue>
    1e14:	c088                	sw	a0,0(s1)
    1e16:	fd51                	bnez	a0,1db2 <__sfp+0x30>
    1e18:	47b1                	li	a5,12
    1e1a:	00f92023          	sw	a5,0(s2)
    1e1e:	4401                	li	s0,0
    1e20:	bfe9                	j	1dfa <__sfp+0x78>

00001e22 <_fwalk_reent>:
_fwalk_reent():
    1e22:	7179                	addi	sp,sp,-48
    1e24:	d422                	sw	s0,40(sp)
    1e26:	d04a                	sw	s2,32(sp)
    1e28:	cc52                	sw	s4,24(sp)
    1e2a:	ca56                	sw	s5,20(sp)
    1e2c:	c85a                	sw	s6,16(sp)
    1e2e:	c65e                	sw	s7,12(sp)
    1e30:	d606                	sw	ra,44(sp)
    1e32:	d226                	sw	s1,36(sp)
    1e34:	ce4e                	sw	s3,28(sp)
    1e36:	8a2a                	mv	s4,a0
    1e38:	8aae                	mv	s5,a1
    1e3a:	04850413          	addi	s0,a0,72
    1e3e:	4901                	li	s2,0
    1e40:	4b05                	li	s6,1
    1e42:	5bfd                	li	s7,-1
    1e44:	ec09                	bnez	s0,1e5e <_fwalk_reent+0x3c>
    1e46:	50b2                	lw	ra,44(sp)
    1e48:	5422                	lw	s0,40(sp)
    1e4a:	854a                	mv	a0,s2
    1e4c:	5492                	lw	s1,36(sp)
    1e4e:	5902                	lw	s2,32(sp)
    1e50:	49f2                	lw	s3,28(sp)
    1e52:	4a62                	lw	s4,24(sp)
    1e54:	4ad2                	lw	s5,20(sp)
    1e56:	4b42                	lw	s6,16(sp)
    1e58:	4bb2                	lw	s7,12(sp)
    1e5a:	6145                	addi	sp,sp,48
    1e5c:	8082                	ret
    1e5e:	4404                	lw	s1,8(s0)
    1e60:	00442983          	lw	s3,4(s0)
    1e64:	19fd                	addi	s3,s3,-1
    1e66:	0009d463          	bgez	s3,1e6e <_fwalk_reent+0x4c>
    1e6a:	4000                	lw	s0,0(s0)
    1e6c:	bfe1                	j	1e44 <_fwalk_reent+0x22>
    1e6e:	00c4d783          	lhu	a5,12(s1)
    1e72:	00fb7b63          	bgeu	s6,a5,1e88 <_fwalk_reent+0x66>
    1e76:	00e49783          	lh	a5,14(s1)
    1e7a:	01778763          	beq	a5,s7,1e88 <_fwalk_reent+0x66>
    1e7e:	85a6                	mv	a1,s1
    1e80:	8552                	mv	a0,s4
    1e82:	9a82                	jalr	s5
    1e84:	00a96933          	or	s2,s2,a0
    1e88:	06848493          	addi	s1,s1,104
    1e8c:	bfe1                	j	1e64 <_fwalk_reent+0x42>

00001e8e <__swhatbuf_r>:
__swhatbuf_r():
    1e8e:	7119                	addi	sp,sp,-128
    1e90:	daa6                	sw	s1,116(sp)
    1e92:	84ae                	mv	s1,a1
    1e94:	00e59583          	lh	a1,14(a1)
    1e98:	dca2                	sw	s0,120(sp)
    1e9a:	de86                	sw	ra,124(sp)
    1e9c:	8432                	mv	s0,a2
    1e9e:	0005dc63          	bgez	a1,1eb6 <__swhatbuf_r+0x28>
    1ea2:	00c4d783          	lhu	a5,12(s1)
    1ea6:	0006a023          	sw	zero,0(a3)
    1eaa:	0807f793          	andi	a5,a5,128
    1eae:	e785                	bnez	a5,1ed6 <__swhatbuf_r+0x48>
    1eb0:	40000793          	li	a5,1024
    1eb4:	a01d                	j	1eda <__swhatbuf_r+0x4c>
    1eb6:	0830                	addi	a2,sp,24
    1eb8:	c636                	sw	a3,12(sp)
    1eba:	09b000ef          	jal	ra,2754 <_fstat_r>
    1ebe:	46b2                	lw	a3,12(sp)
    1ec0:	fe0541e3          	bltz	a0,1ea2 <__swhatbuf_r+0x14>
    1ec4:	4772                	lw	a4,28(sp)
    1ec6:	67bd                	lui	a5,0xf
    1ec8:	8ff9                	and	a5,a5,a4
    1eca:	7779                	lui	a4,0xffffe
    1ecc:	97ba                	add	a5,a5,a4
    1ece:	0017b793          	seqz	a5,a5
    1ed2:	c29c                	sw	a5,0(a3)
    1ed4:	bff1                	j	1eb0 <__swhatbuf_r+0x22>
    1ed6:	04000793          	li	a5,64
    1eda:	c01c                	sw	a5,0(s0)
    1edc:	50f6                	lw	ra,124(sp)
    1ede:	5466                	lw	s0,120(sp)
    1ee0:	54d6                	lw	s1,116(sp)
    1ee2:	4501                	li	a0,0
    1ee4:	6109                	addi	sp,sp,128
    1ee6:	8082                	ret

00001ee8 <__smakebuf_r>:
__smakebuf_r():
    1ee8:	00c5d783          	lhu	a5,12(a1)
    1eec:	1101                	addi	sp,sp,-32
    1eee:	cc22                	sw	s0,24(sp)
    1ef0:	ce06                	sw	ra,28(sp)
    1ef2:	ca26                	sw	s1,20(sp)
    1ef4:	c84a                	sw	s2,16(sp)
    1ef6:	8b89                	andi	a5,a5,2
    1ef8:	842e                	mv	s0,a1
    1efa:	cf89                	beqz	a5,1f14 <__smakebuf_r+0x2c>
    1efc:	04740793          	addi	a5,s0,71
    1f00:	c01c                	sw	a5,0(s0)
    1f02:	c81c                	sw	a5,16(s0)
    1f04:	4785                	li	a5,1
    1f06:	c85c                	sw	a5,20(s0)
    1f08:	40f2                	lw	ra,28(sp)
    1f0a:	4462                	lw	s0,24(sp)
    1f0c:	44d2                	lw	s1,20(sp)
    1f0e:	4942                	lw	s2,16(sp)
    1f10:	6105                	addi	sp,sp,32
    1f12:	8082                	ret
    1f14:	0074                	addi	a3,sp,12
    1f16:	0030                	addi	a2,sp,8
    1f18:	84aa                	mv	s1,a0
    1f1a:	3f95                	jal	1e8e <__swhatbuf_r>
    1f1c:	45a2                	lw	a1,8(sp)
    1f1e:	892a                	mv	s2,a0
    1f20:	8526                	mv	a0,s1
    1f22:	fa0ff0ef          	jal	ra,16c2 <_malloc_r>
    1f26:	ed01                	bnez	a0,1f3e <__smakebuf_r+0x56>
    1f28:	00c41783          	lh	a5,12(s0)
    1f2c:	2007f713          	andi	a4,a5,512
    1f30:	ff61                	bnez	a4,1f08 <__smakebuf_r+0x20>
    1f32:	9bf1                	andi	a5,a5,-4
    1f34:	0027e793          	ori	a5,a5,2
    1f38:	00f41623          	sh	a5,12(s0)
    1f3c:	b7c1                	j	1efc <__smakebuf_r+0x14>
    1f3e:	00000797          	auipc	a5,0x0
    1f42:	d8878793          	addi	a5,a5,-632 # 1cc6 <_cleanup_r>
    1f46:	d49c                	sw	a5,40(s1)
    1f48:	00c45783          	lhu	a5,12(s0)
    1f4c:	c008                	sw	a0,0(s0)
    1f4e:	c808                	sw	a0,16(s0)
    1f50:	0807e793          	ori	a5,a5,128
    1f54:	00f41623          	sh	a5,12(s0)
    1f58:	47a2                	lw	a5,8(sp)
    1f5a:	c85c                	sw	a5,20(s0)
    1f5c:	47b2                	lw	a5,12(sp)
    1f5e:	cf91                	beqz	a5,1f7a <__smakebuf_r+0x92>
    1f60:	00e41583          	lh	a1,14(s0)
    1f64:	8526                	mv	a0,s1
    1f66:	019000ef          	jal	ra,277e <_isatty_r>
    1f6a:	c901                	beqz	a0,1f7a <__smakebuf_r+0x92>
    1f6c:	00c45783          	lhu	a5,12(s0)
    1f70:	9bf1                	andi	a5,a5,-4
    1f72:	0017e793          	ori	a5,a5,1
    1f76:	00f41623          	sh	a5,12(s0)
    1f7a:	00c45783          	lhu	a5,12(s0)
    1f7e:	00f96933          	or	s2,s2,a5
    1f82:	01241623          	sh	s2,12(s0)
    1f86:	b749                	j	1f08 <__smakebuf_r+0x20>

00001f88 <__malloc_lock>:
__malloc_lock():
    1f88:	8082                	ret

00001f8a <__malloc_unlock>:
__malloc_unlock():
    1f8a:	8082                	ret

00001f8c <__sfputc_r>:
__sfputc_r():
    1f8c:	461c                	lw	a5,8(a2)
    1f8e:	17fd                	addi	a5,a5,-1
    1f90:	c61c                	sw	a5,8(a2)
    1f92:	0007da63          	bgez	a5,1fa6 <__sfputc_r+0x1a>
    1f96:	4e18                	lw	a4,24(a2)
    1f98:	00e7c563          	blt	a5,a4,1fa2 <__sfputc_r+0x16>
    1f9c:	47a9                	li	a5,10
    1f9e:	00f59463          	bne	a1,a5,1fa6 <__sfputc_r+0x1a>
    1fa2:	949ff06f          	j	18ea <__swbuf_r>
    1fa6:	421c                	lw	a5,0(a2)
    1fa8:	852e                	mv	a0,a1
    1faa:	00178713          	addi	a4,a5,1
    1fae:	c218                	sw	a4,0(a2)
    1fb0:	00b78023          	sb	a1,0(a5)
    1fb4:	8082                	ret

00001fb6 <__sfputs_r>:
__sfputs_r():
    1fb6:	1101                	addi	sp,sp,-32
    1fb8:	cc22                	sw	s0,24(sp)
    1fba:	ca26                	sw	s1,20(sp)
    1fbc:	c84a                	sw	s2,16(sp)
    1fbe:	c64e                	sw	s3,12(sp)
    1fc0:	c452                	sw	s4,8(sp)
    1fc2:	ce06                	sw	ra,28(sp)
    1fc4:	892a                	mv	s2,a0
    1fc6:	89ae                	mv	s3,a1
    1fc8:	8432                	mv	s0,a2
    1fca:	00d604b3          	add	s1,a2,a3
    1fce:	5a7d                	li	s4,-1
    1fd0:	00941463          	bne	s0,s1,1fd8 <__sfputs_r+0x22>
    1fd4:	4501                	li	a0,0
    1fd6:	a809                	j	1fe8 <__sfputs_r+0x32>
    1fd8:	00044583          	lbu	a1,0(s0)
    1fdc:	864e                	mv	a2,s3
    1fde:	854a                	mv	a0,s2
    1fe0:	3775                	jal	1f8c <__sfputc_r>
    1fe2:	0405                	addi	s0,s0,1
    1fe4:	ff4516e3          	bne	a0,s4,1fd0 <__sfputs_r+0x1a>
    1fe8:	40f2                	lw	ra,28(sp)
    1fea:	4462                	lw	s0,24(sp)
    1fec:	44d2                	lw	s1,20(sp)
    1fee:	4942                	lw	s2,16(sp)
    1ff0:	49b2                	lw	s3,12(sp)
    1ff2:	4a22                	lw	s4,8(sp)
    1ff4:	6105                	addi	sp,sp,32
    1ff6:	8082                	ret

00001ff8 <_vfiprintf_r>:
_vfiprintf_r():
    1ff8:	7135                	addi	sp,sp,-160
    1ffa:	cd22                	sw	s0,152(sp)
    1ffc:	cb26                	sw	s1,148(sp)
    1ffe:	c94a                	sw	s2,144(sp)
    2000:	c74e                	sw	s3,140(sp)
    2002:	cf06                	sw	ra,156(sp)
    2004:	c552                	sw	s4,136(sp)
    2006:	c356                	sw	s5,132(sp)
    2008:	c15a                	sw	s6,128(sp)
    200a:	dede                	sw	s7,124(sp)
    200c:	dce2                	sw	s8,120(sp)
    200e:	dae6                	sw	s9,116(sp)
    2010:	89aa                	mv	s3,a0
    2012:	84ae                	mv	s1,a1
    2014:	8932                	mv	s2,a2
    2016:	8436                	mv	s0,a3
    2018:	c501                	beqz	a0,2020 <_vfiprintf_r+0x28>
    201a:	4d1c                	lw	a5,24(a0)
    201c:	e391                	bnez	a5,2020 <_vfiprintf_r+0x28>
    201e:	39ed                	jal	1d18 <__sinit>
    2020:	00001797          	auipc	a5,0x1
    2024:	55878793          	addi	a5,a5,1368 # 3578 <__sf_fake_stdin>
    2028:	0cf49b63          	bne	s1,a5,20fe <_vfiprintf_r+0x106>
    202c:	0049a483          	lw	s1,4(s3)
    2030:	00c4d783          	lhu	a5,12(s1)
    2034:	8ba1                	andi	a5,a5,8
    2036:	c7f5                	beqz	a5,2122 <_vfiprintf_r+0x12a>
    2038:	489c                	lw	a5,16(s1)
    203a:	c7e5                	beqz	a5,2122 <_vfiprintf_r+0x12a>
    203c:	02000793          	li	a5,32
    2040:	02f104a3          	sb	a5,41(sp)
    2044:	03000793          	li	a5,48
    2048:	d202                	sw	zero,36(sp)
    204a:	02f10523          	sb	a5,42(sp)
    204e:	c622                	sw	s0,12(sp)
    2050:	02500b93          	li	s7,37
    2054:	00001a97          	auipc	s5,0x1
    2058:	564a8a93          	addi	s5,s5,1380 # 35b8 <__sf_fake_stdout+0x20>
    205c:	4c05                	li	s8,1
    205e:	4b29                	li	s6,10
    2060:	844a                	mv	s0,s2
    2062:	00044783          	lbu	a5,0(s0)
    2066:	c399                	beqz	a5,206c <_vfiprintf_r+0x74>
    2068:	0f779063          	bne	a5,s7,2148 <_vfiprintf_r+0x150>
    206c:	41240cb3          	sub	s9,s0,s2
    2070:	000c8d63          	beqz	s9,208a <_vfiprintf_r+0x92>
    2074:	86e6                	mv	a3,s9
    2076:	864a                	mv	a2,s2
    2078:	85a6                	mv	a1,s1
    207a:	854e                	mv	a0,s3
    207c:	3f2d                	jal	1fb6 <__sfputs_r>
    207e:	57fd                	li	a5,-1
    2080:	1ef50663          	beq	a0,a5,226c <_vfiprintf_r+0x274>
    2084:	5692                	lw	a3,36(sp)
    2086:	96e6                	add	a3,a3,s9
    2088:	d236                	sw	a3,36(sp)
    208a:	00044783          	lbu	a5,0(s0)
    208e:	1c078f63          	beqz	a5,226c <_vfiprintf_r+0x274>
    2092:	57fd                	li	a5,-1
    2094:	00140913          	addi	s2,s0,1
    2098:	c802                	sw	zero,16(sp)
    209a:	ce02                	sw	zero,28(sp)
    209c:	ca3e                	sw	a5,20(sp)
    209e:	cc02                	sw	zero,24(sp)
    20a0:	040109a3          	sb	zero,83(sp)
    20a4:	d482                	sw	zero,104(sp)
    20a6:	00094583          	lbu	a1,0(s2)
    20aa:	4615                	li	a2,5
    20ac:	8556                	mv	a0,s5
    20ae:	2715                	jal	27d2 <memchr>
    20b0:	00190413          	addi	s0,s2,1
    20b4:	47c2                	lw	a5,16(sp)
    20b6:	e959                	bnez	a0,214c <_vfiprintf_r+0x154>
    20b8:	0107f713          	andi	a4,a5,16
    20bc:	c709                	beqz	a4,20c6 <_vfiprintf_r+0xce>
    20be:	02000713          	li	a4,32
    20c2:	04e109a3          	sb	a4,83(sp)
    20c6:	0087f713          	andi	a4,a5,8
    20ca:	c709                	beqz	a4,20d4 <_vfiprintf_r+0xdc>
    20cc:	02b00713          	li	a4,43
    20d0:	04e109a3          	sb	a4,83(sp)
    20d4:	00094683          	lbu	a3,0(s2)
    20d8:	02a00713          	li	a4,42
    20dc:	08e68063          	beq	a3,a4,215c <_vfiprintf_r+0x164>
    20e0:	47f2                	lw	a5,28(sp)
    20e2:	844a                	mv	s0,s2
    20e4:	4681                	li	a3,0
    20e6:	4625                	li	a2,9
    20e8:	00044703          	lbu	a4,0(s0)
    20ec:	00140593          	addi	a1,s0,1
    20f0:	fd070713          	addi	a4,a4,-48 # ffffdfd0 <_eusrstack+0xdfff5fd0>
    20f4:	0ae67963          	bgeu	a2,a4,21a6 <_vfiprintf_r+0x1ae>
    20f8:	cab5                	beqz	a3,216c <_vfiprintf_r+0x174>
    20fa:	ce3e                	sw	a5,28(sp)
    20fc:	a885                	j	216c <_vfiprintf_r+0x174>
    20fe:	00001797          	auipc	a5,0x1
    2102:	49a78793          	addi	a5,a5,1178 # 3598 <__sf_fake_stdout>
    2106:	00f49563          	bne	s1,a5,2110 <_vfiprintf_r+0x118>
    210a:	0089a483          	lw	s1,8(s3)
    210e:	b70d                	j	2030 <_vfiprintf_r+0x38>
    2110:	00001797          	auipc	a5,0x1
    2114:	44878793          	addi	a5,a5,1096 # 3558 <__sf_fake_stderr>
    2118:	f0f49ce3          	bne	s1,a5,2030 <_vfiprintf_r+0x38>
    211c:	00c9a483          	lw	s1,12(s3)
    2120:	bf01                	j	2030 <_vfiprintf_r+0x38>
    2122:	85a6                	mv	a1,s1
    2124:	854e                	mv	a0,s3
    2126:	885ff0ef          	jal	ra,19aa <__swsetup_r>
    212a:	d909                	beqz	a0,203c <_vfiprintf_r+0x44>
    212c:	557d                	li	a0,-1
    212e:	40fa                	lw	ra,156(sp)
    2130:	446a                	lw	s0,152(sp)
    2132:	44da                	lw	s1,148(sp)
    2134:	494a                	lw	s2,144(sp)
    2136:	49ba                	lw	s3,140(sp)
    2138:	4a2a                	lw	s4,136(sp)
    213a:	4a9a                	lw	s5,132(sp)
    213c:	4b0a                	lw	s6,128(sp)
    213e:	5bf6                	lw	s7,124(sp)
    2140:	5c66                	lw	s8,120(sp)
    2142:	5cd6                	lw	s9,116(sp)
    2144:	610d                	addi	sp,sp,160
    2146:	8082                	ret
    2148:	0405                	addi	s0,s0,1
    214a:	bf21                	j	2062 <_vfiprintf_r+0x6a>
    214c:	41550533          	sub	a0,a0,s5
    2150:	00ac1533          	sll	a0,s8,a0
    2154:	8fc9                	or	a5,a5,a0
    2156:	c83e                	sw	a5,16(sp)
    2158:	8922                	mv	s2,s0
    215a:	b7b1                	j	20a6 <_vfiprintf_r+0xae>
    215c:	4732                	lw	a4,12(sp)
    215e:	00470693          	addi	a3,a4,4
    2162:	4318                	lw	a4,0(a4)
    2164:	c636                	sw	a3,12(sp)
    2166:	02074963          	bltz	a4,2198 <_vfiprintf_r+0x1a0>
    216a:	ce3a                	sw	a4,28(sp)
    216c:	00044703          	lbu	a4,0(s0)
    2170:	02e00793          	li	a5,46
    2174:	04f71f63          	bne	a4,a5,21d2 <_vfiprintf_r+0x1da>
    2178:	00144703          	lbu	a4,1(s0)
    217c:	02a00793          	li	a5,42
    2180:	02f71b63          	bne	a4,a5,21b6 <_vfiprintf_r+0x1be>
    2184:	47b2                	lw	a5,12(sp)
    2186:	0409                	addi	s0,s0,2
    2188:	00478713          	addi	a4,a5,4
    218c:	439c                	lw	a5,0(a5)
    218e:	c63a                	sw	a4,12(sp)
    2190:	0207c163          	bltz	a5,21b2 <_vfiprintf_r+0x1ba>
    2194:	ca3e                	sw	a5,20(sp)
    2196:	a835                	j	21d2 <_vfiprintf_r+0x1da>
    2198:	40e00733          	neg	a4,a4
    219c:	0027e793          	ori	a5,a5,2
    21a0:	ce3a                	sw	a4,28(sp)
    21a2:	c83e                	sw	a5,16(sp)
    21a4:	b7e1                	j	216c <_vfiprintf_r+0x174>
    21a6:	036787b3          	mul	a5,a5,s6
    21aa:	4685                	li	a3,1
    21ac:	842e                	mv	s0,a1
    21ae:	97ba                	add	a5,a5,a4
    21b0:	bf25                	j	20e8 <_vfiprintf_r+0xf0>
    21b2:	57fd                	li	a5,-1
    21b4:	b7c5                	j	2194 <_vfiprintf_r+0x19c>
    21b6:	0405                	addi	s0,s0,1
    21b8:	ca02                	sw	zero,20(sp)
    21ba:	4681                	li	a3,0
    21bc:	4781                	li	a5,0
    21be:	4625                	li	a2,9
    21c0:	00044703          	lbu	a4,0(s0)
    21c4:	00140593          	addi	a1,s0,1
    21c8:	fd070713          	addi	a4,a4,-48
    21cc:	06e67663          	bgeu	a2,a4,2238 <_vfiprintf_r+0x240>
    21d0:	f2f1                	bnez	a3,2194 <_vfiprintf_r+0x19c>
    21d2:	00044583          	lbu	a1,0(s0)
    21d6:	460d                	li	a2,3
    21d8:	00001517          	auipc	a0,0x1
    21dc:	3e850513          	addi	a0,a0,1000 # 35c0 <__sf_fake_stdout+0x28>
    21e0:	2bcd                	jal	27d2 <memchr>
    21e2:	cd11                	beqz	a0,21fe <_vfiprintf_r+0x206>
    21e4:	00001797          	auipc	a5,0x1
    21e8:	3dc78793          	addi	a5,a5,988 # 35c0 <__sf_fake_stdout+0x28>
    21ec:	8d1d                	sub	a0,a0,a5
    21ee:	04000793          	li	a5,64
    21f2:	00a797b3          	sll	a5,a5,a0
    21f6:	4542                	lw	a0,16(sp)
    21f8:	0405                	addi	s0,s0,1
    21fa:	8d5d                	or	a0,a0,a5
    21fc:	c82a                	sw	a0,16(sp)
    21fe:	00044583          	lbu	a1,0(s0)
    2202:	4619                	li	a2,6
    2204:	00001517          	auipc	a0,0x1
    2208:	3c050513          	addi	a0,a0,960 # 35c4 <__sf_fake_stdout+0x2c>
    220c:	00140913          	addi	s2,s0,1
    2210:	02b10423          	sb	a1,40(sp)
    2214:	2b7d                	jal	27d2 <memchr>
    2216:	c13d                	beqz	a0,227c <_vfiprintf_r+0x284>
    2218:	ffffe797          	auipc	a5,0xffffe
    221c:	de878793          	addi	a5,a5,-536 # 0 <_sinit>
    2220:	e795                	bnez	a5,224c <_vfiprintf_r+0x254>
    2222:	4742                	lw	a4,16(sp)
    2224:	47b2                	lw	a5,12(sp)
    2226:	10077713          	andi	a4,a4,256
    222a:	cf09                	beqz	a4,2244 <_vfiprintf_r+0x24c>
    222c:	0791                	addi	a5,a5,4
    222e:	c63e                	sw	a5,12(sp)
    2230:	5792                	lw	a5,36(sp)
    2232:	97d2                	add	a5,a5,s4
    2234:	d23e                	sw	a5,36(sp)
    2236:	b52d                	j	2060 <_vfiprintf_r+0x68>
    2238:	036787b3          	mul	a5,a5,s6
    223c:	4685                	li	a3,1
    223e:	842e                	mv	s0,a1
    2240:	97ba                	add	a5,a5,a4
    2242:	bfbd                	j	21c0 <_vfiprintf_r+0x1c8>
    2244:	079d                	addi	a5,a5,7
    2246:	9be1                	andi	a5,a5,-8
    2248:	07a1                	addi	a5,a5,8
    224a:	b7d5                	j	222e <_vfiprintf_r+0x236>
    224c:	0078                	addi	a4,sp,12
    224e:	00000697          	auipc	a3,0x0
    2252:	d6868693          	addi	a3,a3,-664 # 1fb6 <__sfputs_r>
    2256:	8626                	mv	a2,s1
    2258:	080c                	addi	a1,sp,16
    225a:	854e                	mv	a0,s3
    225c:	00000097          	auipc	ra,0x0
    2260:	000000e7          	jalr	zero # 0 <_sinit>
    2264:	57fd                	li	a5,-1
    2266:	8a2a                	mv	s4,a0
    2268:	fcf514e3          	bne	a0,a5,2230 <_vfiprintf_r+0x238>
    226c:	00c4d783          	lhu	a5,12(s1)
    2270:	0407f793          	andi	a5,a5,64
    2274:	ea079ce3          	bnez	a5,212c <_vfiprintf_r+0x134>
    2278:	5512                	lw	a0,36(sp)
    227a:	bd55                	j	212e <_vfiprintf_r+0x136>
    227c:	0078                	addi	a4,sp,12
    227e:	00000697          	auipc	a3,0x0
    2282:	d3868693          	addi	a3,a3,-712 # 1fb6 <__sfputs_r>
    2286:	8626                	mv	a2,s1
    2288:	080c                	addi	a1,sp,16
    228a:	854e                	mv	a0,s3
    228c:	2a01                	jal	239c <_printf_i>
    228e:	bfd9                	j	2264 <_vfiprintf_r+0x26c>

00002290 <_printf_common>:
_printf_common():
    2290:	7179                	addi	sp,sp,-48
    2292:	ca56                	sw	s5,20(sp)
    2294:	499c                	lw	a5,16(a1)
    2296:	8aba                	mv	s5,a4
    2298:	4598                	lw	a4,8(a1)
    229a:	d422                	sw	s0,40(sp)
    229c:	d226                	sw	s1,36(sp)
    229e:	ce4e                	sw	s3,28(sp)
    22a0:	cc52                	sw	s4,24(sp)
    22a2:	d606                	sw	ra,44(sp)
    22a4:	d04a                	sw	s2,32(sp)
    22a6:	c85a                	sw	s6,16(sp)
    22a8:	c65e                	sw	s7,12(sp)
    22aa:	89aa                	mv	s3,a0
    22ac:	842e                	mv	s0,a1
    22ae:	84b2                	mv	s1,a2
    22b0:	8a36                	mv	s4,a3
    22b2:	00e7d363          	bge	a5,a4,22b8 <_printf_common+0x28>
    22b6:	87ba                	mv	a5,a4
    22b8:	c09c                	sw	a5,0(s1)
    22ba:	04344703          	lbu	a4,67(s0)
    22be:	c319                	beqz	a4,22c4 <_printf_common+0x34>
    22c0:	0785                	addi	a5,a5,1
    22c2:	c09c                	sw	a5,0(s1)
    22c4:	401c                	lw	a5,0(s0)
    22c6:	0207f793          	andi	a5,a5,32
    22ca:	c781                	beqz	a5,22d2 <_printf_common+0x42>
    22cc:	409c                	lw	a5,0(s1)
    22ce:	0789                	addi	a5,a5,2
    22d0:	c09c                	sw	a5,0(s1)
    22d2:	00042903          	lw	s2,0(s0)
    22d6:	00697913          	andi	s2,s2,6
    22da:	00091a63          	bnez	s2,22ee <_printf_common+0x5e>
    22de:	01940b13          	addi	s6,s0,25
    22e2:	5bfd                	li	s7,-1
    22e4:	445c                	lw	a5,12(s0)
    22e6:	4098                	lw	a4,0(s1)
    22e8:	8f99                	sub	a5,a5,a4
    22ea:	04f94c63          	blt	s2,a5,2342 <_printf_common+0xb2>
    22ee:	401c                	lw	a5,0(s0)
    22f0:	04344683          	lbu	a3,67(s0)
    22f4:	0207f793          	andi	a5,a5,32
    22f8:	00d036b3          	snez	a3,a3
    22fc:	eba5                	bnez	a5,236c <_printf_common+0xdc>
    22fe:	04340613          	addi	a2,s0,67
    2302:	85d2                	mv	a1,s4
    2304:	854e                	mv	a0,s3
    2306:	9a82                	jalr	s5
    2308:	57fd                	li	a5,-1
    230a:	04f50363          	beq	a0,a5,2350 <_printf_common+0xc0>
    230e:	401c                	lw	a5,0(s0)
    2310:	4611                	li	a2,4
    2312:	4098                	lw	a4,0(s1)
    2314:	8b99                	andi	a5,a5,6
    2316:	4454                	lw	a3,12(s0)
    2318:	4481                	li	s1,0
    231a:	00c79763          	bne	a5,a2,2328 <_printf_common+0x98>
    231e:	40e684b3          	sub	s1,a3,a4
    2322:	0004d363          	bgez	s1,2328 <_printf_common+0x98>
    2326:	4481                	li	s1,0
    2328:	441c                	lw	a5,8(s0)
    232a:	4818                	lw	a4,16(s0)
    232c:	00f75463          	bge	a4,a5,2334 <_printf_common+0xa4>
    2330:	8f99                	sub	a5,a5,a4
    2332:	94be                	add	s1,s1,a5
    2334:	4901                	li	s2,0
    2336:	0469                	addi	s0,s0,26
    2338:	5b7d                	li	s6,-1
    233a:	05249863          	bne	s1,s2,238a <_printf_common+0xfa>
    233e:	4501                	li	a0,0
    2340:	a809                	j	2352 <_printf_common+0xc2>
    2342:	4685                	li	a3,1
    2344:	865a                	mv	a2,s6
    2346:	85d2                	mv	a1,s4
    2348:	854e                	mv	a0,s3
    234a:	9a82                	jalr	s5
    234c:	01751e63          	bne	a0,s7,2368 <_printf_common+0xd8>
    2350:	557d                	li	a0,-1
    2352:	50b2                	lw	ra,44(sp)
    2354:	5422                	lw	s0,40(sp)
    2356:	5492                	lw	s1,36(sp)
    2358:	5902                	lw	s2,32(sp)
    235a:	49f2                	lw	s3,28(sp)
    235c:	4a62                	lw	s4,24(sp)
    235e:	4ad2                	lw	s5,20(sp)
    2360:	4b42                	lw	s6,16(sp)
    2362:	4bb2                	lw	s7,12(sp)
    2364:	6145                	addi	sp,sp,48
    2366:	8082                	ret
    2368:	0905                	addi	s2,s2,1
    236a:	bfad                	j	22e4 <_printf_common+0x54>
    236c:	00d40733          	add	a4,s0,a3
    2370:	03000613          	li	a2,48
    2374:	04c701a3          	sb	a2,67(a4)
    2378:	04544703          	lbu	a4,69(s0)
    237c:	00168793          	addi	a5,a3,1
    2380:	97a2                	add	a5,a5,s0
    2382:	0689                	addi	a3,a3,2
    2384:	04e781a3          	sb	a4,67(a5)
    2388:	bf9d                	j	22fe <_printf_common+0x6e>
    238a:	4685                	li	a3,1
    238c:	8622                	mv	a2,s0
    238e:	85d2                	mv	a1,s4
    2390:	854e                	mv	a0,s3
    2392:	9a82                	jalr	s5
    2394:	fb650ee3          	beq	a0,s6,2350 <_printf_common+0xc0>
    2398:	0905                	addi	s2,s2,1
    239a:	b745                	j	233a <_printf_common+0xaa>

0000239c <_printf_i>:
_printf_i():
    239c:	7179                	addi	sp,sp,-48
    239e:	d422                	sw	s0,40(sp)
    23a0:	d226                	sw	s1,36(sp)
    23a2:	d04a                	sw	s2,32(sp)
    23a4:	ce4e                	sw	s3,28(sp)
    23a6:	d606                	sw	ra,44(sp)
    23a8:	cc52                	sw	s4,24(sp)
    23aa:	ca56                	sw	s5,20(sp)
    23ac:	c85a                	sw	s6,16(sp)
    23ae:	89b6                	mv	s3,a3
    23b0:	0185c683          	lbu	a3,24(a1)
    23b4:	06900793          	li	a5,105
    23b8:	8932                	mv	s2,a2
    23ba:	84aa                	mv	s1,a0
    23bc:	842e                	mv	s0,a1
    23be:	04358613          	addi	a2,a1,67
    23c2:	02f68d63          	beq	a3,a5,23fc <_printf_i+0x60>
    23c6:	06d7e263          	bltu	a5,a3,242a <_printf_i+0x8e>
    23ca:	05800793          	li	a5,88
    23ce:	18f68763          	beq	a3,a5,255c <_printf_i+0x1c0>
    23d2:	00d7ed63          	bltu	a5,a3,23ec <_printf_i+0x50>
    23d6:	22068063          	beqz	a3,25f6 <_printf_i+0x25a>
    23da:	04300793          	li	a5,67
    23de:	0af68e63          	beq	a3,a5,249a <_printf_i+0xfe>
    23e2:	04240a93          	addi	s5,s0,66
    23e6:	04d40123          	sb	a3,66(s0)
    23ea:	a0c9                	j	24ac <_printf_i+0x110>
    23ec:	06300793          	li	a5,99
    23f0:	0af68563          	beq	a3,a5,249a <_printf_i+0xfe>
    23f4:	06400793          	li	a5,100
    23f8:	fef695e3          	bne	a3,a5,23e2 <_printf_i+0x46>
    23fc:	401c                	lw	a5,0(s0)
    23fe:	4308                	lw	a0,0(a4)
    2400:	0807f693          	andi	a3,a5,128
    2404:	00450593          	addi	a1,a0,4
    2408:	c6c5                	beqz	a3,24b0 <_printf_i+0x114>
    240a:	411c                	lw	a5,0(a0)
    240c:	c30c                	sw	a1,0(a4)
    240e:	0007d863          	bgez	a5,241e <_printf_i+0x82>
    2412:	02d00713          	li	a4,45
    2416:	40f007b3          	neg	a5,a5
    241a:	04e401a3          	sb	a4,67(s0)
    241e:	00001697          	auipc	a3,0x1
    2422:	1ae68693          	addi	a3,a3,430 # 35cc <__sf_fake_stdout+0x34>
    2426:	4729                	li	a4,10
    2428:	a86d                	j	24e2 <_printf_i+0x146>
    242a:	07000793          	li	a5,112
    242e:	16f68363          	beq	a3,a5,2594 <_printf_i+0x1f8>
    2432:	02d7e563          	bltu	a5,a3,245c <_printf_i+0xc0>
    2436:	06e00793          	li	a5,110
    243a:	18f68a63          	beq	a3,a5,25ce <_printf_i+0x232>
    243e:	06f00793          	li	a5,111
    2442:	faf690e3          	bne	a3,a5,23e2 <_printf_i+0x46>
    2446:	400c                	lw	a1,0(s0)
    2448:	431c                	lw	a5,0(a4)
    244a:	0805f813          	andi	a6,a1,128
    244e:	00478513          	addi	a0,a5,4
    2452:	06080763          	beqz	a6,24c0 <_printf_i+0x124>
    2456:	c308                	sw	a0,0(a4)
    2458:	439c                	lw	a5,0(a5)
    245a:	a88d                	j	24cc <_printf_i+0x130>
    245c:	07500793          	li	a5,117
    2460:	fef683e3          	beq	a3,a5,2446 <_printf_i+0xaa>
    2464:	07800793          	li	a5,120
    2468:	12f68a63          	beq	a3,a5,259c <_printf_i+0x200>
    246c:	07300793          	li	a5,115
    2470:	f6f699e3          	bne	a3,a5,23e2 <_printf_i+0x46>
    2474:	431c                	lw	a5,0(a4)
    2476:	41d0                	lw	a2,4(a1)
    2478:	4581                	li	a1,0
    247a:	00478693          	addi	a3,a5,4
    247e:	c314                	sw	a3,0(a4)
    2480:	0007aa83          	lw	s5,0(a5)
    2484:	8556                	mv	a0,s5
    2486:	26b1                	jal	27d2 <memchr>
    2488:	c501                	beqz	a0,2490 <_printf_i+0xf4>
    248a:	41550533          	sub	a0,a0,s5
    248e:	c048                	sw	a0,4(s0)
    2490:	405c                	lw	a5,4(s0)
    2492:	c81c                	sw	a5,16(s0)
    2494:	040401a3          	sb	zero,67(s0)
    2498:	a871                	j	2534 <_printf_i+0x198>
    249a:	431c                	lw	a5,0(a4)
    249c:	04240a93          	addi	s5,s0,66
    24a0:	00478693          	addi	a3,a5,4
    24a4:	439c                	lw	a5,0(a5)
    24a6:	c314                	sw	a3,0(a4)
    24a8:	04f40123          	sb	a5,66(s0)
    24ac:	4785                	li	a5,1
    24ae:	b7d5                	j	2492 <_printf_i+0xf6>
    24b0:	0407f693          	andi	a3,a5,64
    24b4:	411c                	lw	a5,0(a0)
    24b6:	c30c                	sw	a1,0(a4)
    24b8:	dab9                	beqz	a3,240e <_printf_i+0x72>
    24ba:	07c2                	slli	a5,a5,0x10
    24bc:	87c1                	srai	a5,a5,0x10
    24be:	bf81                	j	240e <_printf_i+0x72>
    24c0:	0405f593          	andi	a1,a1,64
    24c4:	c308                	sw	a0,0(a4)
    24c6:	d9c9                	beqz	a1,2458 <_printf_i+0xbc>
    24c8:	0007d783          	lhu	a5,0(a5)
    24cc:	06f00713          	li	a4,111
    24d0:	0ee68763          	beq	a3,a4,25be <_printf_i+0x222>
    24d4:	00001697          	auipc	a3,0x1
    24d8:	0f868693          	addi	a3,a3,248 # 35cc <__sf_fake_stdout+0x34>
    24dc:	4729                	li	a4,10
    24de:	040401a3          	sb	zero,67(s0)
    24e2:	404c                	lw	a1,4(s0)
    24e4:	c40c                	sw	a1,8(s0)
    24e6:	0005c563          	bltz	a1,24f0 <_printf_i+0x154>
    24ea:	4008                	lw	a0,0(s0)
    24ec:	996d                	andi	a0,a0,-5
    24ee:	c008                	sw	a0,0(s0)
    24f0:	e399                	bnez	a5,24f6 <_printf_i+0x15a>
    24f2:	8ab2                	mv	s5,a2
    24f4:	cd91                	beqz	a1,2510 <_printf_i+0x174>
    24f6:	8ab2                	mv	s5,a2
    24f8:	02e7f5b3          	remu	a1,a5,a4
    24fc:	1afd                	addi	s5,s5,-1
    24fe:	95b6                	add	a1,a1,a3
    2500:	0005c583          	lbu	a1,0(a1)
    2504:	00ba8023          	sb	a1,0(s5)
    2508:	02e7d5b3          	divu	a1,a5,a4
    250c:	0ae7ff63          	bgeu	a5,a4,25ca <_printf_i+0x22e>
    2510:	47a1                	li	a5,8
    2512:	00f71e63          	bne	a4,a5,252e <_printf_i+0x192>
    2516:	401c                	lw	a5,0(s0)
    2518:	8b85                	andi	a5,a5,1
    251a:	cb91                	beqz	a5,252e <_printf_i+0x192>
    251c:	4058                	lw	a4,4(s0)
    251e:	481c                	lw	a5,16(s0)
    2520:	00e7c763          	blt	a5,a4,252e <_printf_i+0x192>
    2524:	03000793          	li	a5,48
    2528:	fefa8fa3          	sb	a5,-1(s5)
    252c:	1afd                	addi	s5,s5,-1
    252e:	41560633          	sub	a2,a2,s5
    2532:	c810                	sw	a2,16(s0)
    2534:	874e                	mv	a4,s3
    2536:	86ca                	mv	a3,s2
    2538:	0070                	addi	a2,sp,12
    253a:	85a2                	mv	a1,s0
    253c:	8526                	mv	a0,s1
    253e:	3b89                	jal	2290 <_printf_common>
    2540:	5a7d                	li	s4,-1
    2542:	0b451e63          	bne	a0,s4,25fe <_printf_i+0x262>
    2546:	557d                	li	a0,-1
    2548:	50b2                	lw	ra,44(sp)
    254a:	5422                	lw	s0,40(sp)
    254c:	5492                	lw	s1,36(sp)
    254e:	5902                	lw	s2,32(sp)
    2550:	49f2                	lw	s3,28(sp)
    2552:	4a62                	lw	s4,24(sp)
    2554:	4ad2                	lw	s5,20(sp)
    2556:	4b42                	lw	s6,16(sp)
    2558:	6145                	addi	sp,sp,48
    255a:	8082                	ret
    255c:	04d582a3          	sb	a3,69(a1)
    2560:	00001697          	auipc	a3,0x1
    2564:	06c68693          	addi	a3,a3,108 # 35cc <__sf_fake_stdout+0x34>
    2568:	400c                	lw	a1,0(s0)
    256a:	4308                	lw	a0,0(a4)
    256c:	0805f813          	andi	a6,a1,128
    2570:	411c                	lw	a5,0(a0)
    2572:	0511                	addi	a0,a0,4
    2574:	02080d63          	beqz	a6,25ae <_printf_i+0x212>
    2578:	c308                	sw	a0,0(a4)
    257a:	0015f713          	andi	a4,a1,1
    257e:	c701                	beqz	a4,2586 <_printf_i+0x1ea>
    2580:	0205e593          	ori	a1,a1,32
    2584:	c00c                	sw	a1,0(s0)
    2586:	4741                	li	a4,16
    2588:	fbb9                	bnez	a5,24de <_printf_i+0x142>
    258a:	400c                	lw	a1,0(s0)
    258c:	fdf5f593          	andi	a1,a1,-33
    2590:	c00c                	sw	a1,0(s0)
    2592:	b7b1                	j	24de <_printf_i+0x142>
    2594:	419c                	lw	a5,0(a1)
    2596:	0207e793          	ori	a5,a5,32
    259a:	c19c                	sw	a5,0(a1)
    259c:	07800793          	li	a5,120
    25a0:	04f402a3          	sb	a5,69(s0)
    25a4:	00001697          	auipc	a3,0x1
    25a8:	03c68693          	addi	a3,a3,60 # 35e0 <__sf_fake_stdout+0x48>
    25ac:	bf75                	j	2568 <_printf_i+0x1cc>
    25ae:	0405f813          	andi	a6,a1,64
    25b2:	c308                	sw	a0,0(a4)
    25b4:	fc0803e3          	beqz	a6,257a <_printf_i+0x1de>
    25b8:	07c2                	slli	a5,a5,0x10
    25ba:	83c1                	srli	a5,a5,0x10
    25bc:	bf7d                	j	257a <_printf_i+0x1de>
    25be:	00001697          	auipc	a3,0x1
    25c2:	00e68693          	addi	a3,a3,14 # 35cc <__sf_fake_stdout+0x34>
    25c6:	4721                	li	a4,8
    25c8:	bf19                	j	24de <_printf_i+0x142>
    25ca:	87ae                	mv	a5,a1
    25cc:	b735                	j	24f8 <_printf_i+0x15c>
    25ce:	4194                	lw	a3,0(a1)
    25d0:	431c                	lw	a5,0(a4)
    25d2:	49cc                	lw	a1,20(a1)
    25d4:	0806f813          	andi	a6,a3,128
    25d8:	00478513          	addi	a0,a5,4
    25dc:	00080663          	beqz	a6,25e8 <_printf_i+0x24c>
    25e0:	c308                	sw	a0,0(a4)
    25e2:	439c                	lw	a5,0(a5)
    25e4:	c38c                	sw	a1,0(a5)
    25e6:	a801                	j	25f6 <_printf_i+0x25a>
    25e8:	c308                	sw	a0,0(a4)
    25ea:	0406f693          	andi	a3,a3,64
    25ee:	439c                	lw	a5,0(a5)
    25f0:	daf5                	beqz	a3,25e4 <_printf_i+0x248>
    25f2:	00b79023          	sh	a1,0(a5)
    25f6:	00042823          	sw	zero,16(s0)
    25fa:	8ab2                	mv	s5,a2
    25fc:	bf25                	j	2534 <_printf_i+0x198>
    25fe:	4814                	lw	a3,16(s0)
    2600:	8656                	mv	a2,s5
    2602:	85ca                	mv	a1,s2
    2604:	8526                	mv	a0,s1
    2606:	9982                	jalr	s3
    2608:	f3450fe3          	beq	a0,s4,2546 <_printf_i+0x1aa>
    260c:	401c                	lw	a5,0(s0)
    260e:	8b89                	andi	a5,a5,2
    2610:	e78d                	bnez	a5,263a <_printf_i+0x29e>
    2612:	47b2                	lw	a5,12(sp)
    2614:	4448                	lw	a0,12(s0)
    2616:	f2f559e3          	bge	a0,a5,2548 <_printf_i+0x1ac>
    261a:	853e                	mv	a0,a5
    261c:	b735                	j	2548 <_printf_i+0x1ac>
    261e:	4685                	li	a3,1
    2620:	8656                	mv	a2,s5
    2622:	85ca                	mv	a1,s2
    2624:	8526                	mv	a0,s1
    2626:	9982                	jalr	s3
    2628:	f1650fe3          	beq	a0,s6,2546 <_printf_i+0x1aa>
    262c:	0a05                	addi	s4,s4,1
    262e:	445c                	lw	a5,12(s0)
    2630:	4732                	lw	a4,12(sp)
    2632:	8f99                	sub	a5,a5,a4
    2634:	fefa45e3          	blt	s4,a5,261e <_printf_i+0x282>
    2638:	bfe9                	j	2612 <_printf_i+0x276>
    263a:	4a01                	li	s4,0
    263c:	01940a93          	addi	s5,s0,25
    2640:	5b7d                	li	s6,-1
    2642:	b7f5                	j	262e <_printf_i+0x292>

00002644 <__sread>:
__sread():
    2644:	1141                	addi	sp,sp,-16
    2646:	c422                	sw	s0,8(sp)
    2648:	842e                	mv	s0,a1
    264a:	00e59583          	lh	a1,14(a1)
    264e:	c606                	sw	ra,12(sp)
    2650:	2a71                	jal	27ec <_read_r>
    2652:	00054963          	bltz	a0,2664 <__sread+0x20>
    2656:	487c                	lw	a5,84(s0)
    2658:	97aa                	add	a5,a5,a0
    265a:	c87c                	sw	a5,84(s0)
    265c:	40b2                	lw	ra,12(sp)
    265e:	4422                	lw	s0,8(sp)
    2660:	0141                	addi	sp,sp,16
    2662:	8082                	ret
    2664:	00c45783          	lhu	a5,12(s0)
    2668:	777d                	lui	a4,0xfffff
    266a:	177d                	addi	a4,a4,-1
    266c:	8ff9                	and	a5,a5,a4
    266e:	00f41623          	sh	a5,12(s0)
    2672:	b7ed                	j	265c <__sread+0x18>

00002674 <__swrite>:
__swrite():
    2674:	00c5d783          	lhu	a5,12(a1)
    2678:	1101                	addi	sp,sp,-32
    267a:	cc22                	sw	s0,24(sp)
    267c:	ca26                	sw	s1,20(sp)
    267e:	c84a                	sw	s2,16(sp)
    2680:	c64e                	sw	s3,12(sp)
    2682:	ce06                	sw	ra,28(sp)
    2684:	1007f793          	andi	a5,a5,256
    2688:	84aa                	mv	s1,a0
    268a:	842e                	mv	s0,a1
    268c:	8932                	mv	s2,a2
    268e:	89b6                	mv	s3,a3
    2690:	c791                	beqz	a5,269c <__swrite+0x28>
    2692:	00e59583          	lh	a1,14(a1)
    2696:	4689                	li	a3,2
    2698:	4601                	li	a2,0
    269a:	2231                	jal	27a6 <_lseek_r>
    269c:	00c45783          	lhu	a5,12(s0)
    26a0:	777d                	lui	a4,0xfffff
    26a2:	177d                	addi	a4,a4,-1
    26a4:	8ff9                	and	a5,a5,a4
    26a6:	00f41623          	sh	a5,12(s0)
    26aa:	00e41583          	lh	a1,14(s0)
    26ae:	4462                	lw	s0,24(sp)
    26b0:	40f2                	lw	ra,28(sp)
    26b2:	86ce                	mv	a3,s3
    26b4:	864a                	mv	a2,s2
    26b6:	49b2                	lw	s3,12(sp)
    26b8:	4942                	lw	s2,16(sp)
    26ba:	8526                	mv	a0,s1
    26bc:	44d2                	lw	s1,20(sp)
    26be:	6105                	addi	sp,sp,32
    26c0:	a83d                	j	26fe <_write_r>

000026c2 <__sseek>:
__sseek():
    26c2:	1141                	addi	sp,sp,-16
    26c4:	c422                	sw	s0,8(sp)
    26c6:	842e                	mv	s0,a1
    26c8:	00e59583          	lh	a1,14(a1)
    26cc:	c606                	sw	ra,12(sp)
    26ce:	28e1                	jal	27a6 <_lseek_r>
    26d0:	57fd                	li	a5,-1
    26d2:	00c45703          	lhu	a4,12(s0)
    26d6:	00f51b63          	bne	a0,a5,26ec <__sseek+0x2a>
    26da:	77fd                	lui	a5,0xfffff
    26dc:	17fd                	addi	a5,a5,-1
    26de:	8ff9                	and	a5,a5,a4
    26e0:	00f41623          	sh	a5,12(s0)
    26e4:	40b2                	lw	ra,12(sp)
    26e6:	4422                	lw	s0,8(sp)
    26e8:	0141                	addi	sp,sp,16
    26ea:	8082                	ret
    26ec:	6785                	lui	a5,0x1
    26ee:	8fd9                	or	a5,a5,a4
    26f0:	00f41623          	sh	a5,12(s0)
    26f4:	c868                	sw	a0,84(s0)
    26f6:	b7fd                	j	26e4 <__sseek+0x22>

000026f8 <__sclose>:
__sclose():
    26f8:	00e59583          	lh	a1,14(a1)
    26fc:	a805                	j	272c <_close_r>

000026fe <_write_r>:
_write_r():
    26fe:	1141                	addi	sp,sp,-16
    2700:	c422                	sw	s0,8(sp)
    2702:	842a                	mv	s0,a0
    2704:	852e                	mv	a0,a1
    2706:	85b2                	mv	a1,a2
    2708:	8636                	mv	a2,a3
    270a:	8401a623          	sw	zero,-1972(gp) # 200040ac <errno>
    270e:	c606                	sw	ra,12(sp)
    2710:	e43fe0ef          	jal	ra,1552 <_write>
    2714:	57fd                	li	a5,-1
    2716:	00f51763          	bne	a0,a5,2724 <_write_r+0x26>
    271a:	84c18793          	addi	a5,gp,-1972 # 200040ac <errno>
    271e:	439c                	lw	a5,0(a5)
    2720:	c391                	beqz	a5,2724 <_write_r+0x26>
    2722:	c01c                	sw	a5,0(s0)
    2724:	40b2                	lw	ra,12(sp)
    2726:	4422                	lw	s0,8(sp)
    2728:	0141                	addi	sp,sp,16
    272a:	8082                	ret

0000272c <_close_r>:
_close_r():
    272c:	1141                	addi	sp,sp,-16
    272e:	c422                	sw	s0,8(sp)
    2730:	842a                	mv	s0,a0
    2732:	852e                	mv	a0,a1
    2734:	8401a623          	sw	zero,-1972(gp) # 200040ac <errno>
    2738:	c606                	sw	ra,12(sp)
    273a:	28f9                	jal	2818 <_close>
    273c:	57fd                	li	a5,-1
    273e:	00f51763          	bne	a0,a5,274c <_close_r+0x20>
    2742:	84c18793          	addi	a5,gp,-1972 # 200040ac <errno>
    2746:	439c                	lw	a5,0(a5)
    2748:	c391                	beqz	a5,274c <_close_r+0x20>
    274a:	c01c                	sw	a5,0(s0)
    274c:	40b2                	lw	ra,12(sp)
    274e:	4422                	lw	s0,8(sp)
    2750:	0141                	addi	sp,sp,16
    2752:	8082                	ret

00002754 <_fstat_r>:
_fstat_r():
    2754:	1141                	addi	sp,sp,-16
    2756:	c422                	sw	s0,8(sp)
    2758:	842a                	mv	s0,a0
    275a:	852e                	mv	a0,a1
    275c:	85b2                	mv	a1,a2
    275e:	8401a623          	sw	zero,-1972(gp) # 200040ac <errno>
    2762:	c606                	sw	ra,12(sp)
    2764:	20c1                	jal	2824 <_fstat>
    2766:	57fd                	li	a5,-1
    2768:	00f51763          	bne	a0,a5,2776 <_fstat_r+0x22>
    276c:	84c18793          	addi	a5,gp,-1972 # 200040ac <errno>
    2770:	439c                	lw	a5,0(a5)
    2772:	c391                	beqz	a5,2776 <_fstat_r+0x22>
    2774:	c01c                	sw	a5,0(s0)
    2776:	40b2                	lw	ra,12(sp)
    2778:	4422                	lw	s0,8(sp)
    277a:	0141                	addi	sp,sp,16
    277c:	8082                	ret

0000277e <_isatty_r>:
_isatty_r():
    277e:	1141                	addi	sp,sp,-16
    2780:	c422                	sw	s0,8(sp)
    2782:	842a                	mv	s0,a0
    2784:	852e                	mv	a0,a1
    2786:	8401a623          	sw	zero,-1972(gp) # 200040ac <errno>
    278a:	c606                	sw	ra,12(sp)
    278c:	2055                	jal	2830 <_isatty>
    278e:	57fd                	li	a5,-1
    2790:	00f51763          	bne	a0,a5,279e <_isatty_r+0x20>
    2794:	84c18793          	addi	a5,gp,-1972 # 200040ac <errno>
    2798:	439c                	lw	a5,0(a5)
    279a:	c391                	beqz	a5,279e <_isatty_r+0x20>
    279c:	c01c                	sw	a5,0(s0)
    279e:	40b2                	lw	ra,12(sp)
    27a0:	4422                	lw	s0,8(sp)
    27a2:	0141                	addi	sp,sp,16
    27a4:	8082                	ret

000027a6 <_lseek_r>:
_lseek_r():
    27a6:	1141                	addi	sp,sp,-16
    27a8:	c422                	sw	s0,8(sp)
    27aa:	842a                	mv	s0,a0
    27ac:	852e                	mv	a0,a1
    27ae:	85b2                	mv	a1,a2
    27b0:	8636                	mv	a2,a3
    27b2:	8401a623          	sw	zero,-1972(gp) # 200040ac <errno>
    27b6:	c606                	sw	ra,12(sp)
    27b8:	2051                	jal	283c <_lseek>
    27ba:	57fd                	li	a5,-1
    27bc:	00f51763          	bne	a0,a5,27ca <_lseek_r+0x24>
    27c0:	84c18793          	addi	a5,gp,-1972 # 200040ac <errno>
    27c4:	439c                	lw	a5,0(a5)
    27c6:	c391                	beqz	a5,27ca <_lseek_r+0x24>
    27c8:	c01c                	sw	a5,0(s0)
    27ca:	40b2                	lw	ra,12(sp)
    27cc:	4422                	lw	s0,8(sp)
    27ce:	0141                	addi	sp,sp,16
    27d0:	8082                	ret

000027d2 <memchr>:
memchr():
    27d2:	0ff5f593          	andi	a1,a1,255
    27d6:	962a                	add	a2,a2,a0
    27d8:	00c51463          	bne	a0,a2,27e0 <memchr+0xe>
    27dc:	4501                	li	a0,0
    27de:	8082                	ret
    27e0:	00054783          	lbu	a5,0(a0)
    27e4:	feb78de3          	beq	a5,a1,27de <memchr+0xc>
    27e8:	0505                	addi	a0,a0,1
    27ea:	b7fd                	j	27d8 <memchr+0x6>

000027ec <_read_r>:
_read_r():
    27ec:	1141                	addi	sp,sp,-16
    27ee:	c422                	sw	s0,8(sp)
    27f0:	842a                	mv	s0,a0
    27f2:	852e                	mv	a0,a1
    27f4:	85b2                	mv	a1,a2
    27f6:	8636                	mv	a2,a3
    27f8:	8401a623          	sw	zero,-1972(gp) # 200040ac <errno>
    27fc:	c606                	sw	ra,12(sp)
    27fe:	20a9                	jal	2848 <_read>
    2800:	57fd                	li	a5,-1
    2802:	00f51763          	bne	a0,a5,2810 <_read_r+0x24>
    2806:	84c18793          	addi	a5,gp,-1972 # 200040ac <errno>
    280a:	439c                	lw	a5,0(a5)
    280c:	c391                	beqz	a5,2810 <_read_r+0x24>
    280e:	c01c                	sw	a5,0(s0)
    2810:	40b2                	lw	ra,12(sp)
    2812:	4422                	lw	s0,8(sp)
    2814:	0141                	addi	sp,sp,16
    2816:	8082                	ret

00002818 <_close>:
_close():
    2818:	05800793          	li	a5,88
    281c:	84f1a623          	sw	a5,-1972(gp) # 200040ac <errno>
    2820:	557d                	li	a0,-1
    2822:	8082                	ret

00002824 <_fstat>:
_fstat():
    2824:	05800793          	li	a5,88
    2828:	84f1a623          	sw	a5,-1972(gp) # 200040ac <errno>
    282c:	557d                	li	a0,-1
    282e:	8082                	ret

00002830 <_isatty>:
_isatty():
    2830:	05800793          	li	a5,88
    2834:	84f1a623          	sw	a5,-1972(gp) # 200040ac <errno>
    2838:	4501                	li	a0,0
    283a:	8082                	ret

0000283c <_lseek>:
_lseek():
    283c:	05800793          	li	a5,88
    2840:	84f1a623          	sw	a5,-1972(gp) # 200040ac <errno>
    2844:	557d                	li	a0,-1
    2846:	8082                	ret

00002848 <_read>:
_read():
    2848:	05800793          	li	a5,88
    284c:	84f1a623          	sw	a5,-1972(gp) # 200040ac <errno>
    2850:	557d                	li	a0,-1
    2852:	8082                	ret

00002854 <ascii_12x6>:
	...
    2860:	0000 00fc 0000 0000 0002 0000 0c00 0c02     ................
    2870:	0002 0000 0000 0000 d090 d0bc 90bc 0300     ................
    2880:	0300 0000 2418 44fe 008c 0203 0207 0001     .....$.D........
    2890:	2418 b0d8 804c 0300 0100 0102 38c0 38e4     .$..L........8.8
    28a0:	00e0 0201 0102 0202 0608 0000 0000 0000     ................
    28b0:	0000 0000 0000 f800 0204 0000 0100 0402     ................
    28c0:	0200 f804 0000 0400 0102 0000 6090 60f8     .............`.`
    28d0:	0090 0000 0001 0000 2020 20fc 0020 0000     ........  .  ...
    28e0:	0001 0000 0000 0000 0000 0608 0000 0000     ................
    28f0:	2020 2020 0020 0000 0000 0000 0000 0000          ...........
    2900:	0000 0200 0000 0000 8000 1c60 0002 0304     ..........`.....
    2910:	0000 0000 04f8 0404 00f8 0201 0202 0001     ................
    2920:	0800 00fc 0000 0200 0203 0000 8418 2444     ..............D$
    2930:	0018 0203 0202 0002 0408 2424 00d8 0201     ..........$$....
    2940:	0202 0001 b040 fc88 0080 0000 0300 0002     ....@...........
    2950:	243c 2424 00c4 0201 0202 0001 24f8 2c24     <$$$.........$$,
    2960:	00c0 0201 0202 0001 040c 1ce4 0004 0000     ................
    2970:	0003 0000 24d8 2424 00d8 0201 0202 0001     .....$$$........
    2980:	4438 4444 00f8 0300 0202 0001 0000 0010     8DDD............
    2990:	0000 0000 0002 0000 0000 0020 0000 0000     .......... .....
    29a0:	0006 0000 2000 8850 0204 0000 0000 0201     ..... P.........
    29b0:	9090 9090 0090 0000 0000 0000 0200 8804     ................
    29c0:	2050 0200 0001 0000 0418 24c4 0018 0000     P .........$....
    29d0:	0002 0000 04f8 94e4 00f8 0201 0202 0002     ................
    29e0:	e000 f09c 0080 0302 0000 0203 fc04 2424     ..............$$
    29f0:	00d8 0302 0202 0001 04f8 0404 000c 0201     ................
    2a00:	0202 0001 fc04 0404 00f8 0302 0202 0001     ................
    2a10:	fc04 7424 000c 0302 0202 0003 fc04 7424     ..$t..........$t
    2a20:	000c 0302 0002 0000 08f0 4404 40cc 0100     ...........D.@..
    2a30:	0202 0001 fc04 2020 04fc 0302 0000 0203     ......  ........
    2a40:	0404 04fc 0004 0202 0203 0002 0400 fc04     ................
    2a50:	0404 0406 0304 0000 fc04 d024 040c 0302     ..........$.....
    2a60:	0002 0203 fc04 0004 0000 0302 0202 0302     ................
    2a70:	3cfc 3cc0 00fc 0003 0003 0003 fc04 c430     .<.<..........0.
    2a80:	04fc 0302 0002 0003 04f8 0404 00f8 0201     ................
    2a90:	0202 0001 fc04 2424 0018 0302 0002 0000     ......$$........
    2aa0:	84f8 0484 00f8 0201 0702 0005 fc04 6424     ..............$d
    2ab0:	0098 0302 0002 0203 2418 4424 008c 0203     .........$$D....
    2ac0:	0202 0001 040c 04fc 000c 0200 0203 0000     ................
    2ad0:	fc04 0000 04fc 0100 0202 0001 7c04 e080     .............|..
    2ae0:	041c 0000 0003 0000 e01c e03c 001c 0300     ..........<.....
    2af0:	0300 0000 9c04 9c60 0004 0302 0300 0002     ......`.........
    2b00:	1c04 1ce0 0004 0200 0203 0000 840c 1c64     ..............d.
    2b10:	0004 0302 0202 0003 0000 02fe 0002 0000     ................
    2b20:	0407 0004 0e00 c030 0000 0000 0100 0002     ......0.........
    2b30:	0200 fe02 0000 0400 0704 0000 0400 0402     ................
	...
    2b4c:	0000 0808 0808 0808 0000 0002 0000 0000     ................
    2b5c:	0000 0000 4000 a0a0 00c0 0100 0202 0203     .....@..........
    2b6c:	fc04 2020 00c0 0300 0202 0001 c000 2020     ..  ..........  
    2b7c:	0060 0100 0202 0002 c000 2420 00fc 0100     `......... $....
    2b8c:	0202 0203 c000 a0a0 00c0 0100 0202 0002     ................
    2b9c:	2000 24f8 0424 0200 0203 0002 4000 a0a0     . .$$........@..
    2bac:	2060 0700 0a0a 040a fc04 2020 00c0 0302     ` ........  ....
    2bbc:	0002 0203 2000 00e4 0000 0200 0203 0000     ..... ..........
    2bcc:	0000 e420 0000 0808 0708 0000 fc04 e080     .. .............
    2bdc:	2020 0302 0002 0203 0404 00fc 0000 0202       ..............
    2bec:	0203 0002 20e0 20e0 00c0 0003 0003 0003     ..... . ........
    2bfc:	e020 2020 00c0 0302 0002 0203 c000 2020      .  ..........  
    2c0c:	00c0 0100 0202 0001 e020 2020 00c0 0f08     ........ .  ....
    2c1c:	020a 0001 c000 2020 00e0 0100 0a02 080f     ......  ........
    2c2c:	e020 2040 0020 0302 0002 0000 6000 a0a0      .@  ........`..
    2c3c:	0020 0200 0202 0003 2000 20f8 0000 0000      ........ . ....
    2c4c:	0201 0002 e020 2000 00e0 0100 0202 0203     .... .. ........
    2c5c:	e020 8020 2060 0000 0103 0000 8060 80e0      . .` ......`...
    2c6c:	0060 0300 0300 0000 6020 6080 0020 0302     `....... `.` ...
    2c7c:	0300 0002 e020 8020 2060 0808 0107 0000     .... . .` ......
    2c8c:	2000 60a0 0020 0200 0203 0002 0000 de20     . .` ......... .
    2c9c:	0002 0000 0700 0004 0000 ff00 0000 0000     ................
    2cac:	0f00 0000 0200 20de 0000 0400 0007 0000     ....... ........
    2cbc:	0102 0402 0204 0000 0000 0000               ............

00002cc8 <ascii_16x8>:
	...
    2cd8:	0000 0800 0808 0808 0808 0000 1818 0000     ................
    2ce8:	4800 246c 0012 0000 0000 0000 0000 0000     .Hl$............
    2cf8:	0000 2400 2424 127f 1212 127f 1212 0000     ...$$$..........
    2d08:	0000 1c08 2a2a 0c0a 2818 2a28 1c2a 0808     ....**...((**...
    2d18:	0000 2200 1525 1515 582a 5454 2254 0000     ..."%...*XTTT"..
    2d28:	0000 0c00 1212 0a12 2576 1129 6e91 0000     ........v%)..n..
    2d38:	0600 0406 0003 0000 0000 0000 0000 0000     ................
    2d48:	4000 1020 0810 0808 0808 1008 2010 0040     .@ .......... @.
    2d58:	0200 0804 1008 1010 1010 0810 0408 0002     ................
    2d68:	0000 0000 0808 1c6b 6b1c 0808 0000 0000     ......k..k......
    2d78:	0000 0000 0808 0808 087f 0808 0008 0000     ................
	...
    2d94:	0606 0304 0000 0000 0000 0000 00fe 0000     ................
	...
    2db4:	0606 0000 0000 4080 2040 1020 0810 0408     .......@@  .....
    2dc4:	0204 0002 0000 1800 4224 4242 4242 4242     ........$BBBBBBB
    2dd4:	1824 0000 0000 0800 080e 0808 0808 0808     $...............
    2de4:	3e08 0000 0000 3c00 4242 2042 1020 0408     .>.....<BBB  ...
    2df4:	7e42 0000 0000 3c00 4242 1820 4020 4240     B~.....<BB . @@B
    2e04:	1c22 0000 0000 2000 2830 2424 2222 207e     "...... 0($$""~ 
    2e14:	7820 0000 0000 7e00 0202 1a02 4026 4240      x.....~....&@@B
    2e24:	1c22 0000 0000 3800 0224 1a02 4226 4242     "......8$...&BBB
    2e34:	1824 0000 0000 7e00 2222 1010 0808 0808     $......~""......
    2e44:	0808 0000 0000 3c00 4242 2442 2418 4242     .......<BBB$.$BB
    2e54:	3c42 0000 0000 1800 4224 4242 5864 4040     B<......$BBBdX@@
    2e64:	1c24 0000 0000 0000 0000 1818 0000 0000     $...............
    2e74:	1818 0000 0000 0000 0000 0800 0000 0000     ................
    2e84:	0800 0408 0000 4000 1020 0408 0402 1008     .......@ .......
    2e94:	4020 0000 0000 0000 0000 007f 0000 007f      @..............
    2ea4:	0000 0000 0000 0200 0804 2010 2040 0810     ........... @ ..
    2eb4:	0204 0000 0000 3c00 4242 4046 1020 0010     .......<BBF@ ...
    2ec4:	1818 0000 0000 1c00 5a22 5555 5555 422d     ........"ZUUUU-B
    2ed4:	1c22 0000 0000 0800 1808 1414 3c24 4222     "...........$<"B
    2ee4:	e742 0000 0000 1f00 2222 1e22 4222 4242     B......."""."BBB
    2ef4:	1f22 0000 0000 7c00 4242 0101 0101 4201     "......|BB.....B
    2f04:	1c22 0000 0000 1f00 4222 4242 4242 4242     "......."BBBBBBB
    2f14:	1f22 0000 0000 3f00 1242 1e12 1212 4202     "......?B......B
    2f24:	3f42 0000 0000 3f00 1242 1e12 1212 0202     B?.....?B.......
    2f34:	0702 0000 0000 3c00 2222 0101 7101 2221     .......<""...q!"
    2f44:	1c22 0000 0000 e700 4242 4242 427e 4242     ".......BBBB~BBB
    2f54:	e742 0000 0000 3e00 0808 0808 0808 0808     B......>........
    2f64:	3e08 0000 0000 7c00 1010 1010 1010 1010     .>.....|........
    2f74:	1010 0f11 0000 7700 1222 0e0a 120a 2212     .......w"......"
    2f84:	7722 0000 0000 0700 0202 0202 0202 0202     "w..............
    2f94:	7f42 0000 0000 7700 3636 3636 2a2a 2a2a     B......w6666****
    2fa4:	6b2a 0000 0000 e300 4646 4a4a 5252 6252     *k......FFJJRRRb
    2fb4:	4762 0000 0000 1c00 4122 4141 4141 4141     bG......"AAAAAAA
    2fc4:	1c22 0000 0000 3f00 4242 4242 023e 0202     "......?BBBB>...
    2fd4:	0702 0000 0000 1c00 4122 4141 4141 534d     ........"AAAAAMS
    2fe4:	1c32 0060 0000 3f00 4242 3e42 1212 2222     2.`....?BBB>..""
    2ff4:	c742 0000 0000 7c00 4242 0402 2018 4240     B......|BB... @B
    3004:	3e42 0000 0000 7f00 0849 0808 0808 0808     B>......I.......
    3014:	1c08 0000 0000 e700 4242 4242 4242 4242     ........BBBBBBBB
    3024:	3c42 0000 0000 e700 4242 2422 1424 1814     B<......BB"$$...
    3034:	0808 0000 0000 6b00 4949 4949 5555 2236     .......kIIIIUU6"
    3044:	2222 0000 0000 e700 2442 1824 1818 2424     ""......B$$...$$
    3054:	e742 0000 0000 7700 2222 1414 0808 0808     B......w""......
    3064:	1c08 0000 0000 7e00 2021 1010 0408 4204     .......~! .....B
    3074:	3f42 0000 7800 0808 0808 0808 0808 0808     B?...x..........
    3084:	0808 0078 0000 0202 0404 0808 1008 2010     ..x............ 
    3094:	2020 4040 1e00 1010 1010 1010 1010 1010       @@............
    30a4:	1010 001e 3800 0044 0000 0000 0000 0000     .....8D.........
	...
    30c4:	0000 ff00 0600 0008 0000 0000 0000 0000     ................
	...
    30dc:	0000 3c00 7842 4244 fc42 0000 0000 0300     ...<BxDBB.......
    30ec:	0202 1a02 4226 4242 1a26 0000 0000 0000     ....&BBB&.......
    30fc:	0000 3800 0244 0202 3844 0000 0000 6000     ...8D...D8.....`
    310c:	4040 7840 4244 4242 d864 0000 0000 0000     @@@xDBBBd.......
    311c:	0000 3c00 7e42 0202 3c42 0000 0000 f000     ...<B~..B<......
    312c:	0888 7e08 0808 0808 3e08 0000 0000 0000     ...~.....>......
    313c:	0000 7c00 2222 021c 423c 3c42 0000 0300     ...|""..<BB<....
    314c:	0202 3a02 4246 4242 e742 0000 0000 0c00     ...:FBBBB.......
    315c:	000c 0e00 0808 0808 3e08 0000 0000 3000     .........>.....0
    316c:	0030 3800 2020 2020 2020 1e22 0000 0300     0..8      ".....
    317c:	0202 7202 0a12 1216 7722 0000 0000 0e00     ...r...."w......
    318c:	0808 0808 0808 0808 3e08 0000 0000 0000     .........>......
    319c:	0000 7f00 9292 9292 b792 0000 0000 0000     ................
    31ac:	0000 3b00 4246 4242 e742 0000 0000 0000     ...;FBBBB.......
    31bc:	0000 3c00 4242 4242 3c42 0000 0000 0000     ...<BBBBB<......
    31cc:	0000 1b00 4226 4242 1e22 0702 0000 0000     ....&BBB".......
    31dc:	0000 7800 4244 4242 7844 e040 0000 0000     ...xDBBBDx@.....
    31ec:	0000 7700 044c 0404 1f04 0000 0000 0000     ...wL...........
    31fc:	0000 7c00 0242 403c 3e42 0000 0000 0000     ...|B.<@B>......
    320c:	0800 3e08 0808 0808 3008 0000 0000 0000     ...>.....0......
    321c:	0000 6300 4242 4242 dc62 0000 0000 0000     ...cBBBBb.......
    322c:	0000 e700 2442 1424 0808 0000 0000 0000     ....B$$.........
    323c:	0000 eb00 4949 5555 2222 0000 0000 0000     ....IIUU""......
    324c:	0000 7600 1824 1818 6e24 0000 0000 0000     ...v$...$n......
    325c:	0000 e700 2442 1424 0818 0708 0000 0000     ....B$$.........
    326c:	0000 7e00 1022 0808 7e44 0000 c000 2020     ...~"...D~....  
    327c:	2020 1020 2020 2020 2020 00c0 1010 1010        .      ......
    328c:	1010 1010 1010 1010 1010 1010 0600 0808     ................
    329c:	0808 1008 0808 0808 0808 0006 320c 00c2     .............2..
	...

000032b8 <ascii_8x6>:
	...
    32c0:	2f00 0000 0000 0007 0007 1400 147f 147f     ./..............
    32d0:	2400 7f2a 122a 6200 0864 2313 3600 5549     .$*.*..bd..#.6IU
    32e0:	5022 0000 0305 0000 0000 221c 0041 0000     "P........."A...
    32f0:	2241 001c 1400 3e08 1408 0800 3e08 0808     A".....>.....>..
    3300:	0000 a000 0060 0800 0808 0808 0000 6060     ....`.........``
    3310:	0000 2000 0810 0204 3e00 4951 3e45 0000     ... .....>QIE>..
    3320:	7f42 0040 4200 5161 4649 2100 4541 314b     B.@..BaQIF.!AEK1
    3330:	1800 1214 107f 2700 4545 3945 3c00 494a     .......'EEE9.<JI
    3340:	3049 0100 0971 0305 3600 4949 3649 0600     I0..q....6III6..
    3350:	4949 1e29 0000 3636 0000 0000 3656 0000     II)...66....V6..
    3360:	0800 2214 0041 1400 1414 1414 0000 2241     ..."A.........A"
    3370:	0814 0200 5101 0609 3200 5949 3e51 7c00     .....Q...2IYQ>.|
    3380:	1112 7c12 7f00 4949 3649 3e00 4141 2241     ...|..III6.>AAA"
    3390:	7f00 4141 1c22 7f00 4949 4149 7f00 0909     ..AA"...IIIA....
    33a0:	0109 3e00 4941 7a49 7f00 0808 7f08 0000     ...>AIIz........
    33b0:	7f41 0041 2000 4140 013f 7f00 1408 4122     A.A.. @A?....."A
    33c0:	7f00 4040 4040 7f00 0c02 7f02 7f00 0804     ..@@@@..........
    33d0:	7f10 3e00 4141 3e41 7f00 0909 0609 3e00     ...>AAA>.......>
    33e0:	5141 5e21 7f00 1909 4629 4600 4949 3149     AQ!^....)F.FIII1
    33f0:	0100 7f01 0101 3f00 4040 3f40 1f00 4020     .......?@@@?.. @
    3400:	1f20 3f00 3840 3f40 6300 0814 6314 0700      ..?@8@?.c...c..
    3410:	7008 0708 6100 4951 4345 0000 417f 0041     .p...aQIEC...AA.
    3420:	5500 552a 552a 0000 4141 007f 0400 0102     .U*U*U..AA......
    3430:	0402 4000 4040 4040 0000 0201 0004 2000     ...@@@@@....... 
    3440:	5454 7854 7f00 4448 3844 3800 4444 2044     TTTx..HDD8.8DDD 
    3450:	3800 4444 7f48 3800 5454 1854 0800 097e     .8DDH..8TTT...~.
    3460:	0201 1800 a4a4 7ca4 7f00 0408 7804 0000     .......|.....x..
    3470:	7d44 0040 4000 8480 007d 7f00 2810 0044     D}@..@..}....(D.
    3480:	0000 7f41 0040 7c00 1804 7804 7c00 0408     ..A.@..|...x.|..
    3490:	7804 3800 4444 3844 fc00 2424 1824 1800     .x.8DDD8..$$$...
    34a0:	2424 fc18 7c00 0408 0804 4800 5454 2054     $$...|.....HTTT 
    34b0:	0400 443f 2040 3c00 4040 7c20 1c00 4020     ..?D@ .<@@ |.. @
    34c0:	1c20 3c00 3040 3c40 4400 1028 4428 1c00      ..<@0@<.D(.(D..
    34d0:	a0a0 7ca0 4400 5464 444c 1414 1414 1414     ...|.DdTLD......
    34e0:	7453 7261 2074 4340 6968 4970 3d44 3025     Start @ChipID=%0
    34f0:	5832 000a 6f6e 2077 5453 3737 3938 3376     2X..now ST7789v3
    3500:	0000 0000 7250 7365 2073 654b 2079 0000     ....Press Key ..
    3510:	656b 3179 0020 0000 656b 3279 0020 0000     key1 ...key2 ...
    3520:	656b 3379 0020 0000 656b 3479 0020 0000     key3 ...key4 ...
    3530:	dda0 ffff ddc8 ffff ddf0 ffff de08 ffff     ................
    3540:	de22 ffff de32 ffff de5a ffff de82 ffff     "...2...Z.......
    3550:	de9a ffff deb4 ffff                         ........

00003558 <__sf_fake_stderr>:
	...

00003578 <__sf_fake_stdin>:
	...

00003598 <__sf_fake_stdout>:
	...
    35b8:	2d23 2b30 0020 0000 6c68 004c 6665 4567     #-0+ ...hlL.efgE
    35c8:	4746 0000 3130 3332 3534 3736 3938 4241     FG..0123456789AB
    35d8:	4443 4645 0000 0000 3130 3332 3534 3736     CDEF....01234567
    35e8:	3938 6261 6463 6665 0000 0000               89abcdef....

000035f4 <afont12x6>:
    35f4:	060c 0000 2854 0000                         ....T(..

000035fc <afont16x8>:
    35fc:	0810 0000 2cc8 0000                         .....,..

00003604 <afont8x6>:
    3604:	0608 0000 32b8 0000                         .....2..

0000360c <_global_impure_ptr>:
    360c:	4000 2000                                   .@. 
