
LaserRangeFinder.elf:     file format elf32-littleriscv
LaserRangeFinder.elf
architecture: riscv:rv32, flags 0x00000112:
EXEC_P, HAS_SYMS, D_PAGED
start address 0x00000000

Program Header:
    LOAD off    0x00001000 vaddr 0x00000000 paddr 0x00000000 align 2**12
         filesz 0x00000004 memsz 0x00000004 flags r-x
    LOAD off    0x00001800 vaddr 0x20003800 paddr 0x00000004 align 2**12
         filesz 0x00000688 memsz 0x00000688 flags r-x
    LOAD off    0x0000268c vaddr 0x0000068c paddr 0x0000068c align 2**12
         filesz 0x0000195c memsz 0x0000195c flags r-x
    LOAD off    0x00004e88 vaddr 0x20003e88 paddr 0x00001fe8 align 2**12
         filesz 0x00000000 memsz 0x00000178 flags rw-
    LOAD off    0x00004000 vaddr 0x20004000 paddr 0x00001fe8 align 2**12
         filesz 0x00000078 memsz 0x00000094 flags rw-
    LOAD off    0x00004e00 vaddr 0x20007e00 paddr 0x20007e00 align 2**12
         filesz 0x00000000 memsz 0x00000200 flags rw-

Sections:
Idx Name            Size      VMA       LMA       File off  Algn  Flags
  0 .init           00000004  00000000  00000000  00001000  2**1  CONTENTS, ALLOC, LOAD, READONLY, CODE
  1 .highcodelalign 00000000  00000004  00000004  00004078  2**0  CONTENTS
  2 .highcode       00000688  20003800  00000004  00001800  2**1  CONTENTS, ALLOC, LOAD, READONLY, CODE
  3 .text           0000195c  0000068c  0000068c  0000268c  2**2  CONTENTS, ALLOC, LOAD, READONLY, CODE
  4 .fini           00000000  00001fe8  00001fe8  00004078  2**0  CONTENTS, ALLOC, LOAD, CODE
  5 .dalign         00000178  20003e88  00001fe8  00004e88  2**0  ALLOC
  6 .dlalign        00000000  00001fe8  00001fe8  00004078  2**0  CONTENTS
  7 .data           00000078  20004000  00001fe8  00004000  2**2  CONTENTS, ALLOC, LOAD, DATA
  8 .bss            0000001c  20004078  00002060  00004078  2**2  ALLOC
  9 .stack          00000200  20007e00  20007e00  00004e00  2**0  ALLOC
 10 .debug_info     00004d05  00000000  00000000  00004078  2**0  CONTENTS, READONLY, DEBUGGING
 11 .debug_abbrev   00000e66  00000000  00000000  00008d7d  2**0  CONTENTS, READONLY, DEBUGGING
 12 .debug_aranges  00000210  00000000  00000000  00009be8  2**3  CONTENTS, READONLY, DEBUGGING
 13 .debug_ranges   000001b8  00000000  00000000  00009df8  2**3  CONTENTS, READONLY, DEBUGGING
 14 .debug_line     00002ff8  00000000  00000000  00009fb0  2**0  CONTENTS, READONLY, DEBUGGING
 15 .debug_str      00000f31  00000000  00000000  0000cfa8  2**0  CONTENTS, READONLY, DEBUGGING
 16 .comment        00000033  00000000  00000000  0000ded9  2**0  CONTENTS, READONLY
 17 .debug_frame    00000c9c  00000000  00000000  0000df0c  2**2  CONTENTS, READONLY, DEBUGGING
 18 .debug_loc      000009b0  00000000  00000000  0000eba8  2**0  CONTENTS, READONLY, DEBUGGING
 19 .stab           00000084  00000000  00000000  0000f558  2**2  CONTENTS, READONLY, DEBUGGING
 20 .stabstr        00000117  00000000  00000000  0000f5dc  2**0  CONTENTS, READONLY, DEBUGGING
SYMBOL TABLE:
00000000 l    d  .init	00000000 .init
00000004 l    d  .highcodelalign	00000000 .highcodelalign
20003800 l    d  .highcode	00000000 .highcode
0000068c l    d  .text	00000000 .text
00001fe8 l    d  .fini	00000000 .fini
20003e88 l    d  .dalign	00000000 .dalign
00001fe8 l    d  .dlalign	00000000 .dlalign
20004000 l    d  .data	00000000 .data
20004078 l    d  .bss	00000000 .bss
20007e00 l    d  .stack	00000000 .stack
00000000 l    d  .debug_info	00000000 .debug_info
00000000 l    d  .debug_abbrev	00000000 .debug_abbrev
00000000 l    d  .debug_aranges	00000000 .debug_aranges
00000000 l    d  .debug_ranges	00000000 .debug_ranges
00000000 l    d  .debug_line	00000000 .debug_line
00000000 l    d  .debug_str	00000000 .debug_str
00000000 l    d  .comment	00000000 .comment
00000000 l    d  .debug_frame	00000000 .debug_frame
00000000 l    d  .debug_loc	00000000 .debug_loc
00000000 l    d  .stab	00000000 .stab
00000000 l    d  .stabstr	00000000 .stabstr
00000000 l    df *ABS*	00000000 ./Startup/startup_CH573.o
20003800 l       .highcode	00000000 _vector_base
00000000 l    df *ABS*	00000000 CH57x_sys.c
20004070 l     O .data	00000004 curbrk.3772
00000000 l    df *ABS*	00000000 ISP573.c
20003a9c l       .highcode	00000000 .loop17
20003aaa l       .highcode	00000000 .loop28
20003ab8 l       .highcode	00000000 .loop39
20003d46 l       .highcode	00000000 .loop406
00000000 l    df *ABS*	00000000 Main.c
00000000 l    df *ABS*	00000000 CH57x_gpio.c
00000000 l    df *ABS*	00000000 CH57x_spi0.c
00000000 l    df *ABS*	00000000 CH57x_uart1.c
00000000 l    df *ABS*	00000000 printf.c
00000000 l    df *ABS*	00000000 puts.c
00000000 l    df *ABS*	00000000 wbuf.c
00000000 l    df *ABS*	00000000 wsetup.c
00000000 l    df *ABS*	00000000 fflush.c
00000000 l    df *ABS*	00000000 findfp.c
0000114c l     F .text	0000006a std
00000000 l    df *ABS*	00000000 fwalk.c
00000000 l    df *ABS*	00000000 makebuf.c
00000000 l    df *ABS*	00000000 nano-mallocr.c
00000000 l    df *ABS*	00000000 nano-mallocr.c
00000000 l    df *ABS*	00000000 nano-vfprintf.c
000015f8 l     F .text	0000002a __sfputc_r
00000000 l    df *ABS*	00000000 nano-vfprintf_i.c
00000000 l    df *ABS*	00000000 sbrkr.c
00000000 l    df *ABS*	00000000 stdio.c
00000000 l    df *ABS*	00000000 writer.c
00000000 l    df *ABS*	00000000 closer.c
00000000 l    df *ABS*	00000000 fstatr.c
00000000 l    df *ABS*	00000000 isattyr.c
00000000 l    df *ABS*	00000000 lseekr.c
00000000 l    df *ABS*	00000000 memchr.c
00000000 l    df *ABS*	00000000 mlock.c
00000000 l    df *ABS*	00000000 readr.c
00000000 l    df *ABS*	00000000 close.c
00000000 l    df *ABS*	00000000 fstat.c
00000000 l    df *ABS*	00000000 isatty.c
00000000 l    df *ABS*	00000000 lseek.c
00000000 l    df *ABS*	00000000 read.c
00000000 l    df *ABS*	00000000 impure.c
20004010 l     O .data	00000060 impure_data
00000000 l    df *ABS*	00000000 reent.c
00001e14 g     F .text	00000028 _isatty_r
00000cf4 g     F .text	000000da _puts_r
00001e3c g     F .text	0000002c _lseek_r
20003ab8 g     F .highcode	0000000e FLASH_ROM_OUT
00000cb0 g     F .text	00000044 printf
20004870 g       .data	00000000 __global_pointer$
00001d58 g     F .text	00000036 __sseek
00001206 g     F .text	0000006a __sinit
00000ddc g     F .text	000000c0 __swbuf_r
20003a56 g     F .highcode	0000000e mDelayuS
20003a10  w    F .highcode	00000046 HardFault_Handler
000011c0 g     F .text	00000046 __sfmoreglue
2000389c  w      .highcode	00000000 GPIOB_IRQHandler
00001e84 g     F .text	00000002 __malloc_unlock
2000389a  w      .highcode	00000000 GPIOA_IRQHandler
20003894  w      .highcode	00000000 SysTick_Handler
20003890  w      .highcode	00000000 NMI_Handler
200038ac  w      .highcode	00000000 UART1_IRQHandler
00001dea g     F .text	0000002a _fstat_r
20004090 g     O .bss	00000004 errno
20004078 g       .bss	00000000 _sbss
00000200 g       *ABS*	00000000 __stack_size
20003aaa g     F .highcode	0000000e FLASH_ROM_IN
200038aa  w      .highcode	00000000 UART0_IRQHandler
000011b6 g     F .text	0000000a _cleanup_r
00000dce g     F .text	0000000e puts
00001ebe g     F .text	0000000c _fstat
00000004 g       .init	00000000 _einit
200038a0  w      .highcode	00000000 BB_IRQHandler
20003b46 g     F .highcode	00000340 FLASH_EEPROM_CMD
00001cb0 g     F .text	0000002a _sbrk_r
00000b14 g     F .text	00000050 SPI0_MasterDMATrans
20003898  w      .highcode	00000000 TMR0_IRQHandler
00001e86 g     F .text	0000002c _read_r
20003a8c g     F .highcode	00000010 FLASH_ROM_BEG
00000a5c g     F .text	0000002a SPI0_MasterRecvByte
20003a64 g     F .highcode	00000028 mDelaymS
20007e00 g       .stack	00000000 _heap_end
00000a06 g     F .text	00000032 SPI0_MasterDefInit
00001eca g     F .text	0000000c _isatty
00000a86 g     F .text	0000004c SPI0_MasterTrans
00001fe4 g     O .text	00000004 _global_impure_ptr
20003ac6 g     F .highcode	00000048 FLASH_ROM_ADDR
00000c1e g     F .text	00000030 _sbrk
20004000 g     O .data	00000010 spiBuff
200038ae  w      .highcode	00000000 RTC_IRQHandler
20004094 g       .bss	00000000 _ebss
00000c7e g     F .text	00000032 UART1_DefInit
20003b0e g     F .highcode	00000038 FLASH_ROM_WAIT
00001f48 g     O .text	00000020 __sf_fake_stderr
200038b6  w      .highcode	00000000 UART2_IRQHandler
200038b2  w      .highcode	00000000 PWMX_IRQHandler
00001622 g     F .text	00000042 __sfputs_r
00001e68 g     F .text	0000001a memchr
00001474 g     F .text	000000b0 _free_r
000007fe g     F .text	0000002a DebugInit
00000000 g       .init	00000000 _start
00001ed6 g     F .text	0000000c _lseek
200038b0  w      .highcode	00000000 ADC_IRQHandler
20003800 g       .highcode	00000000 _highcode_vma_start
200038a8  w      .highcode	00000000 TMR2_IRQHandler
00001dc2 g     F .text	00000028 _close_r
20004000 g       .data	00000000 _data_vma
00000b64 g     F .text	00000050 SPI0_MasterDMARecv
200038bc g     F .highcode	00000118 SetSysClock
200038a4  w      .highcode	00000000 USB_IRQHandler
00000e9c g     F .text	00000110 __swsetup_r
00001270 g     F .text	000000a0 __sfp
00001cda g     F .text	00000030 __sread
00001e82 g     F .text	00000002 __malloc_lock
000010e8 g     F .text	00000064 _fflush_r
00001f68 g     O .text	00000020 __sf_fake_stdin
00000756 g     F .text	000000a8 memset
00000828 g     F .text	00000138 main
00001d8e g     F .text	00000006 __sclose
00001524 g     F .text	000000d4 _malloc_r
20004080 g     O .bss	00000010 spiBuffrev
00000004 g       .highcodelalign	00000000 _highcode_lma
00000cb0 g     F .text	00000044 iprintf
200038a2  w      .highcode	00000000 LLE_IRQHandler
00000000 g       .init	00000000 _sinit
00001d94 g     F .text	0000002e _write_r
000018fc g     F .text	0000010c _printf_common
20004074 g     O .data	00000004 _impure_ptr
00000fac g     F .text	0000013c __sflush_r
200038ba  w      .highcode	00000000 WDOG_BAT_IRQHandler
200038b4  w      .highcode	00000000 TMR3_IRQHandler
20008000 g       .stack	00000000 _eusrstack
20003896  w      .highcode	00000000 SW_Handler
00000960 g     F .text	000000a6 GPIOA_ModeCfg
0000137c g     F .text	0000005a __swhatbuf_r
00000bb4 g     F .text	00000042 GetSysClock
00000bf6 g     F .text	00000028 _write
20004078 g       .data	00000000 _edata
00000a38 g     F .text	00000024 SPI0_MasterSendByte
2000389e  w      .highcode	00000000 SPI0_IRQHandler
20004094 g       .bss	00000000 _end
20003e88 g       .highcode	00000000 _highcode_vma_end
00001fe8 g       .dlalign	00000000 _data_lma
00001d0a g     F .text	0000004e __swrite
00001664 g     F .text	00000298 _vfiprintf_r
00001310 g     F .text	0000006c _fwalk_reent
00001f88 g     O .text	00000020 __sf_fake_stdout
00000ad2 g     F .text	00000042 SPI0_MasterRecv
00001ee2 g     F .text	0000000c _read
0000068c  w      .text	00000000 handle_reset
000013d6 g     F .text	0000009e __smakebuf_r
00001a08 g     F .text	000002a8 _printf_i
200038b8  w      .highcode	00000000 UART3_IRQHandler
2000407c g     O .bss	00000004 __malloc_sbrk_start
20003a9c g     F .highcode	0000000e FLASH_ROM_END
20004078 g     O .bss	00000004 __malloc_free_list
00001664 g     F .text	00000298 _vfprintf_r
200038a6  w      .highcode	00000000 TMR1_IRQHandler
200039d4 g     F .highcode	0000003c SYS_ResetExecute
00001eb2 g     F .text	0000000c _close
00000c4e g     F .text	00000030 UART1_BaudRateCfg



Disassembly of section .init:

00000000 <_sinit>:
_start():
d:\CH573FEVT\LaserRangeFinder\obj/../Startup/startup_CH573.S:17

	.section	.init,"ax",@progbits
	.global	_start
	.align	1
_start:
	j	handle_reset
   0:	68c0006f          	j	68c <handle_reset>

Disassembly of section .highcode:

20003800 <_highcode_vma_start>:
	...
_vector_base():
d:\CH573FEVT\LaserRangeFinder\obj/../Startup/startup_CH573.S:25
    .align  1
_vector_base:
    .option norvc;
    .word   0
    .word   0
        j   NMI_Handler                 /* NMI Handler */
20003808:	0880006f          	j	20003890 <NMI_Handler>
d:\CH573FEVT\LaserRangeFinder\obj/../Startup/startup_CH573.S:26
        j   HardFault_Handler           /* Hard Fault Handler */
2000380c:	2040006f          	j	20003a10 <HardFault_Handler>
	...
d:\CH573FEVT\LaserRangeFinder\obj/../Startup/startup_CH573.S:35
    .word   0
    .word   0
    .word   0
    .word   0
    .word   0
        j   SysTick_Handler            /* SysTick Handler */
20003830:	0640006f          	j	20003894 <SysTick_Handler>
20003834:	0000                	unimp
20003836:	0000                	unimp
d:\CH573FEVT\LaserRangeFinder\obj/../Startup/startup_CH573.S:37
    .word   0
        j   SW_Handler                 /* SW Handler */
20003838:	05e0006f          	j	20003896 <SW_Handler>
2000383c:	0000                	unimp
2000383e:	0000                	unimp
d:\CH573FEVT\LaserRangeFinder\obj/../Startup/startup_CH573.S:40
    .word   0
    /* External Interrupts */
        j   TMR0_IRQHandler            /* 0:  TMR0 */
20003840:	0580006f          	j	20003898 <TMR0_IRQHandler>
d:\CH573FEVT\LaserRangeFinder\obj/../Startup/startup_CH573.S:41
        j   GPIOA_IRQHandler           /* GPIOA */
20003844:	0560006f          	j	2000389a <GPIOA_IRQHandler>
d:\CH573FEVT\LaserRangeFinder\obj/../Startup/startup_CH573.S:42
        j   GPIOB_IRQHandler           /* GPIOB */
20003848:	0540006f          	j	2000389c <GPIOB_IRQHandler>
d:\CH573FEVT\LaserRangeFinder\obj/../Startup/startup_CH573.S:43
        j   SPI0_IRQHandler            /* SPI0 */
2000384c:	0520006f          	j	2000389e <SPI0_IRQHandler>
d:\CH573FEVT\LaserRangeFinder\obj/../Startup/startup_CH573.S:44
        j   BB_IRQHandler              /* BLEB */
20003850:	0500006f          	j	200038a0 <BB_IRQHandler>
d:\CH573FEVT\LaserRangeFinder\obj/../Startup/startup_CH573.S:45
        j   LLE_IRQHandler             /* BLEL */
20003854:	04e0006f          	j	200038a2 <LLE_IRQHandler>
d:\CH573FEVT\LaserRangeFinder\obj/../Startup/startup_CH573.S:46
        j   USB_IRQHandler             /* USB */
20003858:	04c0006f          	j	200038a4 <USB_IRQHandler>
2000385c:	0000                	unimp
2000385e:	0000                	unimp
d:\CH573FEVT\LaserRangeFinder\obj/../Startup/startup_CH573.S:48
        .word   0
        j   TMR1_IRQHandler            /* TMR1 */
20003860:	0460006f          	j	200038a6 <TMR1_IRQHandler>
d:\CH573FEVT\LaserRangeFinder\obj/../Startup/startup_CH573.S:49
        j   TMR2_IRQHandler            /* TMR2 */
20003864:	0440006f          	j	200038a8 <TMR2_IRQHandler>
d:\CH573FEVT\LaserRangeFinder\obj/../Startup/startup_CH573.S:50
        j   UART0_IRQHandler           /* UART0 */
20003868:	0420006f          	j	200038aa <UART0_IRQHandler>
d:\CH573FEVT\LaserRangeFinder\obj/../Startup/startup_CH573.S:51
        j   UART1_IRQHandler           /* UART1 */
2000386c:	0400006f          	j	200038ac <UART1_IRQHandler>
d:\CH573FEVT\LaserRangeFinder\obj/../Startup/startup_CH573.S:52
        j   RTC_IRQHandler             /* RTC */
20003870:	03e0006f          	j	200038ae <RTC_IRQHandler>
d:\CH573FEVT\LaserRangeFinder\obj/../Startup/startup_CH573.S:53
        j   ADC_IRQHandler             /* ADC */
20003874:	03c0006f          	j	200038b0 <ADC_IRQHandler>
20003878:	0000                	unimp
2000387a:	0000                	unimp
d:\CH573FEVT\LaserRangeFinder\obj/../Startup/startup_CH573.S:55
        .word   0
        j   PWMX_IRQHandler            /* PWMX */
2000387c:	0360006f          	j	200038b2 <PWMX_IRQHandler>
d:\CH573FEVT\LaserRangeFinder\obj/../Startup/startup_CH573.S:56
        j   TMR3_IRQHandler            /* TMR3 */
20003880:	0340006f          	j	200038b4 <TMR3_IRQHandler>
d:\CH573FEVT\LaserRangeFinder\obj/../Startup/startup_CH573.S:57
        j   UART2_IRQHandler           /* UART2 */
20003884:	0320006f          	j	200038b6 <UART2_IRQHandler>
d:\CH573FEVT\LaserRangeFinder\obj/../Startup/startup_CH573.S:58
        j   UART3_IRQHandler           /* UART3 */
20003888:	0300006f          	j	200038b8 <UART3_IRQHandler>
d:\CH573FEVT\LaserRangeFinder\obj/../Startup/startup_CH573.S:59
        j   WDOG_BAT_IRQHandler        /* WDOG_BAT */
2000388c:	02e0006f          	j	200038ba <WDOG_BAT_IRQHandler>

20003890 <NMI_Handler>:
NMI_Handler():
d:\CH573FEVT\LaserRangeFinder\obj/../Startup/startup_CH573.S:87
    .weak   TMR3_IRQHandler
    .weak   UART2_IRQHandler
    .weak   UART3_IRQHandler
    .weak   WDOG_BAT_IRQHandler

NMI_Handler:  1:  j 1b
20003890:	a001                	j	20003890 <NMI_Handler>
d:\CH573FEVT\LaserRangeFinder\obj/../Startup/startup_CH573.S:88
HardFault_Handler:  1:  j 1b
20003892:	a001                	j	20003892 <NMI_Handler+0x2>

20003894 <SysTick_Handler>:
SysTick_Handler():
d:\CH573FEVT\LaserRangeFinder\obj/../Startup/startup_CH573.S:89
SysTick_Handler:  1:  j 1b
20003894:	a001                	j	20003894 <SysTick_Handler>

20003896 <SW_Handler>:
SW_Handler():
d:\CH573FEVT\LaserRangeFinder\obj/../Startup/startup_CH573.S:90
SW_Handler:  1:  j 1b
20003896:	a001                	j	20003896 <SW_Handler>

20003898 <TMR0_IRQHandler>:
TMR0_IRQHandler():
d:\CH573FEVT\LaserRangeFinder\obj/../Startup/startup_CH573.S:91
TMR0_IRQHandler:  1:  j 1b
20003898:	a001                	j	20003898 <TMR0_IRQHandler>

2000389a <GPIOA_IRQHandler>:
GPIOA_IRQHandler():
d:\CH573FEVT\LaserRangeFinder\obj/../Startup/startup_CH573.S:92
GPIOA_IRQHandler:  1:  j 1b
2000389a:	a001                	j	2000389a <GPIOA_IRQHandler>

2000389c <GPIOB_IRQHandler>:
GPIOB_IRQHandler():
d:\CH573FEVT\LaserRangeFinder\obj/../Startup/startup_CH573.S:93
GPIOB_IRQHandler:  1:  j 1b
2000389c:	a001                	j	2000389c <GPIOB_IRQHandler>

2000389e <SPI0_IRQHandler>:
SPI0_IRQHandler():
d:\CH573FEVT\LaserRangeFinder\obj/../Startup/startup_CH573.S:94
SPI0_IRQHandler:  1:  j 1b
2000389e:	a001                	j	2000389e <SPI0_IRQHandler>

200038a0 <BB_IRQHandler>:
BB_IRQHandler():
d:\CH573FEVT\LaserRangeFinder\obj/../Startup/startup_CH573.S:95
BB_IRQHandler:  1:  j 1b
200038a0:	a001                	j	200038a0 <BB_IRQHandler>

200038a2 <LLE_IRQHandler>:
LLE_IRQHandler():
d:\CH573FEVT\LaserRangeFinder\obj/../Startup/startup_CH573.S:96
LLE_IRQHandler:  1:  j 1b
200038a2:	a001                	j	200038a2 <LLE_IRQHandler>

200038a4 <USB_IRQHandler>:
USB_IRQHandler():
d:\CH573FEVT\LaserRangeFinder\obj/../Startup/startup_CH573.S:97
USB_IRQHandler:  1:  j 1b
200038a4:	a001                	j	200038a4 <USB_IRQHandler>

200038a6 <TMR1_IRQHandler>:
TMR1_IRQHandler():
d:\CH573FEVT\LaserRangeFinder\obj/../Startup/startup_CH573.S:98
TMR1_IRQHandler:  1:  j 1b
200038a6:	a001                	j	200038a6 <TMR1_IRQHandler>

200038a8 <TMR2_IRQHandler>:
TMR2_IRQHandler():
d:\CH573FEVT\LaserRangeFinder\obj/../Startup/startup_CH573.S:99
TMR2_IRQHandler:  1:  j 1b
200038a8:	a001                	j	200038a8 <TMR2_IRQHandler>

200038aa <UART0_IRQHandler>:
UART0_IRQHandler():
d:\CH573FEVT\LaserRangeFinder\obj/../Startup/startup_CH573.S:100
UART0_IRQHandler:  1:  j 1b
200038aa:	a001                	j	200038aa <UART0_IRQHandler>

200038ac <UART1_IRQHandler>:
UART1_IRQHandler():
d:\CH573FEVT\LaserRangeFinder\obj/../Startup/startup_CH573.S:101
UART1_IRQHandler:  1:  j 1b
200038ac:	a001                	j	200038ac <UART1_IRQHandler>

200038ae <RTC_IRQHandler>:
RTC_IRQHandler():
d:\CH573FEVT\LaserRangeFinder\obj/../Startup/startup_CH573.S:102
RTC_IRQHandler:  1:  j 1b
200038ae:	a001                	j	200038ae <RTC_IRQHandler>

200038b0 <ADC_IRQHandler>:
ADC_IRQHandler():
d:\CH573FEVT\LaserRangeFinder\obj/../Startup/startup_CH573.S:103
ADC_IRQHandler:  1:  j 1b
200038b0:	a001                	j	200038b0 <ADC_IRQHandler>

200038b2 <PWMX_IRQHandler>:
PWMX_IRQHandler():
d:\CH573FEVT\LaserRangeFinder\obj/../Startup/startup_CH573.S:104
PWMX_IRQHandler:  1:  j 1b
200038b2:	a001                	j	200038b2 <PWMX_IRQHandler>

200038b4 <TMR3_IRQHandler>:
TMR3_IRQHandler():
d:\CH573FEVT\LaserRangeFinder\obj/../Startup/startup_CH573.S:105
TMR3_IRQHandler:  1:  j 1b
200038b4:	a001                	j	200038b4 <TMR3_IRQHandler>

200038b6 <UART2_IRQHandler>:
UART2_IRQHandler():
d:\CH573FEVT\LaserRangeFinder\obj/../Startup/startup_CH573.S:106
UART2_IRQHandler:  1:  j 1b
200038b6:	a001                	j	200038b6 <UART2_IRQHandler>

200038b8 <UART3_IRQHandler>:
UART3_IRQHandler():
d:\CH573FEVT\LaserRangeFinder\obj/../Startup/startup_CH573.S:107
UART3_IRQHandler:  1:  j 1b
200038b8:	a001                	j	200038b8 <UART3_IRQHandler>

200038ba <WDOG_BAT_IRQHandler>:
WDOG_BAT_IRQHandler():
d:\CH573FEVT\LaserRangeFinder\obj/../Startup/startup_CH573.S:108
WDOG_BAT_IRQHandler:  1:  j 1b
200038ba:	a001                	j	200038ba <WDOG_BAT_IRQHandler>

200038bc <SetSysClock>:
sys_safe_access_enable():
d:/CH573FEVT/LaserRangeFinder/StdPeriphDriver/inc/CH57x_sys.h:178
 * @NOTE: 进入安全访问模式后约16个系统主频周期都处于安全模式下，
 * 该有效期内可以改写一个或多个安全类寄存器，超出上述有效期后将自动终止安全模式。
 */
 __attribute__((always_inline)) static inline void sys_safe_access_enable(void)
{
    R8_SAFE_ACCESS_SIG = SAFE_ACCESS_SIG1;
200038bc:	400017b7          	lui	a5,0x40001
200038c0:	05700693          	li	a3,87
200038c4:	04d78023          	sb	a3,64(a5) # 40001040 <_eusrstack+0x1fff9040>
d:/CH573FEVT/LaserRangeFinder/StdPeriphDriver/inc/CH57x_sys.h:179
    R8_SAFE_ACCESS_SIG = SAFE_ACCESS_SIG2;
200038c8:	fa800713          	li	a4,-88
200038cc:	04e78023          	sb	a4,64(a5)
d:/CH573FEVT/LaserRangeFinder/StdPeriphDriver/inc/CH57x_sys.h:180
    asm volatile("fence.i");
200038d0:	0000100f          	fence.i
SetSysClock():
d:\CH573FEVT\LaserRangeFinder\obj/../StdPeriphDriver/CH57x_sys.c:29
__attribute__((section(".highcode")))
void SetSysClock(SYS_CLKTypeDef sc)
{
    uint32_t i;
    sys_safe_access_enable();
    R8_PLL_CONFIG &= ~(1 << 5); //
200038d4:	04b7c603          	lbu	a2,75(a5)
200038d8:	0df67613          	andi	a2,a2,223
200038dc:	04c785a3          	sb	a2,75(a5)
sys_safe_access_disable():
d:/CH573FEVT/LaserRangeFinder/StdPeriphDriver/inc/CH57x_sys.h:185
}

__attribute__((always_inline)) static inline void sys_safe_access_disable(void)
{
    R8_SAFE_ACCESS_SIG = 0;
200038e0:	04078023          	sb	zero,64(a5)
SetSysClock():
d:\CH573FEVT\LaserRangeFinder\obj/../StdPeriphDriver/CH57x_sys.c:31
    sys_safe_access_disable();
    if(sc & 0x20)
200038e4:	02057613          	andi	a2,a0,32
200038e8:	ca3d                	beqz	a2,2000395e <SetSysClock+0xa2>
d:\CH573FEVT\LaserRangeFinder\obj/../StdPeriphDriver/CH57x_sys.c:33
    { // HSE div
        if(!(R8_HFCK_PWR_CTRL & RB_CLK_XT32M_PON))
200038ea:	00a7c603          	lbu	a2,10(a5)
200038ee:	8a11                	andi	a2,a2,4
200038f0:	e21d                	bnez	a2,20003916 <SetSysClock+0x5a>
sys_safe_access_enable():
d:/CH573FEVT/LaserRangeFinder/StdPeriphDriver/inc/CH57x_sys.h:178
    R8_SAFE_ACCESS_SIG = SAFE_ACCESS_SIG1;
200038f2:	04d78023          	sb	a3,64(a5)
d:/CH573FEVT/LaserRangeFinder/StdPeriphDriver/inc/CH57x_sys.h:179
    R8_SAFE_ACCESS_SIG = SAFE_ACCESS_SIG2;
200038f6:	04e78023          	sb	a4,64(a5)
d:/CH573FEVT/LaserRangeFinder/StdPeriphDriver/inc/CH57x_sys.h:180
    asm volatile("fence.i");
200038fa:	0000100f          	fence.i
SetSysClock():
d:\CH573FEVT\LaserRangeFinder\obj/../StdPeriphDriver/CH57x_sys.c:36
        {
            sys_safe_access_enable();
            R8_HFCK_PWR_CTRL |= RB_CLK_XT32M_PON; // HSE power on
200038fe:	00a7c703          	lbu	a4,10(a5)
20003902:	00476713          	ori	a4,a4,4
20003906:	00e78523          	sb	a4,10(a5)
2000390a:	4b000793          	li	a5,1200
d:\CH573FEVT\LaserRangeFinder\obj/../StdPeriphDriver/CH57x_sys.c:39 (discriminator 3)
            for(i = 0; i < 1200; i++)
            {
                __nop();
2000390e:	0001                	nop
d:\CH573FEVT\LaserRangeFinder\obj/../StdPeriphDriver/CH57x_sys.c:40 (discriminator 3)
                __nop();
20003910:	0001                	nop
20003912:	17fd                	addi	a5,a5,-1
d:\CH573FEVT\LaserRangeFinder\obj/../StdPeriphDriver/CH57x_sys.c:37 (discriminator 3)
            for(i = 0; i < 1200; i++)
20003914:	ffed                	bnez	a5,2000390e <SetSysClock+0x52>
sys_safe_access_enable():
d:/CH573FEVT/LaserRangeFinder/StdPeriphDriver/inc/CH57x_sys.h:178
    R8_SAFE_ACCESS_SIG = SAFE_ACCESS_SIG1;
20003916:	400017b7          	lui	a5,0x40001
2000391a:	05700693          	li	a3,87
2000391e:	04d78023          	sb	a3,64(a5) # 40001040 <_eusrstack+0x1fff9040>
d:/CH573FEVT/LaserRangeFinder/StdPeriphDriver/inc/CH57x_sys.h:179
    R8_SAFE_ACCESS_SIG = SAFE_ACCESS_SIG2;
20003922:	fa800713          	li	a4,-88
20003926:	04e78023          	sb	a4,64(a5)
d:/CH573FEVT/LaserRangeFinder/StdPeriphDriver/inc/CH57x_sys.h:180
    asm volatile("fence.i");
2000392a:	0000100f          	fence.i
SetSysClock():
d:\CH573FEVT\LaserRangeFinder\obj/../StdPeriphDriver/CH57x_sys.c:45
            }
        }

        sys_safe_access_enable();
        R16_CLK_SYS_CFG = (0 << 6) | (sc & 0x1f);
2000392e:	897d                	andi	a0,a0,31
20003930:	00a79423          	sh	a0,8(a5)
d:\CH573FEVT\LaserRangeFinder\obj/../StdPeriphDriver/CH57x_sys.c:46
        __nop();
20003934:	0001                	nop
d:\CH573FEVT\LaserRangeFinder\obj/../StdPeriphDriver/CH57x_sys.c:47
        __nop();
20003936:	0001                	nop
d:\CH573FEVT\LaserRangeFinder\obj/../StdPeriphDriver/CH57x_sys.c:48
        __nop();
20003938:	0001                	nop
d:\CH573FEVT\LaserRangeFinder\obj/../StdPeriphDriver/CH57x_sys.c:49
        __nop();
2000393a:	0001                	nop
sys_safe_access_disable():
d:/CH573FEVT/LaserRangeFinder/StdPeriphDriver/inc/CH57x_sys.h:185
    R8_SAFE_ACCESS_SIG = 0;
2000393c:	04078023          	sb	zero,64(a5)
sys_safe_access_enable():
d:/CH573FEVT/LaserRangeFinder/StdPeriphDriver/inc/CH57x_sys.h:178
    R8_SAFE_ACCESS_SIG = SAFE_ACCESS_SIG1;
20003940:	04d78023          	sb	a3,64(a5)
d:/CH573FEVT/LaserRangeFinder/StdPeriphDriver/inc/CH57x_sys.h:179
    R8_SAFE_ACCESS_SIG = SAFE_ACCESS_SIG2;
20003944:	04e78023          	sb	a4,64(a5)
d:/CH573FEVT/LaserRangeFinder/StdPeriphDriver/inc/CH57x_sys.h:180
    asm volatile("fence.i");
20003948:	0000100f          	fence.i
SetSysClock():
d:\CH573FEVT\LaserRangeFinder\obj/../StdPeriphDriver/CH57x_sys.c:52
        sys_safe_access_disable();
        sys_safe_access_enable();
        R8_FLASH_CFG = 0X51;
2000394c:	40002737          	lui	a4,0x40002
20003950:	05100693          	li	a3,81
d:\CH573FEVT\LaserRangeFinder\obj/../StdPeriphDriver/CH57x_sys.c:76
        __nop();
        __nop();
        __nop();
        sys_safe_access_disable();
        sys_safe_access_enable();
        R8_FLASH_CFG = 0X53;
20003954:	80d703a3          	sb	a3,-2041(a4) # 40001807 <_eusrstack+0x1fff9807>
sys_safe_access_disable():
d:/CH573FEVT/LaserRangeFinder/StdPeriphDriver/inc/CH57x_sys.h:185
    R8_SAFE_ACCESS_SIG = 0;
20003958:	04078023          	sb	zero,64(a5)
SetSysClock():
d:\CH573FEVT\LaserRangeFinder\obj/../StdPeriphDriver/CH57x_sys.c:79
        sys_safe_access_disable();
    }
}
2000395c:	8082                	ret
d:\CH573FEVT\LaserRangeFinder\obj/../StdPeriphDriver/CH57x_sys.c:56
    else if(sc & 0x40)
2000395e:	04057613          	andi	a2,a0,64
20003962:	de6d                	beqz	a2,2000395c <SetSysClock+0xa0>
d:\CH573FEVT\LaserRangeFinder\obj/../StdPeriphDriver/CH57x_sys.c:58
        if(!(R8_HFCK_PWR_CTRL & RB_CLK_PLL_PON))
20003964:	00a7c603          	lbu	a2,10(a5)
20003968:	8a41                	andi	a2,a2,16
2000396a:	e21d                	bnez	a2,20003990 <SetSysClock+0xd4>
sys_safe_access_enable():
d:/CH573FEVT/LaserRangeFinder/StdPeriphDriver/inc/CH57x_sys.h:178
    R8_SAFE_ACCESS_SIG = SAFE_ACCESS_SIG1;
2000396c:	04d78023          	sb	a3,64(a5)
d:/CH573FEVT/LaserRangeFinder/StdPeriphDriver/inc/CH57x_sys.h:179
    R8_SAFE_ACCESS_SIG = SAFE_ACCESS_SIG2;
20003970:	04e78023          	sb	a4,64(a5)
d:/CH573FEVT/LaserRangeFinder/StdPeriphDriver/inc/CH57x_sys.h:180
    asm volatile("fence.i");
20003974:	0000100f          	fence.i
SetSysClock():
d:\CH573FEVT\LaserRangeFinder\obj/../StdPeriphDriver/CH57x_sys.c:61
            R8_HFCK_PWR_CTRL |= RB_CLK_PLL_PON; // PLL power on
20003978:	00a7c703          	lbu	a4,10(a5)
2000397c:	01076713          	ori	a4,a4,16
20003980:	00e78523          	sb	a4,10(a5)
20003984:	7d000793          	li	a5,2000
d:\CH573FEVT\LaserRangeFinder\obj/../StdPeriphDriver/CH57x_sys.c:64 (discriminator 3)
                __nop();
20003988:	0001                	nop
d:\CH573FEVT\LaserRangeFinder\obj/../StdPeriphDriver/CH57x_sys.c:65 (discriminator 3)
                __nop();
2000398a:	0001                	nop
2000398c:	17fd                	addi	a5,a5,-1
d:\CH573FEVT\LaserRangeFinder\obj/../StdPeriphDriver/CH57x_sys.c:62 (discriminator 3)
            for(i = 0; i < 2000; i++)
2000398e:	ffed                	bnez	a5,20003988 <SetSysClock+0xcc>
sys_safe_access_enable():
d:/CH573FEVT/LaserRangeFinder/StdPeriphDriver/inc/CH57x_sys.h:178
    R8_SAFE_ACCESS_SIG = SAFE_ACCESS_SIG1;
20003990:	400017b7          	lui	a5,0x40001
20003994:	05700693          	li	a3,87
20003998:	04d78023          	sb	a3,64(a5) # 40001040 <_eusrstack+0x1fff9040>
d:/CH573FEVT/LaserRangeFinder/StdPeriphDriver/inc/CH57x_sys.h:179
    R8_SAFE_ACCESS_SIG = SAFE_ACCESS_SIG2;
2000399c:	fa800713          	li	a4,-88
200039a0:	04e78023          	sb	a4,64(a5)
d:/CH573FEVT/LaserRangeFinder/StdPeriphDriver/inc/CH57x_sys.h:180
    asm volatile("fence.i");
200039a4:	0000100f          	fence.i
SetSysClock():
d:\CH573FEVT\LaserRangeFinder\obj/../StdPeriphDriver/CH57x_sys.c:69
        R16_CLK_SYS_CFG = (1 << 6) | (sc & 0x1f);
200039a8:	897d                	andi	a0,a0,31
200039aa:	04056513          	ori	a0,a0,64
200039ae:	00a79423          	sh	a0,8(a5)
d:\CH573FEVT\LaserRangeFinder\obj/../StdPeriphDriver/CH57x_sys.c:70
        __nop();
200039b2:	0001                	nop
d:\CH573FEVT\LaserRangeFinder\obj/../StdPeriphDriver/CH57x_sys.c:71
        __nop();
200039b4:	0001                	nop
d:\CH573FEVT\LaserRangeFinder\obj/../StdPeriphDriver/CH57x_sys.c:72
        __nop();
200039b6:	0001                	nop
d:\CH573FEVT\LaserRangeFinder\obj/../StdPeriphDriver/CH57x_sys.c:73
        __nop();
200039b8:	0001                	nop
sys_safe_access_disable():
d:/CH573FEVT/LaserRangeFinder/StdPeriphDriver/inc/CH57x_sys.h:185
    R8_SAFE_ACCESS_SIG = 0;
200039ba:	04078023          	sb	zero,64(a5)
sys_safe_access_enable():
d:/CH573FEVT/LaserRangeFinder/StdPeriphDriver/inc/CH57x_sys.h:178
    R8_SAFE_ACCESS_SIG = SAFE_ACCESS_SIG1;
200039be:	04d78023          	sb	a3,64(a5)
d:/CH573FEVT/LaserRangeFinder/StdPeriphDriver/inc/CH57x_sys.h:179
    R8_SAFE_ACCESS_SIG = SAFE_ACCESS_SIG2;
200039c2:	04e78023          	sb	a4,64(a5)
d:/CH573FEVT/LaserRangeFinder/StdPeriphDriver/inc/CH57x_sys.h:180
    asm volatile("fence.i");
200039c6:	0000100f          	fence.i
SetSysClock():
d:\CH573FEVT\LaserRangeFinder\obj/../StdPeriphDriver/CH57x_sys.c:76
        R8_FLASH_CFG = 0X53;
200039ca:	40002737          	lui	a4,0x40002
200039ce:	05300693          	li	a3,83
200039d2:	b749                	j	20003954 <SetSysClock+0x98>

200039d4 <SYS_ResetExecute>:
SYS_ResetExecute():
d:\CH573FEVT\LaserRangeFinder\obj/../StdPeriphDriver/CH57x_sys.c:141
 *
 * @return  none
 */
__attribute__((section(".highcode")))
void SYS_ResetExecute(void)
{
200039d4:	1141                	addi	sp,sp,-16
d:\CH573FEVT\LaserRangeFinder\obj/../StdPeriphDriver/CH57x_sys.c:142
    FLASH_ROM_SW_RESET();
200039d6:	4681                	li	a3,0
200039d8:	4601                	li	a2,0
200039da:	4581                	li	a1,0
200039dc:	4511                	li	a0,4
d:\CH573FEVT\LaserRangeFinder\obj/../StdPeriphDriver/CH57x_sys.c:141
{
200039de:	c606                	sw	ra,12(sp)
d:\CH573FEVT\LaserRangeFinder\obj/../StdPeriphDriver/CH57x_sys.c:142
    FLASH_ROM_SW_RESET();
200039e0:	229d                	jal	20003b46 <FLASH_EEPROM_CMD>
sys_safe_access_enable():
d:/CH573FEVT/LaserRangeFinder/StdPeriphDriver/inc/CH57x_sys.h:178
    R8_SAFE_ACCESS_SIG = SAFE_ACCESS_SIG1;
200039e2:	400017b7          	lui	a5,0x40001
200039e6:	05700713          	li	a4,87
200039ea:	04e78023          	sb	a4,64(a5) # 40001040 <_eusrstack+0x1fff9040>
d:/CH573FEVT/LaserRangeFinder/StdPeriphDriver/inc/CH57x_sys.h:179
    R8_SAFE_ACCESS_SIG = SAFE_ACCESS_SIG2;
200039ee:	fa800713          	li	a4,-88
200039f2:	04e78023          	sb	a4,64(a5)
d:/CH573FEVT/LaserRangeFinder/StdPeriphDriver/inc/CH57x_sys.h:180
    asm volatile("fence.i");
200039f6:	0000100f          	fence.i
SYS_ResetExecute():
d:\CH573FEVT\LaserRangeFinder\obj/../StdPeriphDriver/CH57x_sys.c:144
    sys_safe_access_enable();
    R8_RST_WDOG_CTRL |= RB_SOFTWARE_RESET;
200039fa:	0467c703          	lbu	a4,70(a5)
200039fe:	00176713          	ori	a4,a4,1
20003a02:	04e78323          	sb	a4,70(a5)
sys_safe_access_disable():
d:/CH573FEVT/LaserRangeFinder/StdPeriphDriver/inc/CH57x_sys.h:185
    R8_SAFE_ACCESS_SIG = 0;
20003a06:	04078023          	sb	zero,64(a5)
SYS_ResetExecute():
d:\CH573FEVT\LaserRangeFinder\obj/../StdPeriphDriver/CH57x_sys.c:146
    sys_safe_access_disable();
}
20003a0a:	40b2                	lw	ra,12(sp)
20003a0c:	0141                	addi	sp,sp,16
20003a0e:	8082                	ret

20003a10 <HardFault_Handler>:
HardFault_Handler():
d:\CH573FEVT\LaserRangeFinder\obj/../StdPeriphDriver/CH57x_sys.c:281
__attribute__((interrupt("WCH-Interrupt-fast")))
__attribute__((section(".highcode")))
__attribute__((weak))
void HardFault_Handler(void)
{
    FLASH_ROM_SW_RESET();
20003a10:	4681                	li	a3,0
20003a12:	4601                	li	a2,0
20003a14:	4581                	li	a1,0
20003a16:	4511                	li	a0,4
20003a18:	223d                	jal	20003b46 <FLASH_EEPROM_CMD>
sys_safe_access_enable():
d:/CH573FEVT/LaserRangeFinder/StdPeriphDriver/inc/CH57x_sys.h:178
    R8_SAFE_ACCESS_SIG = SAFE_ACCESS_SIG1;
20003a1a:	400017b7          	lui	a5,0x40001
20003a1e:	05700693          	li	a3,87
20003a22:	04d78023          	sb	a3,64(a5) # 40001040 <_eusrstack+0x1fff9040>
d:/CH573FEVT/LaserRangeFinder/StdPeriphDriver/inc/CH57x_sys.h:179
    R8_SAFE_ACCESS_SIG = SAFE_ACCESS_SIG2;
20003a26:	fa800713          	li	a4,-88
20003a2a:	04e78023          	sb	a4,64(a5)
d:/CH573FEVT/LaserRangeFinder/StdPeriphDriver/inc/CH57x_sys.h:180
    asm volatile("fence.i");
20003a2e:	0000100f          	fence.i
HardFault_Handler():
d:\CH573FEVT\LaserRangeFinder\obj/../StdPeriphDriver/CH57x_sys.c:283
    sys_safe_access_enable();
    R16_INT32K_TUNE = 0xFFFF;
20003a32:	567d                	li	a2,-1
20003a34:	02c79623          	sh	a2,44(a5)
sys_safe_access_enable():
d:/CH573FEVT/LaserRangeFinder/StdPeriphDriver/inc/CH57x_sys.h:178
    R8_SAFE_ACCESS_SIG = SAFE_ACCESS_SIG1;
20003a38:	04d78023          	sb	a3,64(a5)
d:/CH573FEVT/LaserRangeFinder/StdPeriphDriver/inc/CH57x_sys.h:179
    R8_SAFE_ACCESS_SIG = SAFE_ACCESS_SIG2;
20003a3c:	04e78023          	sb	a4,64(a5)
d:/CH573FEVT/LaserRangeFinder/StdPeriphDriver/inc/CH57x_sys.h:180
    asm volatile("fence.i");
20003a40:	0000100f          	fence.i
HardFault_Handler():
d:\CH573FEVT\LaserRangeFinder\obj/../StdPeriphDriver/CH57x_sys.c:285
    sys_safe_access_enable();
    R8_RST_WDOG_CTRL |= RB_SOFTWARE_RESET;
20003a44:	0467c703          	lbu	a4,70(a5)
20003a48:	00176713          	ori	a4,a4,1
20003a4c:	04e78323          	sb	a4,70(a5)
sys_safe_access_disable():
d:/CH573FEVT/LaserRangeFinder/StdPeriphDriver/inc/CH57x_sys.h:185
    R8_SAFE_ACCESS_SIG = 0;
20003a50:	04078023          	sb	zero,64(a5)
HardFault_Handler():
d:\CH573FEVT\LaserRangeFinder\obj/../StdPeriphDriver/CH57x_sys.c:287 (discriminator 1)
    sys_safe_access_disable();
    while(1);
20003a54:	a001                	j	20003a54 <HardFault_Handler+0x44>

20003a56 <mDelayuS>:
mDelayuS():
d:\CH573FEVT\LaserRangeFinder\obj/../StdPeriphDriver/CH57x_sys.c:304
__attribute__((section(".highcode")))
void mDelayuS(uint16_t t)
{
    uint32_t i;
#if(FREQ_SYS == 60000000)
    i = t * 15;
20003a56:	47bd                	li	a5,15
20003a58:	02f50533          	mul	a0,a0,a5
d:\CH573FEVT\LaserRangeFinder\obj/../StdPeriphDriver/CH57x_sys.c:326 (discriminator 1)
#elif(FREQ_SYS == 1000000)
    i = t >> 2;
#endif
    do
    {
        __nop();
20003a5c:	0001                	nop
d:\CH573FEVT\LaserRangeFinder\obj/../StdPeriphDriver/CH57x_sys.c:327 (discriminator 1)
    } while(--i);
20003a5e:	157d                	addi	a0,a0,-1
20003a60:	fd75                	bnez	a0,20003a5c <mDelayuS+0x6>
d:\CH573FEVT\LaserRangeFinder\obj/../StdPeriphDriver/CH57x_sys.c:328
}
20003a62:	8082                	ret

20003a64 <mDelaymS>:
mDelaymS():
d:\CH573FEVT\LaserRangeFinder\obj/../StdPeriphDriver/CH57x_sys.c:341
 *
 * @return  none
 */
__attribute__((section(".highcode")))
void mDelaymS(uint16_t t)
{
20003a64:	1141                	addi	sp,sp,-16
20003a66:	c422                	sw	s0,8(sp)
20003a68:	c226                	sw	s1,4(sp)
20003a6a:	c606                	sw	ra,12(sp)
20003a6c:	84aa                	mv	s1,a0
d:\CH573FEVT\LaserRangeFinder\obj/../StdPeriphDriver/CH57x_sys.c:344
    uint16_t i;

    for(i = 0; i < t; i++)
20003a6e:	4401                	li	s0,0
d:\CH573FEVT\LaserRangeFinder\obj/../StdPeriphDriver/CH57x_sys.c:344 (discriminator 1)
20003a70:	00941763          	bne	s0,s1,20003a7e <mDelaymS+0x1a>
d:\CH573FEVT\LaserRangeFinder\obj/../StdPeriphDriver/CH57x_sys.c:348
    {
        mDelayuS(1000);
    }
}
20003a74:	40b2                	lw	ra,12(sp)
20003a76:	4422                	lw	s0,8(sp)
20003a78:	4492                	lw	s1,4(sp)
20003a7a:	0141                	addi	sp,sp,16
20003a7c:	8082                	ret
d:\CH573FEVT\LaserRangeFinder\obj/../StdPeriphDriver/CH57x_sys.c:344 (discriminator 3)
    for(i = 0; i < t; i++)
20003a7e:	0405                	addi	s0,s0,1
d:\CH573FEVT\LaserRangeFinder\obj/../StdPeriphDriver/CH57x_sys.c:346 (discriminator 3)
        mDelayuS(1000);
20003a80:	3e800513          	li	a0,1000
d:\CH573FEVT\LaserRangeFinder\obj/../StdPeriphDriver/CH57x_sys.c:344 (discriminator 3)
    for(i = 0; i < t; i++)
20003a84:	0442                	slli	s0,s0,0x10
d:\CH573FEVT\LaserRangeFinder\obj/../StdPeriphDriver/CH57x_sys.c:346 (discriminator 3)
        mDelayuS(1000);
20003a86:	3fc1                	jal	20003a56 <mDelayuS>
d:\CH573FEVT\LaserRangeFinder\obj/../StdPeriphDriver/CH57x_sys.c:344 (discriminator 3)
    for(i = 0; i < t; i++)
20003a88:	8041                	srli	s0,s0,0x10
20003a8a:	b7dd                	j	20003a70 <mDelaymS+0xc>

20003a8c <FLASH_ROM_BEG>:
FLASH_ROM_BEG():
20003a8c:	80040323          	sb	zero,-2042(s0)
20003a90:	4795                	li	a5,5
20003a92:	80f40323          	sb	a5,-2042(s0)
20003a96:	80a40223          	sb	a0,-2044(s0)
20003a9a:	8082                	ret

20003a9c <FLASH_ROM_END>:
FLASH_ROM_END():
20003a9c:	80640783          	lb	a5,-2042(s0)
20003aa0:	fe07cee3          	bltz	a5,20003a9c <FLASH_ROM_END>
20003aa4:	80040323          	sb	zero,-2042(s0)
20003aa8:	8082                	ret

20003aaa <FLASH_ROM_IN>:
FLASH_ROM_IN():
20003aaa:	80640783          	lb	a5,-2042(s0)
20003aae:	fe07cee3          	bltz	a5,20003aaa <FLASH_ROM_IN>
20003ab2:	80444503          	lbu	a0,-2044(s0)
20003ab6:	8082                	ret

20003ab8 <FLASH_ROM_OUT>:
FLASH_ROM_OUT():
20003ab8:	80640783          	lb	a5,-2042(s0)
20003abc:	fe07cee3          	bltz	a5,20003ab8 <FLASH_ROM_OUT>
20003ac0:	80a40223          	sb	a0,-2044(s0)
20003ac4:	8082                	ret

20003ac6 <FLASH_ROM_ADDR>:
FLASH_ROM_ADDR():
20003ac6:	1141                	addi	sp,sp,-16
20003ac8:	c426                	sw	s1,8(sp)
20003aca:	c24a                	sw	s2,4(sp)
20003acc:	c04e                	sw	s3,0(sp)
20003ace:	c606                	sw	ra,12(sp)
20003ad0:	0bf57713          	andi	a4,a0,191
20003ad4:	47ad                	li	a5,11
20003ad6:	89aa                	mv	s3,a0
20003ad8:	892e                	mv	s2,a1
20003ada:	4495                	li	s1,5
20003adc:	00f70663          	beq	a4,a5,20003ae8 <FLASH_ROM_ADDR+0x22>
20003ae0:	4519                	li	a0,6
20003ae2:	376d                	jal	20003a8c <FLASH_ROM_BEG>
20003ae4:	3f65                	jal	20003a9c <FLASH_ROM_END>
20003ae6:	448d                	li	s1,3
20003ae8:	854e                	mv	a0,s3
20003aea:	374d                	jal	20003a8c <FLASH_ROM_BEG>
20003aec:	59fd                	li	s3,-1
20003aee:	14fd                	addi	s1,s1,-1
20003af0:	01349863          	bne	s1,s3,20003b00 <FLASH_ROM_ADDR+0x3a>
20003af4:	40b2                	lw	ra,12(sp)
20003af6:	44a2                	lw	s1,8(sp)
20003af8:	4912                	lw	s2,4(sp)
20003afa:	4982                	lw	s3,0(sp)
20003afc:	0141                	addi	sp,sp,16
20003afe:	8082                	ret
20003b00:	01095513          	srli	a0,s2,0x10
20003b04:	0ff57513          	andi	a0,a0,255
20003b08:	3f45                	jal	20003ab8 <FLASH_ROM_OUT>
20003b0a:	0922                	slli	s2,s2,0x8
20003b0c:	b7cd                	j	20003aee <FLASH_ROM_ADDR+0x28>

20003b0e <FLASH_ROM_WAIT>:
FLASH_ROM_WAIT():
20003b0e:	1101                	addi	sp,sp,-32
20003b10:	cc26                	sw	s1,24(sp)
20003b12:	ce06                	sw	ra,28(sp)
20003b14:	000804b7          	lui	s1,0x80
20003b18:	3751                	jal	20003a9c <FLASH_ROM_END>
20003b1a:	4515                	li	a0,5
20003b1c:	3f85                	jal	20003a8c <FLASH_ROM_BEG>
20003b1e:	3771                	jal	20003aaa <FLASH_ROM_IN>
20003b20:	3769                	jal	20003aaa <FLASH_ROM_IN>
20003b22:	c62a                	sw	a0,12(sp)
20003b24:	3fa5                	jal	20003a9c <FLASH_ROM_END>
20003b26:	4532                	lw	a0,12(sp)
20003b28:	00157793          	andi	a5,a0,1
20003b2c:	eb89                	bnez	a5,20003b3e <FLASH_ROM_WAIT+0x30>
20003b2e:	00156513          	ori	a0,a0,1
20003b32:	0ff57513          	andi	a0,a0,255
20003b36:	40f2                	lw	ra,28(sp)
20003b38:	44e2                	lw	s1,24(sp)
20003b3a:	6105                	addi	sp,sp,32
20003b3c:	8082                	ret
20003b3e:	14fd                	addi	s1,s1,-1
20003b40:	fce9                	bnez	s1,20003b1a <FLASH_ROM_WAIT+0xc>
20003b42:	4501                	li	a0,0
20003b44:	bfcd                	j	20003b36 <FLASH_ROM_WAIT+0x28>

20003b46 <FLASH_EEPROM_CMD>:
FLASH_EEPROM_CMD():
20003b46:	7139                	addi	sp,sp,-64
20003b48:	dc26                	sw	s1,56(sp)
20003b4a:	da4a                	sw	s2,52(sp)
20003b4c:	d84e                	sw	s3,48(sp)
20003b4e:	d652                	sw	s4,44(sp)
20003b50:	d456                	sw	s5,40(sp)
20003b52:	d25a                	sw	s6,36(sp)
20003b54:	d05e                	sw	s7,32(sp)
20003b56:	ce62                	sw	s8,28(sp)
20003b58:	e000e7b7          	lui	a5,0xe000e
20003b5c:	de06                	sw	ra,60(sp)
20003b5e:	cc66                	sw	s9,24(sp)
20003b60:	ca6a                	sw	s10,20(sp)
20003b62:	4741                	li	a4,16
20003b64:	0407ab83          	lw	s7,64(a5) # e000e040 <_eusrstack+0xc0006040>
20003b68:	c622                	sw	s0,12(sp)
20003b6a:	c3b8                	sw	a4,64(a5)
20003b6c:	577d                	li	a4,-1
20003b6e:	0007ab03          	lw	s6,0(a5)
20003b72:	0047aa83          	lw	s5,4(a5)
20003b76:	18e7a023          	sw	a4,384(a5)
20003b7a:	18e7a223          	sw	a4,388(a5)
20003b7e:	400017b7          	lui	a5,0x40001
20003b82:	05700713          	li	a4,87
20003b86:	04e78023          	sb	a4,64(a5) # 40001040 <_eusrstack+0x1fff9040>
20003b8a:	fa800713          	li	a4,-88
20003b8e:	04e78023          	sb	a4,64(a5)
20003b92:	0447c783          	lbu	a5,68(a5)
20003b96:	ff750c13          	addi	s8,a0,-9
20003b9a:	84b6                	mv	s1,a3
20003b9c:	07e2                	slli	a5,a5,0x18
20003b9e:	0ffc7c13          	andi	s8,s8,255
20003ba2:	4685                	li	a3,1
20003ba4:	8a2a                	mv	s4,a0
20003ba6:	892e                	mv	s2,a1
20003ba8:	89b2                	mv	s3,a2
20003baa:	40002437          	lui	s0,0x40002
20003bae:	87e1                	srai	a5,a5,0x18
20003bb0:	5701                	li	a4,-32
20003bb2:	0186fa63          	bgeu	a3,s8,20003bc6 <FLASH_EEPROM_CMD+0x80>
20003bb6:	00d50863          	beq	a0,a3,20003bc6 <FLASH_EEPROM_CMD+0x80>
20003bba:	4689                	li	a3,2
20003bbc:	02000713          	li	a4,32
20003bc0:	00d51363          	bne	a0,a3,20003bc6 <FLASH_EEPROM_CMD+0x80>
20003bc4:	5701                	li	a4,-32
20003bc6:	8fd9                	or	a5,a5,a4
20003bc8:	0ff7f793          	andi	a5,a5,255
20003bcc:	40001d37          	lui	s10,0x40001
20003bd0:	04fd0223          	sb	a5,68(s10) # 40001044 <_eusrstack+0x1fff9044>
20003bd4:	4711                	li	a4,4
20003bd6:	80e40323          	sb	a4,-2042(s0) # 40001806 <_eusrstack+0x1fff9806>
20003bda:	0ff00513          	li	a0,255
20003bde:	357d                	jal	20003a8c <FLASH_ROM_BEG>
20003be0:	4c89                	li	s9,2
20003be2:	3d6d                	jal	20003a9c <FLASH_ROM_END>
20003be4:	118ceb63          	bltu	s9,s8,20003cfa <FLASH_EEPROM_CMD+0x1b4>
20003be8:	000707b7          	lui	a5,0x70
20003bec:	993e                	add	s2,s2,a5
20003bee:	00078737          	lui	a4,0x78
20003bf2:	5579                	li	a0,-2
20003bf4:	02e97e63          	bgeu	s2,a4,20003c30 <FLASH_EEPROM_CMD+0xea>
20003bf8:	009907b3          	add	a5,s2,s1
20003bfc:	02f76a63          	bltu	a4,a5,20003c30 <FLASH_EEPROM_CMD+0xea>
20003c00:	47a9                	li	a5,10
20003c02:	06fa1c63          	bne	s4,a5,20003c7a <FLASH_EEPROM_CMD+0x134>
20003c06:	e489                	bnez	s1,20003c10 <FLASH_EEPROM_CMD+0xca>
20003c08:	4481                	li	s1,0
20003c0a:	3d49                	jal	20003a9c <FLASH_ROM_END>
20003c0c:	8526                	mv	a0,s1
20003c0e:	a00d                	j	20003c30 <FLASH_EEPROM_CMD+0xea>
20003c10:	85ca                	mv	a1,s2
20003c12:	4509                	li	a0,2
20003c14:	3d4d                	jal	20003ac6 <FLASH_ROM_ADDR>
20003c16:	0985                	addi	s3,s3,1
20003c18:	fff9c503          	lbu	a0,-1(s3)
20003c1c:	14fd                	addi	s1,s1,-1
20003c1e:	0905                	addi	s2,s2,1
20003c20:	3d61                	jal	20003ab8 <FLASH_ROM_OUT>
20003c22:	c481                	beqz	s1,20003c2a <FLASH_EEPROM_CMD+0xe4>
20003c24:	0ff97793          	andi	a5,s2,255
20003c28:	f7fd                	bnez	a5,20003c16 <FLASH_EEPROM_CMD+0xd0>
20003c2a:	35d5                	jal	20003b0e <FLASH_ROM_WAIT>
20003c2c:	fd69                	bnez	a0,20003c06 <FLASH_EEPROM_CMD+0xc0>
20003c2e:	557d                	li	a0,-1
20003c30:	400017b7          	lui	a5,0x40001
20003c34:	05700713          	li	a4,87
20003c38:	04e78023          	sb	a4,64(a5) # 40001040 <_eusrstack+0x1fff9040>
20003c3c:	fa800713          	li	a4,-88
20003c40:	04e78023          	sb	a4,64(a5)
20003c44:	0447c703          	lbu	a4,68(a5)
20003c48:	8b41                	andi	a4,a4,16
20003c4a:	04e78223          	sb	a4,68(a5)
20003c4e:	e000e7b7          	lui	a5,0xe000e
20003c52:	0577a023          	sw	s7,64(a5) # e000e040 <_eusrstack+0xc0006040>
20003c56:	50f2                	lw	ra,60(sp)
20003c58:	1167a023          	sw	s6,256(a5)
20003c5c:	1157a223          	sw	s5,260(a5)
20003c60:	54e2                	lw	s1,56(sp)
20003c62:	4432                	lw	s0,12(sp)
20003c64:	5952                	lw	s2,52(sp)
20003c66:	59c2                	lw	s3,48(sp)
20003c68:	5a32                	lw	s4,44(sp)
20003c6a:	5aa2                	lw	s5,40(sp)
20003c6c:	5b12                	lw	s6,36(sp)
20003c6e:	5b82                	lw	s7,32(sp)
20003c70:	4c72                	lw	s8,28(sp)
20003c72:	4ce2                	lw	s9,24(sp)
20003c74:	4d52                	lw	s10,20(sp)
20003c76:	6121                	addi	sp,sp,64
20003c78:	8082                	ret
20003c7a:	47a5                	li	a5,9
20003c7c:	06fa1463          	bne	s4,a5,20003ce4 <FLASH_EEPROM_CMD+0x19e>
20003c80:	6985                	lui	s3,0x1
20003c82:	0ff00793          	li	a5,255
20003c86:	009786b3          	add	a3,a5,s1
20003c8a:	00f974b3          	and	s1,s2,a5
20003c8e:	94b6                	add	s1,s1,a3
20003c90:	fff7c793          	not	a5,a5
20003c94:	8cfd                	and	s1,s1,a5
20003c96:	0127f933          	and	s2,a5,s2
20003c9a:	6a41                	lui	s4,0x10
20003c9c:	6c05                	lui	s8,0x1
20003c9e:	fff98793          	addi	a5,s3,-1 # fff <__sflush_r+0x53>
20003ca2:	0127f7b3          	and	a5,a5,s2
20003ca6:	e399                	bnez	a5,20003cac <FLASH_EEPROM_CMD+0x166>
20003ca8:	0134fc63          	bgeu	s1,s3,20003cc0 <FLASH_EEPROM_CMD+0x17a>
20003cac:	0049d993          	srli	s3,s3,0x4
20003cb0:	47c1                	li	a5,16
20003cb2:	ff37e6e3          	bltu	a5,s3,20003c9e <FLASH_EEPROM_CMD+0x158>
20003cb6:	bf89                	j	20003c08 <FLASH_EEPROM_CMD+0xc2>
20003cb8:	6785                	lui	a5,0x1
20003cba:	69c1                	lui	s3,0x10
20003cbc:	17fd                	addi	a5,a5,-1
20003cbe:	b7e1                	j	20003c86 <FLASH_EEPROM_CMD+0x140>
20003cc0:	0d800513          	li	a0,216
20003cc4:	01498863          	beq	s3,s4,20003cd4 <FLASH_EEPROM_CMD+0x18e>
20003cc8:	02000513          	li	a0,32
20003ccc:	01898463          	beq	s3,s8,20003cd4 <FLASH_EEPROM_CMD+0x18e>
20003cd0:	08100513          	li	a0,129
20003cd4:	85ca                	mv	a1,s2
20003cd6:	3bc5                	jal	20003ac6 <FLASH_ROM_ADDR>
20003cd8:	3d1d                	jal	20003b0e <FLASH_ROM_WAIT>
20003cda:	d931                	beqz	a0,20003c2e <FLASH_EEPROM_CMD+0xe8>
20003cdc:	994e                	add	s2,s2,s3
20003cde:	413484b3          	sub	s1,s1,s3
20003ce2:	b7d9                	j	20003ca8 <FLASH_EEPROM_CMD+0x162>
20003ce4:	85ca                	mv	a1,s2
20003ce6:	452d                	li	a0,11
20003ce8:	3bf9                	jal	20003ac6 <FLASH_ROM_ADDR>
20003cea:	94ce                	add	s1,s1,s3
20003cec:	f0998ee3          	beq	s3,s1,20003c08 <FLASH_EEPROM_CMD+0xc2>
20003cf0:	0985                	addi	s3,s3,1
20003cf2:	3b65                	jal	20003aaa <FLASH_ROM_IN>
20003cf4:	fea98fa3          	sb	a0,-1(s3) # ffff <_data_lma+0xe017>
20003cf8:	bfd5                	j	20003cec <FLASH_EEPROM_CMD+0x1a6>
20003cfa:	fffa0793          	addi	a5,s4,-1 # ffff <_data_lma+0xe017>
20003cfe:	0ff7f793          	andi	a5,a5,255
20003d02:	08fcec63          	bltu	s9,a5,20003d9a <.loop406+0x54>
20003d06:	045d4703          	lbu	a4,69(s10)
20003d0a:	000807b7          	lui	a5,0x80
20003d0e:	02077713          	andi	a4,a4,32
20003d12:	e319                	bnez	a4,20003d18 <FLASH_EEPROM_CMD+0x1d2>
20003d14:	000787b7          	lui	a5,0x78
20003d18:	5579                	li	a0,-2
20003d1a:	f0f97be3          	bgeu	s2,a5,20003c30 <FLASH_EEPROM_CMD+0xea>
20003d1e:	00990733          	add	a4,s2,s1
20003d22:	f0e7e7e3          	bltu	a5,a4,20003c30 <FLASH_EEPROM_CMD+0xea>
20003d26:	4789                	li	a5,2
20003d28:	04fa1063          	bne	s4,a5,20003d68 <.loop406+0x22>
20003d2c:	8089                	srli	s1,s1,0x2
20003d2e:	4a55                	li	s4,21
20003d30:	ec048ce3          	beqz	s1,20003c08 <FLASH_EEPROM_CMD+0xc2>
20003d34:	85ca                	mv	a1,s2
20003d36:	4509                	li	a0,2
20003d38:	3379                	jal	20003ac6 <FLASH_ROM_ADDR>
20003d3a:	0991                	addi	s3,s3,4
20003d3c:	ffc9a703          	lw	a4,-4(s3)
20003d40:	4791                	li	a5,4
20003d42:	80e42023          	sw	a4,-2048(s0)

20003d46 <.loop406>:
20003d46:	80640703          	lb	a4,-2042(s0)
20003d4a:	fe074ee3          	bltz	a4,20003d46 <.loop406>
20003d4e:	81440323          	sb	s4,-2042(s0)
20003d52:	17fd                	addi	a5,a5,-1
20003d54:	fbed                	bnez	a5,20003d46 <.loop406>
20003d56:	14fd                	addi	s1,s1,-1
20003d58:	0911                	addi	s2,s2,4
20003d5a:	c481                	beqz	s1,20003d62 <.loop406+0x1c>
20003d5c:	0ff97793          	andi	a5,s2,255
20003d60:	ffe9                	bnez	a5,20003d3a <FLASH_EEPROM_CMD+0x1f4>
20003d62:	3375                	jal	20003b0e <FLASH_ROM_WAIT>
20003d64:	f571                	bnez	a0,20003d30 <FLASH_EEPROM_CMD+0x1ea>
20003d66:	b5e1                	j	20003c2e <FLASH_EEPROM_CMD+0xe8>
20003d68:	4785                	li	a5,1
20003d6a:	f4fa07e3          	beq	s4,a5,20003cb8 <FLASH_EEPROM_CMD+0x172>
20003d6e:	85ca                	mv	a1,s2
20003d70:	452d                	li	a0,11
20003d72:	3b91                	jal	20003ac6 <FLASH_ROM_ADDR>
20003d74:	fff48913          	addi	s2,s1,-1 # 7ffff <_data_lma+0x7e017>
20003d78:	e80488e3          	beqz	s1,20003c08 <FLASH_EEPROM_CMD+0xc2>
20003d7c:	333d                	jal	20003aaa <FLASH_ROM_IN>
20003d7e:	00397793          	andi	a5,s2,3
20003d82:	eb91                	bnez	a5,20003d96 <.loop406+0x50>
20003d84:	80042683          	lw	a3,-2048(s0)
20003d88:	0009a703          	lw	a4,0(s3)
20003d8c:	00498793          	addi	a5,s3,4
20003d90:	e6e69de3          	bne	a3,a4,20003c0a <FLASH_EEPROM_CMD+0xc4>
20003d94:	89be                	mv	s3,a5
20003d96:	84ca                	mv	s1,s2
20003d98:	bff1                	j	20003d74 <.loop406+0x2e>
20003d9a:	47b5                	li	a5,13
20003d9c:	00fa1663          	bne	s4,a5,20003da8 <.loop406+0x62>
20003da0:	0b900513          	li	a0,185
20003da4:	31e5                	jal	20003a8c <FLASH_ROM_BEG>
20003da6:	b58d                	j	20003c08 <FLASH_EEPROM_CMD+0xc2>
20003da8:	47b1                	li	a5,12
20003daa:	0ab00513          	li	a0,171
20003dae:	fefa0be3          	beq	s4,a5,20003da4 <.loop406+0x5e>
20003db2:	4799                	li	a5,6
20003db4:	02fa1e63          	bne	s4,a5,20003df0 <.loop406+0xaa>
20003db8:	85ca                	mv	a1,s2
20003dba:	452d                	li	a0,11
20003dbc:	3329                	jal	20003ac6 <FLASH_ROM_ADDR>
20003dbe:	4481                	li	s1,0
20003dc0:	4c0d                	li	s8,3
20003dc2:	4a21                	li	s4,8
20003dc4:	31dd                	jal	20003aaa <FLASH_ROM_IN>
20003dc6:	01849663          	bne	s1,s8,20003dd2 <.loop406+0x8c>
20003dca:	80042783          	lw	a5,-2048(s0)
20003dce:	00f9a023          	sw	a5,0(s3)
20003dd2:	0485                	addi	s1,s1,1
20003dd4:	ff4498e3          	bne	s1,s4,20003dc4 <.loop406+0x7e>
20003dd8:	80042783          	lw	a5,-2048(s0)
20003ddc:	01291713          	slli	a4,s2,0x12
20003de0:	00075563          	bgez	a4,20003dea <.loop406+0xa4>
20003de4:	00f99223          	sh	a5,4(s3)
20003de8:	b505                	j	20003c08 <FLASH_EEPROM_CMD+0xc2>
20003dea:	00f9a223          	sw	a5,4(s3)
20003dee:	bd29                	j	20003c08 <FLASH_EEPROM_CMD+0xc2>
20003df0:	479d                	li	a5,7
20003df2:	02fa1963          	bne	s4,a5,20003e24 <.loop406+0xde>
20003df6:	4581                	li	a1,0
20003df8:	04b00513          	li	a0,75
20003dfc:	31e9                	jal	20003ac6 <FLASH_ROM_ADDR>
20003dfe:	44bd                	li	s1,15
20003e00:	0009a023          	sw	zero,0(s3)
20003e04:	0009a223          	sw	zero,4(s3)
20003e08:	597d                	li	s2,-1
20003e0a:	3145                	jal	20003aaa <FLASH_ROM_IN>
20003e0c:	0074f793          	andi	a5,s1,7
20003e10:	97ce                	add	a5,a5,s3
20003e12:	0007c703          	lbu	a4,0(a5) # 78000 <_data_lma+0x76018>
20003e16:	14fd                	addi	s1,s1,-1
20003e18:	8d39                	xor	a0,a0,a4
20003e1a:	00a78023          	sb	a0,0(a5)
20003e1e:	ff2496e3          	bne	s1,s2,20003e0a <.loop406+0xc4>
20003e22:	b3dd                	j	20003c08 <FLASH_EEPROM_CMD+0xc2>
20003e24:	47a1                	li	a5,8
20003e26:	04fa1263          	bne	s4,a5,20003e6a <.loop406+0x124>
20003e2a:	31d5                	jal	20003b0e <FLASH_ROM_WAIT>
20003e2c:	4481                	li	s1,0
20003e2e:	00090d63          	beqz	s2,20003e48 <.loop406+0x102>
20003e32:	478d                	li	a5,3
20003e34:	03c00493          	li	s1,60
20003e38:	00f90863          	beq	s2,a5,20003e48 <.loop406+0x102>
20003e3c:	05000493          	li	s1,80
20003e40:	01990463          	beq	s2,s9,20003e48 <.loop406+0x102>
20003e44:	04400493          	li	s1,68
20003e48:	07c57513          	andi	a0,a0,124
20003e4c:	da950ee3          	beq	a0,s1,20003c08 <FLASH_EEPROM_CMD+0xc2>
20003e50:	4519                	li	a0,6
20003e52:	392d                	jal	20003a8c <FLASH_ROM_BEG>
20003e54:	31a1                	jal	20003a9c <FLASH_ROM_END>
20003e56:	4505                	li	a0,1
20003e58:	3915                	jal	20003a8c <FLASH_ROM_BEG>
20003e5a:	8526                	mv	a0,s1
20003e5c:	39b1                	jal	20003ab8 <FLASH_ROM_OUT>
20003e5e:	4509                	li	a0,2
20003e60:	39a1                	jal	20003ab8 <FLASH_ROM_OUT>
20003e62:	3175                	jal	20003b0e <FLASH_ROM_WAIT>
20003e64:	da0512e3          	bnez	a0,20003c08 <FLASH_EEPROM_CMD+0xc2>
20003e68:	b3d9                	j	20003c2e <FLASH_EEPROM_CMD+0xe8>
20003e6a:	4791                	li	a5,4
20003e6c:	00fa1963          	bne	s4,a5,20003e7e <.loop406+0x138>
20003e70:	06600513          	li	a0,102
20003e74:	3921                	jal	20003a8c <FLASH_ROM_BEG>
20003e76:	311d                	jal	20003a9c <FLASH_ROM_END>
20003e78:	09900513          	li	a0,153
20003e7c:	b725                	j	20003da4 <.loop406+0x5e>
20003e7e:	d80a05e3          	beqz	s4,20003c08 <FLASH_EEPROM_CMD+0xc2>
20003e82:	54f1                	li	s1,-4
20003e84:	b359                	j	20003c0a <FLASH_EEPROM_CMD+0xc4>
	...

Disassembly of section .text:

0000068c <handle_reset>:
handle_reset():
d:\CH573FEVT\LaserRangeFinder\obj/../Startup/startup_CH573.S:116
	.weak	handle_reset
	.align	1
handle_reset:
.option push 
.option	norelax 
	la gp, __global_pointer$
     68c:	20004197          	auipc	gp,0x20004
     690:	1e418193          	addi	gp,gp,484 # 20004870 <__global_pointer$>
d:\CH573FEVT\LaserRangeFinder\obj/../Startup/startup_CH573.S:119
.option	pop 
1:
	la sp, _eusrstack 
     694:	20008117          	auipc	sp,0x20008
     698:	96c10113          	addi	sp,sp,-1684 # 20008000 <_eusrstack>
d:\CH573FEVT\LaserRangeFinder\obj/../Startup/startup_CH573.S:123

/* Load highcode code  section from flash to RAM */
2:
    la a0, _highcode_lma
     69c:	00400513          	li	a0,4
d:\CH573FEVT\LaserRangeFinder\obj/../Startup/startup_CH573.S:124
    la a1, _highcode_vma_start
     6a0:	20003597          	auipc	a1,0x20003
     6a4:	16058593          	addi	a1,a1,352 # 20003800 <_highcode_vma_start>
d:\CH573FEVT\LaserRangeFinder\obj/../Startup/startup_CH573.S:125
    la a2, _highcode_vma_end
     6a8:	20003617          	auipc	a2,0x20003
     6ac:	7e060613          	addi	a2,a2,2016 # 20003e88 <_highcode_vma_end>
d:\CH573FEVT\LaserRangeFinder\obj/../Startup/startup_CH573.S:126
    bgeu a1, a2, 2f
     6b0:	00c5fa63          	bgeu	a1,a2,6c4 <handle_reset+0x38>
d:\CH573FEVT\LaserRangeFinder\obj/../Startup/startup_CH573.S:128
1:
    lw t0, (a0)
     6b4:	00052283          	lw	t0,0(a0)
d:\CH573FEVT\LaserRangeFinder\obj/../Startup/startup_CH573.S:129
    sw t0, (a1)
     6b8:	0055a023          	sw	t0,0(a1)
d:\CH573FEVT\LaserRangeFinder\obj/../Startup/startup_CH573.S:130
    addi a0, a0, 4
     6bc:	0511                	addi	a0,a0,4
d:\CH573FEVT\LaserRangeFinder\obj/../Startup/startup_CH573.S:131
    addi a1, a1, 4
     6be:	0591                	addi	a1,a1,4
d:\CH573FEVT\LaserRangeFinder\obj/../Startup/startup_CH573.S:132
    bltu a1, a2, 1b
     6c0:	fec5eae3          	bltu	a1,a2,6b4 <handle_reset+0x28>
d:\CH573FEVT\LaserRangeFinder\obj/../Startup/startup_CH573.S:136

/* Load data section from flash to RAM */
2:
	la a0, _data_lma
     6c4:	00002517          	auipc	a0,0x2
     6c8:	92450513          	addi	a0,a0,-1756 # 1fe8 <_data_lma>
d:\CH573FEVT\LaserRangeFinder\obj/../Startup/startup_CH573.S:137
	la a1, _data_vma
     6cc:	20004597          	auipc	a1,0x20004
     6d0:	93458593          	addi	a1,a1,-1740 # 20004000 <spiBuff>
d:\CH573FEVT\LaserRangeFinder\obj/../Startup/startup_CH573.S:138
	la a2, _edata
     6d4:	80818613          	addi	a2,gp,-2040 # 20004078 <_edata>
d:\CH573FEVT\LaserRangeFinder\obj/../Startup/startup_CH573.S:139
	bgeu a1, a2, 2f
     6d8:	00c5fa63          	bgeu	a1,a2,6ec <handle_reset+0x60>
d:\CH573FEVT\LaserRangeFinder\obj/../Startup/startup_CH573.S:141
1:
	lw t0, (a0)
     6dc:	00052283          	lw	t0,0(a0)
d:\CH573FEVT\LaserRangeFinder\obj/../Startup/startup_CH573.S:142
	sw t0, (a1)
     6e0:	0055a023          	sw	t0,0(a1)
d:\CH573FEVT\LaserRangeFinder\obj/../Startup/startup_CH573.S:143
	addi a0, a0, 4
     6e4:	0511                	addi	a0,a0,4
d:\CH573FEVT\LaserRangeFinder\obj/../Startup/startup_CH573.S:144
	addi a1, a1, 4
     6e6:	0591                	addi	a1,a1,4
d:\CH573FEVT\LaserRangeFinder\obj/../Startup/startup_CH573.S:145
	bltu a1, a2, 1b
     6e8:	fec5eae3          	bltu	a1,a2,6dc <handle_reset+0x50>
d:\CH573FEVT\LaserRangeFinder\obj/../Startup/startup_CH573.S:148
2:
	/* clear bss section */
	la a0, _sbss
     6ec:	80818513          	addi	a0,gp,-2040 # 20004078 <_edata>
d:\CH573FEVT\LaserRangeFinder\obj/../Startup/startup_CH573.S:149
	la a1, _ebss
     6f0:	82418593          	addi	a1,gp,-2012 # 20004094 <_ebss>
d:\CH573FEVT\LaserRangeFinder\obj/../Startup/startup_CH573.S:150
	bgeu a0, a1, 2f
     6f4:	00b57763          	bgeu	a0,a1,702 <handle_reset+0x76>
d:\CH573FEVT\LaserRangeFinder\obj/../Startup/startup_CH573.S:152
1:
	sw zero, (a0)
     6f8:	00052023          	sw	zero,0(a0)
d:\CH573FEVT\LaserRangeFinder\obj/../Startup/startup_CH573.S:153
	addi a0, a0, 4
     6fc:	0511                	addi	a0,a0,4
d:\CH573FEVT\LaserRangeFinder\obj/../Startup/startup_CH573.S:154
	bltu a0, a1, 1b
     6fe:	feb56de3          	bltu	a0,a1,6f8 <handle_reset+0x6c>
d:\CH573FEVT\LaserRangeFinder\obj/../Startup/startup_CH573.S:156
2:
    li t0, 0x88
     702:	08800293          	li	t0,136
d:\CH573FEVT\LaserRangeFinder\obj/../Startup/startup_CH573.S:157
    csrs mstatus, t0
     706:	3002a073          	csrs	mstatus,t0
d:\CH573FEVT\LaserRangeFinder\obj/../Startup/startup_CH573.S:158
	la t0, _vector_base
     70a:	20003297          	auipc	t0,0x20003
     70e:	0f628293          	addi	t0,t0,246 # 20003800 <_highcode_vma_start>
d:\CH573FEVT\LaserRangeFinder\obj/../Startup/startup_CH573.S:159
    ori t0, t0, 1
     712:	0012e293          	ori	t0,t0,1
d:\CH573FEVT\LaserRangeFinder\obj/../Startup/startup_CH573.S:160
	csrw mtvec, t0
     716:	30529073          	csrw	mtvec,t0
d:\CH573FEVT\LaserRangeFinder\obj/../Startup/startup_CH573.S:162

    lui a4,0x40001
     71a:	40001737          	lui	a4,0x40001
d:\CH573FEVT\LaserRangeFinder\obj/../Startup/startup_CH573.S:163
    li  a5,87
     71e:	05700793          	li	a5,87
d:\CH573FEVT\LaserRangeFinder\obj/../Startup/startup_CH573.S:164
    sb  a5,64(a4)
     722:	04f70023          	sb	a5,64(a4) # 40001040 <_eusrstack+0x1fff9040>
d:\CH573FEVT\LaserRangeFinder\obj/../Startup/startup_CH573.S:165
    li  a5,-88
     726:	fa800793          	li	a5,-88
d:\CH573FEVT\LaserRangeFinder\obj/../Startup/startup_CH573.S:166
    sb  a5,64(a4)
     72a:	04f70023          	sb	a5,64(a4)
d:\CH573FEVT\LaserRangeFinder\obj/../Startup/startup_CH573.S:167
    fence.i
     72e:	0000100f          	fence.i
d:\CH573FEVT\LaserRangeFinder\obj/../Startup/startup_CH573.S:168
    lw  a5,72(a4)
     732:	473c                	lw	a5,72(a4)
d:\CH573FEVT\LaserRangeFinder\obj/../Startup/startup_CH573.S:169
    lui a3,0xfa000
     734:	fa0006b7          	lui	a3,0xfa000
d:\CH573FEVT\LaserRangeFinder\obj/../Startup/startup_CH573.S:170
    addi  a3,a3,-8
     738:	16e1                	addi	a3,a3,-8
d:\CH573FEVT\LaserRangeFinder\obj/../Startup/startup_CH573.S:171
    and a5,a5,a3
     73a:	8ff5                	and	a5,a5,a3
d:\CH573FEVT\LaserRangeFinder\obj/../Startup/startup_CH573.S:172
    lui a3,0x6000
     73c:	060006b7          	lui	a3,0x6000
d:\CH573FEVT\LaserRangeFinder\obj/../Startup/startup_CH573.S:173
    addi a3,a3,5
     740:	0695                	addi	a3,a3,5
d:\CH573FEVT\LaserRangeFinder\obj/../Startup/startup_CH573.S:174
    or  a5,a5,a3
     742:	8fd5                	or	a5,a5,a3
d:\CH573FEVT\LaserRangeFinder\obj/../Startup/startup_CH573.S:175
    sw  a5,72(a4)
     744:	c73c                	sw	a5,72(a4)
d:\CH573FEVT\LaserRangeFinder\obj/../Startup/startup_CH573.S:177

	la t0, main
     746:	00000297          	auipc	t0,0x0
     74a:	0e228293          	addi	t0,t0,226 # 828 <main>
d:\CH573FEVT\LaserRangeFinder\obj/../Startup/startup_CH573.S:178
	csrw mepc, t0
     74e:	34129073          	csrw	mepc,t0
d:\CH573FEVT\LaserRangeFinder\obj/../Startup/startup_CH573.S:185
	/* enable vector relocation
	li t0, 0xE000ED14
	li t1, 1
	sw t1, 0(t0)*/
	
	mret
     752:	30200073          	mret

00000756 <memset>:
memset():
     756:	433d                	li	t1,15
     758:	872a                	mv	a4,a0
     75a:	02c37363          	bgeu	t1,a2,780 <memset+0x2a>
     75e:	00f77793          	andi	a5,a4,15
     762:	efbd                	bnez	a5,7e0 <memset+0x8a>
     764:	e5ad                	bnez	a1,7ce <memset+0x78>
     766:	ff067693          	andi	a3,a2,-16
     76a:	8a3d                	andi	a2,a2,15
     76c:	96ba                	add	a3,a3,a4
     76e:	c30c                	sw	a1,0(a4)
     770:	c34c                	sw	a1,4(a4)
     772:	c70c                	sw	a1,8(a4)
     774:	c74c                	sw	a1,12(a4)
     776:	0741                	addi	a4,a4,16
     778:	fed76be3          	bltu	a4,a3,76e <memset+0x18>
     77c:	e211                	bnez	a2,780 <memset+0x2a>
     77e:	8082                	ret
     780:	40c306b3          	sub	a3,t1,a2
     784:	068a                	slli	a3,a3,0x2
     786:	00000297          	auipc	t0,0x0
     78a:	9696                	add	a3,a3,t0
     78c:	00a68067          	jr	10(a3) # 600000a <_data_lma+0x5ffe022>
     790:	00b70723          	sb	a1,14(a4)
     794:	00b706a3          	sb	a1,13(a4)
     798:	00b70623          	sb	a1,12(a4)
     79c:	00b705a3          	sb	a1,11(a4)
     7a0:	00b70523          	sb	a1,10(a4)
     7a4:	00b704a3          	sb	a1,9(a4)
     7a8:	00b70423          	sb	a1,8(a4)
     7ac:	00b703a3          	sb	a1,7(a4)
     7b0:	00b70323          	sb	a1,6(a4)
     7b4:	00b702a3          	sb	a1,5(a4)
     7b8:	00b70223          	sb	a1,4(a4)
     7bc:	00b701a3          	sb	a1,3(a4)
     7c0:	00b70123          	sb	a1,2(a4)
     7c4:	00b700a3          	sb	a1,1(a4)
     7c8:	00b70023          	sb	a1,0(a4)
     7cc:	8082                	ret
     7ce:	0ff5f593          	andi	a1,a1,255
     7d2:	00859693          	slli	a3,a1,0x8
     7d6:	8dd5                	or	a1,a1,a3
     7d8:	01059693          	slli	a3,a1,0x10
     7dc:	8dd5                	or	a1,a1,a3
     7de:	b761                	j	766 <memset+0x10>
     7e0:	00279693          	slli	a3,a5,0x2
     7e4:	00000297          	auipc	t0,0x0
     7e8:	9696                	add	a3,a3,t0
     7ea:	8286                	mv	t0,ra
     7ec:	fa8680e7          	jalr	-88(a3)
     7f0:	8096                	mv	ra,t0
     7f2:	17c1                	addi	a5,a5,-16
     7f4:	8f1d                	sub	a4,a4,a5
     7f6:	963e                	add	a2,a2,a5
     7f8:	f8c374e3          	bgeu	t1,a2,780 <memset+0x2a>
     7fc:	b7a5                	j	764 <memset+0xe>

000007fe <DebugInit>:
DebugInit():
d:\CH573FEVT\LaserRangeFinder\obj/../src/Main.c:27
 *
 * @return  none
 */
void DebugInit(void)
{
    GPIOA_SetBits(GPIO_Pin_9);
     7fe:	40001737          	lui	a4,0x40001
     802:	0a872783          	lw	a5,168(a4) # 400010a8 <_eusrstack+0x1fff90a8>
d:\CH573FEVT\LaserRangeFinder\obj/../src/Main.c:26
{
     806:	1141                	addi	sp,sp,-16
     808:	c606                	sw	ra,12(sp)
d:\CH573FEVT\LaserRangeFinder\obj/../src/Main.c:27
    GPIOA_SetBits(GPIO_Pin_9);
     80a:	2007e793          	ori	a5,a5,512
     80e:	0af72423          	sw	a5,168(a4)
d:\CH573FEVT\LaserRangeFinder\obj/../src/Main.c:28
    GPIOA_ModeCfg(GPIO_Pin_8, GPIO_ModeIN_PU);
     812:	4585                	li	a1,1
     814:	10000513          	li	a0,256
     818:	22a1                	jal	960 <GPIOA_ModeCfg>
d:\CH573FEVT\LaserRangeFinder\obj/../src/Main.c:29
    GPIOA_ModeCfg(GPIO_Pin_9, GPIO_ModeOut_PP_5mA);
     81a:	458d                	li	a1,3
     81c:	20000513          	li	a0,512
     820:	2281                	jal	960 <GPIOA_ModeCfg>
d:\CH573FEVT\LaserRangeFinder\obj/../src/Main.c:31
    UART1_DefInit();
}
     822:	40b2                	lw	ra,12(sp)
     824:	0141                	addi	sp,sp,16
d:\CH573FEVT\LaserRangeFinder\obj/../src/Main.c:30
    UART1_DefInit();
     826:	a9a1                	j	c7e <UART1_DefInit>

00000828 <main>:
main():
d:\CH573FEVT\LaserRangeFinder\obj/../src/Main.c:41
 * @brief   主函数
 *
 * @return  none
 */
int main()
{
     828:	1141                	addi	sp,sp,-16
d:\CH573FEVT\LaserRangeFinder\obj/../src/Main.c:44
    uint8_t i;

    SetSysClock(CLK_SOURCE_PLL_60MHz);
     82a:	04800513          	li	a0,72
d:\CH573FEVT\LaserRangeFinder\obj/../src/Main.c:41
{
     82e:	c606                	sw	ra,12(sp)
     830:	c422                	sw	s0,8(sp)
     832:	c226                	sw	s1,4(sp)
d:\CH573FEVT\LaserRangeFinder\obj/../src/Main.c:48

    /* 配置串口调试 */
    DebugInit();
    PRINT("Start @ChipID=%02X\n", R8_CHIP_ID);
     834:	40001437          	lui	s0,0x40001
d:\CH573FEVT\LaserRangeFinder\obj/../src/Main.c:44
    SetSysClock(CLK_SOURCE_PLL_60MHz);
     838:	20003097          	auipc	ra,0x20003
     83c:	084080e7          	jalr	132(ra) # 200038bc <SetSysClock>
d:\CH573FEVT\LaserRangeFinder\obj/../src/Main.c:47
    DebugInit();
     840:	3f7d                	jal	7fe <DebugInit>
d:\CH573FEVT\LaserRangeFinder\obj/../src/Main.c:48
    PRINT("Start @ChipID=%02X\n", R8_CHIP_ID);
     842:	04144583          	lbu	a1,65(s0) # 40001041 <_eusrstack+0x1fff9041>
     846:	00001517          	auipc	a0,0x1
     84a:	6aa50513          	addi	a0,a0,1706 # 1ef0 <_read+0xe>
d:\CH573FEVT\LaserRangeFinder\obj/../src/Main.c:55
#if 1
    /* 主机模式 */
     PRINT("1.spi0 mul master mode send data ...\n");
    DelayMs(100);

    GPIOA_SetBits(GPIO_Pin_12);
     84e:	6485                	lui	s1,0x1
d:\CH573FEVT\LaserRangeFinder\obj/../src/Main.c:48
    PRINT("Start @ChipID=%02X\n", R8_CHIP_ID);
     850:	2185                	jal	cb0 <iprintf>
d:\CH573FEVT\LaserRangeFinder\obj/../src/Main.c:52
     PRINT("1.spi0 mul master mode send data ...\n");
     852:	00001517          	auipc	a0,0x1
     856:	6b250513          	addi	a0,a0,1714 # 1f04 <_read+0x22>
     85a:	2b95                	jal	dce <puts>
d:\CH573FEVT\LaserRangeFinder\obj/../src/Main.c:53
    DelayMs(100);
     85c:	06400513          	li	a0,100
     860:	20003097          	auipc	ra,0x20003
     864:	204080e7          	jalr	516(ra) # 20003a64 <mDelaymS>
d:\CH573FEVT\LaserRangeFinder\obj/../src/Main.c:55
    GPIOA_SetBits(GPIO_Pin_12);
     868:	0a842783          	lw	a5,168(s0)
d:\CH573FEVT\LaserRangeFinder\obj/../src/Main.c:56
    GPIOA_ModeCfg(GPIO_Pin_12 | GPIO_Pin_13 | GPIO_Pin_14, GPIO_ModeOut_PP_5mA);
     86c:	458d                	li	a1,3
     86e:	651d                	lui	a0,0x7
d:\CH573FEVT\LaserRangeFinder\obj/../src/Main.c:55
    GPIOA_SetBits(GPIO_Pin_12);
     870:	8fc5                	or	a5,a5,s1
     872:	0af42423          	sw	a5,168(s0)
d:\CH573FEVT\LaserRangeFinder\obj/../src/Main.c:56
    GPIOA_ModeCfg(GPIO_Pin_12 | GPIO_Pin_13 | GPIO_Pin_14, GPIO_ModeOut_PP_5mA);
     876:	20ed                	jal	960 <GPIOA_ModeCfg>
d:\CH573FEVT\LaserRangeFinder\obj/../src/Main.c:57
    SPI0_MasterDefInit();
     878:	2279                	jal	a06 <SPI0_MasterDefInit>
d:\CH573FEVT\LaserRangeFinder\obj/../src/Main.c:60

    // 单字节发送
    GPIOA_ResetBits(GPIO_Pin_12);
     87a:	0ac42783          	lw	a5,172(s0)
d:\CH573FEVT\LaserRangeFinder\obj/../src/Main.c:61
    SPI0_MasterSendByte(0x55);
     87e:	05500513          	li	a0,85
d:\CH573FEVT\LaserRangeFinder\obj/../src/Main.c:60
    GPIOA_ResetBits(GPIO_Pin_12);
     882:	8fc5                	or	a5,a5,s1
     884:	0af42623          	sw	a5,172(s0)
d:\CH573FEVT\LaserRangeFinder\obj/../src/Main.c:61
    SPI0_MasterSendByte(0x55);
     888:	2a45                	jal	a38 <SPI0_MasterSendByte>
d:\CH573FEVT\LaserRangeFinder\obj/../src/Main.c:62
    GPIOA_SetBits(GPIO_Pin_12);
     88a:	0a842783          	lw	a5,168(s0)
d:\CH573FEVT\LaserRangeFinder\obj/../src/Main.c:63
    DelayMs(1);
     88e:	4505                	li	a0,1
d:\CH573FEVT\LaserRangeFinder\obj/../src/Main.c:62
    GPIOA_SetBits(GPIO_Pin_12);
     890:	8fc5                	or	a5,a5,s1
     892:	0af42423          	sw	a5,168(s0)
d:\CH573FEVT\LaserRangeFinder\obj/../src/Main.c:63
    DelayMs(1);
     896:	20003097          	auipc	ra,0x20003
     89a:	1ce080e7          	jalr	462(ra) # 20003a64 <mDelaymS>
d:\CH573FEVT\LaserRangeFinder\obj/../src/Main.c:64
    GPIOA_ResetBits(GPIO_Pin_12);
     89e:	0ac42783          	lw	a5,172(s0)
     8a2:	8fc5                	or	a5,a5,s1
     8a4:	0af42623          	sw	a5,172(s0)
d:\CH573FEVT\LaserRangeFinder\obj/../src/Main.c:65
    i = SPI0_MasterRecvByte();
     8a8:	2a55                	jal	a5c <SPI0_MasterRecvByte>
d:\CH573FEVT\LaserRangeFinder\obj/../src/Main.c:66
    GPIOA_SetBits(GPIO_Pin_12);
     8aa:	0a842783          	lw	a5,168(s0)
d:\CH573FEVT\LaserRangeFinder\obj/../src/Main.c:67
    DelayMs(2);
     8ae:	4509                	li	a0,2
d:\CH573FEVT\LaserRangeFinder\obj/../src/Main.c:66
    GPIOA_SetBits(GPIO_Pin_12);
     8b0:	8fc5                	or	a5,a5,s1
     8b2:	0af42423          	sw	a5,168(s0)
d:\CH573FEVT\LaserRangeFinder\obj/../src/Main.c:67
    DelayMs(2);
     8b6:	20003097          	auipc	ra,0x20003
     8ba:	1ae080e7          	jalr	430(ra) # 20003a64 <mDelaymS>
d:\CH573FEVT\LaserRangeFinder\obj/../src/Main.c:70

    // FIFO 连续发送
    GPIOA_ResetBits(GPIO_Pin_12);
     8be:	0ac42783          	lw	a5,172(s0)
d:\CH573FEVT\LaserRangeFinder\obj/../src/Main.c:71
    SPI0_MasterTrans(spiBuff, 9);
     8c2:	45a5                	li	a1,9
     8c4:	20003517          	auipc	a0,0x20003
     8c8:	73c50513          	addi	a0,a0,1852 # 20004000 <spiBuff>
d:\CH573FEVT\LaserRangeFinder\obj/../src/Main.c:70
    GPIOA_ResetBits(GPIO_Pin_12);
     8cc:	8fc5                	or	a5,a5,s1
     8ce:	0af42623          	sw	a5,172(s0)
d:\CH573FEVT\LaserRangeFinder\obj/../src/Main.c:71
    SPI0_MasterTrans(spiBuff, 9);
     8d2:	2a55                	jal	a86 <SPI0_MasterTrans>
d:\CH573FEVT\LaserRangeFinder\obj/../src/Main.c:72
    GPIOA_SetBits(GPIO_Pin_12);
     8d4:	0a842783          	lw	a5,168(s0)
d:\CH573FEVT\LaserRangeFinder\obj/../src/Main.c:73
    DelayMs(1);
     8d8:	4505                	li	a0,1
d:\CH573FEVT\LaserRangeFinder\obj/../src/Main.c:72
    GPIOA_SetBits(GPIO_Pin_12);
     8da:	8fc5                	or	a5,a5,s1
     8dc:	0af42423          	sw	a5,168(s0)
d:\CH573FEVT\LaserRangeFinder\obj/../src/Main.c:73
    DelayMs(1);
     8e0:	20003097          	auipc	ra,0x20003
     8e4:	184080e7          	jalr	388(ra) # 20003a64 <mDelaymS>
d:\CH573FEVT\LaserRangeFinder\obj/../src/Main.c:74
    GPIOA_ResetBits(GPIO_Pin_12);
     8e8:	0ac42783          	lw	a5,172(s0)
d:\CH573FEVT\LaserRangeFinder\obj/../src/Main.c:75
    SPI0_MasterRecv(spiBuffrev, 12);
     8ec:	45b1                	li	a1,12
     8ee:	81018513          	addi	a0,gp,-2032 # 20004080 <spiBuffrev>
d:\CH573FEVT\LaserRangeFinder\obj/../src/Main.c:74
    GPIOA_ResetBits(GPIO_Pin_12);
     8f2:	8fc5                	or	a5,a5,s1
     8f4:	0af42623          	sw	a5,172(s0)
d:\CH573FEVT\LaserRangeFinder\obj/../src/Main.c:75
    SPI0_MasterRecv(spiBuffrev, 12);
     8f8:	2ae9                	jal	ad2 <SPI0_MasterRecv>
d:\CH573FEVT\LaserRangeFinder\obj/../src/Main.c:76
    GPIOA_SetBits(GPIO_Pin_12);
     8fa:	0a842783          	lw	a5,168(s0)
d:\CH573FEVT\LaserRangeFinder\obj/../src/Main.c:77
    DelayMs(1);
     8fe:	4505                	li	a0,1
d:\CH573FEVT\LaserRangeFinder\obj/../src/Main.c:76
    GPIOA_SetBits(GPIO_Pin_12);
     900:	8fc5                	or	a5,a5,s1
     902:	0af42423          	sw	a5,168(s0)
d:\CH573FEVT\LaserRangeFinder\obj/../src/Main.c:77
    DelayMs(1);
     906:	20003097          	auipc	ra,0x20003
     90a:	15e080e7          	jalr	350(ra) # 20003a64 <mDelaymS>
d:\CH573FEVT\LaserRangeFinder\obj/../src/Main.c:80

    // DMA 连续发送
    GPIOA_ResetBits(GPIO_Pin_12);
     90e:	0ac42783          	lw	a5,172(s0)
d:\CH573FEVT\LaserRangeFinder\obj/../src/Main.c:81
    SPI0_MasterDMATrans(spiBuff, 12);
     912:	45b1                	li	a1,12
     914:	20003517          	auipc	a0,0x20003
     918:	6ec50513          	addi	a0,a0,1772 # 20004000 <spiBuff>
d:\CH573FEVT\LaserRangeFinder\obj/../src/Main.c:80
    GPIOA_ResetBits(GPIO_Pin_12);
     91c:	8fc5                	or	a5,a5,s1
     91e:	0af42623          	sw	a5,172(s0)
d:\CH573FEVT\LaserRangeFinder\obj/../src/Main.c:81
    SPI0_MasterDMATrans(spiBuff, 12);
     922:	2acd                	jal	b14 <SPI0_MasterDMATrans>
d:\CH573FEVT\LaserRangeFinder\obj/../src/Main.c:82
    GPIOA_SetBits(GPIO_Pin_12);
     924:	0a842783          	lw	a5,168(s0)
d:\CH573FEVT\LaserRangeFinder\obj/../src/Main.c:83
    DelayMs(1);
     928:	4505                	li	a0,1
d:\CH573FEVT\LaserRangeFinder\obj/../src/Main.c:82
    GPIOA_SetBits(GPIO_Pin_12);
     92a:	8fc5                	or	a5,a5,s1
     92c:	0af42423          	sw	a5,168(s0)
d:\CH573FEVT\LaserRangeFinder\obj/../src/Main.c:83
    DelayMs(1);
     930:	20003097          	auipc	ra,0x20003
     934:	134080e7          	jalr	308(ra) # 20003a64 <mDelaymS>
d:\CH573FEVT\LaserRangeFinder\obj/../src/Main.c:84
    GPIOA_ResetBits(GPIO_Pin_12);
     938:	0ac42783          	lw	a5,172(s0)
d:\CH573FEVT\LaserRangeFinder\obj/../src/Main.c:85
    SPI0_MasterDMARecv(spiBuffrev, 12);
     93c:	81018513          	addi	a0,gp,-2032 # 20004080 <spiBuffrev>
     940:	45b1                	li	a1,12
d:\CH573FEVT\LaserRangeFinder\obj/../src/Main.c:84
    GPIOA_ResetBits(GPIO_Pin_12);
     942:	8fc5                	or	a5,a5,s1
     944:	0af42623          	sw	a5,172(s0)
d:\CH573FEVT\LaserRangeFinder\obj/../src/Main.c:85
    SPI0_MasterDMARecv(spiBuffrev, 12);
     948:	2c31                	jal	b64 <SPI0_MasterDMARecv>
d:\CH573FEVT\LaserRangeFinder\obj/../src/Main.c:86
    GPIOA_SetBits(GPIO_Pin_12); 
     94a:	0a842783          	lw	a5,168(s0)
d:\CH573FEVT\LaserRangeFinder\obj/../src/Main.c:88

    PRINT("END ...\n");
     94e:	00001517          	auipc	a0,0x1
     952:	5de50513          	addi	a0,a0,1502 # 1f2c <_read+0x4a>
d:\CH573FEVT\LaserRangeFinder\obj/../src/Main.c:86
    GPIOA_SetBits(GPIO_Pin_12); 
     956:	8cdd                	or	s1,s1,a5
     958:	0a942423          	sw	s1,168(s0)
d:\CH573FEVT\LaserRangeFinder\obj/../src/Main.c:88
    PRINT("END ...\n");
     95c:	298d                	jal	dce <puts>
d:\CH573FEVT\LaserRangeFinder\obj/../src/Main.c:89 (discriminator 1)
    while(1);
     95e:	a001                	j	95e <main+0x136>

00000960 <GPIOA_ModeCfg>:
GPIOA_ModeCfg():
d:\CH573FEVT\LaserRangeFinder\obj/../StdPeriphDriver/CH57x_gpio.c:27
 *
 * @return  none
 */
void GPIOA_ModeCfg(uint32_t pin, GPIOModeTypeDef mode)
{
    switch(mode)
     960:	4791                	li	a5,4
     962:	02b7ee63          	bltu	a5,a1,99e <GPIOA_ModeCfg+0x3e>
     966:	00001717          	auipc	a4,0x1
     96a:	5ce70713          	addi	a4,a4,1486 # 1f34 <_read+0x52>
     96e:	058a                	slli	a1,a1,0x2
     970:	95ba                	add	a1,a1,a4
     972:	419c                	lw	a5,0(a1)
     974:	97ba                	add	a5,a5,a4
     976:	8782                	jr	a5
d:\CH573FEVT\LaserRangeFinder\obj/../StdPeriphDriver/CH57x_gpio.c:30
    {
        case GPIO_ModeIN_Floating:
            R32_PA_PD_DRV &= ~pin;
     978:	400017b7          	lui	a5,0x40001
     97c:	0b47a703          	lw	a4,180(a5) # 400010b4 <_eusrstack+0x1fff90b4>
     980:	fff54513          	not	a0,a0
     984:	8f69                	and	a4,a4,a0
     986:	0ae7aa23          	sw	a4,180(a5)
d:\CH573FEVT\LaserRangeFinder\obj/../StdPeriphDriver/CH57x_gpio.c:31
            R32_PA_PU &= ~pin;
     98a:	0b07a703          	lw	a4,176(a5)
d:\CH573FEVT\LaserRangeFinder\obj/../StdPeriphDriver/CH57x_gpio.c:43
            R32_PA_DIR &= ~pin;
            break;

        case GPIO_ModeIN_PD:
            R32_PA_PD_DRV |= pin;
            R32_PA_PU &= ~pin;
     98e:	8f69                	and	a4,a4,a0
     990:	0ae7a823          	sw	a4,176(a5)
d:\CH573FEVT\LaserRangeFinder\obj/../StdPeriphDriver/CH57x_gpio.c:44
            R32_PA_DIR &= ~pin;
     994:	0a07a703          	lw	a4,160(a5)
     998:	8d79                	and	a0,a0,a4
d:\CH573FEVT\LaserRangeFinder\obj/../StdPeriphDriver/CH57x_gpio.c:54
            R32_PA_DIR |= pin;
            break;

        case GPIO_ModeOut_PP_20mA:
            R32_PA_PD_DRV |= pin;
            R32_PA_DIR |= pin;
     99a:	0aa7a023          	sw	a0,160(a5)
d:\CH573FEVT\LaserRangeFinder\obj/../StdPeriphDriver/CH57x_gpio.c:60
            break;

        default:
            break;
    }
}
     99e:	8082                	ret
d:\CH573FEVT\LaserRangeFinder\obj/../StdPeriphDriver/CH57x_gpio.c:36
            R32_PA_PD_DRV &= ~pin;
     9a0:	400017b7          	lui	a5,0x40001
     9a4:	0b47a683          	lw	a3,180(a5) # 400010b4 <_eusrstack+0x1fff90b4>
     9a8:	fff54713          	not	a4,a0
     9ac:	8ef9                	and	a3,a3,a4
     9ae:	0ad7aa23          	sw	a3,180(a5)
d:\CH573FEVT\LaserRangeFinder\obj/../StdPeriphDriver/CH57x_gpio.c:37
            R32_PA_PU |= pin;
     9b2:	0b07a683          	lw	a3,176(a5)
     9b6:	8d55                	or	a0,a0,a3
     9b8:	0aa7a823          	sw	a0,176(a5)
d:\CH573FEVT\LaserRangeFinder\obj/../StdPeriphDriver/CH57x_gpio.c:38
            R32_PA_DIR &= ~pin;
     9bc:	0a07a683          	lw	a3,160(a5)
     9c0:	8f75                	and	a4,a4,a3
     9c2:	0ae7a023          	sw	a4,160(a5)
d:\CH573FEVT\LaserRangeFinder\obj/../StdPeriphDriver/CH57x_gpio.c:39
            break;
     9c6:	8082                	ret
d:\CH573FEVT\LaserRangeFinder\obj/../StdPeriphDriver/CH57x_gpio.c:42
            R32_PA_PD_DRV |= pin;
     9c8:	400017b7          	lui	a5,0x40001
     9cc:	0b47a703          	lw	a4,180(a5) # 400010b4 <_eusrstack+0x1fff90b4>
     9d0:	8f49                	or	a4,a4,a0
     9d2:	0ae7aa23          	sw	a4,180(a5)
d:\CH573FEVT\LaserRangeFinder\obj/../StdPeriphDriver/CH57x_gpio.c:43
            R32_PA_PU &= ~pin;
     9d6:	0b07a703          	lw	a4,176(a5)
     9da:	fff54513          	not	a0,a0
     9de:	bf45                	j	98e <GPIOA_ModeCfg+0x2e>
d:\CH573FEVT\LaserRangeFinder\obj/../StdPeriphDriver/CH57x_gpio.c:48
            R32_PA_PD_DRV &= ~pin;
     9e0:	400017b7          	lui	a5,0x40001
     9e4:	0b47a683          	lw	a3,180(a5) # 400010b4 <_eusrstack+0x1fff90b4>
     9e8:	fff54713          	not	a4,a0
     9ec:	8f75                	and	a4,a4,a3
d:\CH573FEVT\LaserRangeFinder\obj/../StdPeriphDriver/CH57x_gpio.c:53
            R32_PA_PD_DRV |= pin;
     9ee:	0ae7aa23          	sw	a4,180(a5)
d:\CH573FEVT\LaserRangeFinder\obj/../StdPeriphDriver/CH57x_gpio.c:54
            R32_PA_DIR |= pin;
     9f2:	0a07a703          	lw	a4,160(a5)
     9f6:	8d59                	or	a0,a0,a4
     9f8:	b74d                	j	99a <GPIOA_ModeCfg+0x3a>
d:\CH573FEVT\LaserRangeFinder\obj/../StdPeriphDriver/CH57x_gpio.c:53
            R32_PA_PD_DRV |= pin;
     9fa:	400017b7          	lui	a5,0x40001
     9fe:	0b47a703          	lw	a4,180(a5) # 400010b4 <_eusrstack+0x1fff90b4>
     a02:	8f49                	or	a4,a4,a0
     a04:	b7ed                	j	9ee <GPIOA_ModeCfg+0x8e>

00000a06 <SPI0_MasterDefInit>:
SPI0_MasterDefInit():
d:\CH573FEVT\LaserRangeFinder\obj/../StdPeriphDriver/CH57x_spi0.c:26
 *
 * @return  none
 */
void SPI0_MasterDefInit(void)
{
    R8_SPI0_CLOCK_DIV = 4; // 主频时钟4分频
     a06:	400047b7          	lui	a5,0x40004
     a0a:	4711                	li	a4,4
     a0c:	00e781a3          	sb	a4,3(a5) # 40004003 <_eusrstack+0x1fffc003>
d:\CH573FEVT\LaserRangeFinder\obj/../StdPeriphDriver/CH57x_spi0.c:27
    R8_SPI0_CTRL_MOD = RB_SPI_ALL_CLEAR;
     a10:	4709                	li	a4,2
     a12:	00e78023          	sb	a4,0(a5)
d:\CH573FEVT\LaserRangeFinder\obj/../StdPeriphDriver/CH57x_spi0.c:28
    R8_SPI0_CTRL_MOD = RB_SPI_MOSI_OE | RB_SPI_SCK_OE;
     a16:	06000713          	li	a4,96
     a1a:	00e78023          	sb	a4,0(a5)
d:\CH573FEVT\LaserRangeFinder\obj/../StdPeriphDriver/CH57x_spi0.c:29
    R8_SPI0_CTRL_CFG |= RB_SPI_AUTO_IF;     // 访问BUFFER/FIFO自动清除IF_BYTE_END标志
     a1e:	0017c703          	lbu	a4,1(a5)
     a22:	01076713          	ori	a4,a4,16
     a26:	00e780a3          	sb	a4,1(a5)
d:\CH573FEVT\LaserRangeFinder\obj/../StdPeriphDriver/CH57x_spi0.c:30
    R8_SPI0_CTRL_CFG &= ~RB_SPI_DMA_ENABLE; // 不启动DMA方式
     a2a:	0017c703          	lbu	a4,1(a5)
     a2e:	0fe77713          	andi	a4,a4,254
     a32:	00e780a3          	sb	a4,1(a5)
d:\CH573FEVT\LaserRangeFinder\obj/../StdPeriphDriver/CH57x_spi0.c:31
}
     a36:	8082                	ret

00000a38 <SPI0_MasterSendByte>:
SPI0_MasterSendByte():
d:\CH573FEVT\LaserRangeFinder\obj/../StdPeriphDriver/CH57x_spi0.c:100
 *
 * @return  none
 */
void SPI0_MasterSendByte(uint8_t d)
{
    R8_SPI0_CTRL_MOD &= ~RB_SPI_FIFO_DIR;
     a38:	400047b7          	lui	a5,0x40004
     a3c:	0007c703          	lbu	a4,0(a5) # 40004000 <_eusrstack+0x1fffc000>
     a40:	0ef77713          	andi	a4,a4,239
     a44:	00e78023          	sb	a4,0(a5)
d:\CH573FEVT\LaserRangeFinder\obj/../StdPeriphDriver/CH57x_spi0.c:101
    R8_SPI0_BUFFER = d;
     a48:	00a78223          	sb	a0,4(a5)
d:\CH573FEVT\LaserRangeFinder\obj/../StdPeriphDriver/CH57x_spi0.c:102
    while(!(R8_SPI0_INT_FLAG & RB_SPI_FREE));
     a4c:	40004737          	lui	a4,0x40004
d:\CH573FEVT\LaserRangeFinder\obj/../StdPeriphDriver/CH57x_spi0.c:102 (discriminator 1)
     a50:	00674783          	lbu	a5,6(a4) # 40004006 <_eusrstack+0x1fffc006>
     a54:	0407f793          	andi	a5,a5,64
     a58:	dfe5                	beqz	a5,a50 <SPI0_MasterSendByte+0x18>
d:\CH573FEVT\LaserRangeFinder\obj/../StdPeriphDriver/CH57x_spi0.c:103
}
     a5a:	8082                	ret

00000a5c <SPI0_MasterRecvByte>:
SPI0_MasterRecvByte():
d:\CH573FEVT\LaserRangeFinder\obj/../StdPeriphDriver/CH57x_spi0.c:116
 *
 * @return  接收到的字节
 */
uint8_t SPI0_MasterRecvByte(void)
{
    R8_SPI0_CTRL_MOD |= RB_SPI_FIFO_DIR; // 设置数据方向为输入
     a5c:	400047b7          	lui	a5,0x40004
     a60:	0007c703          	lbu	a4,0(a5) # 40004000 <_eusrstack+0x1fffc000>
     a64:	01076713          	ori	a4,a4,16
     a68:	00e78023          	sb	a4,0(a5)
d:\CH573FEVT\LaserRangeFinder\obj/../StdPeriphDriver/CH57x_spi0.c:117
    R8_SPI0_BUFFER = 0xFF; // 启动传输
     a6c:	577d                	li	a4,-1
     a6e:	00e78223          	sb	a4,4(a5)
d:\CH573FEVT\LaserRangeFinder\obj/../StdPeriphDriver/CH57x_spi0.c:118
    while(!(R8_SPI0_INT_FLAG & RB_SPI_FREE));
     a72:	40004737          	lui	a4,0x40004
d:\CH573FEVT\LaserRangeFinder\obj/../StdPeriphDriver/CH57x_spi0.c:118 (discriminator 1)
     a76:	00674783          	lbu	a5,6(a4) # 40004006 <_eusrstack+0x1fffc006>
     a7a:	0407f793          	andi	a5,a5,64
     a7e:	dfe5                	beqz	a5,a76 <SPI0_MasterRecvByte+0x1a>
d:\CH573FEVT\LaserRangeFinder\obj/../StdPeriphDriver/CH57x_spi0.c:119
    return (R8_SPI0_BUFFER);
     a80:	00474503          	lbu	a0,4(a4)
d:\CH573FEVT\LaserRangeFinder\obj/../StdPeriphDriver/CH57x_spi0.c:120
}
     a84:	8082                	ret

00000a86 <SPI0_MasterTrans>:
SPI0_MasterTrans():
d:\CH573FEVT\LaserRangeFinder\obj/../StdPeriphDriver/CH57x_spi0.c:137
void SPI0_MasterTrans(uint8_t *pbuf, uint16_t len)
{
    uint16_t sendlen;

    sendlen = len;
    R8_SPI0_CTRL_MOD &= ~RB_SPI_FIFO_DIR; // 设置数据方向为输出
     a86:	400047b7          	lui	a5,0x40004
     a8a:	0007c703          	lbu	a4,0(a5) # 40004000 <_eusrstack+0x1fffc000>
d:\CH573FEVT\LaserRangeFinder\obj/../StdPeriphDriver/CH57x_spi0.c:142
    R16_SPI0_TOTAL_CNT = sendlen;         // 设置要发送的数据长度
    R8_SPI0_INT_FLAG = RB_SPI_IF_CNT_END;
    while(sendlen)
    {
        if(R8_SPI0_FIFO_COUNT < SPI_FIFO_SIZE)
     a8e:	400046b7          	lui	a3,0x40004
d:\CH573FEVT\LaserRangeFinder\obj/../StdPeriphDriver/CH57x_spi0.c:137
    R8_SPI0_CTRL_MOD &= ~RB_SPI_FIFO_DIR; // 设置数据方向为输出
     a92:	0ef77713          	andi	a4,a4,239
     a96:	00e78023          	sb	a4,0(a5)
d:\CH573FEVT\LaserRangeFinder\obj/../StdPeriphDriver/CH57x_spi0.c:138
    R16_SPI0_TOTAL_CNT = sendlen;         // 设置要发送的数据长度
     a9a:	00b79623          	sh	a1,12(a5)
d:\CH573FEVT\LaserRangeFinder\obj/../StdPeriphDriver/CH57x_spi0.c:139
    R8_SPI0_INT_FLAG = RB_SPI_IF_CNT_END;
     a9e:	4705                	li	a4,1
     aa0:	00e78323          	sb	a4,6(a5)
d:\CH573FEVT\LaserRangeFinder\obj/../StdPeriphDriver/CH57x_spi0.c:142
        if(R8_SPI0_FIFO_COUNT < SPI_FIFO_SIZE)
     aa4:	471d                	li	a4,7
d:\CH573FEVT\LaserRangeFinder\obj/../StdPeriphDriver/CH57x_spi0.c:140
    while(sendlen)
     aa6:	e989                	bnez	a1,ab8 <SPI0_MasterTrans+0x32>
d:\CH573FEVT\LaserRangeFinder\obj/../StdPeriphDriver/CH57x_spi0.c:149
            R8_SPI0_FIFO = *pbuf;
            pbuf++;
            sendlen--;
        }
    }
    while(R8_SPI0_FIFO_COUNT != 0); // 等待FIFO中的数据全部发送完成
     aa8:	40004737          	lui	a4,0x40004
d:\CH573FEVT\LaserRangeFinder\obj/../StdPeriphDriver/CH57x_spi0.c:149 (discriminator 1)
     aac:	00774783          	lbu	a5,7(a4) # 40004007 <_eusrstack+0x1fffc007>
     ab0:	0ff7f793          	andi	a5,a5,255
     ab4:	ffe5                	bnez	a5,aac <SPI0_MasterTrans+0x26>
d:\CH573FEVT\LaserRangeFinder\obj/../StdPeriphDriver/CH57x_spi0.c:150
}
     ab6:	8082                	ret
d:\CH573FEVT\LaserRangeFinder\obj/../StdPeriphDriver/CH57x_spi0.c:142
        if(R8_SPI0_FIFO_COUNT < SPI_FIFO_SIZE)
     ab8:	0077c603          	lbu	a2,7(a5)
     abc:	fec765e3          	bltu	a4,a2,aa6 <SPI0_MasterTrans+0x20>
d:\CH573FEVT\LaserRangeFinder\obj/../StdPeriphDriver/CH57x_spi0.c:144
            R8_SPI0_FIFO = *pbuf;
     ac0:	00054603          	lbu	a2,0(a0)
d:\CH573FEVT\LaserRangeFinder\obj/../StdPeriphDriver/CH57x_spi0.c:146
            sendlen--;
     ac4:	15fd                	addi	a1,a1,-1
     ac6:	05c2                	slli	a1,a1,0x10
d:\CH573FEVT\LaserRangeFinder\obj/../StdPeriphDriver/CH57x_spi0.c:144
            R8_SPI0_FIFO = *pbuf;
     ac8:	00c68823          	sb	a2,16(a3) # 40004010 <_eusrstack+0x1fffc010>
d:\CH573FEVT\LaserRangeFinder\obj/../StdPeriphDriver/CH57x_spi0.c:145
            pbuf++;
     acc:	0505                	addi	a0,a0,1
d:\CH573FEVT\LaserRangeFinder\obj/../StdPeriphDriver/CH57x_spi0.c:146
            sendlen--;
     ace:	81c1                	srli	a1,a1,0x10
     ad0:	bfd9                	j	aa6 <SPI0_MasterTrans+0x20>

00000ad2 <SPI0_MasterRecv>:
SPI0_MasterRecv():
d:\CH573FEVT\LaserRangeFinder\obj/../StdPeriphDriver/CH57x_spi0.c:167
void SPI0_MasterRecv(uint8_t *pbuf, uint16_t len)
{
    uint16_t readlen;

    readlen = len;
    R8_SPI0_CTRL_MOD |= RB_SPI_FIFO_DIR; // 设置数据方向为输入
     ad2:	400047b7          	lui	a5,0x40004
     ad6:	0007c703          	lbu	a4,0(a5) # 40004000 <_eusrstack+0x1fffc000>
d:\CH573FEVT\LaserRangeFinder\obj/../StdPeriphDriver/CH57x_spi0.c:172
    R16_SPI0_TOTAL_CNT = len;            // 设置需要接收的数据长度，FIFO方向为输入长度不为0则会启动传输 */
    R8_SPI0_INT_FLAG = RB_SPI_IF_CNT_END;
    while(readlen)
    {
        if(R8_SPI0_FIFO_COUNT)
     ada:	400046b7          	lui	a3,0x40004
d:\CH573FEVT\LaserRangeFinder\obj/../StdPeriphDriver/CH57x_spi0.c:167
    R8_SPI0_CTRL_MOD |= RB_SPI_FIFO_DIR; // 设置数据方向为输入
     ade:	01076713          	ori	a4,a4,16
     ae2:	00e78023          	sb	a4,0(a5)
d:\CH573FEVT\LaserRangeFinder\obj/../StdPeriphDriver/CH57x_spi0.c:168
    R16_SPI0_TOTAL_CNT = len;            // 设置需要接收的数据长度，FIFO方向为输入长度不为0则会启动传输 */
     ae6:	00b79623          	sh	a1,12(a5)
d:\CH573FEVT\LaserRangeFinder\obj/../StdPeriphDriver/CH57x_spi0.c:169
    R8_SPI0_INT_FLAG = RB_SPI_IF_CNT_END;
     aea:	4705                	li	a4,1
     aec:	00e78323          	sb	a4,6(a5)
d:\CH573FEVT\LaserRangeFinder\obj/../StdPeriphDriver/CH57x_spi0.c:172
        if(R8_SPI0_FIFO_COUNT)
     af0:	40004737          	lui	a4,0x40004
d:\CH573FEVT\LaserRangeFinder\obj/../StdPeriphDriver/CH57x_spi0.c:170
    while(readlen)
     af4:	e191                	bnez	a1,af8 <SPI0_MasterRecv+0x26>
d:\CH573FEVT\LaserRangeFinder\obj/../StdPeriphDriver/CH57x_spi0.c:179
            *pbuf = R8_SPI0_FIFO;
            pbuf++;
            readlen--;
        }
    }
}
     af6:	8082                	ret
d:\CH573FEVT\LaserRangeFinder\obj/../StdPeriphDriver/CH57x_spi0.c:172
        if(R8_SPI0_FIFO_COUNT)
     af8:	00774783          	lbu	a5,7(a4) # 40004007 <_eusrstack+0x1fffc007>
     afc:	0ff7f793          	andi	a5,a5,255
     b00:	dbf5                	beqz	a5,af4 <SPI0_MasterRecv+0x22>
d:\CH573FEVT\LaserRangeFinder\obj/../StdPeriphDriver/CH57x_spi0.c:174
            *pbuf = R8_SPI0_FIFO;
     b02:	0106c783          	lbu	a5,16(a3) # 40004010 <_eusrstack+0x1fffc010>
d:\CH573FEVT\LaserRangeFinder\obj/../StdPeriphDriver/CH57x_spi0.c:176
            readlen--;
     b06:	15fd                	addi	a1,a1,-1
     b08:	05c2                	slli	a1,a1,0x10
d:\CH573FEVT\LaserRangeFinder\obj/../StdPeriphDriver/CH57x_spi0.c:174
            *pbuf = R8_SPI0_FIFO;
     b0a:	00f50023          	sb	a5,0(a0)
d:\CH573FEVT\LaserRangeFinder\obj/../StdPeriphDriver/CH57x_spi0.c:176
            readlen--;
     b0e:	81c1                	srli	a1,a1,0x10
d:\CH573FEVT\LaserRangeFinder\obj/../StdPeriphDriver/CH57x_spi0.c:175
            pbuf++;
     b10:	0505                	addi	a0,a0,1
d:\CH573FEVT\LaserRangeFinder\obj/../StdPeriphDriver/CH57x_spi0.c:176
            readlen--;
     b12:	b7cd                	j	af4 <SPI0_MasterRecv+0x22>

00000b14 <SPI0_MasterDMATrans>:
SPI0_MasterDMATrans():
d:\CH573FEVT\LaserRangeFinder\obj/../StdPeriphDriver/CH57x_spi0.c:193
 *
 * @return  none
 */
void SPI0_MasterDMATrans(uint8_t *pbuf, uint16_t len)
{
    R8_SPI0_CTRL_MOD &= ~RB_SPI_FIFO_DIR;
     b14:	400047b7          	lui	a5,0x40004
     b18:	0007c703          	lbu	a4,0(a5) # 40004000 <_eusrstack+0x1fffc000>
     b1c:	0ef77713          	andi	a4,a4,239
     b20:	00e78023          	sb	a4,0(a5)
d:\CH573FEVT\LaserRangeFinder\obj/../StdPeriphDriver/CH57x_spi0.c:194
    R16_SPI0_DMA_BEG = (uint32_t)pbuf;
     b24:	01051713          	slli	a4,a0,0x10
d:\CH573FEVT\LaserRangeFinder\obj/../StdPeriphDriver/CH57x_spi0.c:195
    R16_SPI0_DMA_END = (uint32_t)(pbuf + len);
     b28:	952e                	add	a0,a0,a1
d:\CH573FEVT\LaserRangeFinder\obj/../StdPeriphDriver/CH57x_spi0.c:194
    R16_SPI0_DMA_BEG = (uint32_t)pbuf;
     b2a:	8341                	srli	a4,a4,0x10
d:\CH573FEVT\LaserRangeFinder\obj/../StdPeriphDriver/CH57x_spi0.c:195
    R16_SPI0_DMA_END = (uint32_t)(pbuf + len);
     b2c:	0542                	slli	a0,a0,0x10
d:\CH573FEVT\LaserRangeFinder\obj/../StdPeriphDriver/CH57x_spi0.c:194
    R16_SPI0_DMA_BEG = (uint32_t)pbuf;
     b2e:	00e79c23          	sh	a4,24(a5)
d:\CH573FEVT\LaserRangeFinder\obj/../StdPeriphDriver/CH57x_spi0.c:195
    R16_SPI0_DMA_END = (uint32_t)(pbuf + len);
     b32:	8141                	srli	a0,a0,0x10
     b34:	00a79e23          	sh	a0,28(a5)
d:\CH573FEVT\LaserRangeFinder\obj/../StdPeriphDriver/CH57x_spi0.c:196
    R16_SPI0_TOTAL_CNT = len;
     b38:	00b79623          	sh	a1,12(a5)
d:\CH573FEVT\LaserRangeFinder\obj/../StdPeriphDriver/CH57x_spi0.c:197
    R8_SPI0_INT_FLAG = RB_SPI_IF_CNT_END | RB_SPI_IF_DMA_END;
     b3c:	4725                	li	a4,9
     b3e:	00e78323          	sb	a4,6(a5)
d:\CH573FEVT\LaserRangeFinder\obj/../StdPeriphDriver/CH57x_spi0.c:198
    R8_SPI0_CTRL_CFG |= RB_SPI_DMA_ENABLE;
     b42:	0017c703          	lbu	a4,1(a5)
     b46:	00176713          	ori	a4,a4,1
     b4a:	00e780a3          	sb	a4,1(a5)
d:\CH573FEVT\LaserRangeFinder\obj/../StdPeriphDriver/CH57x_spi0.c:199 (discriminator 1)
    while(!(R8_SPI0_INT_FLAG & RB_SPI_IF_CNT_END));
     b4e:	0067c703          	lbu	a4,6(a5)
     b52:	8b05                	andi	a4,a4,1
     b54:	df6d                	beqz	a4,b4e <SPI0_MasterDMATrans+0x3a>
d:\CH573FEVT\LaserRangeFinder\obj/../StdPeriphDriver/CH57x_spi0.c:200
    R8_SPI0_CTRL_CFG &= ~RB_SPI_DMA_ENABLE;
     b56:	0017c703          	lbu	a4,1(a5)
     b5a:	0fe77713          	andi	a4,a4,254
     b5e:	00e780a3          	sb	a4,1(a5)
d:\CH573FEVT\LaserRangeFinder\obj/../StdPeriphDriver/CH57x_spi0.c:201
}
     b62:	8082                	ret

00000b64 <SPI0_MasterDMARecv>:
SPI0_MasterDMARecv():
d:\CH573FEVT\LaserRangeFinder\obj/../StdPeriphDriver/CH57x_spi0.c:215
 *
 * @return  none
 */
void SPI0_MasterDMARecv(uint8_t *pbuf, uint16_t len)
{
    R8_SPI0_CTRL_MOD |= RB_SPI_FIFO_DIR;
     b64:	400047b7          	lui	a5,0x40004
     b68:	0007c703          	lbu	a4,0(a5) # 40004000 <_eusrstack+0x1fffc000>
     b6c:	01076713          	ori	a4,a4,16
     b70:	00e78023          	sb	a4,0(a5)
d:\CH573FEVT\LaserRangeFinder\obj/../StdPeriphDriver/CH57x_spi0.c:216
    R16_SPI0_DMA_BEG = (uint32_t)pbuf;
     b74:	01051713          	slli	a4,a0,0x10
d:\CH573FEVT\LaserRangeFinder\obj/../StdPeriphDriver/CH57x_spi0.c:217
    R16_SPI0_DMA_END = (uint32_t)(pbuf + len);
     b78:	952e                	add	a0,a0,a1
d:\CH573FEVT\LaserRangeFinder\obj/../StdPeriphDriver/CH57x_spi0.c:216
    R16_SPI0_DMA_BEG = (uint32_t)pbuf;
     b7a:	8341                	srli	a4,a4,0x10
d:\CH573FEVT\LaserRangeFinder\obj/../StdPeriphDriver/CH57x_spi0.c:217
    R16_SPI0_DMA_END = (uint32_t)(pbuf + len);
     b7c:	0542                	slli	a0,a0,0x10
d:\CH573FEVT\LaserRangeFinder\obj/../StdPeriphDriver/CH57x_spi0.c:216
    R16_SPI0_DMA_BEG = (uint32_t)pbuf;
     b7e:	00e79c23          	sh	a4,24(a5)
d:\CH573FEVT\LaserRangeFinder\obj/../StdPeriphDriver/CH57x_spi0.c:217
    R16_SPI0_DMA_END = (uint32_t)(pbuf + len);
     b82:	8141                	srli	a0,a0,0x10
     b84:	00a79e23          	sh	a0,28(a5)
d:\CH573FEVT\LaserRangeFinder\obj/../StdPeriphDriver/CH57x_spi0.c:218
    R16_SPI0_TOTAL_CNT = len;
     b88:	00b79623          	sh	a1,12(a5)
d:\CH573FEVT\LaserRangeFinder\obj/../StdPeriphDriver/CH57x_spi0.c:219
    R8_SPI0_INT_FLAG = RB_SPI_IF_CNT_END | RB_SPI_IF_DMA_END;
     b8c:	4725                	li	a4,9
     b8e:	00e78323          	sb	a4,6(a5)
d:\CH573FEVT\LaserRangeFinder\obj/../StdPeriphDriver/CH57x_spi0.c:220
    R8_SPI0_CTRL_CFG |= RB_SPI_DMA_ENABLE;
     b92:	0017c703          	lbu	a4,1(a5)
     b96:	00176713          	ori	a4,a4,1
     b9a:	00e780a3          	sb	a4,1(a5)
d:\CH573FEVT\LaserRangeFinder\obj/../StdPeriphDriver/CH57x_spi0.c:221 (discriminator 1)
    while(!(R8_SPI0_INT_FLAG & RB_SPI_IF_CNT_END));
     b9e:	0067c703          	lbu	a4,6(a5)
     ba2:	8b05                	andi	a4,a4,1
     ba4:	df6d                	beqz	a4,b9e <SPI0_MasterDMARecv+0x3a>
d:\CH573FEVT\LaserRangeFinder\obj/../StdPeriphDriver/CH57x_spi0.c:222
    R8_SPI0_CTRL_CFG &= ~RB_SPI_DMA_ENABLE;
     ba6:	0017c703          	lbu	a4,1(a5)
     baa:	0fe77713          	andi	a4,a4,254
     bae:	00e780a3          	sb	a4,1(a5)
d:\CH573FEVT\LaserRangeFinder\obj/../StdPeriphDriver/CH57x_spi0.c:223
}
     bb2:	8082                	ret

00000bb4 <GetSysClock>:
GetSysClock():
d:\CH573FEVT\LaserRangeFinder\obj/../StdPeriphDriver/CH57x_sys.c:94
    rev = R16_CLK_SYS_CFG & 0xff;
     bb4:	400017b7          	lui	a5,0x40001
     bb8:	0087d503          	lhu	a0,8(a5) # 40001008 <_eusrstack+0x1fff9008>
     bbc:	0542                	slli	a0,a0,0x10
     bbe:	8141                	srli	a0,a0,0x10
d:\CH573FEVT\LaserRangeFinder\obj/../StdPeriphDriver/CH57x_sys.c:95
    if((rev & 0x40) == (0 << 6))
     bc0:	04057793          	andi	a5,a0,64
     bc4:	eb91                	bnez	a5,bd8 <GetSysClock+0x24>
d:\CH573FEVT\LaserRangeFinder\obj/../StdPeriphDriver/CH57x_sys.c:97
        return (32000000 / (rev & 0x1f));
     bc6:	01f57793          	andi	a5,a0,31
     bca:	01e85537          	lui	a0,0x1e85
d:\CH573FEVT\LaserRangeFinder\obj/../StdPeriphDriver/CH57x_sys.c:101
        return (480000000 / (rev & 0x1f));
     bce:	80050513          	addi	a0,a0,-2048 # 1e84800 <_data_lma+0x1e82818>
     bd2:	02f54533          	div	a0,a0,a5
     bd6:	8082                	ret
d:\CH573FEVT\LaserRangeFinder\obj/../StdPeriphDriver/CH57x_sys.c:99
    else if((rev & RB_CLK_SYS_MOD) == (1 << 6))
     bd8:	0c057793          	andi	a5,a0,192
     bdc:	04000713          	li	a4,64
     be0:	00e79763          	bne	a5,a4,bee <GetSysClock+0x3a>
d:\CH573FEVT\LaserRangeFinder\obj/../StdPeriphDriver/CH57x_sys.c:101
        return (480000000 / (rev & 0x1f));
     be4:	01f57793          	andi	a5,a0,31
     be8:	1c9c4537          	lui	a0,0x1c9c4
     bec:	b7cd                	j	bce <GetSysClock+0x1a>
d:\CH573FEVT\LaserRangeFinder\obj/../StdPeriphDriver/CH57x_sys.c:105
        return (32000);
     bee:	6521                	lui	a0,0x8
     bf0:	d0050513          	addi	a0,a0,-768 # 7d00 <_data_lma+0x5d18>
d:\CH573FEVT\LaserRangeFinder\obj/../StdPeriphDriver/CH57x_sys.c:107
}
     bf4:	8082                	ret

00000bf6 <_write>:
_write():
d:\CH573FEVT\LaserRangeFinder\obj/../StdPeriphDriver/CH57x_sys.c:354

#ifdef DEBUG
int _write(int fd, char *buf, int size)
{
    int i;
    for(i = 0; i < size; i++)
     bf6:	4781                	li	a5,0
d:\CH573FEVT\LaserRangeFinder\obj/../StdPeriphDriver/CH57x_sys.c:360
    {
#if DEBUG == Debug_UART0
        while(R8_UART0_TFC == UART_FIFO_SIZE);                  /* 等待数据发送 */
        R8_UART0_THR = *buf++; /* 发送数据 */
#elif DEBUG == Debug_UART1
        while(R8_UART1_TFC == UART_FIFO_SIZE);                  /* 等待数据发送 */
     bf8:	40003737          	lui	a4,0x40003
     bfc:	46a1                	li	a3,8
d:\CH573FEVT\LaserRangeFinder\obj/../StdPeriphDriver/CH57x_sys.c:354 (discriminator 1)
    for(i = 0; i < size; i++)
     bfe:	00c7c463          	blt	a5,a2,c06 <_write+0x10>
d:\CH573FEVT\LaserRangeFinder\obj/../StdPeriphDriver/CH57x_sys.c:371
        while(R8_UART3_TFC == UART_FIFO_SIZE);                  /* 等待数据发送 */
        R8_UART3_THR = *buf++; /* 发送数据 */
#endif
    }
    return size;
}
     c02:	8532                	mv	a0,a2
     c04:	8082                	ret
d:\CH573FEVT\LaserRangeFinder\obj/../StdPeriphDriver/CH57x_sys.c:360 (discriminator 1)
        while(R8_UART1_TFC == UART_FIFO_SIZE);                  /* 等待数据发送 */
     c06:	40b74503          	lbu	a0,1035(a4) # 4000340b <_eusrstack+0x1fffb40b>
     c0a:	fea68ee3          	beq	a3,a0,c06 <_write+0x10>
d:\CH573FEVT\LaserRangeFinder\obj/../StdPeriphDriver/CH57x_sys.c:361 (discriminator 2)
        R8_UART1_THR = *buf++; /* 发送数据 */
     c0e:	00f58533          	add	a0,a1,a5
     c12:	00054503          	lbu	a0,0(a0)
d:\CH573FEVT\LaserRangeFinder\obj/../StdPeriphDriver/CH57x_sys.c:354 (discriminator 2)
    for(i = 0; i < size; i++)
     c16:	0785                	addi	a5,a5,1
d:\CH573FEVT\LaserRangeFinder\obj/../StdPeriphDriver/CH57x_sys.c:361 (discriminator 2)
        R8_UART1_THR = *buf++; /* 发送数据 */
     c18:	40a70423          	sb	a0,1032(a4)
     c1c:	b7cd                	j	bfe <_write+0x8>

00000c1e <_sbrk>:
_sbrk():
d:\CH573FEVT\LaserRangeFinder\obj/../StdPeriphDriver/CH57x_sys.c:389
{
    extern char _end[];
    extern char _heap_end[];
    static char *curbrk = _end;

    if ((curbrk + incr < _end) || (curbrk + incr > _heap_end))
     c1e:	20003797          	auipc	a5,0x20003
     c22:	45278793          	addi	a5,a5,1106 # 20004070 <curbrk.3772>
     c26:	439c                	lw	a5,0(a5)
     c28:	82418713          	addi	a4,gp,-2012 # 20004094 <_ebss>
     c2c:	953e                	add	a0,a0,a5
     c2e:	00e56e63          	bltu	a0,a4,c4a <_sbrk+0x2c>
d:\CH573FEVT\LaserRangeFinder\obj/../StdPeriphDriver/CH57x_sys.c:389 (discriminator 1)
     c32:	20007717          	auipc	a4,0x20007
     c36:	1ce70713          	addi	a4,a4,462 # 20007e00 <_heap_end>
     c3a:	00a76863          	bltu	a4,a0,c4a <_sbrk+0x2c>
d:\CH573FEVT\LaserRangeFinder\obj/../StdPeriphDriver/CH57x_sys.c:392
    return NULL - 1;

    curbrk += incr;
     c3e:	20003717          	auipc	a4,0x20003
     c42:	42a72923          	sw	a0,1074(a4) # 20004070 <curbrk.3772>
d:\CH573FEVT\LaserRangeFinder\obj/../StdPeriphDriver/CH57x_sys.c:394
    return curbrk - incr;
}
     c46:	853e                	mv	a0,a5
     c48:	8082                	ret
d:\CH573FEVT\LaserRangeFinder\obj/../StdPeriphDriver/CH57x_sys.c:390
    return NULL - 1;
     c4a:	57fd                	li	a5,-1
     c4c:	bfed                	j	c46 <_sbrk+0x28>

00000c4e <UART1_BaudRateCfg>:
UART1_BaudRateCfg():
d:\CH573FEVT\LaserRangeFinder\obj/../StdPeriphDriver/CH57x_uart1.c:43
 * @param   baudrate    - 波特率
 *
 * @return  none
 */
void UART1_BaudRateCfg(uint32_t baudrate)
{
     c4e:	1141                	addi	sp,sp,-16
     c50:	c422                	sw	s0,8(sp)
     c52:	c606                	sw	ra,12(sp)
     c54:	842a                	mv	s0,a0
d:\CH573FEVT\LaserRangeFinder\obj/../StdPeriphDriver/CH57x_uart1.c:46
    uint32_t x;

    x = 10 * GetSysClock() / 8 / baudrate;
     c56:	3fb9                	jal	bb4 <GetSysClock>
     c58:	4729                	li	a4,10
     c5a:	02e507b3          	mul	a5,a0,a4
d:\CH573FEVT\LaserRangeFinder\obj/../StdPeriphDriver/CH57x_uart1.c:49
    x = (x + 5) / 10;
    R16_UART1_DL = (uint16_t)x;
}
     c5e:	40b2                	lw	ra,12(sp)
d:\CH573FEVT\LaserRangeFinder\obj/../StdPeriphDriver/CH57x_uart1.c:46
    x = 10 * GetSysClock() / 8 / baudrate;
     c60:	838d                	srli	a5,a5,0x3
     c62:	0287d7b3          	divu	a5,a5,s0
d:\CH573FEVT\LaserRangeFinder\obj/../StdPeriphDriver/CH57x_uart1.c:49
}
     c66:	4422                	lw	s0,8(sp)
d:\CH573FEVT\LaserRangeFinder\obj/../StdPeriphDriver/CH57x_uart1.c:47
    x = (x + 5) / 10;
     c68:	0795                	addi	a5,a5,5
     c6a:	02e7d7b3          	divu	a5,a5,a4
d:\CH573FEVT\LaserRangeFinder\obj/../StdPeriphDriver/CH57x_uart1.c:48
    R16_UART1_DL = (uint16_t)x;
     c6e:	40003737          	lui	a4,0x40003
     c72:	07c2                	slli	a5,a5,0x10
     c74:	83c1                	srli	a5,a5,0x10
     c76:	40f71623          	sh	a5,1036(a4) # 4000340c <_eusrstack+0x1fffb40c>
d:\CH573FEVT\LaserRangeFinder\obj/../StdPeriphDriver/CH57x_uart1.c:49
}
     c7a:	0141                	addi	sp,sp,16
     c7c:	8082                	ret

00000c7e <UART1_DefInit>:
UART1_DefInit():
d:\CH573FEVT\LaserRangeFinder\obj/../StdPeriphDriver/CH57x_uart1.c:26
    UART1_BaudRateCfg(115200);
     c7e:	6571                	lui	a0,0x1c
d:\CH573FEVT\LaserRangeFinder\obj/../StdPeriphDriver/CH57x_uart1.c:25
{
     c80:	1141                	addi	sp,sp,-16
d:\CH573FEVT\LaserRangeFinder\obj/../StdPeriphDriver/CH57x_uart1.c:26
    UART1_BaudRateCfg(115200);
     c82:	20050513          	addi	a0,a0,512 # 1c200 <_data_lma+0x1a218>
d:\CH573FEVT\LaserRangeFinder\obj/../StdPeriphDriver/CH57x_uart1.c:25
{
     c86:	c606                	sw	ra,12(sp)
d:\CH573FEVT\LaserRangeFinder\obj/../StdPeriphDriver/CH57x_uart1.c:26
    UART1_BaudRateCfg(115200);
     c88:	37d9                	jal	c4e <UART1_BaudRateCfg>
d:\CH573FEVT\LaserRangeFinder\obj/../StdPeriphDriver/CH57x_uart1.c:27
    R8_UART1_FCR = (2 << 6) | RB_FCR_TX_FIFO_CLR | RB_FCR_RX_FIFO_CLR | RB_FCR_FIFO_EN; // FIFO打开，触发点4字节
     c8a:	400037b7          	lui	a5,0x40003
     c8e:	f8700713          	li	a4,-121
     c92:	40e78123          	sb	a4,1026(a5) # 40003402 <_eusrstack+0x1fffb402>
d:\CH573FEVT\LaserRangeFinder\obj/../StdPeriphDriver/CH57x_uart1.c:28
    R8_UART1_LCR = RB_LCR_WORD_SZ;
     c96:	470d                	li	a4,3
     c98:	40e781a3          	sb	a4,1027(a5)
d:\CH573FEVT\LaserRangeFinder\obj/../StdPeriphDriver/CH57x_uart1.c:29
    R8_UART1_IER = RB_IER_TXD_EN;
     c9c:	04000713          	li	a4,64
     ca0:	40e780a3          	sb	a4,1025(a5)
d:\CH573FEVT\LaserRangeFinder\obj/../StdPeriphDriver/CH57x_uart1.c:30
    R8_UART1_DIV = 1;
     ca4:	4705                	li	a4,1
     ca6:	40e78723          	sb	a4,1038(a5)
d:\CH573FEVT\LaserRangeFinder\obj/../StdPeriphDriver/CH57x_uart1.c:31
}
     caa:	40b2                	lw	ra,12(sp)
     cac:	0141                	addi	sp,sp,16
     cae:	8082                	ret

00000cb0 <iprintf>:
printf():
     cb0:	7139                	addi	sp,sp,-64
     cb2:	da3e                	sw	a5,52(sp)
     cb4:	d22e                	sw	a1,36(sp)
     cb6:	d432                	sw	a2,40(sp)
     cb8:	d636                	sw	a3,44(sp)
     cba:	d83a                	sw	a4,48(sp)
     cbc:	dc42                	sw	a6,56(sp)
     cbe:	de46                	sw	a7,60(sp)
     cc0:	20003797          	auipc	a5,0x20003
     cc4:	3b478793          	addi	a5,a5,948 # 20004074 <_impure_ptr>
     cc8:	cc22                	sw	s0,24(sp)
     cca:	4380                	lw	s0,0(a5)
     ccc:	ca26                	sw	s1,20(sp)
     cce:	ce06                	sw	ra,28(sp)
     cd0:	84aa                	mv	s1,a0
     cd2:	c409                	beqz	s0,cdc <iprintf+0x2c>
     cd4:	4c1c                	lw	a5,24(s0)
     cd6:	e399                	bnez	a5,cdc <iprintf+0x2c>
     cd8:	8522                	mv	a0,s0
     cda:	2335                	jal	1206 <__sinit>
     cdc:	440c                	lw	a1,8(s0)
     cde:	1054                	addi	a3,sp,36
     ce0:	8626                	mv	a2,s1
     ce2:	8522                	mv	a0,s0
     ce4:	c636                	sw	a3,12(sp)
     ce6:	17f000ef          	jal	ra,1664 <_vfiprintf_r>
     cea:	40f2                	lw	ra,28(sp)
     cec:	4462                	lw	s0,24(sp)
     cee:	44d2                	lw	s1,20(sp)
     cf0:	6121                	addi	sp,sp,64
     cf2:	8082                	ret

00000cf4 <_puts_r>:
_puts_r():
     cf4:	1101                	addi	sp,sp,-32
     cf6:	ca26                	sw	s1,20(sp)
     cf8:	c84a                	sw	s2,16(sp)
     cfa:	ce06                	sw	ra,28(sp)
     cfc:	cc22                	sw	s0,24(sp)
     cfe:	c64e                	sw	s3,12(sp)
     d00:	c452                	sw	s4,8(sp)
     d02:	84aa                	mv	s1,a0
     d04:	892e                	mv	s2,a1
     d06:	c501                	beqz	a0,d0e <_puts_r+0x1a>
     d08:	4d1c                	lw	a5,24(a0)
     d0a:	e391                	bnez	a5,d0e <_puts_r+0x1a>
     d0c:	29ed                	jal	1206 <__sinit>
     d0e:	4c9c                	lw	a5,24(s1)
     d10:	4480                	lw	s0,8(s1)
     d12:	e399                	bnez	a5,d18 <_puts_r+0x24>
     d14:	8526                	mv	a0,s1
     d16:	29c5                	jal	1206 <__sinit>
     d18:	00001797          	auipc	a5,0x1
     d1c:	25078793          	addi	a5,a5,592 # 1f68 <__sf_fake_stdin>
     d20:	02f41c63          	bne	s0,a5,d58 <_puts_r+0x64>
     d24:	40c0                	lw	s0,4(s1)
     d26:	00c45783          	lhu	a5,12(s0)
     d2a:	8ba1                	andi	a5,a5,8
     d2c:	c7b1                	beqz	a5,d78 <_puts_r+0x84>
     d2e:	481c                	lw	a5,16(s0)
     d30:	c7a1                	beqz	a5,d78 <_puts_r+0x84>
     d32:	59fd                	li	s3,-1
     d34:	4a29                	li	s4,10
     d36:	441c                	lw	a5,8(s0)
     d38:	00094583          	lbu	a1,0(s2)
     d3c:	17fd                	addi	a5,a5,-1
     d3e:	e9b1                	bnez	a1,d92 <_puts_r+0x9e>
     d40:	c41c                	sw	a5,8(s0)
     d42:	0607de63          	bgez	a5,dbe <_puts_r+0xca>
     d46:	8622                	mv	a2,s0
     d48:	45a9                	li	a1,10
     d4a:	8526                	mv	a0,s1
     d4c:	2841                	jal	ddc <__swbuf_r>
     d4e:	57fd                	li	a5,-1
     d50:	02f50863          	beq	a0,a5,d80 <_puts_r+0x8c>
     d54:	4529                	li	a0,10
     d56:	a035                	j	d82 <_puts_r+0x8e>
     d58:	00001797          	auipc	a5,0x1
     d5c:	23078793          	addi	a5,a5,560 # 1f88 <__sf_fake_stdout>
     d60:	00f41463          	bne	s0,a5,d68 <_puts_r+0x74>
     d64:	4480                	lw	s0,8(s1)
     d66:	b7c1                	j	d26 <_puts_r+0x32>
     d68:	00001797          	auipc	a5,0x1
     d6c:	1e078793          	addi	a5,a5,480 # 1f48 <__sf_fake_stderr>
     d70:	faf41be3          	bne	s0,a5,d26 <_puts_r+0x32>
     d74:	44c0                	lw	s0,12(s1)
     d76:	bf45                	j	d26 <_puts_r+0x32>
     d78:	85a2                	mv	a1,s0
     d7a:	8526                	mv	a0,s1
     d7c:	2205                	jal	e9c <__swsetup_r>
     d7e:	d955                	beqz	a0,d32 <_puts_r+0x3e>
     d80:	557d                	li	a0,-1
     d82:	40f2                	lw	ra,28(sp)
     d84:	4462                	lw	s0,24(sp)
     d86:	44d2                	lw	s1,20(sp)
     d88:	4942                	lw	s2,16(sp)
     d8a:	49b2                	lw	s3,12(sp)
     d8c:	4a22                	lw	s4,8(sp)
     d8e:	6105                	addi	sp,sp,32
     d90:	8082                	ret
     d92:	c41c                	sw	a5,8(s0)
     d94:	0905                	addi	s2,s2,1
     d96:	0007d763          	bgez	a5,da4 <_puts_r+0xb0>
     d9a:	4c18                	lw	a4,24(s0)
     d9c:	00e7cb63          	blt	a5,a4,db2 <_puts_r+0xbe>
     da0:	01458963          	beq	a1,s4,db2 <_puts_r+0xbe>
     da4:	401c                	lw	a5,0(s0)
     da6:	00178713          	addi	a4,a5,1
     daa:	c018                	sw	a4,0(s0)
     dac:	00b78023          	sb	a1,0(a5)
     db0:	b759                	j	d36 <_puts_r+0x42>
     db2:	8622                	mv	a2,s0
     db4:	8526                	mv	a0,s1
     db6:	201d                	jal	ddc <__swbuf_r>
     db8:	f7351fe3          	bne	a0,s3,d36 <_puts_r+0x42>
     dbc:	b7d1                	j	d80 <_puts_r+0x8c>
     dbe:	401c                	lw	a5,0(s0)
     dc0:	00178713          	addi	a4,a5,1
     dc4:	c018                	sw	a4,0(s0)
     dc6:	4729                	li	a4,10
     dc8:	00e78023          	sb	a4,0(a5)
     dcc:	b761                	j	d54 <_puts_r+0x60>

00000dce <puts>:
puts():
     dce:	20003797          	auipc	a5,0x20003
     dd2:	2a678793          	addi	a5,a5,678 # 20004074 <_impure_ptr>
     dd6:	85aa                	mv	a1,a0
     dd8:	4388                	lw	a0,0(a5)
     dda:	bf29                	j	cf4 <_puts_r>

00000ddc <__swbuf_r>:
__swbuf_r():
     ddc:	1101                	addi	sp,sp,-32
     dde:	cc22                	sw	s0,24(sp)
     de0:	ca26                	sw	s1,20(sp)
     de2:	c84a                	sw	s2,16(sp)
     de4:	ce06                	sw	ra,28(sp)
     de6:	c64e                	sw	s3,12(sp)
     de8:	84aa                	mv	s1,a0
     dea:	892e                	mv	s2,a1
     dec:	8432                	mv	s0,a2
     dee:	c501                	beqz	a0,df6 <__swbuf_r+0x1a>
     df0:	4d1c                	lw	a5,24(a0)
     df2:	e391                	bnez	a5,df6 <__swbuf_r+0x1a>
     df4:	2909                	jal	1206 <__sinit>
     df6:	00001797          	auipc	a5,0x1
     dfa:	17278793          	addi	a5,a5,370 # 1f68 <__sf_fake_stdin>
     dfe:	06f41963          	bne	s0,a5,e70 <__swbuf_r+0x94>
     e02:	40c0                	lw	s0,4(s1)
     e04:	4c1c                	lw	a5,24(s0)
     e06:	c41c                	sw	a5,8(s0)
     e08:	00c45783          	lhu	a5,12(s0)
     e0c:	8ba1                	andi	a5,a5,8
     e0e:	c3c9                	beqz	a5,e90 <__swbuf_r+0xb4>
     e10:	481c                	lw	a5,16(s0)
     e12:	cfbd                	beqz	a5,e90 <__swbuf_r+0xb4>
     e14:	481c                	lw	a5,16(s0)
     e16:	4008                	lw	a0,0(s0)
     e18:	0ff97993          	andi	s3,s2,255
     e1c:	0ff97913          	andi	s2,s2,255
     e20:	8d1d                	sub	a0,a0,a5
     e22:	485c                	lw	a5,20(s0)
     e24:	00f54663          	blt	a0,a5,e30 <__swbuf_r+0x54>
     e28:	85a2                	mv	a1,s0
     e2a:	8526                	mv	a0,s1
     e2c:	2c75                	jal	10e8 <_fflush_r>
     e2e:	e52d                	bnez	a0,e98 <__swbuf_r+0xbc>
     e30:	441c                	lw	a5,8(s0)
     e32:	0505                	addi	a0,a0,1
     e34:	17fd                	addi	a5,a5,-1
     e36:	c41c                	sw	a5,8(s0)
     e38:	401c                	lw	a5,0(s0)
     e3a:	00178713          	addi	a4,a5,1
     e3e:	c018                	sw	a4,0(s0)
     e40:	01378023          	sb	s3,0(a5)
     e44:	485c                	lw	a5,20(s0)
     e46:	00a78963          	beq	a5,a0,e58 <__swbuf_r+0x7c>
     e4a:	00c45783          	lhu	a5,12(s0)
     e4e:	8b85                	andi	a5,a5,1
     e50:	cb81                	beqz	a5,e60 <__swbuf_r+0x84>
     e52:	47a9                	li	a5,10
     e54:	00f91663          	bne	s2,a5,e60 <__swbuf_r+0x84>
     e58:	85a2                	mv	a1,s0
     e5a:	8526                	mv	a0,s1
     e5c:	2471                	jal	10e8 <_fflush_r>
     e5e:	ed0d                	bnez	a0,e98 <__swbuf_r+0xbc>
     e60:	40f2                	lw	ra,28(sp)
     e62:	4462                	lw	s0,24(sp)
     e64:	854a                	mv	a0,s2
     e66:	44d2                	lw	s1,20(sp)
     e68:	4942                	lw	s2,16(sp)
     e6a:	49b2                	lw	s3,12(sp)
     e6c:	6105                	addi	sp,sp,32
     e6e:	8082                	ret
     e70:	00001797          	auipc	a5,0x1
     e74:	11878793          	addi	a5,a5,280 # 1f88 <__sf_fake_stdout>
     e78:	00f41463          	bne	s0,a5,e80 <__swbuf_r+0xa4>
     e7c:	4480                	lw	s0,8(s1)
     e7e:	b759                	j	e04 <__swbuf_r+0x28>
     e80:	00001797          	auipc	a5,0x1
     e84:	0c878793          	addi	a5,a5,200 # 1f48 <__sf_fake_stderr>
     e88:	f6f41ee3          	bne	s0,a5,e04 <__swbuf_r+0x28>
     e8c:	44c0                	lw	s0,12(s1)
     e8e:	bf9d                	j	e04 <__swbuf_r+0x28>
     e90:	85a2                	mv	a1,s0
     e92:	8526                	mv	a0,s1
     e94:	2021                	jal	e9c <__swsetup_r>
     e96:	dd3d                	beqz	a0,e14 <__swbuf_r+0x38>
     e98:	597d                	li	s2,-1
     e9a:	b7d9                	j	e60 <__swbuf_r+0x84>

00000e9c <__swsetup_r>:
__swsetup_r():
     e9c:	1141                	addi	sp,sp,-16
     e9e:	20003797          	auipc	a5,0x20003
     ea2:	1d678793          	addi	a5,a5,470 # 20004074 <_impure_ptr>
     ea6:	c226                	sw	s1,4(sp)
     ea8:	4384                	lw	s1,0(a5)
     eaa:	c422                	sw	s0,8(sp)
     eac:	c04a                	sw	s2,0(sp)
     eae:	c606                	sw	ra,12(sp)
     eb0:	892a                	mv	s2,a0
     eb2:	842e                	mv	s0,a1
     eb4:	c489                	beqz	s1,ebe <__swsetup_r+0x22>
     eb6:	4c9c                	lw	a5,24(s1)
     eb8:	e399                	bnez	a5,ebe <__swsetup_r+0x22>
     eba:	8526                	mv	a0,s1
     ebc:	26a9                	jal	1206 <__sinit>
     ebe:	00001797          	auipc	a5,0x1
     ec2:	0aa78793          	addi	a5,a5,170 # 1f68 <__sf_fake_stdin>
     ec6:	02f41c63          	bne	s0,a5,efe <__swsetup_r+0x62>
     eca:	40c0                	lw	s0,4(s1)
     ecc:	00c41703          	lh	a4,12(s0)
     ed0:	01071793          	slli	a5,a4,0x10
     ed4:	83c1                	srli	a5,a5,0x10
     ed6:	0087f693          	andi	a3,a5,8
     eda:	eeb5                	bnez	a3,f56 <__swsetup_r+0xba>
     edc:	0107f693          	andi	a3,a5,16
     ee0:	ee9d                	bnez	a3,f1e <__swsetup_r+0x82>
     ee2:	47a5                	li	a5,9
     ee4:	00f92023          	sw	a5,0(s2)
     ee8:	04076713          	ori	a4,a4,64
     eec:	00e41623          	sh	a4,12(s0)
     ef0:	557d                	li	a0,-1
     ef2:	40b2                	lw	ra,12(sp)
     ef4:	4422                	lw	s0,8(sp)
     ef6:	4492                	lw	s1,4(sp)
     ef8:	4902                	lw	s2,0(sp)
     efa:	0141                	addi	sp,sp,16
     efc:	8082                	ret
     efe:	00001797          	auipc	a5,0x1
     f02:	08a78793          	addi	a5,a5,138 # 1f88 <__sf_fake_stdout>
     f06:	00f41463          	bne	s0,a5,f0e <__swsetup_r+0x72>
     f0a:	4480                	lw	s0,8(s1)
     f0c:	b7c1                	j	ecc <__swsetup_r+0x30>
     f0e:	00001797          	auipc	a5,0x1
     f12:	03a78793          	addi	a5,a5,58 # 1f48 <__sf_fake_stderr>
     f16:	faf41be3          	bne	s0,a5,ecc <__swsetup_r+0x30>
     f1a:	44c0                	lw	s0,12(s1)
     f1c:	bf45                	j	ecc <__swsetup_r+0x30>
     f1e:	8b91                	andi	a5,a5,4
     f20:	c78d                	beqz	a5,f4a <__swsetup_r+0xae>
     f22:	584c                	lw	a1,52(s0)
     f24:	c989                	beqz	a1,f36 <__swsetup_r+0x9a>
     f26:	04440793          	addi	a5,s0,68
     f2a:	00f58463          	beq	a1,a5,f32 <__swsetup_r+0x96>
     f2e:	854a                	mv	a0,s2
     f30:	2391                	jal	1474 <_free_r>
     f32:	02042a23          	sw	zero,52(s0)
     f36:	00c45783          	lhu	a5,12(s0)
     f3a:	00042223          	sw	zero,4(s0)
     f3e:	fdb7f793          	andi	a5,a5,-37
     f42:	00f41623          	sh	a5,12(s0)
     f46:	481c                	lw	a5,16(s0)
     f48:	c01c                	sw	a5,0(s0)
     f4a:	00c45783          	lhu	a5,12(s0)
     f4e:	0087e793          	ori	a5,a5,8
     f52:	00f41623          	sh	a5,12(s0)
     f56:	481c                	lw	a5,16(s0)
     f58:	ef81                	bnez	a5,f70 <__swsetup_r+0xd4>
     f5a:	00c45783          	lhu	a5,12(s0)
     f5e:	20000713          	li	a4,512
     f62:	2807f793          	andi	a5,a5,640
     f66:	00e78563          	beq	a5,a4,f70 <__swsetup_r+0xd4>
     f6a:	85a2                	mv	a1,s0
     f6c:	854a                	mv	a0,s2
     f6e:	21a5                	jal	13d6 <__smakebuf_r>
     f70:	00c45783          	lhu	a5,12(s0)
     f74:	0017f713          	andi	a4,a5,1
     f78:	c705                	beqz	a4,fa0 <__swsetup_r+0x104>
     f7a:	485c                	lw	a5,20(s0)
     f7c:	00042423          	sw	zero,8(s0)
     f80:	40f007b3          	neg	a5,a5
     f84:	cc1c                	sw	a5,24(s0)
     f86:	481c                	lw	a5,16(s0)
     f88:	4501                	li	a0,0
     f8a:	f7a5                	bnez	a5,ef2 <__swsetup_r+0x56>
     f8c:	00c41783          	lh	a5,12(s0)
     f90:	0807f713          	andi	a4,a5,128
     f94:	df39                	beqz	a4,ef2 <__swsetup_r+0x56>
     f96:	0407e793          	ori	a5,a5,64
     f9a:	00f41623          	sh	a5,12(s0)
     f9e:	bf89                	j	ef0 <__swsetup_r+0x54>
     fa0:	8b89                	andi	a5,a5,2
     fa2:	4701                	li	a4,0
     fa4:	e391                	bnez	a5,fa8 <__swsetup_r+0x10c>
     fa6:	4858                	lw	a4,20(s0)
     fa8:	c418                	sw	a4,8(s0)
     faa:	bff1                	j	f86 <__swsetup_r+0xea>

00000fac <__sflush_r>:
__sflush_r():
     fac:	00c5d783          	lhu	a5,12(a1)
     fb0:	1101                	addi	sp,sp,-32
     fb2:	cc22                	sw	s0,24(sp)
     fb4:	ca26                	sw	s1,20(sp)
     fb6:	ce06                	sw	ra,28(sp)
     fb8:	c84a                	sw	s2,16(sp)
     fba:	c64e                	sw	s3,12(sp)
     fbc:	0087f713          	andi	a4,a5,8
     fc0:	84aa                	mv	s1,a0
     fc2:	842e                	mv	s0,a1
     fc4:	ef71                	bnez	a4,10a0 <__sflush_r+0xf4>
     fc6:	41d8                	lw	a4,4(a1)
     fc8:	00e04d63          	bgtz	a4,fe2 <__sflush_r+0x36>
     fcc:	41b8                	lw	a4,64(a1)
     fce:	00e04a63          	bgtz	a4,fe2 <__sflush_r+0x36>
     fd2:	4501                	li	a0,0
     fd4:	40f2                	lw	ra,28(sp)
     fd6:	4462                	lw	s0,24(sp)
     fd8:	44d2                	lw	s1,20(sp)
     fda:	4942                	lw	s2,16(sp)
     fdc:	49b2                	lw	s3,12(sp)
     fde:	6105                	addi	sp,sp,32
     fe0:	8082                	ret
     fe2:	5458                	lw	a4,44(s0)
     fe4:	d77d                	beqz	a4,fd2 <__sflush_r+0x26>
     fe6:	0004a903          	lw	s2,0(s1) # 1000 <__sflush_r+0x54>
     fea:	01379693          	slli	a3,a5,0x13
     fee:	0004a023          	sw	zero,0(s1)
     ff2:	0606dd63          	bgez	a3,106c <__sflush_r+0xc0>
     ff6:	4870                	lw	a2,84(s0)
     ff8:	00c45783          	lhu	a5,12(s0)
     ffc:	8b91                	andi	a5,a5,4
     ffe:	c799                	beqz	a5,100c <__sflush_r+0x60>
    1000:	405c                	lw	a5,4(s0)
    1002:	8e1d                	sub	a2,a2,a5
    1004:	585c                	lw	a5,52(s0)
    1006:	c399                	beqz	a5,100c <__sflush_r+0x60>
    1008:	403c                	lw	a5,64(s0)
    100a:	8e1d                	sub	a2,a2,a5
    100c:	545c                	lw	a5,44(s0)
    100e:	500c                	lw	a1,32(s0)
    1010:	4681                	li	a3,0
    1012:	8526                	mv	a0,s1
    1014:	9782                	jalr	a5
    1016:	57fd                	li	a5,-1
    1018:	00c45703          	lhu	a4,12(s0)
    101c:	00f51d63          	bne	a0,a5,1036 <__sflush_r+0x8a>
    1020:	4094                	lw	a3,0(s1)
    1022:	47f5                	li	a5,29
    1024:	06d7e863          	bltu	a5,a3,1094 <__sflush_r+0xe8>
    1028:	204007b7          	lui	a5,0x20400
    102c:	0785                	addi	a5,a5,1
    102e:	00d7d7b3          	srl	a5,a5,a3
    1032:	8b85                	andi	a5,a5,1
    1034:	c3a5                	beqz	a5,1094 <__sflush_r+0xe8>
    1036:	481c                	lw	a5,16(s0)
    1038:	00042223          	sw	zero,4(s0)
    103c:	c01c                	sw	a5,0(s0)
    103e:	01371793          	slli	a5,a4,0x13
    1042:	0007d863          	bgez	a5,1052 <__sflush_r+0xa6>
    1046:	57fd                	li	a5,-1
    1048:	00f51463          	bne	a0,a5,1050 <__sflush_r+0xa4>
    104c:	409c                	lw	a5,0(s1)
    104e:	e391                	bnez	a5,1052 <__sflush_r+0xa6>
    1050:	c868                	sw	a0,84(s0)
    1052:	584c                	lw	a1,52(s0)
    1054:	0124a023          	sw	s2,0(s1)
    1058:	ddad                	beqz	a1,fd2 <__sflush_r+0x26>
    105a:	04440793          	addi	a5,s0,68
    105e:	00f58463          	beq	a1,a5,1066 <__sflush_r+0xba>
    1062:	8526                	mv	a0,s1
    1064:	2901                	jal	1474 <_free_r>
    1066:	02042a23          	sw	zero,52(s0)
    106a:	b7a5                	j	fd2 <__sflush_r+0x26>
    106c:	500c                	lw	a1,32(s0)
    106e:	4601                	li	a2,0
    1070:	4685                	li	a3,1
    1072:	8526                	mv	a0,s1
    1074:	9702                	jalr	a4
    1076:	57fd                	li	a5,-1
    1078:	862a                	mv	a2,a0
    107a:	f6f51fe3          	bne	a0,a5,ff8 <__sflush_r+0x4c>
    107e:	409c                	lw	a5,0(s1)
    1080:	dfa5                	beqz	a5,ff8 <__sflush_r+0x4c>
    1082:	4775                	li	a4,29
    1084:	00e78563          	beq	a5,a4,108e <__sflush_r+0xe2>
    1088:	4759                	li	a4,22
    108a:	04e79463          	bne	a5,a4,10d2 <__sflush_r+0x126>
    108e:	0124a023          	sw	s2,0(s1)
    1092:	b781                	j	fd2 <__sflush_r+0x26>
    1094:	04076713          	ori	a4,a4,64
    1098:	00e41623          	sh	a4,12(s0)
    109c:	557d                	li	a0,-1
    109e:	bf1d                	j	fd4 <__sflush_r+0x28>
    10a0:	0105a983          	lw	s3,16(a1)
    10a4:	f20987e3          	beqz	s3,fd2 <__sflush_r+0x26>
    10a8:	0005a903          	lw	s2,0(a1)
    10ac:	8b8d                	andi	a5,a5,3
    10ae:	0135a023          	sw	s3,0(a1)
    10b2:	41390933          	sub	s2,s2,s3
    10b6:	4701                	li	a4,0
    10b8:	e391                	bnez	a5,10bc <__sflush_r+0x110>
    10ba:	49d8                	lw	a4,20(a1)
    10bc:	c418                	sw	a4,8(s0)
    10be:	f1205ae3          	blez	s2,fd2 <__sflush_r+0x26>
    10c2:	541c                	lw	a5,40(s0)
    10c4:	500c                	lw	a1,32(s0)
    10c6:	86ca                	mv	a3,s2
    10c8:	864e                	mv	a2,s3
    10ca:	8526                	mv	a0,s1
    10cc:	9782                	jalr	a5
    10ce:	00a04963          	bgtz	a0,10e0 <__sflush_r+0x134>
    10d2:	00c45783          	lhu	a5,12(s0)
    10d6:	0407e793          	ori	a5,a5,64
    10da:	00f41623          	sh	a5,12(s0)
    10de:	bf7d                	j	109c <__sflush_r+0xf0>
    10e0:	99aa                	add	s3,s3,a0
    10e2:	40a90933          	sub	s2,s2,a0
    10e6:	bfe1                	j	10be <__sflush_r+0x112>

000010e8 <_fflush_r>:
_fflush_r():
    10e8:	499c                	lw	a5,16(a1)
    10ea:	cfb9                	beqz	a5,1148 <_fflush_r+0x60>
    10ec:	1101                	addi	sp,sp,-32
    10ee:	cc22                	sw	s0,24(sp)
    10f0:	ce06                	sw	ra,28(sp)
    10f2:	842a                	mv	s0,a0
    10f4:	c511                	beqz	a0,1100 <_fflush_r+0x18>
    10f6:	4d1c                	lw	a5,24(a0)
    10f8:	e781                	bnez	a5,1100 <_fflush_r+0x18>
    10fa:	c62e                	sw	a1,12(sp)
    10fc:	2229                	jal	1206 <__sinit>
    10fe:	45b2                	lw	a1,12(sp)
    1100:	00001797          	auipc	a5,0x1
    1104:	e6878793          	addi	a5,a5,-408 # 1f68 <__sf_fake_stdin>
    1108:	00f59b63          	bne	a1,a5,111e <_fflush_r+0x36>
    110c:	404c                	lw	a1,4(s0)
    110e:	00c59783          	lh	a5,12(a1)
    1112:	c795                	beqz	a5,113e <_fflush_r+0x56>
    1114:	8522                	mv	a0,s0
    1116:	4462                	lw	s0,24(sp)
    1118:	40f2                	lw	ra,28(sp)
    111a:	6105                	addi	sp,sp,32
    111c:	bd41                	j	fac <__sflush_r>
    111e:	00001797          	auipc	a5,0x1
    1122:	e6a78793          	addi	a5,a5,-406 # 1f88 <__sf_fake_stdout>
    1126:	00f59463          	bne	a1,a5,112e <_fflush_r+0x46>
    112a:	440c                	lw	a1,8(s0)
    112c:	b7cd                	j	110e <_fflush_r+0x26>
    112e:	00001797          	auipc	a5,0x1
    1132:	e1a78793          	addi	a5,a5,-486 # 1f48 <__sf_fake_stderr>
    1136:	fcf59ce3          	bne	a1,a5,110e <_fflush_r+0x26>
    113a:	444c                	lw	a1,12(s0)
    113c:	bfc9                	j	110e <_fflush_r+0x26>
    113e:	40f2                	lw	ra,28(sp)
    1140:	4462                	lw	s0,24(sp)
    1142:	4501                	li	a0,0
    1144:	6105                	addi	sp,sp,32
    1146:	8082                	ret
    1148:	4501                	li	a0,0
    114a:	8082                	ret

0000114c <std>:
std():
    114c:	1141                	addi	sp,sp,-16
    114e:	c422                	sw	s0,8(sp)
    1150:	c606                	sw	ra,12(sp)
    1152:	842a                	mv	s0,a0
    1154:	00b51623          	sh	a1,12(a0)
    1158:	00c51723          	sh	a2,14(a0)
    115c:	00052023          	sw	zero,0(a0)
    1160:	00052223          	sw	zero,4(a0)
    1164:	00052423          	sw	zero,8(a0)
    1168:	06052223          	sw	zero,100(a0)
    116c:	00052823          	sw	zero,16(a0)
    1170:	00052a23          	sw	zero,20(a0)
    1174:	00052c23          	sw	zero,24(a0)
    1178:	4621                	li	a2,8
    117a:	4581                	li	a1,0
    117c:	05c50513          	addi	a0,a0,92
    1180:	dd6ff0ef          	jal	ra,756 <memset>
    1184:	00001797          	auipc	a5,0x1
    1188:	b5678793          	addi	a5,a5,-1194 # 1cda <__sread>
    118c:	d05c                	sw	a5,36(s0)
    118e:	00001797          	auipc	a5,0x1
    1192:	b7c78793          	addi	a5,a5,-1156 # 1d0a <__swrite>
    1196:	d41c                	sw	a5,40(s0)
    1198:	00001797          	auipc	a5,0x1
    119c:	bc078793          	addi	a5,a5,-1088 # 1d58 <__sseek>
    11a0:	d45c                	sw	a5,44(s0)
    11a2:	00001797          	auipc	a5,0x1
    11a6:	bec78793          	addi	a5,a5,-1044 # 1d8e <__sclose>
    11aa:	d000                	sw	s0,32(s0)
    11ac:	d81c                	sw	a5,48(s0)
    11ae:	40b2                	lw	ra,12(sp)
    11b0:	4422                	lw	s0,8(sp)
    11b2:	0141                	addi	sp,sp,16
    11b4:	8082                	ret

000011b6 <_cleanup_r>:
_cleanup_r():
    11b6:	00000597          	auipc	a1,0x0
    11ba:	f3258593          	addi	a1,a1,-206 # 10e8 <_fflush_r>
    11be:	aa89                	j	1310 <_fwalk_reent>

000011c0 <__sfmoreglue>:
__sfmoreglue():
    11c0:	1141                	addi	sp,sp,-16
    11c2:	c226                	sw	s1,4(sp)
    11c4:	06800613          	li	a2,104
    11c8:	fff58493          	addi	s1,a1,-1
    11cc:	02c484b3          	mul	s1,s1,a2
    11d0:	c04a                	sw	s2,0(sp)
    11d2:	892e                	mv	s2,a1
    11d4:	c422                	sw	s0,8(sp)
    11d6:	c606                	sw	ra,12(sp)
    11d8:	07448593          	addi	a1,s1,116
    11dc:	26a1                	jal	1524 <_malloc_r>
    11de:	842a                	mv	s0,a0
    11e0:	cd01                	beqz	a0,11f8 <__sfmoreglue+0x38>
    11e2:	00052023          	sw	zero,0(a0)
    11e6:	01252223          	sw	s2,4(a0)
    11ea:	0531                	addi	a0,a0,12
    11ec:	c408                	sw	a0,8(s0)
    11ee:	06848613          	addi	a2,s1,104
    11f2:	4581                	li	a1,0
    11f4:	d62ff0ef          	jal	ra,756 <memset>
    11f8:	8522                	mv	a0,s0
    11fa:	40b2                	lw	ra,12(sp)
    11fc:	4422                	lw	s0,8(sp)
    11fe:	4492                	lw	s1,4(sp)
    1200:	4902                	lw	s2,0(sp)
    1202:	0141                	addi	sp,sp,16
    1204:	8082                	ret

00001206 <__sinit>:
__sinit():
    1206:	4d1c                	lw	a5,24(a0)
    1208:	e3bd                	bnez	a5,126e <__sinit+0x68>
    120a:	1141                	addi	sp,sp,-16
    120c:	c606                	sw	ra,12(sp)
    120e:	c422                	sw	s0,8(sp)
    1210:	00000797          	auipc	a5,0x0
    1214:	fa678793          	addi	a5,a5,-90 # 11b6 <_cleanup_r>
    1218:	d51c                	sw	a5,40(a0)
    121a:	00001797          	auipc	a5,0x1
    121e:	dca78793          	addi	a5,a5,-566 # 1fe4 <_global_impure_ptr>
    1222:	439c                	lw	a5,0(a5)
    1224:	04052423          	sw	zero,72(a0)
    1228:	04052623          	sw	zero,76(a0)
    122c:	04052823          	sw	zero,80(a0)
    1230:	00f51463          	bne	a0,a5,1238 <__sinit+0x32>
    1234:	4785                	li	a5,1
    1236:	cd1c                	sw	a5,24(a0)
    1238:	842a                	mv	s0,a0
    123a:	281d                	jal	1270 <__sfp>
    123c:	c048                	sw	a0,4(s0)
    123e:	8522                	mv	a0,s0
    1240:	2805                	jal	1270 <__sfp>
    1242:	c408                	sw	a0,8(s0)
    1244:	8522                	mv	a0,s0
    1246:	202d                	jal	1270 <__sfp>
    1248:	c448                	sw	a0,12(s0)
    124a:	4048                	lw	a0,4(s0)
    124c:	4601                	li	a2,0
    124e:	4591                	li	a1,4
    1250:	3df5                	jal	114c <std>
    1252:	4408                	lw	a0,8(s0)
    1254:	4605                	li	a2,1
    1256:	45a5                	li	a1,9
    1258:	3dd5                	jal	114c <std>
    125a:	4448                	lw	a0,12(s0)
    125c:	4609                	li	a2,2
    125e:	45c9                	li	a1,18
    1260:	35f5                	jal	114c <std>
    1262:	4785                	li	a5,1
    1264:	cc1c                	sw	a5,24(s0)
    1266:	40b2                	lw	ra,12(sp)
    1268:	4422                	lw	s0,8(sp)
    126a:	0141                	addi	sp,sp,16
    126c:	8082                	ret
    126e:	8082                	ret

00001270 <__sfp>:
__sfp():
    1270:	1141                	addi	sp,sp,-16
    1272:	00001797          	auipc	a5,0x1
    1276:	d7278793          	addi	a5,a5,-654 # 1fe4 <_global_impure_ptr>
    127a:	c226                	sw	s1,4(sp)
    127c:	4384                	lw	s1,0(a5)
    127e:	c04a                	sw	s2,0(sp)
    1280:	c606                	sw	ra,12(sp)
    1282:	4c9c                	lw	a5,24(s1)
    1284:	c422                	sw	s0,8(sp)
    1286:	892a                	mv	s2,a0
    1288:	e399                	bnez	a5,128e <__sfp+0x1e>
    128a:	8526                	mv	a0,s1
    128c:	3fad                	jal	1206 <__sinit>
    128e:	04848493          	addi	s1,s1,72
    1292:	4480                	lw	s0,8(s1)
    1294:	40dc                	lw	a5,4(s1)
    1296:	17fd                	addi	a5,a5,-1
    1298:	0007d663          	bgez	a5,12a4 <__sfp+0x34>
    129c:	409c                	lw	a5,0(s1)
    129e:	cfb9                	beqz	a5,12fc <__sfp+0x8c>
    12a0:	4084                	lw	s1,0(s1)
    12a2:	bfc5                	j	1292 <__sfp+0x22>
    12a4:	00c41703          	lh	a4,12(s0)
    12a8:	e739                	bnez	a4,12f6 <__sfp+0x86>
    12aa:	77c1                	lui	a5,0xffff0
    12ac:	0785                	addi	a5,a5,1
    12ae:	06042223          	sw	zero,100(s0)
    12b2:	00042023          	sw	zero,0(s0)
    12b6:	00042223          	sw	zero,4(s0)
    12ba:	00042423          	sw	zero,8(s0)
    12be:	c45c                	sw	a5,12(s0)
    12c0:	00042823          	sw	zero,16(s0)
    12c4:	00042a23          	sw	zero,20(s0)
    12c8:	00042c23          	sw	zero,24(s0)
    12cc:	4621                	li	a2,8
    12ce:	4581                	li	a1,0
    12d0:	05c40513          	addi	a0,s0,92
    12d4:	c82ff0ef          	jal	ra,756 <memset>
    12d8:	02042a23          	sw	zero,52(s0)
    12dc:	02042c23          	sw	zero,56(s0)
    12e0:	04042423          	sw	zero,72(s0)
    12e4:	04042623          	sw	zero,76(s0)
    12e8:	8522                	mv	a0,s0
    12ea:	40b2                	lw	ra,12(sp)
    12ec:	4422                	lw	s0,8(sp)
    12ee:	4492                	lw	s1,4(sp)
    12f0:	4902                	lw	s2,0(sp)
    12f2:	0141                	addi	sp,sp,16
    12f4:	8082                	ret
    12f6:	06840413          	addi	s0,s0,104
    12fa:	bf71                	j	1296 <__sfp+0x26>
    12fc:	4591                	li	a1,4
    12fe:	854a                	mv	a0,s2
    1300:	35c1                	jal	11c0 <__sfmoreglue>
    1302:	c088                	sw	a0,0(s1)
    1304:	fd51                	bnez	a0,12a0 <__sfp+0x30>
    1306:	47b1                	li	a5,12
    1308:	00f92023          	sw	a5,0(s2)
    130c:	4401                	li	s0,0
    130e:	bfe9                	j	12e8 <__sfp+0x78>

00001310 <_fwalk_reent>:
_fwalk_reent():
    1310:	7179                	addi	sp,sp,-48
    1312:	d422                	sw	s0,40(sp)
    1314:	d04a                	sw	s2,32(sp)
    1316:	cc52                	sw	s4,24(sp)
    1318:	ca56                	sw	s5,20(sp)
    131a:	c85a                	sw	s6,16(sp)
    131c:	c65e                	sw	s7,12(sp)
    131e:	d606                	sw	ra,44(sp)
    1320:	d226                	sw	s1,36(sp)
    1322:	ce4e                	sw	s3,28(sp)
    1324:	8a2a                	mv	s4,a0
    1326:	8aae                	mv	s5,a1
    1328:	04850413          	addi	s0,a0,72
    132c:	4901                	li	s2,0
    132e:	4b05                	li	s6,1
    1330:	5bfd                	li	s7,-1
    1332:	ec09                	bnez	s0,134c <_fwalk_reent+0x3c>
    1334:	50b2                	lw	ra,44(sp)
    1336:	5422                	lw	s0,40(sp)
    1338:	854a                	mv	a0,s2
    133a:	5492                	lw	s1,36(sp)
    133c:	5902                	lw	s2,32(sp)
    133e:	49f2                	lw	s3,28(sp)
    1340:	4a62                	lw	s4,24(sp)
    1342:	4ad2                	lw	s5,20(sp)
    1344:	4b42                	lw	s6,16(sp)
    1346:	4bb2                	lw	s7,12(sp)
    1348:	6145                	addi	sp,sp,48
    134a:	8082                	ret
    134c:	4404                	lw	s1,8(s0)
    134e:	00442983          	lw	s3,4(s0)
    1352:	19fd                	addi	s3,s3,-1
    1354:	0009d463          	bgez	s3,135c <_fwalk_reent+0x4c>
    1358:	4000                	lw	s0,0(s0)
    135a:	bfe1                	j	1332 <_fwalk_reent+0x22>
    135c:	00c4d783          	lhu	a5,12(s1)
    1360:	00fb7b63          	bgeu	s6,a5,1376 <_fwalk_reent+0x66>
    1364:	00e49783          	lh	a5,14(s1)
    1368:	01778763          	beq	a5,s7,1376 <_fwalk_reent+0x66>
    136c:	85a6                	mv	a1,s1
    136e:	8552                	mv	a0,s4
    1370:	9a82                	jalr	s5
    1372:	00a96933          	or	s2,s2,a0
    1376:	06848493          	addi	s1,s1,104
    137a:	bfe1                	j	1352 <_fwalk_reent+0x42>

0000137c <__swhatbuf_r>:
__swhatbuf_r():
    137c:	7119                	addi	sp,sp,-128
    137e:	daa6                	sw	s1,116(sp)
    1380:	84ae                	mv	s1,a1
    1382:	00e59583          	lh	a1,14(a1)
    1386:	dca2                	sw	s0,120(sp)
    1388:	de86                	sw	ra,124(sp)
    138a:	8432                	mv	s0,a2
    138c:	0005dc63          	bgez	a1,13a4 <__swhatbuf_r+0x28>
    1390:	00c4d783          	lhu	a5,12(s1)
    1394:	0006a023          	sw	zero,0(a3)
    1398:	0807f793          	andi	a5,a5,128
    139c:	e785                	bnez	a5,13c4 <__swhatbuf_r+0x48>
    139e:	40000793          	li	a5,1024
    13a2:	a01d                	j	13c8 <__swhatbuf_r+0x4c>
    13a4:	0830                	addi	a2,sp,24
    13a6:	c636                	sw	a3,12(sp)
    13a8:	243000ef          	jal	ra,1dea <_fstat_r>
    13ac:	46b2                	lw	a3,12(sp)
    13ae:	fe0541e3          	bltz	a0,1390 <__swhatbuf_r+0x14>
    13b2:	4772                	lw	a4,28(sp)
    13b4:	67bd                	lui	a5,0xf
    13b6:	8ff9                	and	a5,a5,a4
    13b8:	7779                	lui	a4,0xffffe
    13ba:	97ba                	add	a5,a5,a4
    13bc:	0017b793          	seqz	a5,a5
    13c0:	c29c                	sw	a5,0(a3)
    13c2:	bff1                	j	139e <__swhatbuf_r+0x22>
    13c4:	04000793          	li	a5,64
    13c8:	c01c                	sw	a5,0(s0)
    13ca:	50f6                	lw	ra,124(sp)
    13cc:	5466                	lw	s0,120(sp)
    13ce:	54d6                	lw	s1,116(sp)
    13d0:	4501                	li	a0,0
    13d2:	6109                	addi	sp,sp,128
    13d4:	8082                	ret

000013d6 <__smakebuf_r>:
__smakebuf_r():
    13d6:	00c5d783          	lhu	a5,12(a1)
    13da:	1101                	addi	sp,sp,-32
    13dc:	cc22                	sw	s0,24(sp)
    13de:	ce06                	sw	ra,28(sp)
    13e0:	ca26                	sw	s1,20(sp)
    13e2:	c84a                	sw	s2,16(sp)
    13e4:	8b89                	andi	a5,a5,2
    13e6:	842e                	mv	s0,a1
    13e8:	cf89                	beqz	a5,1402 <__smakebuf_r+0x2c>
    13ea:	04740793          	addi	a5,s0,71
    13ee:	c01c                	sw	a5,0(s0)
    13f0:	c81c                	sw	a5,16(s0)
    13f2:	4785                	li	a5,1
    13f4:	c85c                	sw	a5,20(s0)
    13f6:	40f2                	lw	ra,28(sp)
    13f8:	4462                	lw	s0,24(sp)
    13fa:	44d2                	lw	s1,20(sp)
    13fc:	4942                	lw	s2,16(sp)
    13fe:	6105                	addi	sp,sp,32
    1400:	8082                	ret
    1402:	0074                	addi	a3,sp,12
    1404:	0030                	addi	a2,sp,8
    1406:	84aa                	mv	s1,a0
    1408:	3f95                	jal	137c <__swhatbuf_r>
    140a:	45a2                	lw	a1,8(sp)
    140c:	892a                	mv	s2,a0
    140e:	8526                	mv	a0,s1
    1410:	2a11                	jal	1524 <_malloc_r>
    1412:	ed01                	bnez	a0,142a <__smakebuf_r+0x54>
    1414:	00c41783          	lh	a5,12(s0)
    1418:	2007f713          	andi	a4,a5,512
    141c:	ff69                	bnez	a4,13f6 <__smakebuf_r+0x20>
    141e:	9bf1                	andi	a5,a5,-4
    1420:	0027e793          	ori	a5,a5,2
    1424:	00f41623          	sh	a5,12(s0)
    1428:	b7c9                	j	13ea <__smakebuf_r+0x14>
    142a:	00000797          	auipc	a5,0x0
    142e:	d8c78793          	addi	a5,a5,-628 # 11b6 <_cleanup_r>
    1432:	d49c                	sw	a5,40(s1)
    1434:	00c45783          	lhu	a5,12(s0)
    1438:	c008                	sw	a0,0(s0)
    143a:	c808                	sw	a0,16(s0)
    143c:	0807e793          	ori	a5,a5,128
    1440:	00f41623          	sh	a5,12(s0)
    1444:	47a2                	lw	a5,8(sp)
    1446:	c85c                	sw	a5,20(s0)
    1448:	47b2                	lw	a5,12(sp)
    144a:	cf91                	beqz	a5,1466 <__smakebuf_r+0x90>
    144c:	00e41583          	lh	a1,14(s0)
    1450:	8526                	mv	a0,s1
    1452:	1c3000ef          	jal	ra,1e14 <_isatty_r>
    1456:	c901                	beqz	a0,1466 <__smakebuf_r+0x90>
    1458:	00c45783          	lhu	a5,12(s0)
    145c:	9bf1                	andi	a5,a5,-4
    145e:	0017e793          	ori	a5,a5,1
    1462:	00f41623          	sh	a5,12(s0)
    1466:	00c45783          	lhu	a5,12(s0)
    146a:	00f96933          	or	s2,s2,a5
    146e:	01241623          	sh	s2,12(s0)
    1472:	b751                	j	13f6 <__smakebuf_r+0x20>

00001474 <_free_r>:
_free_r():
    1474:	c5dd                	beqz	a1,1522 <_free_r+0xae>
    1476:	ffc5a783          	lw	a5,-4(a1)
    147a:	1141                	addi	sp,sp,-16
    147c:	c422                	sw	s0,8(sp)
    147e:	c606                	sw	ra,12(sp)
    1480:	c226                	sw	s1,4(sp)
    1482:	ffc58413          	addi	s0,a1,-4
    1486:	0007d363          	bgez	a5,148c <_free_r+0x18>
    148a:	943e                	add	s0,s0,a5
    148c:	84aa                	mv	s1,a0
    148e:	1f5000ef          	jal	ra,1e82 <__malloc_lock>
    1492:	20003797          	auipc	a5,0x20003
    1496:	be678793          	addi	a5,a5,-1050 # 20004078 <_edata>
    149a:	439c                	lw	a5,0(a5)
    149c:	ef91                	bnez	a5,14b8 <_free_r+0x44>
    149e:	00042223          	sw	zero,4(s0)
    14a2:	20003797          	auipc	a5,0x20003
    14a6:	bc87ab23          	sw	s0,-1066(a5) # 20004078 <_edata>
    14aa:	4422                	lw	s0,8(sp)
    14ac:	40b2                	lw	ra,12(sp)
    14ae:	8526                	mv	a0,s1
    14b0:	4492                	lw	s1,4(sp)
    14b2:	0141                	addi	sp,sp,16
    14b4:	1d10006f          	j	1e84 <__malloc_unlock>
    14b8:	00f47e63          	bgeu	s0,a5,14d4 <_free_r+0x60>
    14bc:	4014                	lw	a3,0(s0)
    14be:	00d40733          	add	a4,s0,a3
    14c2:	00e79663          	bne	a5,a4,14ce <_free_r+0x5a>
    14c6:	4398                	lw	a4,0(a5)
    14c8:	43dc                	lw	a5,4(a5)
    14ca:	9736                	add	a4,a4,a3
    14cc:	c018                	sw	a4,0(s0)
    14ce:	c05c                	sw	a5,4(s0)
    14d0:	bfc9                	j	14a2 <_free_r+0x2e>
    14d2:	87ba                	mv	a5,a4
    14d4:	43d8                	lw	a4,4(a5)
    14d6:	c319                	beqz	a4,14dc <_free_r+0x68>
    14d8:	fee47de3          	bgeu	s0,a4,14d2 <_free_r+0x5e>
    14dc:	4394                	lw	a3,0(a5)
    14de:	00d78633          	add	a2,a5,a3
    14e2:	00861f63          	bne	a2,s0,1500 <_free_r+0x8c>
    14e6:	4010                	lw	a2,0(s0)
    14e8:	96b2                	add	a3,a3,a2
    14ea:	c394                	sw	a3,0(a5)
    14ec:	00d78633          	add	a2,a5,a3
    14f0:	fac71de3          	bne	a4,a2,14aa <_free_r+0x36>
    14f4:	4310                	lw	a2,0(a4)
    14f6:	4358                	lw	a4,4(a4)
    14f8:	96b2                	add	a3,a3,a2
    14fa:	c394                	sw	a3,0(a5)
    14fc:	c3d8                	sw	a4,4(a5)
    14fe:	b775                	j	14aa <_free_r+0x36>
    1500:	00c47563          	bgeu	s0,a2,150a <_free_r+0x96>
    1504:	47b1                	li	a5,12
    1506:	c09c                	sw	a5,0(s1)
    1508:	b74d                	j	14aa <_free_r+0x36>
    150a:	4010                	lw	a2,0(s0)
    150c:	00c406b3          	add	a3,s0,a2
    1510:	00d71663          	bne	a4,a3,151c <_free_r+0xa8>
    1514:	4314                	lw	a3,0(a4)
    1516:	4358                	lw	a4,4(a4)
    1518:	96b2                	add	a3,a3,a2
    151a:	c014                	sw	a3,0(s0)
    151c:	c058                	sw	a4,4(s0)
    151e:	c3c0                	sw	s0,4(a5)
    1520:	b769                	j	14aa <_free_r+0x36>
    1522:	8082                	ret

00001524 <_malloc_r>:
_malloc_r():
    1524:	1101                	addi	sp,sp,-32
    1526:	ca26                	sw	s1,20(sp)
    1528:	00358493          	addi	s1,a1,3
    152c:	98f1                	andi	s1,s1,-4
    152e:	ce06                	sw	ra,28(sp)
    1530:	cc22                	sw	s0,24(sp)
    1532:	c84a                	sw	s2,16(sp)
    1534:	c64e                	sw	s3,12(sp)
    1536:	04a1                	addi	s1,s1,8
    1538:	47b1                	li	a5,12
    153a:	04f4f363          	bgeu	s1,a5,1580 <_malloc_r+0x5c>
    153e:	44b1                	li	s1,12
    1540:	04b4e263          	bltu	s1,a1,1584 <_malloc_r+0x60>
    1544:	892a                	mv	s2,a0
    1546:	13d000ef          	jal	ra,1e82 <__malloc_lock>
    154a:	80818793          	addi	a5,gp,-2040 # 20004078 <_edata>
    154e:	4398                	lw	a4,0(a5)
    1550:	843a                	mv	s0,a4
    1552:	e039                	bnez	s0,1598 <_malloc_r+0x74>
    1554:	80c18793          	addi	a5,gp,-2036 # 2000407c <__malloc_sbrk_start>
    1558:	439c                	lw	a5,0(a5)
    155a:	e791                	bnez	a5,1566 <_malloc_r+0x42>
    155c:	4581                	li	a1,0
    155e:	854a                	mv	a0,s2
    1560:	2f81                	jal	1cb0 <_sbrk_r>
    1562:	80a1a623          	sw	a0,-2036(gp) # 2000407c <__malloc_sbrk_start>
    1566:	85a6                	mv	a1,s1
    1568:	854a                	mv	a0,s2
    156a:	2799                	jal	1cb0 <_sbrk_r>
    156c:	59fd                	li	s3,-1
    156e:	07351963          	bne	a0,s3,15e0 <_malloc_r+0xbc>
    1572:	47b1                	li	a5,12
    1574:	00f92023          	sw	a5,0(s2)
    1578:	854a                	mv	a0,s2
    157a:	10b000ef          	jal	ra,1e84 <__malloc_unlock>
    157e:	a029                	j	1588 <_malloc_r+0x64>
    1580:	fc04d0e3          	bgez	s1,1540 <_malloc_r+0x1c>
    1584:	47b1                	li	a5,12
    1586:	c11c                	sw	a5,0(a0)
    1588:	4501                	li	a0,0
    158a:	40f2                	lw	ra,28(sp)
    158c:	4462                	lw	s0,24(sp)
    158e:	44d2                	lw	s1,20(sp)
    1590:	4942                	lw	s2,16(sp)
    1592:	49b2                	lw	s3,12(sp)
    1594:	6105                	addi	sp,sp,32
    1596:	8082                	ret
    1598:	401c                	lw	a5,0(s0)
    159a:	8f85                	sub	a5,a5,s1
    159c:	0207cf63          	bltz	a5,15da <_malloc_r+0xb6>
    15a0:	46ad                	li	a3,11
    15a2:	00f6f663          	bgeu	a3,a5,15ae <_malloc_r+0x8a>
    15a6:	c01c                	sw	a5,0(s0)
    15a8:	943e                	add	s0,s0,a5
    15aa:	c004                	sw	s1,0(s0)
    15ac:	a031                	j	15b8 <_malloc_r+0x94>
    15ae:	405c                	lw	a5,4(s0)
    15b0:	02871363          	bne	a4,s0,15d6 <_malloc_r+0xb2>
    15b4:	80f1a423          	sw	a5,-2040(gp) # 20004078 <_edata>
    15b8:	854a                	mv	a0,s2
    15ba:	0cb000ef          	jal	ra,1e84 <__malloc_unlock>
    15be:	00b40513          	addi	a0,s0,11
    15c2:	00440793          	addi	a5,s0,4
    15c6:	9961                	andi	a0,a0,-8
    15c8:	40f50733          	sub	a4,a0,a5
    15cc:	df5d                	beqz	a4,158a <_malloc_r+0x66>
    15ce:	943a                	add	s0,s0,a4
    15d0:	8f89                	sub	a5,a5,a0
    15d2:	c01c                	sw	a5,0(s0)
    15d4:	bf5d                	j	158a <_malloc_r+0x66>
    15d6:	c35c                	sw	a5,4(a4)
    15d8:	b7c5                	j	15b8 <_malloc_r+0x94>
    15da:	8722                	mv	a4,s0
    15dc:	4040                	lw	s0,4(s0)
    15de:	bf95                	j	1552 <_malloc_r+0x2e>
    15e0:	00350413          	addi	s0,a0,3
    15e4:	9871                	andi	s0,s0,-4
    15e6:	fc8502e3          	beq	a0,s0,15aa <_malloc_r+0x86>
    15ea:	40a405b3          	sub	a1,s0,a0
    15ee:	854a                	mv	a0,s2
    15f0:	25c1                	jal	1cb0 <_sbrk_r>
    15f2:	fb351ce3          	bne	a0,s3,15aa <_malloc_r+0x86>
    15f6:	bfb5                	j	1572 <_malloc_r+0x4e>

000015f8 <__sfputc_r>:
__sfputc_r():
    15f8:	461c                	lw	a5,8(a2)
    15fa:	17fd                	addi	a5,a5,-1
    15fc:	c61c                	sw	a5,8(a2)
    15fe:	0007da63          	bgez	a5,1612 <__sfputc_r+0x1a>
    1602:	4e18                	lw	a4,24(a2)
    1604:	00e7c563          	blt	a5,a4,160e <__sfputc_r+0x16>
    1608:	47a9                	li	a5,10
    160a:	00f59463          	bne	a1,a5,1612 <__sfputc_r+0x1a>
    160e:	fceff06f          	j	ddc <__swbuf_r>
    1612:	421c                	lw	a5,0(a2)
    1614:	852e                	mv	a0,a1
    1616:	00178713          	addi	a4,a5,1
    161a:	c218                	sw	a4,0(a2)
    161c:	00b78023          	sb	a1,0(a5)
    1620:	8082                	ret

00001622 <__sfputs_r>:
__sfputs_r():
    1622:	1101                	addi	sp,sp,-32
    1624:	cc22                	sw	s0,24(sp)
    1626:	ca26                	sw	s1,20(sp)
    1628:	c84a                	sw	s2,16(sp)
    162a:	c64e                	sw	s3,12(sp)
    162c:	c452                	sw	s4,8(sp)
    162e:	ce06                	sw	ra,28(sp)
    1630:	892a                	mv	s2,a0
    1632:	89ae                	mv	s3,a1
    1634:	8432                	mv	s0,a2
    1636:	00d604b3          	add	s1,a2,a3
    163a:	5a7d                	li	s4,-1
    163c:	00941463          	bne	s0,s1,1644 <__sfputs_r+0x22>
    1640:	4501                	li	a0,0
    1642:	a809                	j	1654 <__sfputs_r+0x32>
    1644:	00044583          	lbu	a1,0(s0)
    1648:	864e                	mv	a2,s3
    164a:	854a                	mv	a0,s2
    164c:	3775                	jal	15f8 <__sfputc_r>
    164e:	0405                	addi	s0,s0,1
    1650:	ff4516e3          	bne	a0,s4,163c <__sfputs_r+0x1a>
    1654:	40f2                	lw	ra,28(sp)
    1656:	4462                	lw	s0,24(sp)
    1658:	44d2                	lw	s1,20(sp)
    165a:	4942                	lw	s2,16(sp)
    165c:	49b2                	lw	s3,12(sp)
    165e:	4a22                	lw	s4,8(sp)
    1660:	6105                	addi	sp,sp,32
    1662:	8082                	ret

00001664 <_vfiprintf_r>:
_vfiprintf_r():
    1664:	7135                	addi	sp,sp,-160
    1666:	cd22                	sw	s0,152(sp)
    1668:	cb26                	sw	s1,148(sp)
    166a:	c94a                	sw	s2,144(sp)
    166c:	c74e                	sw	s3,140(sp)
    166e:	cf06                	sw	ra,156(sp)
    1670:	c552                	sw	s4,136(sp)
    1672:	c356                	sw	s5,132(sp)
    1674:	c15a                	sw	s6,128(sp)
    1676:	dede                	sw	s7,124(sp)
    1678:	dce2                	sw	s8,120(sp)
    167a:	dae6                	sw	s9,116(sp)
    167c:	89aa                	mv	s3,a0
    167e:	84ae                	mv	s1,a1
    1680:	8932                	mv	s2,a2
    1682:	8436                	mv	s0,a3
    1684:	c501                	beqz	a0,168c <_vfiprintf_r+0x28>
    1686:	4d1c                	lw	a5,24(a0)
    1688:	e391                	bnez	a5,168c <_vfiprintf_r+0x28>
    168a:	3eb5                	jal	1206 <__sinit>
    168c:	00001797          	auipc	a5,0x1
    1690:	8dc78793          	addi	a5,a5,-1828 # 1f68 <__sf_fake_stdin>
    1694:	0cf49b63          	bne	s1,a5,176a <_vfiprintf_r+0x106>
    1698:	0049a483          	lw	s1,4(s3)
    169c:	00c4d783          	lhu	a5,12(s1)
    16a0:	8ba1                	andi	a5,a5,8
    16a2:	c7f5                	beqz	a5,178e <_vfiprintf_r+0x12a>
    16a4:	489c                	lw	a5,16(s1)
    16a6:	c7e5                	beqz	a5,178e <_vfiprintf_r+0x12a>
    16a8:	02000793          	li	a5,32
    16ac:	02f104a3          	sb	a5,41(sp)
    16b0:	03000793          	li	a5,48
    16b4:	d202                	sw	zero,36(sp)
    16b6:	02f10523          	sb	a5,42(sp)
    16ba:	c622                	sw	s0,12(sp)
    16bc:	02500b93          	li	s7,37
    16c0:	00001a97          	auipc	s5,0x1
    16c4:	8e8a8a93          	addi	s5,s5,-1816 # 1fa8 <__sf_fake_stdout+0x20>
    16c8:	4c05                	li	s8,1
    16ca:	4b29                	li	s6,10
    16cc:	844a                	mv	s0,s2
    16ce:	00044783          	lbu	a5,0(s0)
    16d2:	c399                	beqz	a5,16d8 <_vfiprintf_r+0x74>
    16d4:	0f779063          	bne	a5,s7,17b4 <_vfiprintf_r+0x150>
    16d8:	41240cb3          	sub	s9,s0,s2
    16dc:	000c8d63          	beqz	s9,16f6 <_vfiprintf_r+0x92>
    16e0:	86e6                	mv	a3,s9
    16e2:	864a                	mv	a2,s2
    16e4:	85a6                	mv	a1,s1
    16e6:	854e                	mv	a0,s3
    16e8:	3f2d                	jal	1622 <__sfputs_r>
    16ea:	57fd                	li	a5,-1
    16ec:	1ef50663          	beq	a0,a5,18d8 <_vfiprintf_r+0x274>
    16f0:	5692                	lw	a3,36(sp)
    16f2:	96e6                	add	a3,a3,s9
    16f4:	d236                	sw	a3,36(sp)
    16f6:	00044783          	lbu	a5,0(s0)
    16fa:	1c078f63          	beqz	a5,18d8 <_vfiprintf_r+0x274>
    16fe:	57fd                	li	a5,-1
    1700:	00140913          	addi	s2,s0,1
    1704:	c802                	sw	zero,16(sp)
    1706:	ce02                	sw	zero,28(sp)
    1708:	ca3e                	sw	a5,20(sp)
    170a:	cc02                	sw	zero,24(sp)
    170c:	040109a3          	sb	zero,83(sp)
    1710:	d482                	sw	zero,104(sp)
    1712:	00094583          	lbu	a1,0(s2)
    1716:	4615                	li	a2,5
    1718:	8556                	mv	a0,s5
    171a:	27b9                	jal	1e68 <memchr>
    171c:	00190413          	addi	s0,s2,1
    1720:	47c2                	lw	a5,16(sp)
    1722:	e959                	bnez	a0,17b8 <_vfiprintf_r+0x154>
    1724:	0107f713          	andi	a4,a5,16
    1728:	c709                	beqz	a4,1732 <_vfiprintf_r+0xce>
    172a:	02000713          	li	a4,32
    172e:	04e109a3          	sb	a4,83(sp)
    1732:	0087f713          	andi	a4,a5,8
    1736:	c709                	beqz	a4,1740 <_vfiprintf_r+0xdc>
    1738:	02b00713          	li	a4,43
    173c:	04e109a3          	sb	a4,83(sp)
    1740:	00094683          	lbu	a3,0(s2)
    1744:	02a00713          	li	a4,42
    1748:	08e68063          	beq	a3,a4,17c8 <_vfiprintf_r+0x164>
    174c:	47f2                	lw	a5,28(sp)
    174e:	844a                	mv	s0,s2
    1750:	4681                	li	a3,0
    1752:	4625                	li	a2,9
    1754:	00044703          	lbu	a4,0(s0)
    1758:	00140593          	addi	a1,s0,1
    175c:	fd070713          	addi	a4,a4,-48 # ffffdfd0 <_eusrstack+0xdfff5fd0>
    1760:	0ae67963          	bgeu	a2,a4,1812 <_vfiprintf_r+0x1ae>
    1764:	cab5                	beqz	a3,17d8 <_vfiprintf_r+0x174>
    1766:	ce3e                	sw	a5,28(sp)
    1768:	a885                	j	17d8 <_vfiprintf_r+0x174>
    176a:	00001797          	auipc	a5,0x1
    176e:	81e78793          	addi	a5,a5,-2018 # 1f88 <__sf_fake_stdout>
    1772:	00f49563          	bne	s1,a5,177c <_vfiprintf_r+0x118>
    1776:	0089a483          	lw	s1,8(s3)
    177a:	b70d                	j	169c <_vfiprintf_r+0x38>
    177c:	00000797          	auipc	a5,0x0
    1780:	7cc78793          	addi	a5,a5,1996 # 1f48 <__sf_fake_stderr>
    1784:	f0f49ce3          	bne	s1,a5,169c <_vfiprintf_r+0x38>
    1788:	00c9a483          	lw	s1,12(s3)
    178c:	bf01                	j	169c <_vfiprintf_r+0x38>
    178e:	85a6                	mv	a1,s1
    1790:	854e                	mv	a0,s3
    1792:	f0aff0ef          	jal	ra,e9c <__swsetup_r>
    1796:	d909                	beqz	a0,16a8 <_vfiprintf_r+0x44>
    1798:	557d                	li	a0,-1
    179a:	40fa                	lw	ra,156(sp)
    179c:	446a                	lw	s0,152(sp)
    179e:	44da                	lw	s1,148(sp)
    17a0:	494a                	lw	s2,144(sp)
    17a2:	49ba                	lw	s3,140(sp)
    17a4:	4a2a                	lw	s4,136(sp)
    17a6:	4a9a                	lw	s5,132(sp)
    17a8:	4b0a                	lw	s6,128(sp)
    17aa:	5bf6                	lw	s7,124(sp)
    17ac:	5c66                	lw	s8,120(sp)
    17ae:	5cd6                	lw	s9,116(sp)
    17b0:	610d                	addi	sp,sp,160
    17b2:	8082                	ret
    17b4:	0405                	addi	s0,s0,1
    17b6:	bf21                	j	16ce <_vfiprintf_r+0x6a>
    17b8:	41550533          	sub	a0,a0,s5
    17bc:	00ac1533          	sll	a0,s8,a0
    17c0:	8fc9                	or	a5,a5,a0
    17c2:	c83e                	sw	a5,16(sp)
    17c4:	8922                	mv	s2,s0
    17c6:	b7b1                	j	1712 <_vfiprintf_r+0xae>
    17c8:	4732                	lw	a4,12(sp)
    17ca:	00470693          	addi	a3,a4,4
    17ce:	4318                	lw	a4,0(a4)
    17d0:	c636                	sw	a3,12(sp)
    17d2:	02074963          	bltz	a4,1804 <_vfiprintf_r+0x1a0>
    17d6:	ce3a                	sw	a4,28(sp)
    17d8:	00044703          	lbu	a4,0(s0)
    17dc:	02e00793          	li	a5,46
    17e0:	04f71f63          	bne	a4,a5,183e <_vfiprintf_r+0x1da>
    17e4:	00144703          	lbu	a4,1(s0)
    17e8:	02a00793          	li	a5,42
    17ec:	02f71b63          	bne	a4,a5,1822 <_vfiprintf_r+0x1be>
    17f0:	47b2                	lw	a5,12(sp)
    17f2:	0409                	addi	s0,s0,2
    17f4:	00478713          	addi	a4,a5,4
    17f8:	439c                	lw	a5,0(a5)
    17fa:	c63a                	sw	a4,12(sp)
    17fc:	0207c163          	bltz	a5,181e <_vfiprintf_r+0x1ba>
    1800:	ca3e                	sw	a5,20(sp)
    1802:	a835                	j	183e <_vfiprintf_r+0x1da>
    1804:	40e00733          	neg	a4,a4
    1808:	0027e793          	ori	a5,a5,2
    180c:	ce3a                	sw	a4,28(sp)
    180e:	c83e                	sw	a5,16(sp)
    1810:	b7e1                	j	17d8 <_vfiprintf_r+0x174>
    1812:	036787b3          	mul	a5,a5,s6
    1816:	4685                	li	a3,1
    1818:	842e                	mv	s0,a1
    181a:	97ba                	add	a5,a5,a4
    181c:	bf25                	j	1754 <_vfiprintf_r+0xf0>
    181e:	57fd                	li	a5,-1
    1820:	b7c5                	j	1800 <_vfiprintf_r+0x19c>
    1822:	0405                	addi	s0,s0,1
    1824:	ca02                	sw	zero,20(sp)
    1826:	4681                	li	a3,0
    1828:	4781                	li	a5,0
    182a:	4625                	li	a2,9
    182c:	00044703          	lbu	a4,0(s0)
    1830:	00140593          	addi	a1,s0,1
    1834:	fd070713          	addi	a4,a4,-48
    1838:	06e67663          	bgeu	a2,a4,18a4 <_vfiprintf_r+0x240>
    183c:	f2f1                	bnez	a3,1800 <_vfiprintf_r+0x19c>
    183e:	00044583          	lbu	a1,0(s0)
    1842:	460d                	li	a2,3
    1844:	00000517          	auipc	a0,0x0
    1848:	76c50513          	addi	a0,a0,1900 # 1fb0 <__sf_fake_stdout+0x28>
    184c:	2d31                	jal	1e68 <memchr>
    184e:	cd11                	beqz	a0,186a <_vfiprintf_r+0x206>
    1850:	00000797          	auipc	a5,0x0
    1854:	76078793          	addi	a5,a5,1888 # 1fb0 <__sf_fake_stdout+0x28>
    1858:	8d1d                	sub	a0,a0,a5
    185a:	04000793          	li	a5,64
    185e:	00a797b3          	sll	a5,a5,a0
    1862:	4542                	lw	a0,16(sp)
    1864:	0405                	addi	s0,s0,1
    1866:	8d5d                	or	a0,a0,a5
    1868:	c82a                	sw	a0,16(sp)
    186a:	00044583          	lbu	a1,0(s0)
    186e:	4619                	li	a2,6
    1870:	00000517          	auipc	a0,0x0
    1874:	74450513          	addi	a0,a0,1860 # 1fb4 <__sf_fake_stdout+0x2c>
    1878:	00140913          	addi	s2,s0,1
    187c:	02b10423          	sb	a1,40(sp)
    1880:	23e5                	jal	1e68 <memchr>
    1882:	c13d                	beqz	a0,18e8 <_vfiprintf_r+0x284>
    1884:	ffffe797          	auipc	a5,0xffffe
    1888:	77c78793          	addi	a5,a5,1916 # 0 <_sinit>
    188c:	e795                	bnez	a5,18b8 <_vfiprintf_r+0x254>
    188e:	4742                	lw	a4,16(sp)
    1890:	47b2                	lw	a5,12(sp)
    1892:	10077713          	andi	a4,a4,256
    1896:	cf09                	beqz	a4,18b0 <_vfiprintf_r+0x24c>
    1898:	0791                	addi	a5,a5,4
    189a:	c63e                	sw	a5,12(sp)
    189c:	5792                	lw	a5,36(sp)
    189e:	97d2                	add	a5,a5,s4
    18a0:	d23e                	sw	a5,36(sp)
    18a2:	b52d                	j	16cc <_vfiprintf_r+0x68>
    18a4:	036787b3          	mul	a5,a5,s6
    18a8:	4685                	li	a3,1
    18aa:	842e                	mv	s0,a1
    18ac:	97ba                	add	a5,a5,a4
    18ae:	bfbd                	j	182c <_vfiprintf_r+0x1c8>
    18b0:	079d                	addi	a5,a5,7
    18b2:	9be1                	andi	a5,a5,-8
    18b4:	07a1                	addi	a5,a5,8
    18b6:	b7d5                	j	189a <_vfiprintf_r+0x236>
    18b8:	0078                	addi	a4,sp,12
    18ba:	00000697          	auipc	a3,0x0
    18be:	d6868693          	addi	a3,a3,-664 # 1622 <__sfputs_r>
    18c2:	8626                	mv	a2,s1
    18c4:	080c                	addi	a1,sp,16
    18c6:	854e                	mv	a0,s3
    18c8:	00000097          	auipc	ra,0x0
    18cc:	000000e7          	jalr	zero # 0 <_sinit>
    18d0:	57fd                	li	a5,-1
    18d2:	8a2a                	mv	s4,a0
    18d4:	fcf514e3          	bne	a0,a5,189c <_vfiprintf_r+0x238>
    18d8:	00c4d783          	lhu	a5,12(s1)
    18dc:	0407f793          	andi	a5,a5,64
    18e0:	ea079ce3          	bnez	a5,1798 <_vfiprintf_r+0x134>
    18e4:	5512                	lw	a0,36(sp)
    18e6:	bd55                	j	179a <_vfiprintf_r+0x136>
    18e8:	0078                	addi	a4,sp,12
    18ea:	00000697          	auipc	a3,0x0
    18ee:	d3868693          	addi	a3,a3,-712 # 1622 <__sfputs_r>
    18f2:	8626                	mv	a2,s1
    18f4:	080c                	addi	a1,sp,16
    18f6:	854e                	mv	a0,s3
    18f8:	2a01                	jal	1a08 <_printf_i>
    18fa:	bfd9                	j	18d0 <_vfiprintf_r+0x26c>

000018fc <_printf_common>:
_printf_common():
    18fc:	7179                	addi	sp,sp,-48
    18fe:	ca56                	sw	s5,20(sp)
    1900:	499c                	lw	a5,16(a1)
    1902:	8aba                	mv	s5,a4
    1904:	4598                	lw	a4,8(a1)
    1906:	d422                	sw	s0,40(sp)
    1908:	d226                	sw	s1,36(sp)
    190a:	ce4e                	sw	s3,28(sp)
    190c:	cc52                	sw	s4,24(sp)
    190e:	d606                	sw	ra,44(sp)
    1910:	d04a                	sw	s2,32(sp)
    1912:	c85a                	sw	s6,16(sp)
    1914:	c65e                	sw	s7,12(sp)
    1916:	89aa                	mv	s3,a0
    1918:	842e                	mv	s0,a1
    191a:	84b2                	mv	s1,a2
    191c:	8a36                	mv	s4,a3
    191e:	00e7d363          	bge	a5,a4,1924 <_printf_common+0x28>
    1922:	87ba                	mv	a5,a4
    1924:	c09c                	sw	a5,0(s1)
    1926:	04344703          	lbu	a4,67(s0)
    192a:	c319                	beqz	a4,1930 <_printf_common+0x34>
    192c:	0785                	addi	a5,a5,1
    192e:	c09c                	sw	a5,0(s1)
    1930:	401c                	lw	a5,0(s0)
    1932:	0207f793          	andi	a5,a5,32
    1936:	c781                	beqz	a5,193e <_printf_common+0x42>
    1938:	409c                	lw	a5,0(s1)
    193a:	0789                	addi	a5,a5,2
    193c:	c09c                	sw	a5,0(s1)
    193e:	00042903          	lw	s2,0(s0)
    1942:	00697913          	andi	s2,s2,6
    1946:	00091a63          	bnez	s2,195a <_printf_common+0x5e>
    194a:	01940b13          	addi	s6,s0,25
    194e:	5bfd                	li	s7,-1
    1950:	445c                	lw	a5,12(s0)
    1952:	4098                	lw	a4,0(s1)
    1954:	8f99                	sub	a5,a5,a4
    1956:	04f94c63          	blt	s2,a5,19ae <_printf_common+0xb2>
    195a:	401c                	lw	a5,0(s0)
    195c:	04344683          	lbu	a3,67(s0)
    1960:	0207f793          	andi	a5,a5,32
    1964:	00d036b3          	snez	a3,a3
    1968:	eba5                	bnez	a5,19d8 <_printf_common+0xdc>
    196a:	04340613          	addi	a2,s0,67
    196e:	85d2                	mv	a1,s4
    1970:	854e                	mv	a0,s3
    1972:	9a82                	jalr	s5
    1974:	57fd                	li	a5,-1
    1976:	04f50363          	beq	a0,a5,19bc <_printf_common+0xc0>
    197a:	401c                	lw	a5,0(s0)
    197c:	4611                	li	a2,4
    197e:	4098                	lw	a4,0(s1)
    1980:	8b99                	andi	a5,a5,6
    1982:	4454                	lw	a3,12(s0)
    1984:	4481                	li	s1,0
    1986:	00c79763          	bne	a5,a2,1994 <_printf_common+0x98>
    198a:	40e684b3          	sub	s1,a3,a4
    198e:	0004d363          	bgez	s1,1994 <_printf_common+0x98>
    1992:	4481                	li	s1,0
    1994:	441c                	lw	a5,8(s0)
    1996:	4818                	lw	a4,16(s0)
    1998:	00f75463          	bge	a4,a5,19a0 <_printf_common+0xa4>
    199c:	8f99                	sub	a5,a5,a4
    199e:	94be                	add	s1,s1,a5
    19a0:	4901                	li	s2,0
    19a2:	0469                	addi	s0,s0,26
    19a4:	5b7d                	li	s6,-1
    19a6:	05249863          	bne	s1,s2,19f6 <_printf_common+0xfa>
    19aa:	4501                	li	a0,0
    19ac:	a809                	j	19be <_printf_common+0xc2>
    19ae:	4685                	li	a3,1
    19b0:	865a                	mv	a2,s6
    19b2:	85d2                	mv	a1,s4
    19b4:	854e                	mv	a0,s3
    19b6:	9a82                	jalr	s5
    19b8:	01751e63          	bne	a0,s7,19d4 <_printf_common+0xd8>
    19bc:	557d                	li	a0,-1
    19be:	50b2                	lw	ra,44(sp)
    19c0:	5422                	lw	s0,40(sp)
    19c2:	5492                	lw	s1,36(sp)
    19c4:	5902                	lw	s2,32(sp)
    19c6:	49f2                	lw	s3,28(sp)
    19c8:	4a62                	lw	s4,24(sp)
    19ca:	4ad2                	lw	s5,20(sp)
    19cc:	4b42                	lw	s6,16(sp)
    19ce:	4bb2                	lw	s7,12(sp)
    19d0:	6145                	addi	sp,sp,48
    19d2:	8082                	ret
    19d4:	0905                	addi	s2,s2,1
    19d6:	bfad                	j	1950 <_printf_common+0x54>
    19d8:	00d40733          	add	a4,s0,a3
    19dc:	03000613          	li	a2,48
    19e0:	04c701a3          	sb	a2,67(a4)
    19e4:	04544703          	lbu	a4,69(s0)
    19e8:	00168793          	addi	a5,a3,1
    19ec:	97a2                	add	a5,a5,s0
    19ee:	0689                	addi	a3,a3,2
    19f0:	04e781a3          	sb	a4,67(a5)
    19f4:	bf9d                	j	196a <_printf_common+0x6e>
    19f6:	4685                	li	a3,1
    19f8:	8622                	mv	a2,s0
    19fa:	85d2                	mv	a1,s4
    19fc:	854e                	mv	a0,s3
    19fe:	9a82                	jalr	s5
    1a00:	fb650ee3          	beq	a0,s6,19bc <_printf_common+0xc0>
    1a04:	0905                	addi	s2,s2,1
    1a06:	b745                	j	19a6 <_printf_common+0xaa>

00001a08 <_printf_i>:
_printf_i():
    1a08:	7179                	addi	sp,sp,-48
    1a0a:	d422                	sw	s0,40(sp)
    1a0c:	d226                	sw	s1,36(sp)
    1a0e:	d04a                	sw	s2,32(sp)
    1a10:	ce4e                	sw	s3,28(sp)
    1a12:	d606                	sw	ra,44(sp)
    1a14:	cc52                	sw	s4,24(sp)
    1a16:	ca56                	sw	s5,20(sp)
    1a18:	c85a                	sw	s6,16(sp)
    1a1a:	89b6                	mv	s3,a3
    1a1c:	0185c683          	lbu	a3,24(a1)
    1a20:	06900793          	li	a5,105
    1a24:	8932                	mv	s2,a2
    1a26:	84aa                	mv	s1,a0
    1a28:	842e                	mv	s0,a1
    1a2a:	04358613          	addi	a2,a1,67
    1a2e:	02f68d63          	beq	a3,a5,1a68 <_printf_i+0x60>
    1a32:	06d7e263          	bltu	a5,a3,1a96 <_printf_i+0x8e>
    1a36:	05800793          	li	a5,88
    1a3a:	18f68763          	beq	a3,a5,1bc8 <_printf_i+0x1c0>
    1a3e:	00d7ed63          	bltu	a5,a3,1a58 <_printf_i+0x50>
    1a42:	22068063          	beqz	a3,1c62 <_printf_i+0x25a>
    1a46:	04300793          	li	a5,67
    1a4a:	0af68e63          	beq	a3,a5,1b06 <_printf_i+0xfe>
    1a4e:	04240a93          	addi	s5,s0,66
    1a52:	04d40123          	sb	a3,66(s0)
    1a56:	a0c9                	j	1b18 <_printf_i+0x110>
    1a58:	06300793          	li	a5,99
    1a5c:	0af68563          	beq	a3,a5,1b06 <_printf_i+0xfe>
    1a60:	06400793          	li	a5,100
    1a64:	fef695e3          	bne	a3,a5,1a4e <_printf_i+0x46>
    1a68:	401c                	lw	a5,0(s0)
    1a6a:	4308                	lw	a0,0(a4)
    1a6c:	0807f693          	andi	a3,a5,128
    1a70:	00450593          	addi	a1,a0,4
    1a74:	c6c5                	beqz	a3,1b1c <_printf_i+0x114>
    1a76:	411c                	lw	a5,0(a0)
    1a78:	c30c                	sw	a1,0(a4)
    1a7a:	0007d863          	bgez	a5,1a8a <_printf_i+0x82>
    1a7e:	02d00713          	li	a4,45
    1a82:	40f007b3          	neg	a5,a5
    1a86:	04e401a3          	sb	a4,67(s0)
    1a8a:	00000697          	auipc	a3,0x0
    1a8e:	53268693          	addi	a3,a3,1330 # 1fbc <__sf_fake_stdout+0x34>
    1a92:	4729                	li	a4,10
    1a94:	a86d                	j	1b4e <_printf_i+0x146>
    1a96:	07000793          	li	a5,112
    1a9a:	16f68363          	beq	a3,a5,1c00 <_printf_i+0x1f8>
    1a9e:	02d7e563          	bltu	a5,a3,1ac8 <_printf_i+0xc0>
    1aa2:	06e00793          	li	a5,110
    1aa6:	18f68a63          	beq	a3,a5,1c3a <_printf_i+0x232>
    1aaa:	06f00793          	li	a5,111
    1aae:	faf690e3          	bne	a3,a5,1a4e <_printf_i+0x46>
    1ab2:	400c                	lw	a1,0(s0)
    1ab4:	431c                	lw	a5,0(a4)
    1ab6:	0805f813          	andi	a6,a1,128
    1aba:	00478513          	addi	a0,a5,4
    1abe:	06080763          	beqz	a6,1b2c <_printf_i+0x124>
    1ac2:	c308                	sw	a0,0(a4)
    1ac4:	439c                	lw	a5,0(a5)
    1ac6:	a88d                	j	1b38 <_printf_i+0x130>
    1ac8:	07500793          	li	a5,117
    1acc:	fef683e3          	beq	a3,a5,1ab2 <_printf_i+0xaa>
    1ad0:	07800793          	li	a5,120
    1ad4:	12f68a63          	beq	a3,a5,1c08 <_printf_i+0x200>
    1ad8:	07300793          	li	a5,115
    1adc:	f6f699e3          	bne	a3,a5,1a4e <_printf_i+0x46>
    1ae0:	431c                	lw	a5,0(a4)
    1ae2:	41d0                	lw	a2,4(a1)
    1ae4:	4581                	li	a1,0
    1ae6:	00478693          	addi	a3,a5,4
    1aea:	c314                	sw	a3,0(a4)
    1aec:	0007aa83          	lw	s5,0(a5)
    1af0:	8556                	mv	a0,s5
    1af2:	2e9d                	jal	1e68 <memchr>
    1af4:	c501                	beqz	a0,1afc <_printf_i+0xf4>
    1af6:	41550533          	sub	a0,a0,s5
    1afa:	c048                	sw	a0,4(s0)
    1afc:	405c                	lw	a5,4(s0)
    1afe:	c81c                	sw	a5,16(s0)
    1b00:	040401a3          	sb	zero,67(s0)
    1b04:	a871                	j	1ba0 <_printf_i+0x198>
    1b06:	431c                	lw	a5,0(a4)
    1b08:	04240a93          	addi	s5,s0,66
    1b0c:	00478693          	addi	a3,a5,4
    1b10:	439c                	lw	a5,0(a5)
    1b12:	c314                	sw	a3,0(a4)
    1b14:	04f40123          	sb	a5,66(s0)
    1b18:	4785                	li	a5,1
    1b1a:	b7d5                	j	1afe <_printf_i+0xf6>
    1b1c:	0407f693          	andi	a3,a5,64
    1b20:	411c                	lw	a5,0(a0)
    1b22:	c30c                	sw	a1,0(a4)
    1b24:	dab9                	beqz	a3,1a7a <_printf_i+0x72>
    1b26:	07c2                	slli	a5,a5,0x10
    1b28:	87c1                	srai	a5,a5,0x10
    1b2a:	bf81                	j	1a7a <_printf_i+0x72>
    1b2c:	0405f593          	andi	a1,a1,64
    1b30:	c308                	sw	a0,0(a4)
    1b32:	d9c9                	beqz	a1,1ac4 <_printf_i+0xbc>
    1b34:	0007d783          	lhu	a5,0(a5)
    1b38:	06f00713          	li	a4,111
    1b3c:	0ee68763          	beq	a3,a4,1c2a <_printf_i+0x222>
    1b40:	00000697          	auipc	a3,0x0
    1b44:	47c68693          	addi	a3,a3,1148 # 1fbc <__sf_fake_stdout+0x34>
    1b48:	4729                	li	a4,10
    1b4a:	040401a3          	sb	zero,67(s0)
    1b4e:	404c                	lw	a1,4(s0)
    1b50:	c40c                	sw	a1,8(s0)
    1b52:	0005c563          	bltz	a1,1b5c <_printf_i+0x154>
    1b56:	4008                	lw	a0,0(s0)
    1b58:	996d                	andi	a0,a0,-5
    1b5a:	c008                	sw	a0,0(s0)
    1b5c:	e399                	bnez	a5,1b62 <_printf_i+0x15a>
    1b5e:	8ab2                	mv	s5,a2
    1b60:	cd91                	beqz	a1,1b7c <_printf_i+0x174>
    1b62:	8ab2                	mv	s5,a2
    1b64:	02e7f5b3          	remu	a1,a5,a4
    1b68:	1afd                	addi	s5,s5,-1
    1b6a:	95b6                	add	a1,a1,a3
    1b6c:	0005c583          	lbu	a1,0(a1)
    1b70:	00ba8023          	sb	a1,0(s5)
    1b74:	02e7d5b3          	divu	a1,a5,a4
    1b78:	0ae7ff63          	bgeu	a5,a4,1c36 <_printf_i+0x22e>
    1b7c:	47a1                	li	a5,8
    1b7e:	00f71e63          	bne	a4,a5,1b9a <_printf_i+0x192>
    1b82:	401c                	lw	a5,0(s0)
    1b84:	8b85                	andi	a5,a5,1
    1b86:	cb91                	beqz	a5,1b9a <_printf_i+0x192>
    1b88:	4058                	lw	a4,4(s0)
    1b8a:	481c                	lw	a5,16(s0)
    1b8c:	00e7c763          	blt	a5,a4,1b9a <_printf_i+0x192>
    1b90:	03000793          	li	a5,48
    1b94:	fefa8fa3          	sb	a5,-1(s5)
    1b98:	1afd                	addi	s5,s5,-1
    1b9a:	41560633          	sub	a2,a2,s5
    1b9e:	c810                	sw	a2,16(s0)
    1ba0:	874e                	mv	a4,s3
    1ba2:	86ca                	mv	a3,s2
    1ba4:	0070                	addi	a2,sp,12
    1ba6:	85a2                	mv	a1,s0
    1ba8:	8526                	mv	a0,s1
    1baa:	3b89                	jal	18fc <_printf_common>
    1bac:	5a7d                	li	s4,-1
    1bae:	0b451e63          	bne	a0,s4,1c6a <_printf_i+0x262>
    1bb2:	557d                	li	a0,-1
    1bb4:	50b2                	lw	ra,44(sp)
    1bb6:	5422                	lw	s0,40(sp)
    1bb8:	5492                	lw	s1,36(sp)
    1bba:	5902                	lw	s2,32(sp)
    1bbc:	49f2                	lw	s3,28(sp)
    1bbe:	4a62                	lw	s4,24(sp)
    1bc0:	4ad2                	lw	s5,20(sp)
    1bc2:	4b42                	lw	s6,16(sp)
    1bc4:	6145                	addi	sp,sp,48
    1bc6:	8082                	ret
    1bc8:	04d582a3          	sb	a3,69(a1)
    1bcc:	00000697          	auipc	a3,0x0
    1bd0:	3f068693          	addi	a3,a3,1008 # 1fbc <__sf_fake_stdout+0x34>
    1bd4:	400c                	lw	a1,0(s0)
    1bd6:	4308                	lw	a0,0(a4)
    1bd8:	0805f813          	andi	a6,a1,128
    1bdc:	411c                	lw	a5,0(a0)
    1bde:	0511                	addi	a0,a0,4
    1be0:	02080d63          	beqz	a6,1c1a <_printf_i+0x212>
    1be4:	c308                	sw	a0,0(a4)
    1be6:	0015f713          	andi	a4,a1,1
    1bea:	c701                	beqz	a4,1bf2 <_printf_i+0x1ea>
    1bec:	0205e593          	ori	a1,a1,32
    1bf0:	c00c                	sw	a1,0(s0)
    1bf2:	4741                	li	a4,16
    1bf4:	fbb9                	bnez	a5,1b4a <_printf_i+0x142>
    1bf6:	400c                	lw	a1,0(s0)
    1bf8:	fdf5f593          	andi	a1,a1,-33
    1bfc:	c00c                	sw	a1,0(s0)
    1bfe:	b7b1                	j	1b4a <_printf_i+0x142>
    1c00:	419c                	lw	a5,0(a1)
    1c02:	0207e793          	ori	a5,a5,32
    1c06:	c19c                	sw	a5,0(a1)
    1c08:	07800793          	li	a5,120
    1c0c:	04f402a3          	sb	a5,69(s0)
    1c10:	00000697          	auipc	a3,0x0
    1c14:	3c068693          	addi	a3,a3,960 # 1fd0 <__sf_fake_stdout+0x48>
    1c18:	bf75                	j	1bd4 <_printf_i+0x1cc>
    1c1a:	0405f813          	andi	a6,a1,64
    1c1e:	c308                	sw	a0,0(a4)
    1c20:	fc0803e3          	beqz	a6,1be6 <_printf_i+0x1de>
    1c24:	07c2                	slli	a5,a5,0x10
    1c26:	83c1                	srli	a5,a5,0x10
    1c28:	bf7d                	j	1be6 <_printf_i+0x1de>
    1c2a:	00000697          	auipc	a3,0x0
    1c2e:	39268693          	addi	a3,a3,914 # 1fbc <__sf_fake_stdout+0x34>
    1c32:	4721                	li	a4,8
    1c34:	bf19                	j	1b4a <_printf_i+0x142>
    1c36:	87ae                	mv	a5,a1
    1c38:	b735                	j	1b64 <_printf_i+0x15c>
    1c3a:	4194                	lw	a3,0(a1)
    1c3c:	431c                	lw	a5,0(a4)
    1c3e:	49cc                	lw	a1,20(a1)
    1c40:	0806f813          	andi	a6,a3,128
    1c44:	00478513          	addi	a0,a5,4
    1c48:	00080663          	beqz	a6,1c54 <_printf_i+0x24c>
    1c4c:	c308                	sw	a0,0(a4)
    1c4e:	439c                	lw	a5,0(a5)
    1c50:	c38c                	sw	a1,0(a5)
    1c52:	a801                	j	1c62 <_printf_i+0x25a>
    1c54:	c308                	sw	a0,0(a4)
    1c56:	0406f693          	andi	a3,a3,64
    1c5a:	439c                	lw	a5,0(a5)
    1c5c:	daf5                	beqz	a3,1c50 <_printf_i+0x248>
    1c5e:	00b79023          	sh	a1,0(a5)
    1c62:	00042823          	sw	zero,16(s0)
    1c66:	8ab2                	mv	s5,a2
    1c68:	bf25                	j	1ba0 <_printf_i+0x198>
    1c6a:	4814                	lw	a3,16(s0)
    1c6c:	8656                	mv	a2,s5
    1c6e:	85ca                	mv	a1,s2
    1c70:	8526                	mv	a0,s1
    1c72:	9982                	jalr	s3
    1c74:	f3450fe3          	beq	a0,s4,1bb2 <_printf_i+0x1aa>
    1c78:	401c                	lw	a5,0(s0)
    1c7a:	8b89                	andi	a5,a5,2
    1c7c:	e78d                	bnez	a5,1ca6 <_printf_i+0x29e>
    1c7e:	47b2                	lw	a5,12(sp)
    1c80:	4448                	lw	a0,12(s0)
    1c82:	f2f559e3          	bge	a0,a5,1bb4 <_printf_i+0x1ac>
    1c86:	853e                	mv	a0,a5
    1c88:	b735                	j	1bb4 <_printf_i+0x1ac>
    1c8a:	4685                	li	a3,1
    1c8c:	8656                	mv	a2,s5
    1c8e:	85ca                	mv	a1,s2
    1c90:	8526                	mv	a0,s1
    1c92:	9982                	jalr	s3
    1c94:	f1650fe3          	beq	a0,s6,1bb2 <_printf_i+0x1aa>
    1c98:	0a05                	addi	s4,s4,1
    1c9a:	445c                	lw	a5,12(s0)
    1c9c:	4732                	lw	a4,12(sp)
    1c9e:	8f99                	sub	a5,a5,a4
    1ca0:	fefa45e3          	blt	s4,a5,1c8a <_printf_i+0x282>
    1ca4:	bfe9                	j	1c7e <_printf_i+0x276>
    1ca6:	4a01                	li	s4,0
    1ca8:	01940a93          	addi	s5,s0,25
    1cac:	5b7d                	li	s6,-1
    1cae:	b7f5                	j	1c9a <_printf_i+0x292>

00001cb0 <_sbrk_r>:
_sbrk_r():
    1cb0:	1141                	addi	sp,sp,-16
    1cb2:	c422                	sw	s0,8(sp)
    1cb4:	842a                	mv	s0,a0
    1cb6:	852e                	mv	a0,a1
    1cb8:	8201a023          	sw	zero,-2016(gp) # 20004090 <errno>
    1cbc:	c606                	sw	ra,12(sp)
    1cbe:	f61fe0ef          	jal	ra,c1e <_sbrk>
    1cc2:	57fd                	li	a5,-1
    1cc4:	00f51763          	bne	a0,a5,1cd2 <_sbrk_r+0x22>
    1cc8:	82018793          	addi	a5,gp,-2016 # 20004090 <errno>
    1ccc:	439c                	lw	a5,0(a5)
    1cce:	c391                	beqz	a5,1cd2 <_sbrk_r+0x22>
    1cd0:	c01c                	sw	a5,0(s0)
    1cd2:	40b2                	lw	ra,12(sp)
    1cd4:	4422                	lw	s0,8(sp)
    1cd6:	0141                	addi	sp,sp,16
    1cd8:	8082                	ret

00001cda <__sread>:
__sread():
    1cda:	1141                	addi	sp,sp,-16
    1cdc:	c422                	sw	s0,8(sp)
    1cde:	842e                	mv	s0,a1
    1ce0:	00e59583          	lh	a1,14(a1)
    1ce4:	c606                	sw	ra,12(sp)
    1ce6:	2245                	jal	1e86 <_read_r>
    1ce8:	00054963          	bltz	a0,1cfa <__sread+0x20>
    1cec:	487c                	lw	a5,84(s0)
    1cee:	97aa                	add	a5,a5,a0
    1cf0:	c87c                	sw	a5,84(s0)
    1cf2:	40b2                	lw	ra,12(sp)
    1cf4:	4422                	lw	s0,8(sp)
    1cf6:	0141                	addi	sp,sp,16
    1cf8:	8082                	ret
    1cfa:	00c45783          	lhu	a5,12(s0)
    1cfe:	777d                	lui	a4,0xfffff
    1d00:	177d                	addi	a4,a4,-1
    1d02:	8ff9                	and	a5,a5,a4
    1d04:	00f41623          	sh	a5,12(s0)
    1d08:	b7ed                	j	1cf2 <__sread+0x18>

00001d0a <__swrite>:
__swrite():
    1d0a:	00c5d783          	lhu	a5,12(a1)
    1d0e:	1101                	addi	sp,sp,-32
    1d10:	cc22                	sw	s0,24(sp)
    1d12:	ca26                	sw	s1,20(sp)
    1d14:	c84a                	sw	s2,16(sp)
    1d16:	c64e                	sw	s3,12(sp)
    1d18:	ce06                	sw	ra,28(sp)
    1d1a:	1007f793          	andi	a5,a5,256
    1d1e:	84aa                	mv	s1,a0
    1d20:	842e                	mv	s0,a1
    1d22:	8932                	mv	s2,a2
    1d24:	89b6                	mv	s3,a3
    1d26:	c791                	beqz	a5,1d32 <__swrite+0x28>
    1d28:	00e59583          	lh	a1,14(a1)
    1d2c:	4689                	li	a3,2
    1d2e:	4601                	li	a2,0
    1d30:	2231                	jal	1e3c <_lseek_r>
    1d32:	00c45783          	lhu	a5,12(s0)
    1d36:	777d                	lui	a4,0xfffff
    1d38:	177d                	addi	a4,a4,-1
    1d3a:	8ff9                	and	a5,a5,a4
    1d3c:	00f41623          	sh	a5,12(s0)
    1d40:	00e41583          	lh	a1,14(s0)
    1d44:	4462                	lw	s0,24(sp)
    1d46:	40f2                	lw	ra,28(sp)
    1d48:	86ce                	mv	a3,s3
    1d4a:	864a                	mv	a2,s2
    1d4c:	49b2                	lw	s3,12(sp)
    1d4e:	4942                	lw	s2,16(sp)
    1d50:	8526                	mv	a0,s1
    1d52:	44d2                	lw	s1,20(sp)
    1d54:	6105                	addi	sp,sp,32
    1d56:	a83d                	j	1d94 <_write_r>

00001d58 <__sseek>:
__sseek():
    1d58:	1141                	addi	sp,sp,-16
    1d5a:	c422                	sw	s0,8(sp)
    1d5c:	842e                	mv	s0,a1
    1d5e:	00e59583          	lh	a1,14(a1)
    1d62:	c606                	sw	ra,12(sp)
    1d64:	28e1                	jal	1e3c <_lseek_r>
    1d66:	57fd                	li	a5,-1
    1d68:	00c45703          	lhu	a4,12(s0)
    1d6c:	00f51b63          	bne	a0,a5,1d82 <__sseek+0x2a>
    1d70:	77fd                	lui	a5,0xfffff
    1d72:	17fd                	addi	a5,a5,-1
    1d74:	8ff9                	and	a5,a5,a4
    1d76:	00f41623          	sh	a5,12(s0)
    1d7a:	40b2                	lw	ra,12(sp)
    1d7c:	4422                	lw	s0,8(sp)
    1d7e:	0141                	addi	sp,sp,16
    1d80:	8082                	ret
    1d82:	6785                	lui	a5,0x1
    1d84:	8fd9                	or	a5,a5,a4
    1d86:	00f41623          	sh	a5,12(s0)
    1d8a:	c868                	sw	a0,84(s0)
    1d8c:	b7fd                	j	1d7a <__sseek+0x22>

00001d8e <__sclose>:
__sclose():
    1d8e:	00e59583          	lh	a1,14(a1)
    1d92:	a805                	j	1dc2 <_close_r>

00001d94 <_write_r>:
_write_r():
    1d94:	1141                	addi	sp,sp,-16
    1d96:	c422                	sw	s0,8(sp)
    1d98:	842a                	mv	s0,a0
    1d9a:	852e                	mv	a0,a1
    1d9c:	85b2                	mv	a1,a2
    1d9e:	8636                	mv	a2,a3
    1da0:	8201a023          	sw	zero,-2016(gp) # 20004090 <errno>
    1da4:	c606                	sw	ra,12(sp)
    1da6:	e51fe0ef          	jal	ra,bf6 <_write>
    1daa:	57fd                	li	a5,-1
    1dac:	00f51763          	bne	a0,a5,1dba <_write_r+0x26>
    1db0:	82018793          	addi	a5,gp,-2016 # 20004090 <errno>
    1db4:	439c                	lw	a5,0(a5)
    1db6:	c391                	beqz	a5,1dba <_write_r+0x26>
    1db8:	c01c                	sw	a5,0(s0)
    1dba:	40b2                	lw	ra,12(sp)
    1dbc:	4422                	lw	s0,8(sp)
    1dbe:	0141                	addi	sp,sp,16
    1dc0:	8082                	ret

00001dc2 <_close_r>:
_close_r():
    1dc2:	1141                	addi	sp,sp,-16
    1dc4:	c422                	sw	s0,8(sp)
    1dc6:	842a                	mv	s0,a0
    1dc8:	852e                	mv	a0,a1
    1dca:	8201a023          	sw	zero,-2016(gp) # 20004090 <errno>
    1dce:	c606                	sw	ra,12(sp)
    1dd0:	20cd                	jal	1eb2 <_close>
    1dd2:	57fd                	li	a5,-1
    1dd4:	00f51763          	bne	a0,a5,1de2 <_close_r+0x20>
    1dd8:	82018793          	addi	a5,gp,-2016 # 20004090 <errno>
    1ddc:	439c                	lw	a5,0(a5)
    1dde:	c391                	beqz	a5,1de2 <_close_r+0x20>
    1de0:	c01c                	sw	a5,0(s0)
    1de2:	40b2                	lw	ra,12(sp)
    1de4:	4422                	lw	s0,8(sp)
    1de6:	0141                	addi	sp,sp,16
    1de8:	8082                	ret

00001dea <_fstat_r>:
_fstat_r():
    1dea:	1141                	addi	sp,sp,-16
    1dec:	c422                	sw	s0,8(sp)
    1dee:	842a                	mv	s0,a0
    1df0:	852e                	mv	a0,a1
    1df2:	85b2                	mv	a1,a2
    1df4:	8201a023          	sw	zero,-2016(gp) # 20004090 <errno>
    1df8:	c606                	sw	ra,12(sp)
    1dfa:	20d1                	jal	1ebe <_fstat>
    1dfc:	57fd                	li	a5,-1
    1dfe:	00f51763          	bne	a0,a5,1e0c <_fstat_r+0x22>
    1e02:	82018793          	addi	a5,gp,-2016 # 20004090 <errno>
    1e06:	439c                	lw	a5,0(a5)
    1e08:	c391                	beqz	a5,1e0c <_fstat_r+0x22>
    1e0a:	c01c                	sw	a5,0(s0)
    1e0c:	40b2                	lw	ra,12(sp)
    1e0e:	4422                	lw	s0,8(sp)
    1e10:	0141                	addi	sp,sp,16
    1e12:	8082                	ret

00001e14 <_isatty_r>:
_isatty_r():
    1e14:	1141                	addi	sp,sp,-16
    1e16:	c422                	sw	s0,8(sp)
    1e18:	842a                	mv	s0,a0
    1e1a:	852e                	mv	a0,a1
    1e1c:	8201a023          	sw	zero,-2016(gp) # 20004090 <errno>
    1e20:	c606                	sw	ra,12(sp)
    1e22:	2065                	jal	1eca <_isatty>
    1e24:	57fd                	li	a5,-1
    1e26:	00f51763          	bne	a0,a5,1e34 <_isatty_r+0x20>
    1e2a:	82018793          	addi	a5,gp,-2016 # 20004090 <errno>
    1e2e:	439c                	lw	a5,0(a5)
    1e30:	c391                	beqz	a5,1e34 <_isatty_r+0x20>
    1e32:	c01c                	sw	a5,0(s0)
    1e34:	40b2                	lw	ra,12(sp)
    1e36:	4422                	lw	s0,8(sp)
    1e38:	0141                	addi	sp,sp,16
    1e3a:	8082                	ret

00001e3c <_lseek_r>:
_lseek_r():
    1e3c:	1141                	addi	sp,sp,-16
    1e3e:	c422                	sw	s0,8(sp)
    1e40:	842a                	mv	s0,a0
    1e42:	852e                	mv	a0,a1
    1e44:	85b2                	mv	a1,a2
    1e46:	8636                	mv	a2,a3
    1e48:	8201a023          	sw	zero,-2016(gp) # 20004090 <errno>
    1e4c:	c606                	sw	ra,12(sp)
    1e4e:	2061                	jal	1ed6 <_lseek>
    1e50:	57fd                	li	a5,-1
    1e52:	00f51763          	bne	a0,a5,1e60 <_lseek_r+0x24>
    1e56:	82018793          	addi	a5,gp,-2016 # 20004090 <errno>
    1e5a:	439c                	lw	a5,0(a5)
    1e5c:	c391                	beqz	a5,1e60 <_lseek_r+0x24>
    1e5e:	c01c                	sw	a5,0(s0)
    1e60:	40b2                	lw	ra,12(sp)
    1e62:	4422                	lw	s0,8(sp)
    1e64:	0141                	addi	sp,sp,16
    1e66:	8082                	ret

00001e68 <memchr>:
memchr():
    1e68:	0ff5f593          	andi	a1,a1,255
    1e6c:	962a                	add	a2,a2,a0
    1e6e:	00c51463          	bne	a0,a2,1e76 <memchr+0xe>
    1e72:	4501                	li	a0,0
    1e74:	8082                	ret
    1e76:	00054783          	lbu	a5,0(a0)
    1e7a:	feb78de3          	beq	a5,a1,1e74 <memchr+0xc>
    1e7e:	0505                	addi	a0,a0,1
    1e80:	b7fd                	j	1e6e <memchr+0x6>

00001e82 <__malloc_lock>:
__malloc_lock():
    1e82:	8082                	ret

00001e84 <__malloc_unlock>:
__malloc_unlock():
    1e84:	8082                	ret

00001e86 <_read_r>:
_read_r():
    1e86:	1141                	addi	sp,sp,-16
    1e88:	c422                	sw	s0,8(sp)
    1e8a:	842a                	mv	s0,a0
    1e8c:	852e                	mv	a0,a1
    1e8e:	85b2                	mv	a1,a2
    1e90:	8636                	mv	a2,a3
    1e92:	8201a023          	sw	zero,-2016(gp) # 20004090 <errno>
    1e96:	c606                	sw	ra,12(sp)
    1e98:	20a9                	jal	1ee2 <_read>
    1e9a:	57fd                	li	a5,-1
    1e9c:	00f51763          	bne	a0,a5,1eaa <_read_r+0x24>
    1ea0:	82018793          	addi	a5,gp,-2016 # 20004090 <errno>
    1ea4:	439c                	lw	a5,0(a5)
    1ea6:	c391                	beqz	a5,1eaa <_read_r+0x24>
    1ea8:	c01c                	sw	a5,0(s0)
    1eaa:	40b2                	lw	ra,12(sp)
    1eac:	4422                	lw	s0,8(sp)
    1eae:	0141                	addi	sp,sp,16
    1eb0:	8082                	ret

00001eb2 <_close>:
_close():
    1eb2:	05800793          	li	a5,88
    1eb6:	82f1a023          	sw	a5,-2016(gp) # 20004090 <errno>
    1eba:	557d                	li	a0,-1
    1ebc:	8082                	ret

00001ebe <_fstat>:
_fstat():
    1ebe:	05800793          	li	a5,88
    1ec2:	82f1a023          	sw	a5,-2016(gp) # 20004090 <errno>
    1ec6:	557d                	li	a0,-1
    1ec8:	8082                	ret

00001eca <_isatty>:
_isatty():
    1eca:	05800793          	li	a5,88
    1ece:	82f1a023          	sw	a5,-2016(gp) # 20004090 <errno>
    1ed2:	4501                	li	a0,0
    1ed4:	8082                	ret

00001ed6 <_lseek>:
_lseek():
    1ed6:	05800793          	li	a5,88
    1eda:	82f1a023          	sw	a5,-2016(gp) # 20004090 <errno>
    1ede:	557d                	li	a0,-1
    1ee0:	8082                	ret

00001ee2 <_read>:
_read():
    1ee2:	05800793          	li	a5,88
    1ee6:	82f1a023          	sw	a5,-2016(gp) # 20004090 <errno>
    1eea:	557d                	li	a0,-1
    1eec:	8082                	ret
    1eee:	0000                	unimp
    1ef0:	72617453          	0x72617453
    1ef4:	2074                	fld	fa3,192(s0)
    1ef6:	4340                	lw	s0,4(a4)
    1ef8:	6968                	flw	fa0,84(a0)
    1efa:	4970                	lw	a2,84(a0)
    1efc:	3d44                	fld	fs1,184(a0)
    1efe:	3025                	jal	1726 <_vfiprintf_r+0xc2>
    1f00:	5832                	lw	a6,44(sp)
    1f02:	000a                	c.slli	zero,0x2
    1f04:	2e31                	jal	2220 <_data_lma+0x238>
    1f06:	30697073          	csrci	mcounteren,18
    1f0a:	6d20                	flw	fs0,88(a0)
    1f0c:	6c75                	lui	s8,0x1d
    1f0e:	6d20                	flw	fs0,88(a0)
    1f10:	7361                	lui	t1,0xffff8
    1f12:	6574                	flw	fa3,76(a0)
    1f14:	2072                	fld	ft0,280(sp)
    1f16:	6f6d                	lui	t5,0x1b
    1f18:	6564                	flw	fs1,76(a0)
    1f1a:	7320                	flw	fs0,96(a4)
    1f1c:	6e65                	lui	t3,0x19
    1f1e:	2064                	fld	fs1,192(s0)
    1f20:	6164                	flw	fs1,68(a0)
    1f22:	6174                	flw	fa3,68(a0)
    1f24:	2e20                	fld	fs0,88(a2)
    1f26:	2e2e                	fld	ft8,200(sp)
    1f28:	0000                	unimp
    1f2a:	0000                	unimp
    1f2c:	4e45                	li	t3,17
    1f2e:	2044                	fld	fs1,128(s0)
    1f30:	2e2e                	fld	ft8,200(sp)
    1f32:	002e                	c.slli	zero,0xb
    1f34:	ea44                	fsw	fs1,20(a2)
    1f36:	ffff                	0xffff
    1f38:	ea6c                	fsw	fa1,84(a2)
    1f3a:	ffff                	0xffff
    1f3c:	ea94                	fsw	fa3,16(a3)
    1f3e:	ffff                	0xffff
    1f40:	eaac                	fsw	fa1,80(a3)
    1f42:	ffff                	0xffff
    1f44:	eac6                	fsw	fa7,84(sp)
    1f46:	ffff                	0xffff

00001f48 <__sf_fake_stderr>:
	...

00001f68 <__sf_fake_stdin>:
	...

00001f88 <__sf_fake_stdout>:
	...
    1fa8:	2d23 2b30 0020 0000 6c68 004c 6665 4567     #-0+ ...hlL.efgE
    1fb8:	4746 0000 3130 3332 3534 3736 3938 4241     FG..0123456789AB
    1fc8:	4443 4645 0000 0000 3130 3332 3534 3736     CDEF....01234567
    1fd8:	3938 6261 6463 6665 0000 0000               89abcdef....

00001fe4 <_global_impure_ptr>:
    1fe4:	4010 2000                                   .@. 
