
LaserRangeFinder.elf:     file format elf32-littleriscv
LaserRangeFinder.elf
architecture: riscv:rv32, flags 0x00000112:
EXEC_P, HAS_SYMS, D_PAGED
start address 0x00000000

Program Header:
    LOAD off    0x00001000 vaddr 0x00000000 paddr 0x00000000 align 2**12
         filesz 0x00000004 memsz 0x00000004 flags r-x
    LOAD off    0x00001800 vaddr 0x20003800 paddr 0x00000004 align 2**12
         filesz 0x000006b4 memsz 0x000006b4 flags r-x
    LOAD off    0x000026b8 vaddr 0x000006b8 paddr 0x000006b8 align 2**12
         filesz 0x00001710 memsz 0x00001710 flags r-x
    LOAD off    0x00003eb4 vaddr 0x20003eb4 paddr 0x00001dc8 align 2**12
         filesz 0x00000000 memsz 0x0000014c flags rw-
    LOAD off    0x00004000 vaddr 0x20004000 paddr 0x00001dc8 align 2**12
         filesz 0x00000068 memsz 0x00000074 flags rw-
    LOAD off    0x00004e00 vaddr 0x20007e00 paddr 0x20007e00 align 2**12
         filesz 0x00000000 memsz 0x00000200 flags rw-

Sections:
Idx Name            Size      VMA       LMA       File off  Algn  Flags
  0 .init           00000004  00000000  00000000  00001000  2**1  CONTENTS, ALLOC, LOAD, READONLY, CODE
  1 .highcodelalign 00000000  00000004  00000004  00004068  2**0  CONTENTS
  2 .highcode       000006b4  20003800  00000004  00001800  2**1  CONTENTS, ALLOC, LOAD, READONLY, CODE
  3 .text           00001710  000006b8  000006b8  000026b8  2**2  CONTENTS, ALLOC, LOAD, READONLY, CODE
  4 .fini           00000000  00001dc8  00001dc8  00004068  2**0  CONTENTS, ALLOC, LOAD, CODE
  5 .dalign         0000014c  20003eb4  00001dc8  00003eb4  2**0  ALLOC
  6 .dlalign        00000000  00001dc8  00001dc8  00004068  2**0  CONTENTS
  7 .data           00000068  20004000  00001dc8  00004000  2**2  CONTENTS, ALLOC, LOAD, DATA
  8 .bss            0000000c  20004068  00001e30  00004068  2**2  ALLOC
  9 .stack          00000200  20007e00  20007e00  00004e00  2**0  ALLOC
 10 .debug_info     00004126  00000000  00000000  00004068  2**0  CONTENTS, READONLY, DEBUGGING
 11 .debug_abbrev   00000bad  00000000  00000000  0000818e  2**0  CONTENTS, READONLY, DEBUGGING
 12 .debug_aranges  00000188  00000000  00000000  00008d40  2**3  CONTENTS, READONLY, DEBUGGING
 13 .debug_ranges   00000140  00000000  00000000  00008ec8  2**3  CONTENTS, READONLY, DEBUGGING
 14 .debug_line     00002315  00000000  00000000  00009008  2**0  CONTENTS, READONLY, DEBUGGING
 15 .debug_str      00000f60  00000000  00000000  0000b31d  2**0  CONTENTS, READONLY, DEBUGGING
 16 .comment        00000033  00000000  00000000  0000c27d  2**0  CONTENTS, READONLY
 17 .debug_frame    00000b88  00000000  00000000  0000c2b0  2**2  CONTENTS, READONLY, DEBUGGING
 18 .debug_loc      000007fa  00000000  00000000  0000ce38  2**0  CONTENTS, READONLY, DEBUGGING
 19 .stab           00000084  00000000  00000000  0000d634  2**2  CONTENTS, READONLY, DEBUGGING
 20 .stabstr        00000117  00000000  00000000  0000d6b8  2**0  CONTENTS, READONLY, DEBUGGING
SYMBOL TABLE:
00000000 l    d  .init	00000000 .init
00000004 l    d  .highcodelalign	00000000 .highcodelalign
20003800 l    d  .highcode	00000000 .highcode
000006b8 l    d  .text	00000000 .text
00001dc8 l    d  .fini	00000000 .fini
20003eb4 l    d  .dalign	00000000 .dalign
00001dc8 l    d  .dlalign	00000000 .dlalign
20004000 l    d  .data	00000000 .data
20004068 l    d  .bss	00000000 .bss
20007e00 l    d  .stack	00000000 .stack
00000000 l    d  .debug_info	00000000 .debug_info
00000000 l    d  .debug_abbrev	00000000 .debug_abbrev
00000000 l    d  .debug_aranges	00000000 .debug_aranges
00000000 l    d  .debug_ranges	00000000 .debug_ranges
00000000 l    d  .debug_line	00000000 .debug_line
00000000 l    d  .debug_str	00000000 .debug_str
00000000 l    d  .comment	00000000 .comment
00000000 l    d  .debug_frame	00000000 .debug_frame
00000000 l    d  .debug_loc	00000000 .debug_loc
00000000 l    d  .stab	00000000 .stab
00000000 l    d  .stabstr	00000000 .stabstr
00000000 l    df *ABS*	00000000 ./Startup/startup_CH573.o
20003800 l       .highcode	00000000 _vector_base
00000000 l    df *ABS*	00000000 Main.c
00000000 l    df *ABS*	00000000 CH57x_sys.c
20004060 l     O .data	00000004 curbrk.3772
00000000 l    df *ABS*	00000000 ISP573.c
20003aca l       .highcode	00000000 .loop17
20003ad8 l       .highcode	00000000 .loop28
20003ae6 l       .highcode	00000000 .loop39
20003d74 l       .highcode	00000000 .loop406
00000000 l    df *ABS*	00000000 CH57x_gpio.c
00000000 l    df *ABS*	00000000 CH57x_uart1.c
00000000 l    df *ABS*	00000000 nano-mallocr.c
00000000 l    df *ABS*	00000000 nano-mallocr.c
00000000 l    df *ABS*	00000000 printf.c
00000000 l    df *ABS*	00000000 puts.c
00000000 l    df *ABS*	00000000 sbrkr.c
00000000 l    df *ABS*	00000000 wbuf.c
00000000 l    df *ABS*	00000000 wsetup.c
00000000 l    df *ABS*	00000000 fflush.c
00000000 l    df *ABS*	00000000 findfp.c
000010fe l     F .text	0000006a std
00000000 l    df *ABS*	00000000 fwalk.c
00000000 l    df *ABS*	00000000 makebuf.c
00000000 l    df *ABS*	00000000 mlock.c
00000000 l    df *ABS*	00000000 nano-vfprintf.c
0000142c l     F .text	00000028 __sfputc_r
00000000 l    df *ABS*	00000000 nano-vfprintf_i.c
00000000 l    df *ABS*	00000000 stdio.c
00000000 l    df *ABS*	00000000 writer.c
00000000 l    df *ABS*	00000000 closer.c
00000000 l    df *ABS*	00000000 fstatr.c
00000000 l    df *ABS*	00000000 isattyr.c
00000000 l    df *ABS*	00000000 lseekr.c
00000000 l    df *ABS*	00000000 memchr.c
00000000 l    df *ABS*	00000000 readr.c
00000000 l    df *ABS*	00000000 close.c
00000000 l    df *ABS*	00000000 fstat.c
00000000 l    df *ABS*	00000000 isatty.c
00000000 l    df *ABS*	00000000 lseek.c
00000000 l    df *ABS*	00000000 read.c
00000000 l    df *ABS*	00000000 impure.c
20004000 l     O .data	00000060 impure_data
00000000 l    df *ABS*	00000000 reent.c
00001c1c g     F .text	00000028 _isatty_r
00000c7e g     F .text	000000da _puts_r
00001c44 g     F .text	0000002c _lseek_r
20003ae6 g     F .highcode	0000000e FLASH_ROM_OUT
00000c3a g     F .text	00000044 printf
20004860 g       .data	00000000 __global_pointer$
00001b60 g     F .text	00000036 __sseek
000011b8 g     F .text	0000006a __sinit
00000d8e g     F .text	000000c0 __swbuf_r
20003a84 g     F .highcode	0000000e mDelayuS
20003a3e  w    F .highcode	00000046 HardFault_Handler
00001172 g     F .text	00000046 __sfmoreglue
2000389c  w      .highcode	00000000 GPIOB_IRQHandler
0000142a g     F .text	00000002 __malloc_unlock
200038bc g     F .highcode	0000002e GPIOA_IRQHandler
20003894  w      .highcode	00000000 SysTick_Handler
20003890  w      .highcode	00000000 NMI_Handler
200038ac  w      .highcode	00000000 UART1_IRQHandler
00001bf2 g     F .text	0000002a _fstat_r
20004070 g     O .bss	00000004 errno
20004068 g       .bss	00000000 _sbss
00000200 g       *ABS*	00000000 __stack_size
20003ad8 g     F .highcode	0000000e FLASH_ROM_IN
00000938 g     F .text	00000082 GPIOA_ITModeCfg
200038aa  w      .highcode	00000000 UART0_IRQHandler
00001168 g     F .text	0000000a _cleanup_r
00000d58 g     F .text	0000000e puts
00001cc2 g     F .text	0000000c _fstat
00000004 g       .init	00000000 _einit
200038a0  w      .highcode	00000000 BB_IRQHandler
20003b74 g     F .highcode	00000340 FLASH_EEPROM_CMD
00000d66 g     F .text	00000028 _sbrk_r
20003898  w      .highcode	00000000 TMR0_IRQHandler
00001c8a g     F .text	0000002c _read_r
20003aba g     F .highcode	00000010 FLASH_ROM_BEG
20003a92 g     F .highcode	00000028 mDelaymS
20007e00 g       .stack	00000000 _heap_end
00001cce g     F .text	0000000c _isatty
00001dc4 g     O .text	00000004 _global_impure_ptr
20003af4 g     F .highcode	00000048 FLASH_ROM_ADDR
00000a24 g     F .text	00000030 _sbrk
200038ae  w      .highcode	00000000 RTC_IRQHandler
20004074 g       .bss	00000000 _ebss
00000a84 g     F .text	00000032 UART1_DefInit
20003b3c g     F .highcode	00000038 FLASH_ROM_WAIT
00001d28 g     O .text	00000020 __sf_fake_stderr
200038b6  w      .highcode	00000000 UART2_IRQHandler
200038b2  w      .highcode	00000000 PWMX_IRQHandler
00001454 g     F .text	00000042 __sfputs_r
00001c70 g     F .text	0000001a memchr
00000ab6 g     F .text	000000b0 _free_r
00000000 g       .init	00000000 _start
00001cda g     F .text	0000000c _lseek
200038b0  w      .highcode	00000000 ADC_IRQHandler
20003800 g       .highcode	00000000 _highcode_vma_start
200038a8  w      .highcode	00000000 TMR2_IRQHandler
00001bca g     F .text	00000028 _close_r
20004000 g       .data	00000000 _data_vma
200038ea g     F .highcode	00000118 SetSysClock
200038a4  w      .highcode	00000000 USB_IRQHandler
00000e4e g     F .text	00000110 __swsetup_r
00001222 g     F .text	000000a0 __sfp
00001ae2 g     F .text	00000030 __sread
00001428 g     F .text	00000002 __malloc_lock
0000109a g     F .text	00000064 _fflush_r
00001d48 g     O .text	00000020 __sf_fake_stdin
00000782 g     F .text	000000a8 memset
0000082a g     F .text	00000068 main
00001b96 g     F .text	00000006 __sclose
00000b66 g     F .text	000000d4 _malloc_r
00000004 g       .highcodelalign	00000000 _highcode_lma
00000c3a g     F .text	00000044 iprintf
200038a2  w      .highcode	00000000 LLE_IRQHandler
00000000 g       .init	00000000 _sinit
00001b9c g     F .text	0000002e _write_r
0000172e g     F .text	0000010c _printf_common
20004064 g     O .data	00000004 _impure_ptr
00000f5e g     F .text	0000013c __sflush_r
200038ba  w      .highcode	00000000 WDOG_BAT_IRQHandler
200038b4  w      .highcode	00000000 TMR3_IRQHandler
20008000 g       .stack	00000000 _eusrstack
20003896  w      .highcode	00000000 SW_Handler
00000892 g     F .text	000000a6 GPIOA_ModeCfg
0000132e g     F .text	0000005a __swhatbuf_r
000009ba g     F .text	00000042 GetSysClock
000009fc g     F .text	00000028 _write
20004068 g       .data	00000000 _edata
2000389e  w      .highcode	00000000 SPI0_IRQHandler
20004074 g       .bss	00000000 _end
20003eb4 g       .highcode	00000000 _highcode_vma_end
00001dc8 g       .dlalign	00000000 _data_lma
00001b12 g     F .text	0000004e __swrite
00001496 g     F .text	00000298 _vfiprintf_r
000012c2 g     F .text	0000006c _fwalk_reent
00001d68 g     O .text	00000020 __sf_fake_stdout
00001ce6 g     F .text	0000000c _read
000006b8  w      .text	00000000 handle_reset
00001388 g     F .text	000000a0 __smakebuf_r
0000183a g     F .text	000002a8 _printf_i
200038b8  w      .highcode	00000000 UART3_IRQHandler
2000406c g     O .bss	00000004 __malloc_sbrk_start
20003aca g     F .highcode	0000000e FLASH_ROM_END
20004068 g     O .bss	00000004 __malloc_free_list
00001496 g     F .text	00000298 _vfprintf_r
200038a6  w      .highcode	00000000 TMR1_IRQHandler
20003a02 g     F .highcode	0000003c SYS_ResetExecute
00001cb6 g     F .text	0000000c _close
00000a54 g     F .text	00000030 UART1_BaudRateCfg



Disassembly of section .init:

00000000 <_sinit>:
_start():
d:\CH573FEVT\LaserRangeFinder\obj/../Startup/startup_CH573.S:17

	.section	.init,"ax",@progbits
	.global	_start
	.align	1
_start:
	j	handle_reset
   0:	6b80006f          	j	6b8 <handle_reset>

Disassembly of section .highcode:

20003800 <_highcode_vma_start>:
	...
_vector_base():
d:\CH573FEVT\LaserRangeFinder\obj/../Startup/startup_CH573.S:25
    .align  1
_vector_base:
    .option norvc;
    .word   0
    .word   0
        j   NMI_Handler                 /* NMI Handler */
20003808:	0880006f          	j	20003890 <NMI_Handler>
d:\CH573FEVT\LaserRangeFinder\obj/../Startup/startup_CH573.S:26
        j   HardFault_Handler           /* Hard Fault Handler */
2000380c:	2320006f          	j	20003a3e <HardFault_Handler>
	...
d:\CH573FEVT\LaserRangeFinder\obj/../Startup/startup_CH573.S:35
    .word   0
    .word   0
    .word   0
    .word   0
    .word   0
        j   SysTick_Handler            /* SysTick Handler */
20003830:	0640006f          	j	20003894 <SysTick_Handler>
20003834:	0000                	unimp
20003836:	0000                	unimp
d:\CH573FEVT\LaserRangeFinder\obj/../Startup/startup_CH573.S:37
    .word   0
        j   SW_Handler                 /* SW Handler */
20003838:	05e0006f          	j	20003896 <SW_Handler>
2000383c:	0000                	unimp
2000383e:	0000                	unimp
d:\CH573FEVT\LaserRangeFinder\obj/../Startup/startup_CH573.S:40
    .word   0
    /* External Interrupts */
        j   TMR0_IRQHandler            /* 0:  TMR0 */
20003840:	0580006f          	j	20003898 <TMR0_IRQHandler>
d:\CH573FEVT\LaserRangeFinder\obj/../Startup/startup_CH573.S:41
        j   GPIOA_IRQHandler           /* GPIOA */
20003844:	0780006f          	j	200038bc <GPIOA_IRQHandler>
d:\CH573FEVT\LaserRangeFinder\obj/../Startup/startup_CH573.S:42
        j   GPIOB_IRQHandler           /* GPIOB */
20003848:	0540006f          	j	2000389c <GPIOB_IRQHandler>
d:\CH573FEVT\LaserRangeFinder\obj/../Startup/startup_CH573.S:43
        j   SPI0_IRQHandler            /* SPI0 */
2000384c:	0520006f          	j	2000389e <SPI0_IRQHandler>
d:\CH573FEVT\LaserRangeFinder\obj/../Startup/startup_CH573.S:44
        j   BB_IRQHandler              /* BLEB */
20003850:	0500006f          	j	200038a0 <BB_IRQHandler>
d:\CH573FEVT\LaserRangeFinder\obj/../Startup/startup_CH573.S:45
        j   LLE_IRQHandler             /* BLEL */
20003854:	04e0006f          	j	200038a2 <LLE_IRQHandler>
d:\CH573FEVT\LaserRangeFinder\obj/../Startup/startup_CH573.S:46
        j   USB_IRQHandler             /* USB */
20003858:	04c0006f          	j	200038a4 <USB_IRQHandler>
2000385c:	0000                	unimp
2000385e:	0000                	unimp
d:\CH573FEVT\LaserRangeFinder\obj/../Startup/startup_CH573.S:48
        .word   0
        j   TMR1_IRQHandler            /* TMR1 */
20003860:	0460006f          	j	200038a6 <TMR1_IRQHandler>
d:\CH573FEVT\LaserRangeFinder\obj/../Startup/startup_CH573.S:49
        j   TMR2_IRQHandler            /* TMR2 */
20003864:	0440006f          	j	200038a8 <TMR2_IRQHandler>
d:\CH573FEVT\LaserRangeFinder\obj/../Startup/startup_CH573.S:50
        j   UART0_IRQHandler           /* UART0 */
20003868:	0420006f          	j	200038aa <UART0_IRQHandler>
d:\CH573FEVT\LaserRangeFinder\obj/../Startup/startup_CH573.S:51
        j   UART1_IRQHandler           /* UART1 */
2000386c:	0400006f          	j	200038ac <UART1_IRQHandler>
d:\CH573FEVT\LaserRangeFinder\obj/../Startup/startup_CH573.S:52
        j   RTC_IRQHandler             /* RTC */
20003870:	03e0006f          	j	200038ae <RTC_IRQHandler>
d:\CH573FEVT\LaserRangeFinder\obj/../Startup/startup_CH573.S:53
        j   ADC_IRQHandler             /* ADC */
20003874:	03c0006f          	j	200038b0 <ADC_IRQHandler>
20003878:	0000                	unimp
2000387a:	0000                	unimp
d:\CH573FEVT\LaserRangeFinder\obj/../Startup/startup_CH573.S:55
        .word   0
        j   PWMX_IRQHandler            /* PWMX */
2000387c:	0360006f          	j	200038b2 <PWMX_IRQHandler>
d:\CH573FEVT\LaserRangeFinder\obj/../Startup/startup_CH573.S:56
        j   TMR3_IRQHandler            /* TMR3 */
20003880:	0340006f          	j	200038b4 <TMR3_IRQHandler>
d:\CH573FEVT\LaserRangeFinder\obj/../Startup/startup_CH573.S:57
        j   UART2_IRQHandler           /* UART2 */
20003884:	0320006f          	j	200038b6 <UART2_IRQHandler>
d:\CH573FEVT\LaserRangeFinder\obj/../Startup/startup_CH573.S:58
        j   UART3_IRQHandler           /* UART3 */
20003888:	0300006f          	j	200038b8 <UART3_IRQHandler>
d:\CH573FEVT\LaserRangeFinder\obj/../Startup/startup_CH573.S:59
        j   WDOG_BAT_IRQHandler        /* WDOG_BAT */
2000388c:	02e0006f          	j	200038ba <WDOG_BAT_IRQHandler>

20003890 <NMI_Handler>:
NMI_Handler():
d:\CH573FEVT\LaserRangeFinder\obj/../Startup/startup_CH573.S:87
    .weak   TMR3_IRQHandler
    .weak   UART2_IRQHandler
    .weak   UART3_IRQHandler
    .weak   WDOG_BAT_IRQHandler

NMI_Handler:  1:  j 1b
20003890:	a001                	j	20003890 <NMI_Handler>
d:\CH573FEVT\LaserRangeFinder\obj/../Startup/startup_CH573.S:88
HardFault_Handler:  1:  j 1b
20003892:	a001                	j	20003892 <NMI_Handler+0x2>

20003894 <SysTick_Handler>:
SysTick_Handler():
d:\CH573FEVT\LaserRangeFinder\obj/../Startup/startup_CH573.S:89
SysTick_Handler:  1:  j 1b
20003894:	a001                	j	20003894 <SysTick_Handler>

20003896 <SW_Handler>:
SW_Handler():
d:\CH573FEVT\LaserRangeFinder\obj/../Startup/startup_CH573.S:90
SW_Handler:  1:  j 1b
20003896:	a001                	j	20003896 <SW_Handler>

20003898 <TMR0_IRQHandler>:
TMR0_IRQHandler():
d:\CH573FEVT\LaserRangeFinder\obj/../Startup/startup_CH573.S:91
TMR0_IRQHandler:  1:  j 1b
20003898:	a001                	j	20003898 <TMR0_IRQHandler>
d:\CH573FEVT\LaserRangeFinder\obj/../Startup/startup_CH573.S:92
GPIOA_IRQHandler:  1:  j 1b
2000389a:	a001                	j	2000389a <TMR0_IRQHandler+0x2>

2000389c <GPIOB_IRQHandler>:
GPIOB_IRQHandler():
d:\CH573FEVT\LaserRangeFinder\obj/../Startup/startup_CH573.S:93
GPIOB_IRQHandler:  1:  j 1b
2000389c:	a001                	j	2000389c <GPIOB_IRQHandler>

2000389e <SPI0_IRQHandler>:
SPI0_IRQHandler():
d:\CH573FEVT\LaserRangeFinder\obj/../Startup/startup_CH573.S:94
SPI0_IRQHandler:  1:  j 1b
2000389e:	a001                	j	2000389e <SPI0_IRQHandler>

200038a0 <BB_IRQHandler>:
BB_IRQHandler():
d:\CH573FEVT\LaserRangeFinder\obj/../Startup/startup_CH573.S:95
BB_IRQHandler:  1:  j 1b
200038a0:	a001                	j	200038a0 <BB_IRQHandler>

200038a2 <LLE_IRQHandler>:
LLE_IRQHandler():
d:\CH573FEVT\LaserRangeFinder\obj/../Startup/startup_CH573.S:96
LLE_IRQHandler:  1:  j 1b
200038a2:	a001                	j	200038a2 <LLE_IRQHandler>

200038a4 <USB_IRQHandler>:
USB_IRQHandler():
d:\CH573FEVT\LaserRangeFinder\obj/../Startup/startup_CH573.S:97
USB_IRQHandler:  1:  j 1b
200038a4:	a001                	j	200038a4 <USB_IRQHandler>

200038a6 <TMR1_IRQHandler>:
TMR1_IRQHandler():
d:\CH573FEVT\LaserRangeFinder\obj/../Startup/startup_CH573.S:98
TMR1_IRQHandler:  1:  j 1b
200038a6:	a001                	j	200038a6 <TMR1_IRQHandler>

200038a8 <TMR2_IRQHandler>:
TMR2_IRQHandler():
d:\CH573FEVT\LaserRangeFinder\obj/../Startup/startup_CH573.S:99
TMR2_IRQHandler:  1:  j 1b
200038a8:	a001                	j	200038a8 <TMR2_IRQHandler>

200038aa <UART0_IRQHandler>:
UART0_IRQHandler():
d:\CH573FEVT\LaserRangeFinder\obj/../Startup/startup_CH573.S:100
UART0_IRQHandler:  1:  j 1b
200038aa:	a001                	j	200038aa <UART0_IRQHandler>

200038ac <UART1_IRQHandler>:
UART1_IRQHandler():
d:\CH573FEVT\LaserRangeFinder\obj/../Startup/startup_CH573.S:101
UART1_IRQHandler:  1:  j 1b
200038ac:	a001                	j	200038ac <UART1_IRQHandler>

200038ae <RTC_IRQHandler>:
RTC_IRQHandler():
d:\CH573FEVT\LaserRangeFinder\obj/../Startup/startup_CH573.S:102
RTC_IRQHandler:  1:  j 1b
200038ae:	a001                	j	200038ae <RTC_IRQHandler>

200038b0 <ADC_IRQHandler>:
ADC_IRQHandler():
d:\CH573FEVT\LaserRangeFinder\obj/../Startup/startup_CH573.S:103
ADC_IRQHandler:  1:  j 1b
200038b0:	a001                	j	200038b0 <ADC_IRQHandler>

200038b2 <PWMX_IRQHandler>:
PWMX_IRQHandler():
d:\CH573FEVT\LaserRangeFinder\obj/../Startup/startup_CH573.S:104
PWMX_IRQHandler:  1:  j 1b
200038b2:	a001                	j	200038b2 <PWMX_IRQHandler>

200038b4 <TMR3_IRQHandler>:
TMR3_IRQHandler():
d:\CH573FEVT\LaserRangeFinder\obj/../Startup/startup_CH573.S:105
TMR3_IRQHandler:  1:  j 1b
200038b4:	a001                	j	200038b4 <TMR3_IRQHandler>

200038b6 <UART2_IRQHandler>:
UART2_IRQHandler():
d:\CH573FEVT\LaserRangeFinder\obj/../Startup/startup_CH573.S:106
UART2_IRQHandler:  1:  j 1b
200038b6:	a001                	j	200038b6 <UART2_IRQHandler>

200038b8 <UART3_IRQHandler>:
UART3_IRQHandler():
d:\CH573FEVT\LaserRangeFinder\obj/../Startup/startup_CH573.S:107
UART3_IRQHandler:  1:  j 1b
200038b8:	a001                	j	200038b8 <UART3_IRQHandler>

200038ba <WDOG_BAT_IRQHandler>:
WDOG_BAT_IRQHandler():
d:\CH573FEVT\LaserRangeFinder\obj/../Startup/startup_CH573.S:108
WDOG_BAT_IRQHandler:  1:  j 1b
200038ba:	a001                	j	200038ba <WDOG_BAT_IRQHandler>

200038bc <GPIOA_IRQHandler>:
GPIOA_IRQHandler():
d:\CH573FEVT\LaserRangeFinder\obj/../src/Main.c:100
 * 函数名：GPIOB_IRQHandler
 * 参数：无
 * 返回值：无
 * 功能说明：GPIOB端口的中断处理函数
 */
void GPIOA_IRQHandler (void) {
200038bc:	1141                	addi	sp,sp,-16
200038be:	c622                	sw	s0,12(sp)
d:\CH573FEVT\LaserRangeFinder\obj/../src/Main.c:101
    if(GPIOA_ReadITFlagBit(GPIO_Pin_4))
200038c0:	40001437          	lui	s0,0x40001
200038c4:	09c45783          	lhu	a5,156(s0) # 4000109c <_eusrstack+0x1fff909c>
200038c8:	8bc1                	andi	a5,a5,16
200038ca:	cf81                	beqz	a5,200038e2 <GPIOA_IRQHandler+0x26>
d:\CH573FEVT\LaserRangeFinder\obj/../src/Main.c:103
    {
        PRINT ("GPIO――A \n");
200038cc:	dfffe517          	auipc	a0,0xdfffe
200038d0:	43c50513          	addi	a0,a0,1084 # 1d08 <_read+0x22>
200038d4:	dfffd097          	auipc	ra,0xdfffd
200038d8:	484080e7          	jalr	1156(ra) # d58 <puts>
d:\CH573FEVT\LaserRangeFinder\obj/../src/Main.c:105
        // DelayMs (500); // 不建议在中断中长时间延时
        GPIOA_ClearITFlagBit (GPIO_Pin_4);
200038dc:	47c1                	li	a5,16
200038de:	08f41e23          	sh	a5,156(s0)
d:\CH573FEVT\LaserRangeFinder\obj/../src/Main.c:107
    }
200038e2:	4432                	lw	s0,12(sp)
200038e4:	0141                	addi	sp,sp,16
200038e6:	30200073          	mret

200038ea <SetSysClock>:
sys_safe_access_enable():
d:/CH573FEVT/LaserRangeFinder/StdPeriphDriver/inc/CH57x_sys.h:178
 * @NOTE: 进入安全访问模式后约16个系统主频周期都处于安全模式下，
 * 该有效期内可以改写一个或多个安全类寄存器，超出上述有效期后将自动终止安全模式。
 */
 __attribute__((always_inline)) static inline void sys_safe_access_enable(void)
{
    R8_SAFE_ACCESS_SIG = SAFE_ACCESS_SIG1;
200038ea:	400017b7          	lui	a5,0x40001
200038ee:	05700693          	li	a3,87
200038f2:	04d78023          	sb	a3,64(a5) # 40001040 <_eusrstack+0x1fff9040>
d:/CH573FEVT/LaserRangeFinder/StdPeriphDriver/inc/CH57x_sys.h:179
    R8_SAFE_ACCESS_SIG = SAFE_ACCESS_SIG2;
200038f6:	fa800713          	li	a4,-88
200038fa:	04e78023          	sb	a4,64(a5)
d:/CH573FEVT/LaserRangeFinder/StdPeriphDriver/inc/CH57x_sys.h:180
    asm volatile("fence.i");
200038fe:	0000100f          	fence.i
SetSysClock():
d:\CH573FEVT\LaserRangeFinder\obj/../StdPeriphDriver/CH57x_sys.c:29
__attribute__((section(".highcode")))
void SetSysClock(SYS_CLKTypeDef sc)
{
    uint32_t i;
    sys_safe_access_enable();
    R8_PLL_CONFIG &= ~(1 << 5); //
20003902:	04b7c603          	lbu	a2,75(a5)
20003906:	0df67613          	andi	a2,a2,223
2000390a:	04c785a3          	sb	a2,75(a5)
sys_safe_access_disable():
d:/CH573FEVT/LaserRangeFinder/StdPeriphDriver/inc/CH57x_sys.h:185
}

__attribute__((always_inline)) static inline void sys_safe_access_disable(void)
{
    R8_SAFE_ACCESS_SIG = 0;
2000390e:	04078023          	sb	zero,64(a5)
SetSysClock():
d:\CH573FEVT\LaserRangeFinder\obj/../StdPeriphDriver/CH57x_sys.c:31
    sys_safe_access_disable();
    if(sc & 0x20)
20003912:	02057613          	andi	a2,a0,32
20003916:	ca3d                	beqz	a2,2000398c <SetSysClock+0xa2>
d:\CH573FEVT\LaserRangeFinder\obj/../StdPeriphDriver/CH57x_sys.c:33
    { // HSE div
        if(!(R8_HFCK_PWR_CTRL & RB_CLK_XT32M_PON))
20003918:	00a7c603          	lbu	a2,10(a5)
2000391c:	8a11                	andi	a2,a2,4
2000391e:	e21d                	bnez	a2,20003944 <SetSysClock+0x5a>
sys_safe_access_enable():
d:/CH573FEVT/LaserRangeFinder/StdPeriphDriver/inc/CH57x_sys.h:178
    R8_SAFE_ACCESS_SIG = SAFE_ACCESS_SIG1;
20003920:	04d78023          	sb	a3,64(a5)
d:/CH573FEVT/LaserRangeFinder/StdPeriphDriver/inc/CH57x_sys.h:179
    R8_SAFE_ACCESS_SIG = SAFE_ACCESS_SIG2;
20003924:	04e78023          	sb	a4,64(a5)
d:/CH573FEVT/LaserRangeFinder/StdPeriphDriver/inc/CH57x_sys.h:180
    asm volatile("fence.i");
20003928:	0000100f          	fence.i
SetSysClock():
d:\CH573FEVT\LaserRangeFinder\obj/../StdPeriphDriver/CH57x_sys.c:36
        {
            sys_safe_access_enable();
            R8_HFCK_PWR_CTRL |= RB_CLK_XT32M_PON; // HSE power on
2000392c:	00a7c703          	lbu	a4,10(a5)
20003930:	00476713          	ori	a4,a4,4
20003934:	00e78523          	sb	a4,10(a5)
20003938:	4b000793          	li	a5,1200
d:\CH573FEVT\LaserRangeFinder\obj/../StdPeriphDriver/CH57x_sys.c:39 (discriminator 3)
            for(i = 0; i < 1200; i++)
            {
                __nop();
2000393c:	0001                	nop
d:\CH573FEVT\LaserRangeFinder\obj/../StdPeriphDriver/CH57x_sys.c:40 (discriminator 3)
                __nop();
2000393e:	0001                	nop
20003940:	17fd                	addi	a5,a5,-1
d:\CH573FEVT\LaserRangeFinder\obj/../StdPeriphDriver/CH57x_sys.c:37 (discriminator 3)
            for(i = 0; i < 1200; i++)
20003942:	ffed                	bnez	a5,2000393c <SetSysClock+0x52>
sys_safe_access_enable():
d:/CH573FEVT/LaserRangeFinder/StdPeriphDriver/inc/CH57x_sys.h:178
    R8_SAFE_ACCESS_SIG = SAFE_ACCESS_SIG1;
20003944:	400017b7          	lui	a5,0x40001
20003948:	05700693          	li	a3,87
2000394c:	04d78023          	sb	a3,64(a5) # 40001040 <_eusrstack+0x1fff9040>
d:/CH573FEVT/LaserRangeFinder/StdPeriphDriver/inc/CH57x_sys.h:179
    R8_SAFE_ACCESS_SIG = SAFE_ACCESS_SIG2;
20003950:	fa800713          	li	a4,-88
20003954:	04e78023          	sb	a4,64(a5)
d:/CH573FEVT/LaserRangeFinder/StdPeriphDriver/inc/CH57x_sys.h:180
    asm volatile("fence.i");
20003958:	0000100f          	fence.i
SetSysClock():
d:\CH573FEVT\LaserRangeFinder\obj/../StdPeriphDriver/CH57x_sys.c:45
            }
        }

        sys_safe_access_enable();
        R16_CLK_SYS_CFG = (0 << 6) | (sc & 0x1f);
2000395c:	897d                	andi	a0,a0,31
2000395e:	00a79423          	sh	a0,8(a5)
d:\CH573FEVT\LaserRangeFinder\obj/../StdPeriphDriver/CH57x_sys.c:46
        __nop();
20003962:	0001                	nop
d:\CH573FEVT\LaserRangeFinder\obj/../StdPeriphDriver/CH57x_sys.c:47
        __nop();
20003964:	0001                	nop
d:\CH573FEVT\LaserRangeFinder\obj/../StdPeriphDriver/CH57x_sys.c:48
        __nop();
20003966:	0001                	nop
d:\CH573FEVT\LaserRangeFinder\obj/../StdPeriphDriver/CH57x_sys.c:49
        __nop();
20003968:	0001                	nop
sys_safe_access_disable():
d:/CH573FEVT/LaserRangeFinder/StdPeriphDriver/inc/CH57x_sys.h:185
    R8_SAFE_ACCESS_SIG = 0;
2000396a:	04078023          	sb	zero,64(a5)
sys_safe_access_enable():
d:/CH573FEVT/LaserRangeFinder/StdPeriphDriver/inc/CH57x_sys.h:178
    R8_SAFE_ACCESS_SIG = SAFE_ACCESS_SIG1;
2000396e:	04d78023          	sb	a3,64(a5)
d:/CH573FEVT/LaserRangeFinder/StdPeriphDriver/inc/CH57x_sys.h:179
    R8_SAFE_ACCESS_SIG = SAFE_ACCESS_SIG2;
20003972:	04e78023          	sb	a4,64(a5)
d:/CH573FEVT/LaserRangeFinder/StdPeriphDriver/inc/CH57x_sys.h:180
    asm volatile("fence.i");
20003976:	0000100f          	fence.i
SetSysClock():
d:\CH573FEVT\LaserRangeFinder\obj/../StdPeriphDriver/CH57x_sys.c:52
        sys_safe_access_disable();
        sys_safe_access_enable();
        R8_FLASH_CFG = 0X51;
2000397a:	40002737          	lui	a4,0x40002
2000397e:	05100693          	li	a3,81
d:\CH573FEVT\LaserRangeFinder\obj/../StdPeriphDriver/CH57x_sys.c:76
        __nop();
        __nop();
        __nop();
        sys_safe_access_disable();
        sys_safe_access_enable();
        R8_FLASH_CFG = 0X53;
20003982:	80d703a3          	sb	a3,-2041(a4) # 40001807 <_eusrstack+0x1fff9807>
sys_safe_access_disable():
d:/CH573FEVT/LaserRangeFinder/StdPeriphDriver/inc/CH57x_sys.h:185
    R8_SAFE_ACCESS_SIG = 0;
20003986:	04078023          	sb	zero,64(a5)
SetSysClock():
d:\CH573FEVT\LaserRangeFinder\obj/../StdPeriphDriver/CH57x_sys.c:79
        sys_safe_access_disable();
    }
}
2000398a:	8082                	ret
d:\CH573FEVT\LaserRangeFinder\obj/../StdPeriphDriver/CH57x_sys.c:56
    else if(sc & 0x40)
2000398c:	04057613          	andi	a2,a0,64
20003990:	de6d                	beqz	a2,2000398a <SetSysClock+0xa0>
d:\CH573FEVT\LaserRangeFinder\obj/../StdPeriphDriver/CH57x_sys.c:58
        if(!(R8_HFCK_PWR_CTRL & RB_CLK_PLL_PON))
20003992:	00a7c603          	lbu	a2,10(a5)
20003996:	8a41                	andi	a2,a2,16
20003998:	e21d                	bnez	a2,200039be <SetSysClock+0xd4>
sys_safe_access_enable():
d:/CH573FEVT/LaserRangeFinder/StdPeriphDriver/inc/CH57x_sys.h:178
    R8_SAFE_ACCESS_SIG = SAFE_ACCESS_SIG1;
2000399a:	04d78023          	sb	a3,64(a5)
d:/CH573FEVT/LaserRangeFinder/StdPeriphDriver/inc/CH57x_sys.h:179
    R8_SAFE_ACCESS_SIG = SAFE_ACCESS_SIG2;
2000399e:	04e78023          	sb	a4,64(a5)
d:/CH573FEVT/LaserRangeFinder/StdPeriphDriver/inc/CH57x_sys.h:180
    asm volatile("fence.i");
200039a2:	0000100f          	fence.i
SetSysClock():
d:\CH573FEVT\LaserRangeFinder\obj/../StdPeriphDriver/CH57x_sys.c:61
            R8_HFCK_PWR_CTRL |= RB_CLK_PLL_PON; // PLL power on
200039a6:	00a7c703          	lbu	a4,10(a5)
200039aa:	01076713          	ori	a4,a4,16
200039ae:	00e78523          	sb	a4,10(a5)
200039b2:	7d000793          	li	a5,2000
d:\CH573FEVT\LaserRangeFinder\obj/../StdPeriphDriver/CH57x_sys.c:64 (discriminator 3)
                __nop();
200039b6:	0001                	nop
d:\CH573FEVT\LaserRangeFinder\obj/../StdPeriphDriver/CH57x_sys.c:65 (discriminator 3)
                __nop();
200039b8:	0001                	nop
200039ba:	17fd                	addi	a5,a5,-1
d:\CH573FEVT\LaserRangeFinder\obj/../StdPeriphDriver/CH57x_sys.c:62 (discriminator 3)
            for(i = 0; i < 2000; i++)
200039bc:	ffed                	bnez	a5,200039b6 <SetSysClock+0xcc>
sys_safe_access_enable():
d:/CH573FEVT/LaserRangeFinder/StdPeriphDriver/inc/CH57x_sys.h:178
    R8_SAFE_ACCESS_SIG = SAFE_ACCESS_SIG1;
200039be:	400017b7          	lui	a5,0x40001
200039c2:	05700693          	li	a3,87
200039c6:	04d78023          	sb	a3,64(a5) # 40001040 <_eusrstack+0x1fff9040>
d:/CH573FEVT/LaserRangeFinder/StdPeriphDriver/inc/CH57x_sys.h:179
    R8_SAFE_ACCESS_SIG = SAFE_ACCESS_SIG2;
200039ca:	fa800713          	li	a4,-88
200039ce:	04e78023          	sb	a4,64(a5)
d:/CH573FEVT/LaserRangeFinder/StdPeriphDriver/inc/CH57x_sys.h:180
    asm volatile("fence.i");
200039d2:	0000100f          	fence.i
SetSysClock():
d:\CH573FEVT\LaserRangeFinder\obj/../StdPeriphDriver/CH57x_sys.c:69
        R16_CLK_SYS_CFG = (1 << 6) | (sc & 0x1f);
200039d6:	897d                	andi	a0,a0,31
200039d8:	04056513          	ori	a0,a0,64
200039dc:	00a79423          	sh	a0,8(a5)
d:\CH573FEVT\LaserRangeFinder\obj/../StdPeriphDriver/CH57x_sys.c:70
        __nop();
200039e0:	0001                	nop
d:\CH573FEVT\LaserRangeFinder\obj/../StdPeriphDriver/CH57x_sys.c:71
        __nop();
200039e2:	0001                	nop
d:\CH573FEVT\LaserRangeFinder\obj/../StdPeriphDriver/CH57x_sys.c:72
        __nop();
200039e4:	0001                	nop
d:\CH573FEVT\LaserRangeFinder\obj/../StdPeriphDriver/CH57x_sys.c:73
        __nop();
200039e6:	0001                	nop
sys_safe_access_disable():
d:/CH573FEVT/LaserRangeFinder/StdPeriphDriver/inc/CH57x_sys.h:185
    R8_SAFE_ACCESS_SIG = 0;
200039e8:	04078023          	sb	zero,64(a5)
sys_safe_access_enable():
d:/CH573FEVT/LaserRangeFinder/StdPeriphDriver/inc/CH57x_sys.h:178
    R8_SAFE_ACCESS_SIG = SAFE_ACCESS_SIG1;
200039ec:	04d78023          	sb	a3,64(a5)
d:/CH573FEVT/LaserRangeFinder/StdPeriphDriver/inc/CH57x_sys.h:179
    R8_SAFE_ACCESS_SIG = SAFE_ACCESS_SIG2;
200039f0:	04e78023          	sb	a4,64(a5)
d:/CH573FEVT/LaserRangeFinder/StdPeriphDriver/inc/CH57x_sys.h:180
    asm volatile("fence.i");
200039f4:	0000100f          	fence.i
SetSysClock():
d:\CH573FEVT\LaserRangeFinder\obj/../StdPeriphDriver/CH57x_sys.c:76
        R8_FLASH_CFG = 0X53;
200039f8:	40002737          	lui	a4,0x40002
200039fc:	05300693          	li	a3,83
20003a00:	b749                	j	20003982 <SetSysClock+0x98>

20003a02 <SYS_ResetExecute>:
SYS_ResetExecute():
d:\CH573FEVT\LaserRangeFinder\obj/../StdPeriphDriver/CH57x_sys.c:141
 *
 * @return  none
 */
__attribute__((section(".highcode")))
void SYS_ResetExecute(void)
{
20003a02:	1141                	addi	sp,sp,-16
d:\CH573FEVT\LaserRangeFinder\obj/../StdPeriphDriver/CH57x_sys.c:142
    FLASH_ROM_SW_RESET();
20003a04:	4681                	li	a3,0
20003a06:	4601                	li	a2,0
20003a08:	4581                	li	a1,0
20003a0a:	4511                	li	a0,4
d:\CH573FEVT\LaserRangeFinder\obj/../StdPeriphDriver/CH57x_sys.c:141
{
20003a0c:	c606                	sw	ra,12(sp)
d:\CH573FEVT\LaserRangeFinder\obj/../StdPeriphDriver/CH57x_sys.c:142
    FLASH_ROM_SW_RESET();
20003a0e:	229d                	jal	20003b74 <FLASH_EEPROM_CMD>
sys_safe_access_enable():
d:/CH573FEVT/LaserRangeFinder/StdPeriphDriver/inc/CH57x_sys.h:178
    R8_SAFE_ACCESS_SIG = SAFE_ACCESS_SIG1;
20003a10:	400017b7          	lui	a5,0x40001
20003a14:	05700713          	li	a4,87
20003a18:	04e78023          	sb	a4,64(a5) # 40001040 <_eusrstack+0x1fff9040>
d:/CH573FEVT/LaserRangeFinder/StdPeriphDriver/inc/CH57x_sys.h:179
    R8_SAFE_ACCESS_SIG = SAFE_ACCESS_SIG2;
20003a1c:	fa800713          	li	a4,-88
20003a20:	04e78023          	sb	a4,64(a5)
d:/CH573FEVT/LaserRangeFinder/StdPeriphDriver/inc/CH57x_sys.h:180
    asm volatile("fence.i");
20003a24:	0000100f          	fence.i
SYS_ResetExecute():
d:\CH573FEVT\LaserRangeFinder\obj/../StdPeriphDriver/CH57x_sys.c:144
    sys_safe_access_enable();
    R8_RST_WDOG_CTRL |= RB_SOFTWARE_RESET;
20003a28:	0467c703          	lbu	a4,70(a5)
20003a2c:	00176713          	ori	a4,a4,1
20003a30:	04e78323          	sb	a4,70(a5)
sys_safe_access_disable():
d:/CH573FEVT/LaserRangeFinder/StdPeriphDriver/inc/CH57x_sys.h:185
    R8_SAFE_ACCESS_SIG = 0;
20003a34:	04078023          	sb	zero,64(a5)
SYS_ResetExecute():
d:\CH573FEVT\LaserRangeFinder\obj/../StdPeriphDriver/CH57x_sys.c:146
    sys_safe_access_disable();
}
20003a38:	40b2                	lw	ra,12(sp)
20003a3a:	0141                	addi	sp,sp,16
20003a3c:	8082                	ret

20003a3e <HardFault_Handler>:
HardFault_Handler():
d:\CH573FEVT\LaserRangeFinder\obj/../StdPeriphDriver/CH57x_sys.c:281
__attribute__((interrupt("WCH-Interrupt-fast")))
__attribute__((section(".highcode")))
__attribute__((weak))
void HardFault_Handler(void)
{
    FLASH_ROM_SW_RESET();
20003a3e:	4681                	li	a3,0
20003a40:	4601                	li	a2,0
20003a42:	4581                	li	a1,0
20003a44:	4511                	li	a0,4
20003a46:	223d                	jal	20003b74 <FLASH_EEPROM_CMD>
sys_safe_access_enable():
d:/CH573FEVT/LaserRangeFinder/StdPeriphDriver/inc/CH57x_sys.h:178
    R8_SAFE_ACCESS_SIG = SAFE_ACCESS_SIG1;
20003a48:	400017b7          	lui	a5,0x40001
20003a4c:	05700693          	li	a3,87
20003a50:	04d78023          	sb	a3,64(a5) # 40001040 <_eusrstack+0x1fff9040>
d:/CH573FEVT/LaserRangeFinder/StdPeriphDriver/inc/CH57x_sys.h:179
    R8_SAFE_ACCESS_SIG = SAFE_ACCESS_SIG2;
20003a54:	fa800713          	li	a4,-88
20003a58:	04e78023          	sb	a4,64(a5)
d:/CH573FEVT/LaserRangeFinder/StdPeriphDriver/inc/CH57x_sys.h:180
    asm volatile("fence.i");
20003a5c:	0000100f          	fence.i
HardFault_Handler():
d:\CH573FEVT\LaserRangeFinder\obj/../StdPeriphDriver/CH57x_sys.c:283
    sys_safe_access_enable();
    R16_INT32K_TUNE = 0xFFFF;
20003a60:	567d                	li	a2,-1
20003a62:	02c79623          	sh	a2,44(a5)
sys_safe_access_enable():
d:/CH573FEVT/LaserRangeFinder/StdPeriphDriver/inc/CH57x_sys.h:178
    R8_SAFE_ACCESS_SIG = SAFE_ACCESS_SIG1;
20003a66:	04d78023          	sb	a3,64(a5)
d:/CH573FEVT/LaserRangeFinder/StdPeriphDriver/inc/CH57x_sys.h:179
    R8_SAFE_ACCESS_SIG = SAFE_ACCESS_SIG2;
20003a6a:	04e78023          	sb	a4,64(a5)
d:/CH573FEVT/LaserRangeFinder/StdPeriphDriver/inc/CH57x_sys.h:180
    asm volatile("fence.i");
20003a6e:	0000100f          	fence.i
HardFault_Handler():
d:\CH573FEVT\LaserRangeFinder\obj/../StdPeriphDriver/CH57x_sys.c:285
    sys_safe_access_enable();
    R8_RST_WDOG_CTRL |= RB_SOFTWARE_RESET;
20003a72:	0467c703          	lbu	a4,70(a5)
20003a76:	00176713          	ori	a4,a4,1
20003a7a:	04e78323          	sb	a4,70(a5)
sys_safe_access_disable():
d:/CH573FEVT/LaserRangeFinder/StdPeriphDriver/inc/CH57x_sys.h:185
    R8_SAFE_ACCESS_SIG = 0;
20003a7e:	04078023          	sb	zero,64(a5)
HardFault_Handler():
d:\CH573FEVT\LaserRangeFinder\obj/../StdPeriphDriver/CH57x_sys.c:287 (discriminator 1)
    sys_safe_access_disable();
    while(1);
20003a82:	a001                	j	20003a82 <HardFault_Handler+0x44>

20003a84 <mDelayuS>:
mDelayuS():
d:\CH573FEVT\LaserRangeFinder\obj/../StdPeriphDriver/CH57x_sys.c:304
__attribute__((section(".highcode")))
void mDelayuS(uint16_t t)
{
    uint32_t i;
#if(FREQ_SYS == 60000000)
    i = t * 15;
20003a84:	47bd                	li	a5,15
20003a86:	02f50533          	mul	a0,a0,a5
d:\CH573FEVT\LaserRangeFinder\obj/../StdPeriphDriver/CH57x_sys.c:326 (discriminator 1)
#elif(FREQ_SYS == 1000000)
    i = t >> 2;
#endif
    do
    {
        __nop();
20003a8a:	0001                	nop
d:\CH573FEVT\LaserRangeFinder\obj/../StdPeriphDriver/CH57x_sys.c:327 (discriminator 1)
    } while(--i);
20003a8c:	157d                	addi	a0,a0,-1
20003a8e:	fd75                	bnez	a0,20003a8a <mDelayuS+0x6>
d:\CH573FEVT\LaserRangeFinder\obj/../StdPeriphDriver/CH57x_sys.c:328
}
20003a90:	8082                	ret

20003a92 <mDelaymS>:
mDelaymS():
d:\CH573FEVT\LaserRangeFinder\obj/../StdPeriphDriver/CH57x_sys.c:341
 *
 * @return  none
 */
__attribute__((section(".highcode")))
void mDelaymS(uint16_t t)
{
20003a92:	1141                	addi	sp,sp,-16
20003a94:	c422                	sw	s0,8(sp)
20003a96:	c226                	sw	s1,4(sp)
20003a98:	c606                	sw	ra,12(sp)
20003a9a:	84aa                	mv	s1,a0
d:\CH573FEVT\LaserRangeFinder\obj/../StdPeriphDriver/CH57x_sys.c:344
    uint16_t i;

    for(i = 0; i < t; i++)
20003a9c:	4401                	li	s0,0
d:\CH573FEVT\LaserRangeFinder\obj/../StdPeriphDriver/CH57x_sys.c:344 (discriminator 1)
20003a9e:	00941763          	bne	s0,s1,20003aac <mDelaymS+0x1a>
d:\CH573FEVT\LaserRangeFinder\obj/../StdPeriphDriver/CH57x_sys.c:348
    {
        mDelayuS(1000);
    }
}
20003aa2:	40b2                	lw	ra,12(sp)
20003aa4:	4422                	lw	s0,8(sp)
20003aa6:	4492                	lw	s1,4(sp)
20003aa8:	0141                	addi	sp,sp,16
20003aaa:	8082                	ret
d:\CH573FEVT\LaserRangeFinder\obj/../StdPeriphDriver/CH57x_sys.c:344 (discriminator 3)
    for(i = 0; i < t; i++)
20003aac:	0405                	addi	s0,s0,1
d:\CH573FEVT\LaserRangeFinder\obj/../StdPeriphDriver/CH57x_sys.c:346 (discriminator 3)
        mDelayuS(1000);
20003aae:	3e800513          	li	a0,1000
d:\CH573FEVT\LaserRangeFinder\obj/../StdPeriphDriver/CH57x_sys.c:344 (discriminator 3)
    for(i = 0; i < t; i++)
20003ab2:	0442                	slli	s0,s0,0x10
d:\CH573FEVT\LaserRangeFinder\obj/../StdPeriphDriver/CH57x_sys.c:346 (discriminator 3)
        mDelayuS(1000);
20003ab4:	3fc1                	jal	20003a84 <mDelayuS>
d:\CH573FEVT\LaserRangeFinder\obj/../StdPeriphDriver/CH57x_sys.c:344 (discriminator 3)
    for(i = 0; i < t; i++)
20003ab6:	8041                	srli	s0,s0,0x10
20003ab8:	b7dd                	j	20003a9e <mDelaymS+0xc>

20003aba <FLASH_ROM_BEG>:
FLASH_ROM_BEG():
20003aba:	80040323          	sb	zero,-2042(s0)
20003abe:	4795                	li	a5,5
20003ac0:	80f40323          	sb	a5,-2042(s0)
20003ac4:	80a40223          	sb	a0,-2044(s0)
20003ac8:	8082                	ret

20003aca <FLASH_ROM_END>:
FLASH_ROM_END():
20003aca:	80640783          	lb	a5,-2042(s0)
20003ace:	fe07cee3          	bltz	a5,20003aca <FLASH_ROM_END>
20003ad2:	80040323          	sb	zero,-2042(s0)
20003ad6:	8082                	ret

20003ad8 <FLASH_ROM_IN>:
FLASH_ROM_IN():
20003ad8:	80640783          	lb	a5,-2042(s0)
20003adc:	fe07cee3          	bltz	a5,20003ad8 <FLASH_ROM_IN>
20003ae0:	80444503          	lbu	a0,-2044(s0)
20003ae4:	8082                	ret

20003ae6 <FLASH_ROM_OUT>:
FLASH_ROM_OUT():
20003ae6:	80640783          	lb	a5,-2042(s0)
20003aea:	fe07cee3          	bltz	a5,20003ae6 <FLASH_ROM_OUT>
20003aee:	80a40223          	sb	a0,-2044(s0)
20003af2:	8082                	ret

20003af4 <FLASH_ROM_ADDR>:
FLASH_ROM_ADDR():
20003af4:	1141                	addi	sp,sp,-16
20003af6:	c426                	sw	s1,8(sp)
20003af8:	c24a                	sw	s2,4(sp)
20003afa:	c04e                	sw	s3,0(sp)
20003afc:	c606                	sw	ra,12(sp)
20003afe:	0bf57713          	andi	a4,a0,191
20003b02:	47ad                	li	a5,11
20003b04:	89aa                	mv	s3,a0
20003b06:	892e                	mv	s2,a1
20003b08:	4495                	li	s1,5
20003b0a:	00f70663          	beq	a4,a5,20003b16 <FLASH_ROM_ADDR+0x22>
20003b0e:	4519                	li	a0,6
20003b10:	376d                	jal	20003aba <FLASH_ROM_BEG>
20003b12:	3f65                	jal	20003aca <FLASH_ROM_END>
20003b14:	448d                	li	s1,3
20003b16:	854e                	mv	a0,s3
20003b18:	374d                	jal	20003aba <FLASH_ROM_BEG>
20003b1a:	59fd                	li	s3,-1
20003b1c:	14fd                	addi	s1,s1,-1
20003b1e:	01349863          	bne	s1,s3,20003b2e <FLASH_ROM_ADDR+0x3a>
20003b22:	40b2                	lw	ra,12(sp)
20003b24:	44a2                	lw	s1,8(sp)
20003b26:	4912                	lw	s2,4(sp)
20003b28:	4982                	lw	s3,0(sp)
20003b2a:	0141                	addi	sp,sp,16
20003b2c:	8082                	ret
20003b2e:	01095513          	srli	a0,s2,0x10
20003b32:	0ff57513          	andi	a0,a0,255
20003b36:	3f45                	jal	20003ae6 <FLASH_ROM_OUT>
20003b38:	0922                	slli	s2,s2,0x8
20003b3a:	b7cd                	j	20003b1c <FLASH_ROM_ADDR+0x28>

20003b3c <FLASH_ROM_WAIT>:
FLASH_ROM_WAIT():
20003b3c:	1101                	addi	sp,sp,-32
20003b3e:	cc26                	sw	s1,24(sp)
20003b40:	ce06                	sw	ra,28(sp)
20003b42:	000804b7          	lui	s1,0x80
20003b46:	3751                	jal	20003aca <FLASH_ROM_END>
20003b48:	4515                	li	a0,5
20003b4a:	3f85                	jal	20003aba <FLASH_ROM_BEG>
20003b4c:	3771                	jal	20003ad8 <FLASH_ROM_IN>
20003b4e:	3769                	jal	20003ad8 <FLASH_ROM_IN>
20003b50:	c62a                	sw	a0,12(sp)
20003b52:	3fa5                	jal	20003aca <FLASH_ROM_END>
20003b54:	4532                	lw	a0,12(sp)
20003b56:	00157793          	andi	a5,a0,1
20003b5a:	eb89                	bnez	a5,20003b6c <FLASH_ROM_WAIT+0x30>
20003b5c:	00156513          	ori	a0,a0,1
20003b60:	0ff57513          	andi	a0,a0,255
20003b64:	40f2                	lw	ra,28(sp)
20003b66:	44e2                	lw	s1,24(sp)
20003b68:	6105                	addi	sp,sp,32
20003b6a:	8082                	ret
20003b6c:	14fd                	addi	s1,s1,-1
20003b6e:	fce9                	bnez	s1,20003b48 <FLASH_ROM_WAIT+0xc>
20003b70:	4501                	li	a0,0
20003b72:	bfcd                	j	20003b64 <FLASH_ROM_WAIT+0x28>

20003b74 <FLASH_EEPROM_CMD>:
FLASH_EEPROM_CMD():
20003b74:	7139                	addi	sp,sp,-64
20003b76:	dc26                	sw	s1,56(sp)
20003b78:	da4a                	sw	s2,52(sp)
20003b7a:	d84e                	sw	s3,48(sp)
20003b7c:	d652                	sw	s4,44(sp)
20003b7e:	d456                	sw	s5,40(sp)
20003b80:	d25a                	sw	s6,36(sp)
20003b82:	d05e                	sw	s7,32(sp)
20003b84:	ce62                	sw	s8,28(sp)
20003b86:	e000e7b7          	lui	a5,0xe000e
20003b8a:	de06                	sw	ra,60(sp)
20003b8c:	cc66                	sw	s9,24(sp)
20003b8e:	ca6a                	sw	s10,20(sp)
20003b90:	4741                	li	a4,16
20003b92:	0407ab83          	lw	s7,64(a5) # e000e040 <_eusrstack+0xc0006040>
20003b96:	c622                	sw	s0,12(sp)
20003b98:	c3b8                	sw	a4,64(a5)
20003b9a:	577d                	li	a4,-1
20003b9c:	0007ab03          	lw	s6,0(a5)
20003ba0:	0047aa83          	lw	s5,4(a5)
20003ba4:	18e7a023          	sw	a4,384(a5)
20003ba8:	18e7a223          	sw	a4,388(a5)
20003bac:	400017b7          	lui	a5,0x40001
20003bb0:	05700713          	li	a4,87
20003bb4:	04e78023          	sb	a4,64(a5) # 40001040 <_eusrstack+0x1fff9040>
20003bb8:	fa800713          	li	a4,-88
20003bbc:	04e78023          	sb	a4,64(a5)
20003bc0:	0447c783          	lbu	a5,68(a5)
20003bc4:	ff750c13          	addi	s8,a0,-9
20003bc8:	84b6                	mv	s1,a3
20003bca:	07e2                	slli	a5,a5,0x18
20003bcc:	0ffc7c13          	andi	s8,s8,255
20003bd0:	4685                	li	a3,1
20003bd2:	8a2a                	mv	s4,a0
20003bd4:	892e                	mv	s2,a1
20003bd6:	89b2                	mv	s3,a2
20003bd8:	40002437          	lui	s0,0x40002
20003bdc:	87e1                	srai	a5,a5,0x18
20003bde:	5701                	li	a4,-32
20003be0:	0186fa63          	bgeu	a3,s8,20003bf4 <FLASH_EEPROM_CMD+0x80>
20003be4:	00d50863          	beq	a0,a3,20003bf4 <FLASH_EEPROM_CMD+0x80>
20003be8:	4689                	li	a3,2
20003bea:	02000713          	li	a4,32
20003bee:	00d51363          	bne	a0,a3,20003bf4 <FLASH_EEPROM_CMD+0x80>
20003bf2:	5701                	li	a4,-32
20003bf4:	8fd9                	or	a5,a5,a4
20003bf6:	0ff7f793          	andi	a5,a5,255
20003bfa:	40001d37          	lui	s10,0x40001
20003bfe:	04fd0223          	sb	a5,68(s10) # 40001044 <_eusrstack+0x1fff9044>
20003c02:	4711                	li	a4,4
20003c04:	80e40323          	sb	a4,-2042(s0) # 40001806 <_eusrstack+0x1fff9806>
20003c08:	0ff00513          	li	a0,255
20003c0c:	357d                	jal	20003aba <FLASH_ROM_BEG>
20003c0e:	4c89                	li	s9,2
20003c10:	3d6d                	jal	20003aca <FLASH_ROM_END>
20003c12:	118ceb63          	bltu	s9,s8,20003d28 <FLASH_EEPROM_CMD+0x1b4>
20003c16:	000707b7          	lui	a5,0x70
20003c1a:	993e                	add	s2,s2,a5
20003c1c:	00078737          	lui	a4,0x78
20003c20:	5579                	li	a0,-2
20003c22:	02e97e63          	bgeu	s2,a4,20003c5e <FLASH_EEPROM_CMD+0xea>
20003c26:	009907b3          	add	a5,s2,s1
20003c2a:	02f76a63          	bltu	a4,a5,20003c5e <FLASH_EEPROM_CMD+0xea>
20003c2e:	47a9                	li	a5,10
20003c30:	06fa1c63          	bne	s4,a5,20003ca8 <FLASH_EEPROM_CMD+0x134>
20003c34:	e489                	bnez	s1,20003c3e <FLASH_EEPROM_CMD+0xca>
20003c36:	4481                	li	s1,0
20003c38:	3d49                	jal	20003aca <FLASH_ROM_END>
20003c3a:	8526                	mv	a0,s1
20003c3c:	a00d                	j	20003c5e <FLASH_EEPROM_CMD+0xea>
20003c3e:	85ca                	mv	a1,s2
20003c40:	4509                	li	a0,2
20003c42:	3d4d                	jal	20003af4 <FLASH_ROM_ADDR>
20003c44:	0985                	addi	s3,s3,1
20003c46:	fff9c503          	lbu	a0,-1(s3)
20003c4a:	14fd                	addi	s1,s1,-1
20003c4c:	0905                	addi	s2,s2,1
20003c4e:	3d61                	jal	20003ae6 <FLASH_ROM_OUT>
20003c50:	c481                	beqz	s1,20003c58 <FLASH_EEPROM_CMD+0xe4>
20003c52:	0ff97793          	andi	a5,s2,255
20003c56:	f7fd                	bnez	a5,20003c44 <FLASH_EEPROM_CMD+0xd0>
20003c58:	35d5                	jal	20003b3c <FLASH_ROM_WAIT>
20003c5a:	fd69                	bnez	a0,20003c34 <FLASH_EEPROM_CMD+0xc0>
20003c5c:	557d                	li	a0,-1
20003c5e:	400017b7          	lui	a5,0x40001
20003c62:	05700713          	li	a4,87
20003c66:	04e78023          	sb	a4,64(a5) # 40001040 <_eusrstack+0x1fff9040>
20003c6a:	fa800713          	li	a4,-88
20003c6e:	04e78023          	sb	a4,64(a5)
20003c72:	0447c703          	lbu	a4,68(a5)
20003c76:	8b41                	andi	a4,a4,16
20003c78:	04e78223          	sb	a4,68(a5)
20003c7c:	e000e7b7          	lui	a5,0xe000e
20003c80:	0577a023          	sw	s7,64(a5) # e000e040 <_eusrstack+0xc0006040>
20003c84:	50f2                	lw	ra,60(sp)
20003c86:	1167a023          	sw	s6,256(a5)
20003c8a:	1157a223          	sw	s5,260(a5)
20003c8e:	54e2                	lw	s1,56(sp)
20003c90:	4432                	lw	s0,12(sp)
20003c92:	5952                	lw	s2,52(sp)
20003c94:	59c2                	lw	s3,48(sp)
20003c96:	5a32                	lw	s4,44(sp)
20003c98:	5aa2                	lw	s5,40(sp)
20003c9a:	5b12                	lw	s6,36(sp)
20003c9c:	5b82                	lw	s7,32(sp)
20003c9e:	4c72                	lw	s8,28(sp)
20003ca0:	4ce2                	lw	s9,24(sp)
20003ca2:	4d52                	lw	s10,20(sp)
20003ca4:	6121                	addi	sp,sp,64
20003ca6:	8082                	ret
20003ca8:	47a5                	li	a5,9
20003caa:	06fa1463          	bne	s4,a5,20003d12 <FLASH_EEPROM_CMD+0x19e>
20003cae:	6985                	lui	s3,0x1
20003cb0:	0ff00793          	li	a5,255
20003cb4:	009786b3          	add	a3,a5,s1
20003cb8:	00f974b3          	and	s1,s2,a5
20003cbc:	94b6                	add	s1,s1,a3
20003cbe:	fff7c793          	not	a5,a5
20003cc2:	8cfd                	and	s1,s1,a5
20003cc4:	0127f933          	and	s2,a5,s2
20003cc8:	6a41                	lui	s4,0x10
20003cca:	6c05                	lui	s8,0x1
20003ccc:	fff98793          	addi	a5,s3,-1 # fff <__sflush_r+0xa1>
20003cd0:	0127f7b3          	and	a5,a5,s2
20003cd4:	e399                	bnez	a5,20003cda <FLASH_EEPROM_CMD+0x166>
20003cd6:	0134fc63          	bgeu	s1,s3,20003cee <FLASH_EEPROM_CMD+0x17a>
20003cda:	0049d993          	srli	s3,s3,0x4
20003cde:	47c1                	li	a5,16
20003ce0:	ff37e6e3          	bltu	a5,s3,20003ccc <FLASH_EEPROM_CMD+0x158>
20003ce4:	bf89                	j	20003c36 <FLASH_EEPROM_CMD+0xc2>
20003ce6:	6785                	lui	a5,0x1
20003ce8:	69c1                	lui	s3,0x10
20003cea:	17fd                	addi	a5,a5,-1
20003cec:	b7e1                	j	20003cb4 <FLASH_EEPROM_CMD+0x140>
20003cee:	0d800513          	li	a0,216
20003cf2:	01498863          	beq	s3,s4,20003d02 <FLASH_EEPROM_CMD+0x18e>
20003cf6:	02000513          	li	a0,32
20003cfa:	01898463          	beq	s3,s8,20003d02 <FLASH_EEPROM_CMD+0x18e>
20003cfe:	08100513          	li	a0,129
20003d02:	85ca                	mv	a1,s2
20003d04:	3bc5                	jal	20003af4 <FLASH_ROM_ADDR>
20003d06:	3d1d                	jal	20003b3c <FLASH_ROM_WAIT>
20003d08:	d931                	beqz	a0,20003c5c <FLASH_EEPROM_CMD+0xe8>
20003d0a:	994e                	add	s2,s2,s3
20003d0c:	413484b3          	sub	s1,s1,s3
20003d10:	b7d9                	j	20003cd6 <FLASH_EEPROM_CMD+0x162>
20003d12:	85ca                	mv	a1,s2
20003d14:	452d                	li	a0,11
20003d16:	3bf9                	jal	20003af4 <FLASH_ROM_ADDR>
20003d18:	94ce                	add	s1,s1,s3
20003d1a:	f0998ee3          	beq	s3,s1,20003c36 <FLASH_EEPROM_CMD+0xc2>
20003d1e:	0985                	addi	s3,s3,1
20003d20:	3b65                	jal	20003ad8 <FLASH_ROM_IN>
20003d22:	fea98fa3          	sb	a0,-1(s3) # ffff <_data_lma+0xe237>
20003d26:	bfd5                	j	20003d1a <FLASH_EEPROM_CMD+0x1a6>
20003d28:	fffa0793          	addi	a5,s4,-1 # ffff <_data_lma+0xe237>
20003d2c:	0ff7f793          	andi	a5,a5,255
20003d30:	08fcec63          	bltu	s9,a5,20003dc8 <.loop406+0x54>
20003d34:	045d4703          	lbu	a4,69(s10)
20003d38:	000807b7          	lui	a5,0x80
20003d3c:	02077713          	andi	a4,a4,32
20003d40:	e319                	bnez	a4,20003d46 <FLASH_EEPROM_CMD+0x1d2>
20003d42:	000787b7          	lui	a5,0x78
20003d46:	5579                	li	a0,-2
20003d48:	f0f97be3          	bgeu	s2,a5,20003c5e <FLASH_EEPROM_CMD+0xea>
20003d4c:	00990733          	add	a4,s2,s1
20003d50:	f0e7e7e3          	bltu	a5,a4,20003c5e <FLASH_EEPROM_CMD+0xea>
20003d54:	4789                	li	a5,2
20003d56:	04fa1063          	bne	s4,a5,20003d96 <.loop406+0x22>
20003d5a:	8089                	srli	s1,s1,0x2
20003d5c:	4a55                	li	s4,21
20003d5e:	ec048ce3          	beqz	s1,20003c36 <FLASH_EEPROM_CMD+0xc2>
20003d62:	85ca                	mv	a1,s2
20003d64:	4509                	li	a0,2
20003d66:	3379                	jal	20003af4 <FLASH_ROM_ADDR>
20003d68:	0991                	addi	s3,s3,4
20003d6a:	ffc9a703          	lw	a4,-4(s3)
20003d6e:	4791                	li	a5,4
20003d70:	80e42023          	sw	a4,-2048(s0)

20003d74 <.loop406>:
20003d74:	80640703          	lb	a4,-2042(s0)
20003d78:	fe074ee3          	bltz	a4,20003d74 <.loop406>
20003d7c:	81440323          	sb	s4,-2042(s0)
20003d80:	17fd                	addi	a5,a5,-1
20003d82:	fbed                	bnez	a5,20003d74 <.loop406>
20003d84:	14fd                	addi	s1,s1,-1
20003d86:	0911                	addi	s2,s2,4
20003d88:	c481                	beqz	s1,20003d90 <.loop406+0x1c>
20003d8a:	0ff97793          	andi	a5,s2,255
20003d8e:	ffe9                	bnez	a5,20003d68 <FLASH_EEPROM_CMD+0x1f4>
20003d90:	3375                	jal	20003b3c <FLASH_ROM_WAIT>
20003d92:	f571                	bnez	a0,20003d5e <FLASH_EEPROM_CMD+0x1ea>
20003d94:	b5e1                	j	20003c5c <FLASH_EEPROM_CMD+0xe8>
20003d96:	4785                	li	a5,1
20003d98:	f4fa07e3          	beq	s4,a5,20003ce6 <FLASH_EEPROM_CMD+0x172>
20003d9c:	85ca                	mv	a1,s2
20003d9e:	452d                	li	a0,11
20003da0:	3b91                	jal	20003af4 <FLASH_ROM_ADDR>
20003da2:	fff48913          	addi	s2,s1,-1 # 7ffff <_data_lma+0x7e237>
20003da6:	e80488e3          	beqz	s1,20003c36 <FLASH_EEPROM_CMD+0xc2>
20003daa:	333d                	jal	20003ad8 <FLASH_ROM_IN>
20003dac:	00397793          	andi	a5,s2,3
20003db0:	eb91                	bnez	a5,20003dc4 <.loop406+0x50>
20003db2:	80042683          	lw	a3,-2048(s0)
20003db6:	0009a703          	lw	a4,0(s3)
20003dba:	00498793          	addi	a5,s3,4
20003dbe:	e6e69de3          	bne	a3,a4,20003c38 <FLASH_EEPROM_CMD+0xc4>
20003dc2:	89be                	mv	s3,a5
20003dc4:	84ca                	mv	s1,s2
20003dc6:	bff1                	j	20003da2 <.loop406+0x2e>
20003dc8:	47b5                	li	a5,13
20003dca:	00fa1663          	bne	s4,a5,20003dd6 <.loop406+0x62>
20003dce:	0b900513          	li	a0,185
20003dd2:	31e5                	jal	20003aba <FLASH_ROM_BEG>
20003dd4:	b58d                	j	20003c36 <FLASH_EEPROM_CMD+0xc2>
20003dd6:	47b1                	li	a5,12
20003dd8:	0ab00513          	li	a0,171
20003ddc:	fefa0be3          	beq	s4,a5,20003dd2 <.loop406+0x5e>
20003de0:	4799                	li	a5,6
20003de2:	02fa1e63          	bne	s4,a5,20003e1e <.loop406+0xaa>
20003de6:	85ca                	mv	a1,s2
20003de8:	452d                	li	a0,11
20003dea:	3329                	jal	20003af4 <FLASH_ROM_ADDR>
20003dec:	4481                	li	s1,0
20003dee:	4c0d                	li	s8,3
20003df0:	4a21                	li	s4,8
20003df2:	31dd                	jal	20003ad8 <FLASH_ROM_IN>
20003df4:	01849663          	bne	s1,s8,20003e00 <.loop406+0x8c>
20003df8:	80042783          	lw	a5,-2048(s0)
20003dfc:	00f9a023          	sw	a5,0(s3)
20003e00:	0485                	addi	s1,s1,1
20003e02:	ff4498e3          	bne	s1,s4,20003df2 <.loop406+0x7e>
20003e06:	80042783          	lw	a5,-2048(s0)
20003e0a:	01291713          	slli	a4,s2,0x12
20003e0e:	00075563          	bgez	a4,20003e18 <.loop406+0xa4>
20003e12:	00f99223          	sh	a5,4(s3)
20003e16:	b505                	j	20003c36 <FLASH_EEPROM_CMD+0xc2>
20003e18:	00f9a223          	sw	a5,4(s3)
20003e1c:	bd29                	j	20003c36 <FLASH_EEPROM_CMD+0xc2>
20003e1e:	479d                	li	a5,7
20003e20:	02fa1963          	bne	s4,a5,20003e52 <.loop406+0xde>
20003e24:	4581                	li	a1,0
20003e26:	04b00513          	li	a0,75
20003e2a:	31e9                	jal	20003af4 <FLASH_ROM_ADDR>
20003e2c:	44bd                	li	s1,15
20003e2e:	0009a023          	sw	zero,0(s3)
20003e32:	0009a223          	sw	zero,4(s3)
20003e36:	597d                	li	s2,-1
20003e38:	3145                	jal	20003ad8 <FLASH_ROM_IN>
20003e3a:	0074f793          	andi	a5,s1,7
20003e3e:	97ce                	add	a5,a5,s3
20003e40:	0007c703          	lbu	a4,0(a5) # 78000 <_data_lma+0x76238>
20003e44:	14fd                	addi	s1,s1,-1
20003e46:	8d39                	xor	a0,a0,a4
20003e48:	00a78023          	sb	a0,0(a5)
20003e4c:	ff2496e3          	bne	s1,s2,20003e38 <.loop406+0xc4>
20003e50:	b3dd                	j	20003c36 <FLASH_EEPROM_CMD+0xc2>
20003e52:	47a1                	li	a5,8
20003e54:	04fa1263          	bne	s4,a5,20003e98 <.loop406+0x124>
20003e58:	31d5                	jal	20003b3c <FLASH_ROM_WAIT>
20003e5a:	4481                	li	s1,0
20003e5c:	00090d63          	beqz	s2,20003e76 <.loop406+0x102>
20003e60:	478d                	li	a5,3
20003e62:	03c00493          	li	s1,60
20003e66:	00f90863          	beq	s2,a5,20003e76 <.loop406+0x102>
20003e6a:	05000493          	li	s1,80
20003e6e:	01990463          	beq	s2,s9,20003e76 <.loop406+0x102>
20003e72:	04400493          	li	s1,68
20003e76:	07c57513          	andi	a0,a0,124
20003e7a:	da950ee3          	beq	a0,s1,20003c36 <FLASH_EEPROM_CMD+0xc2>
20003e7e:	4519                	li	a0,6
20003e80:	392d                	jal	20003aba <FLASH_ROM_BEG>
20003e82:	31a1                	jal	20003aca <FLASH_ROM_END>
20003e84:	4505                	li	a0,1
20003e86:	3915                	jal	20003aba <FLASH_ROM_BEG>
20003e88:	8526                	mv	a0,s1
20003e8a:	39b1                	jal	20003ae6 <FLASH_ROM_OUT>
20003e8c:	4509                	li	a0,2
20003e8e:	39a1                	jal	20003ae6 <FLASH_ROM_OUT>
20003e90:	3175                	jal	20003b3c <FLASH_ROM_WAIT>
20003e92:	da0512e3          	bnez	a0,20003c36 <FLASH_EEPROM_CMD+0xc2>
20003e96:	b3d9                	j	20003c5c <FLASH_EEPROM_CMD+0xe8>
20003e98:	4791                	li	a5,4
20003e9a:	00fa1963          	bne	s4,a5,20003eac <.loop406+0x138>
20003e9e:	06600513          	li	a0,102
20003ea2:	3921                	jal	20003aba <FLASH_ROM_BEG>
20003ea4:	311d                	jal	20003aca <FLASH_ROM_END>
20003ea6:	09900513          	li	a0,153
20003eaa:	b725                	j	20003dd2 <.loop406+0x5e>
20003eac:	d80a05e3          	beqz	s4,20003c36 <FLASH_EEPROM_CMD+0xc2>
20003eb0:	54f1                	li	s1,-4
20003eb2:	b359                	j	20003c38 <FLASH_EEPROM_CMD+0xc4>

Disassembly of section .text:

000006b8 <handle_reset>:
handle_reset():
d:\CH573FEVT\LaserRangeFinder\obj/../Startup/startup_CH573.S:116
	.weak	handle_reset
	.align	1
handle_reset:
.option push 
.option	norelax 
	la gp, __global_pointer$
     6b8:	20004197          	auipc	gp,0x20004
     6bc:	1a818193          	addi	gp,gp,424 # 20004860 <__global_pointer$>
d:\CH573FEVT\LaserRangeFinder\obj/../Startup/startup_CH573.S:119
.option	pop 
1:
	la sp, _eusrstack 
     6c0:	20008117          	auipc	sp,0x20008
     6c4:	94010113          	addi	sp,sp,-1728 # 20008000 <_eusrstack>
d:\CH573FEVT\LaserRangeFinder\obj/../Startup/startup_CH573.S:123

/* Load highcode code  section from flash to RAM */
2:
    la a0, _highcode_lma
     6c8:	00400513          	li	a0,4
d:\CH573FEVT\LaserRangeFinder\obj/../Startup/startup_CH573.S:124
    la a1, _highcode_vma_start
     6cc:	20003597          	auipc	a1,0x20003
     6d0:	13458593          	addi	a1,a1,308 # 20003800 <_highcode_vma_start>
d:\CH573FEVT\LaserRangeFinder\obj/../Startup/startup_CH573.S:125
    la a2, _highcode_vma_end
     6d4:	20003617          	auipc	a2,0x20003
     6d8:	7e060613          	addi	a2,a2,2016 # 20003eb4 <_highcode_vma_end>
d:\CH573FEVT\LaserRangeFinder\obj/../Startup/startup_CH573.S:126
    bgeu a1, a2, 2f
     6dc:	00c5fa63          	bgeu	a1,a2,6f0 <handle_reset+0x38>
d:\CH573FEVT\LaserRangeFinder\obj/../Startup/startup_CH573.S:128
1:
    lw t0, (a0)
     6e0:	00052283          	lw	t0,0(a0)
d:\CH573FEVT\LaserRangeFinder\obj/../Startup/startup_CH573.S:129
    sw t0, (a1)
     6e4:	0055a023          	sw	t0,0(a1)
d:\CH573FEVT\LaserRangeFinder\obj/../Startup/startup_CH573.S:130
    addi a0, a0, 4
     6e8:	0511                	addi	a0,a0,4
d:\CH573FEVT\LaserRangeFinder\obj/../Startup/startup_CH573.S:131
    addi a1, a1, 4
     6ea:	0591                	addi	a1,a1,4
d:\CH573FEVT\LaserRangeFinder\obj/../Startup/startup_CH573.S:132
    bltu a1, a2, 1b
     6ec:	fec5eae3          	bltu	a1,a2,6e0 <handle_reset+0x28>
d:\CH573FEVT\LaserRangeFinder\obj/../Startup/startup_CH573.S:136

/* Load data section from flash to RAM */
2:
	la a0, _data_lma
     6f0:	00001517          	auipc	a0,0x1
     6f4:	6d850513          	addi	a0,a0,1752 # 1dc8 <_data_lma>
d:\CH573FEVT\LaserRangeFinder\obj/../Startup/startup_CH573.S:137
	la a1, _data_vma
     6f8:	20004597          	auipc	a1,0x20004
     6fc:	90858593          	addi	a1,a1,-1784 # 20004000 <_data_vma>
d:\CH573FEVT\LaserRangeFinder\obj/../Startup/startup_CH573.S:138
	la a2, _edata
     700:	80818613          	addi	a2,gp,-2040 # 20004068 <_edata>
d:\CH573FEVT\LaserRangeFinder\obj/../Startup/startup_CH573.S:139
	bgeu a1, a2, 2f
     704:	00c5fa63          	bgeu	a1,a2,718 <handle_reset+0x60>
d:\CH573FEVT\LaserRangeFinder\obj/../Startup/startup_CH573.S:141
1:
	lw t0, (a0)
     708:	00052283          	lw	t0,0(a0)
d:\CH573FEVT\LaserRangeFinder\obj/../Startup/startup_CH573.S:142
	sw t0, (a1)
     70c:	0055a023          	sw	t0,0(a1)
d:\CH573FEVT\LaserRangeFinder\obj/../Startup/startup_CH573.S:143
	addi a0, a0, 4
     710:	0511                	addi	a0,a0,4
d:\CH573FEVT\LaserRangeFinder\obj/../Startup/startup_CH573.S:144
	addi a1, a1, 4
     712:	0591                	addi	a1,a1,4
d:\CH573FEVT\LaserRangeFinder\obj/../Startup/startup_CH573.S:145
	bltu a1, a2, 1b
     714:	fec5eae3          	bltu	a1,a2,708 <handle_reset+0x50>
d:\CH573FEVT\LaserRangeFinder\obj/../Startup/startup_CH573.S:148
2:
	/* clear bss section */
	la a0, _sbss
     718:	80818513          	addi	a0,gp,-2040 # 20004068 <_edata>
d:\CH573FEVT\LaserRangeFinder\obj/../Startup/startup_CH573.S:149
	la a1, _ebss
     71c:	81418593          	addi	a1,gp,-2028 # 20004074 <_ebss>
d:\CH573FEVT\LaserRangeFinder\obj/../Startup/startup_CH573.S:150
	bgeu a0, a1, 2f
     720:	00b57763          	bgeu	a0,a1,72e <handle_reset+0x76>
d:\CH573FEVT\LaserRangeFinder\obj/../Startup/startup_CH573.S:152
1:
	sw zero, (a0)
     724:	00052023          	sw	zero,0(a0)
d:\CH573FEVT\LaserRangeFinder\obj/../Startup/startup_CH573.S:153
	addi a0, a0, 4
     728:	0511                	addi	a0,a0,4
d:\CH573FEVT\LaserRangeFinder\obj/../Startup/startup_CH573.S:154
	bltu a0, a1, 1b
     72a:	feb56de3          	bltu	a0,a1,724 <handle_reset+0x6c>
d:\CH573FEVT\LaserRangeFinder\obj/../Startup/startup_CH573.S:156
2:
    li t0, 0x88
     72e:	08800293          	li	t0,136
d:\CH573FEVT\LaserRangeFinder\obj/../Startup/startup_CH573.S:157
    csrs mstatus, t0
     732:	3002a073          	csrs	mstatus,t0
d:\CH573FEVT\LaserRangeFinder\obj/../Startup/startup_CH573.S:158
	la t0, _vector_base
     736:	20003297          	auipc	t0,0x20003
     73a:	0ca28293          	addi	t0,t0,202 # 20003800 <_highcode_vma_start>
d:\CH573FEVT\LaserRangeFinder\obj/../Startup/startup_CH573.S:159
    ori t0, t0, 1
     73e:	0012e293          	ori	t0,t0,1
d:\CH573FEVT\LaserRangeFinder\obj/../Startup/startup_CH573.S:160
	csrw mtvec, t0
     742:	30529073          	csrw	mtvec,t0
d:\CH573FEVT\LaserRangeFinder\obj/../Startup/startup_CH573.S:162

    lui a4,0x40001
     746:	40001737          	lui	a4,0x40001
d:\CH573FEVT\LaserRangeFinder\obj/../Startup/startup_CH573.S:163
    li  a5,87
     74a:	05700793          	li	a5,87
d:\CH573FEVT\LaserRangeFinder\obj/../Startup/startup_CH573.S:164
    sb  a5,64(a4)
     74e:	04f70023          	sb	a5,64(a4) # 40001040 <_eusrstack+0x1fff9040>
d:\CH573FEVT\LaserRangeFinder\obj/../Startup/startup_CH573.S:165
    li  a5,-88
     752:	fa800793          	li	a5,-88
d:\CH573FEVT\LaserRangeFinder\obj/../Startup/startup_CH573.S:166
    sb  a5,64(a4)
     756:	04f70023          	sb	a5,64(a4)
d:\CH573FEVT\LaserRangeFinder\obj/../Startup/startup_CH573.S:167
    fence.i
     75a:	0000100f          	fence.i
d:\CH573FEVT\LaserRangeFinder\obj/../Startup/startup_CH573.S:168
    lw  a5,72(a4)
     75e:	473c                	lw	a5,72(a4)
d:\CH573FEVT\LaserRangeFinder\obj/../Startup/startup_CH573.S:169
    lui a3,0xfa000
     760:	fa0006b7          	lui	a3,0xfa000
d:\CH573FEVT\LaserRangeFinder\obj/../Startup/startup_CH573.S:170
    addi  a3,a3,-8
     764:	16e1                	addi	a3,a3,-8
d:\CH573FEVT\LaserRangeFinder\obj/../Startup/startup_CH573.S:171
    and a5,a5,a3
     766:	8ff5                	and	a5,a5,a3
d:\CH573FEVT\LaserRangeFinder\obj/../Startup/startup_CH573.S:172
    lui a3,0x6000
     768:	060006b7          	lui	a3,0x6000
d:\CH573FEVT\LaserRangeFinder\obj/../Startup/startup_CH573.S:173
    addi a3,a3,5
     76c:	0695                	addi	a3,a3,5
d:\CH573FEVT\LaserRangeFinder\obj/../Startup/startup_CH573.S:174
    or  a5,a5,a3
     76e:	8fd5                	or	a5,a5,a3
d:\CH573FEVT\LaserRangeFinder\obj/../Startup/startup_CH573.S:175
    sw  a5,72(a4)
     770:	c73c                	sw	a5,72(a4)
d:\CH573FEVT\LaserRangeFinder\obj/../Startup/startup_CH573.S:177

	la t0, main
     772:	00000297          	auipc	t0,0x0
     776:	0b828293          	addi	t0,t0,184 # 82a <main>
d:\CH573FEVT\LaserRangeFinder\obj/../Startup/startup_CH573.S:178
	csrw mepc, t0
     77a:	34129073          	csrw	mepc,t0
d:\CH573FEVT\LaserRangeFinder\obj/../Startup/startup_CH573.S:185
	/* enable vector relocation
	li t0, 0xE000ED14
	li t1, 1
	sw t1, 0(t0)*/
	
	mret
     77e:	30200073          	mret

00000782 <memset>:
memset():
     782:	433d                	li	t1,15
     784:	872a                	mv	a4,a0
     786:	02c37363          	bgeu	t1,a2,7ac <memset+0x2a>
     78a:	00f77793          	andi	a5,a4,15
     78e:	efbd                	bnez	a5,80c <memset+0x8a>
     790:	e5ad                	bnez	a1,7fa <memset+0x78>
     792:	ff067693          	andi	a3,a2,-16
     796:	8a3d                	andi	a2,a2,15
     798:	96ba                	add	a3,a3,a4
     79a:	c30c                	sw	a1,0(a4)
     79c:	c34c                	sw	a1,4(a4)
     79e:	c70c                	sw	a1,8(a4)
     7a0:	c74c                	sw	a1,12(a4)
     7a2:	0741                	addi	a4,a4,16
     7a4:	fed76be3          	bltu	a4,a3,79a <memset+0x18>
     7a8:	e211                	bnez	a2,7ac <memset+0x2a>
     7aa:	8082                	ret
     7ac:	40c306b3          	sub	a3,t1,a2
     7b0:	068a                	slli	a3,a3,0x2
     7b2:	00000297          	auipc	t0,0x0
     7b6:	9696                	add	a3,a3,t0
     7b8:	00a68067          	jr	10(a3) # 600000a <_data_lma+0x5ffe242>
     7bc:	00b70723          	sb	a1,14(a4)
     7c0:	00b706a3          	sb	a1,13(a4)
     7c4:	00b70623          	sb	a1,12(a4)
     7c8:	00b705a3          	sb	a1,11(a4)
     7cc:	00b70523          	sb	a1,10(a4)
     7d0:	00b704a3          	sb	a1,9(a4)
     7d4:	00b70423          	sb	a1,8(a4)
     7d8:	00b703a3          	sb	a1,7(a4)
     7dc:	00b70323          	sb	a1,6(a4)
     7e0:	00b702a3          	sb	a1,5(a4)
     7e4:	00b70223          	sb	a1,4(a4)
     7e8:	00b701a3          	sb	a1,3(a4)
     7ec:	00b70123          	sb	a1,2(a4)
     7f0:	00b700a3          	sb	a1,1(a4)
     7f4:	00b70023          	sb	a1,0(a4)
     7f8:	8082                	ret
     7fa:	0ff5f593          	andi	a1,a1,255
     7fe:	00859693          	slli	a3,a1,0x8
     802:	8dd5                	or	a1,a1,a3
     804:	01059693          	slli	a3,a1,0x10
     808:	8dd5                	or	a1,a1,a3
     80a:	b761                	j	792 <memset+0x10>
     80c:	00279693          	slli	a3,a5,0x2
     810:	00000297          	auipc	t0,0x0
     814:	9696                	add	a3,a3,t0
     816:	8286                	mv	t0,ra
     818:	fa8680e7          	jalr	-88(a3)
     81c:	8096                	mv	ra,t0
     81e:	17c1                	addi	a5,a5,-16
     820:	8f1d                	sub	a4,a4,a5
     822:	963e                	add	a2,a2,a5
     824:	f8c374e3          	bgeu	t1,a2,7ac <memset+0x2a>
     828:	b7a5                	j	790 <memset+0xe>

0000082a <main>:
main():
d:\CH573FEVT\LaserRangeFinder\obj/../src/Main.c:48
int main() {
     82a:	1141                	addi	sp,sp,-16
d:\CH573FEVT\LaserRangeFinder\obj/../src/Main.c:49
    SetSysClock (CLK_SOURCE_PLL_60MHz);
     82c:	04800513          	li	a0,72
d:\CH573FEVT\LaserRangeFinder\obj/../src/Main.c:48
int main() {
     830:	c606                	sw	ra,12(sp)
     832:	c422                	sw	s0,8(sp)
d:\CH573FEVT\LaserRangeFinder\obj/../src/Main.c:49
    SetSysClock (CLK_SOURCE_PLL_60MHz);
     834:	20003097          	auipc	ra,0x20003
     838:	0b6080e7          	jalr	182(ra) # 200038ea <SetSysClock>
d:\CH573FEVT\LaserRangeFinder\obj/../src/Main.c:52
    GPIOA_SetBits (GPIO_Pin_9);
     83c:	40001437          	lui	s0,0x40001
     840:	0a842783          	lw	a5,168(s0) # 400010a8 <_eusrstack+0x1fff90a8>
d:\CH573FEVT\LaserRangeFinder\obj/../src/Main.c:53
    GPIOA_ModeCfg (GPIO_Pin_8, GPIO_ModeIN_PU);
     844:	4585                	li	a1,1
     846:	10000513          	li	a0,256
d:\CH573FEVT\LaserRangeFinder\obj/../src/Main.c:52
    GPIOA_SetBits (GPIO_Pin_9);
     84a:	2007e793          	ori	a5,a5,512
     84e:	0af42423          	sw	a5,168(s0)
d:\CH573FEVT\LaserRangeFinder\obj/../src/Main.c:53
    GPIOA_ModeCfg (GPIO_Pin_8, GPIO_ModeIN_PU);
     852:	2081                	jal	892 <GPIOA_ModeCfg>
d:\CH573FEVT\LaserRangeFinder\obj/../src/Main.c:54
    GPIOA_ModeCfg (GPIO_Pin_9, GPIO_ModeOut_PP_5mA);
     854:	458d                	li	a1,3
     856:	20000513          	li	a0,512
     85a:	2825                	jal	892 <GPIOA_ModeCfg>
d:\CH573FEVT\LaserRangeFinder\obj/../src/Main.c:55
    UART1_DefInit();
     85c:	2425                	jal	a84 <UART1_DefInit>
d:\CH573FEVT\LaserRangeFinder\obj/../src/Main.c:56
    PRINT ("Start @ChipID=%02X\n", R8_CHIP_ID);
     85e:	04144583          	lbu	a1,65(s0)
     862:	00001517          	auipc	a0,0x1
     866:	49250513          	addi	a0,a0,1170 # 1cf4 <_read+0xe>
     86a:	2ec1                	jal	c3a <iprintf>
d:\CH573FEVT\LaserRangeFinder\obj/../src/Main.c:72
    GPIOA_ModeCfg (GPIO_Pin_4, GPIO_ModeIN_PU);    // PA4上拉输入
     86c:	4585                	li	a1,1
     86e:	4541                	li	a0,16
     870:	200d                	jal	892 <GPIOA_ModeCfg>
d:\CH573FEVT\LaserRangeFinder\obj/../src/Main.c:73
    GPIOA_ITModeCfg (GPIO_Pin_4, GPIO_ITMode_FallEdge);  // PA4下降沿触发
     872:	4589                	li	a1,2
     874:	4541                	li	a0,16
     876:	20c9                	jal	938 <GPIOA_ITModeCfg>
PFIC_EnableIRQ():
d:/CH573FEVT/LaserRangeFinder/RVMSIS/core_riscv.h:99
 *
 * @param   IRQn    - Interrupt Numbers
 */
RV_STATIC_INLINE void PFIC_EnableIRQ(IRQn_Type IRQn)
{
    PFIC->IENR[((uint32_t)(IRQn) >> 5)] = (1 << ((uint32_t)(IRQn)&0x1F));
     878:	e000e7b7          	lui	a5,0xe000e
     87c:	00020737          	lui	a4,0x20
     880:	10e7a023          	sw	a4,256(a5) # e000e100 <_eusrstack+0xc0006100>
main():
d:\CH573FEVT\LaserRangeFinder\obj/../src/Main.c:87 (discriminator 1)
        DelayMs (500);
     884:	1f400513          	li	a0,500
     888:	20003097          	auipc	ra,0x20003
     88c:	20a080e7          	jalr	522(ra) # 20003a92 <mDelaymS>
     890:	bfd5                	j	884 <main+0x5a>

00000892 <GPIOA_ModeCfg>:
GPIOA_ModeCfg():
d:\CH573FEVT\LaserRangeFinder\obj/../StdPeriphDriver/CH57x_gpio.c:27
 *
 * @return  none
 */
void GPIOA_ModeCfg(uint32_t pin, GPIOModeTypeDef mode)
{
    switch(mode)
     892:	4791                	li	a5,4
     894:	02b7ee63          	bltu	a5,a1,8d0 <GPIOA_ModeCfg+0x3e>
     898:	00001717          	auipc	a4,0x1
     89c:	47c70713          	addi	a4,a4,1148 # 1d14 <_read+0x2e>
     8a0:	058a                	slli	a1,a1,0x2
     8a2:	95ba                	add	a1,a1,a4
     8a4:	419c                	lw	a5,0(a1)
     8a6:	97ba                	add	a5,a5,a4
     8a8:	8782                	jr	a5
d:\CH573FEVT\LaserRangeFinder\obj/../StdPeriphDriver/CH57x_gpio.c:30
    {
        case GPIO_ModeIN_Floating:
            R32_PA_PD_DRV &= ~pin;
     8aa:	400017b7          	lui	a5,0x40001
     8ae:	0b47a703          	lw	a4,180(a5) # 400010b4 <_eusrstack+0x1fff90b4>
     8b2:	fff54513          	not	a0,a0
     8b6:	8f69                	and	a4,a4,a0
     8b8:	0ae7aa23          	sw	a4,180(a5)
d:\CH573FEVT\LaserRangeFinder\obj/../StdPeriphDriver/CH57x_gpio.c:31
            R32_PA_PU &= ~pin;
     8bc:	0b07a703          	lw	a4,176(a5)
d:\CH573FEVT\LaserRangeFinder\obj/../StdPeriphDriver/CH57x_gpio.c:43
            R32_PA_DIR &= ~pin;
            break;

        case GPIO_ModeIN_PD:
            R32_PA_PD_DRV |= pin;
            R32_PA_PU &= ~pin;
     8c0:	8f69                	and	a4,a4,a0
     8c2:	0ae7a823          	sw	a4,176(a5)
d:\CH573FEVT\LaserRangeFinder\obj/../StdPeriphDriver/CH57x_gpio.c:44
            R32_PA_DIR &= ~pin;
     8c6:	0a07a703          	lw	a4,160(a5)
     8ca:	8d79                	and	a0,a0,a4
d:\CH573FEVT\LaserRangeFinder\obj/../StdPeriphDriver/CH57x_gpio.c:54
            R32_PA_DIR |= pin;
            break;

        case GPIO_ModeOut_PP_20mA:
            R32_PA_PD_DRV |= pin;
            R32_PA_DIR |= pin;
     8cc:	0aa7a023          	sw	a0,160(a5)
d:\CH573FEVT\LaserRangeFinder\obj/../StdPeriphDriver/CH57x_gpio.c:60
            break;

        default:
            break;
    }
}
     8d0:	8082                	ret
d:\CH573FEVT\LaserRangeFinder\obj/../StdPeriphDriver/CH57x_gpio.c:36
            R32_PA_PD_DRV &= ~pin;
     8d2:	400017b7          	lui	a5,0x40001
     8d6:	0b47a683          	lw	a3,180(a5) # 400010b4 <_eusrstack+0x1fff90b4>
     8da:	fff54713          	not	a4,a0
     8de:	8ef9                	and	a3,a3,a4
     8e0:	0ad7aa23          	sw	a3,180(a5)
d:\CH573FEVT\LaserRangeFinder\obj/../StdPeriphDriver/CH57x_gpio.c:37
            R32_PA_PU |= pin;
     8e4:	0b07a683          	lw	a3,176(a5)
     8e8:	8d55                	or	a0,a0,a3
     8ea:	0aa7a823          	sw	a0,176(a5)
d:\CH573FEVT\LaserRangeFinder\obj/../StdPeriphDriver/CH57x_gpio.c:38
            R32_PA_DIR &= ~pin;
     8ee:	0a07a683          	lw	a3,160(a5)
     8f2:	8f75                	and	a4,a4,a3
     8f4:	0ae7a023          	sw	a4,160(a5)
d:\CH573FEVT\LaserRangeFinder\obj/../StdPeriphDriver/CH57x_gpio.c:39
            break;
     8f8:	8082                	ret
d:\CH573FEVT\LaserRangeFinder\obj/../StdPeriphDriver/CH57x_gpio.c:42
            R32_PA_PD_DRV |= pin;
     8fa:	400017b7          	lui	a5,0x40001
     8fe:	0b47a703          	lw	a4,180(a5) # 400010b4 <_eusrstack+0x1fff90b4>
     902:	8f49                	or	a4,a4,a0
     904:	0ae7aa23          	sw	a4,180(a5)
d:\CH573FEVT\LaserRangeFinder\obj/../StdPeriphDriver/CH57x_gpio.c:43
            R32_PA_PU &= ~pin;
     908:	0b07a703          	lw	a4,176(a5)
     90c:	fff54513          	not	a0,a0
     910:	bf45                	j	8c0 <GPIOA_ModeCfg+0x2e>
d:\CH573FEVT\LaserRangeFinder\obj/../StdPeriphDriver/CH57x_gpio.c:48
            R32_PA_PD_DRV &= ~pin;
     912:	400017b7          	lui	a5,0x40001
     916:	0b47a683          	lw	a3,180(a5) # 400010b4 <_eusrstack+0x1fff90b4>
     91a:	fff54713          	not	a4,a0
     91e:	8f75                	and	a4,a4,a3
d:\CH573FEVT\LaserRangeFinder\obj/../StdPeriphDriver/CH57x_gpio.c:53
            R32_PA_PD_DRV |= pin;
     920:	0ae7aa23          	sw	a4,180(a5)
d:\CH573FEVT\LaserRangeFinder\obj/../StdPeriphDriver/CH57x_gpio.c:54
            R32_PA_DIR |= pin;
     924:	0a07a703          	lw	a4,160(a5)
     928:	8d59                	or	a0,a0,a4
     92a:	b74d                	j	8cc <GPIOA_ModeCfg+0x3a>
d:\CH573FEVT\LaserRangeFinder\obj/../StdPeriphDriver/CH57x_gpio.c:53
            R32_PA_PD_DRV |= pin;
     92c:	400017b7          	lui	a5,0x40001
     930:	0b47a703          	lw	a4,180(a5) # 400010b4 <_eusrstack+0x1fff90b4>
     934:	8f49                	or	a4,a4,a0
     936:	b7ed                	j	920 <GPIOA_ModeCfg+0x8e>

00000938 <GPIOA_ITModeCfg>:
GPIOA_ITModeCfg():
d:\CH573FEVT\LaserRangeFinder\obj/../StdPeriphDriver/CH57x_gpio.c:121
 *
 * @return  none
 */
void GPIOA_ITModeCfg(uint32_t pin, GPIOITModeTpDef mode)
{
    switch(mode)
     938:	01051793          	slli	a5,a0,0x10
     93c:	4705                	li	a4,1
     93e:	83c1                	srli	a5,a5,0x10
     940:	04e58263          	beq	a1,a4,984 <GPIOA_ITModeCfg+0x4c>
     944:	c18d                	beqz	a1,966 <GPIOA_ITModeCfg+0x2e>
     946:	4709                	li	a4,2
     948:	04e58d63          	beq	a1,a4,9a2 <GPIOA_ITModeCfg+0x6a>
     94c:	470d                	li	a4,3
     94e:	06e58063          	beq	a1,a4,9ae <GPIOA_ITModeCfg+0x76>
d:\CH573FEVT\LaserRangeFinder\obj/../StdPeriphDriver/CH57x_gpio.c:146
            break;

        default:
            break;
    }
    R16_PA_INT_IF = pin;
     952:	40001737          	lui	a4,0x40001
     956:	08f71e23          	sh	a5,156(a4) # 4000109c <_eusrstack+0x1fff909c>
d:\CH573FEVT\LaserRangeFinder\obj/../StdPeriphDriver/CH57x_gpio.c:147
    R16_PA_INT_EN |= pin;
     95a:	09075683          	lhu	a3,144(a4)
     95e:	8fd5                	or	a5,a5,a3
     960:	08f71823          	sh	a5,144(a4)
d:\CH573FEVT\LaserRangeFinder\obj/../StdPeriphDriver/CH57x_gpio.c:148
}
     964:	8082                	ret
d:\CH573FEVT\LaserRangeFinder\obj/../StdPeriphDriver/CH57x_gpio.c:124
            R16_PA_INT_MODE &= ~pin;
     966:	40001737          	lui	a4,0x40001
     96a:	09475603          	lhu	a2,148(a4) # 40001094 <_eusrstack+0x1fff9094>
     96e:	fff7c693          	not	a3,a5
     972:	8ef1                	and	a3,a3,a2
d:\CH573FEVT\LaserRangeFinder\obj/../StdPeriphDriver/CH57x_gpio.c:134
            R16_PA_INT_MODE |= pin;
     974:	08d71a23          	sh	a3,148(a4)
d:\CH573FEVT\LaserRangeFinder\obj/../StdPeriphDriver/CH57x_gpio.c:135
            R32_PA_CLR |= pin;
     978:	0ac72683          	lw	a3,172(a4)
     97c:	8d55                	or	a0,a0,a3
     97e:	0aa72623          	sw	a0,172(a4)
d:\CH573FEVT\LaserRangeFinder\obj/../StdPeriphDriver/CH57x_gpio.c:136
            break;
     982:	bfc1                	j	952 <GPIOA_ITModeCfg+0x1a>
d:\CH573FEVT\LaserRangeFinder\obj/../StdPeriphDriver/CH57x_gpio.c:129
            R16_PA_INT_MODE &= ~pin;
     984:	40001737          	lui	a4,0x40001
     988:	09475603          	lhu	a2,148(a4) # 40001094 <_eusrstack+0x1fff9094>
     98c:	fff7c693          	not	a3,a5
     990:	8ef1                	and	a3,a3,a2
d:\CH573FEVT\LaserRangeFinder\obj/../StdPeriphDriver/CH57x_gpio.c:139
            R16_PA_INT_MODE |= pin;
     992:	08d71a23          	sh	a3,148(a4)
d:\CH573FEVT\LaserRangeFinder\obj/../StdPeriphDriver/CH57x_gpio.c:140
            R32_PA_OUT |= pin;
     996:	0a872683          	lw	a3,168(a4)
     99a:	8d55                	or	a0,a0,a3
     99c:	0aa72423          	sw	a0,168(a4)
d:\CH573FEVT\LaserRangeFinder\obj/../StdPeriphDriver/CH57x_gpio.c:141
            break;
     9a0:	bf4d                	j	952 <GPIOA_ITModeCfg+0x1a>
d:\CH573FEVT\LaserRangeFinder\obj/../StdPeriphDriver/CH57x_gpio.c:134
            R16_PA_INT_MODE |= pin;
     9a2:	40001737          	lui	a4,0x40001
     9a6:	09475683          	lhu	a3,148(a4) # 40001094 <_eusrstack+0x1fff9094>
     9aa:	8edd                	or	a3,a3,a5
     9ac:	b7e1                	j	974 <GPIOA_ITModeCfg+0x3c>
d:\CH573FEVT\LaserRangeFinder\obj/../StdPeriphDriver/CH57x_gpio.c:139
            R16_PA_INT_MODE |= pin;
     9ae:	40001737          	lui	a4,0x40001
     9b2:	09475683          	lhu	a3,148(a4) # 40001094 <_eusrstack+0x1fff9094>
     9b6:	8edd                	or	a3,a3,a5
     9b8:	bfe9                	j	992 <GPIOA_ITModeCfg+0x5a>

000009ba <GetSysClock>:
GetSysClock():
d:\CH573FEVT\LaserRangeFinder\obj/../StdPeriphDriver/CH57x_sys.c:94
    rev = R16_CLK_SYS_CFG & 0xff;
     9ba:	400017b7          	lui	a5,0x40001
     9be:	0087d503          	lhu	a0,8(a5) # 40001008 <_eusrstack+0x1fff9008>
     9c2:	0542                	slli	a0,a0,0x10
     9c4:	8141                	srli	a0,a0,0x10
d:\CH573FEVT\LaserRangeFinder\obj/../StdPeriphDriver/CH57x_sys.c:95
    if((rev & 0x40) == (0 << 6))
     9c6:	04057793          	andi	a5,a0,64
     9ca:	eb91                	bnez	a5,9de <GetSysClock+0x24>
d:\CH573FEVT\LaserRangeFinder\obj/../StdPeriphDriver/CH57x_sys.c:97
        return (32000000 / (rev & 0x1f));
     9cc:	01f57793          	andi	a5,a0,31
     9d0:	01e85537          	lui	a0,0x1e85
d:\CH573FEVT\LaserRangeFinder\obj/../StdPeriphDriver/CH57x_sys.c:101
        return (480000000 / (rev & 0x1f));
     9d4:	80050513          	addi	a0,a0,-2048 # 1e84800 <_data_lma+0x1e82a38>
     9d8:	02f54533          	div	a0,a0,a5
     9dc:	8082                	ret
d:\CH573FEVT\LaserRangeFinder\obj/../StdPeriphDriver/CH57x_sys.c:99
    else if((rev & RB_CLK_SYS_MOD) == (1 << 6))
     9de:	0c057793          	andi	a5,a0,192
     9e2:	04000713          	li	a4,64
     9e6:	00e79763          	bne	a5,a4,9f4 <GetSysClock+0x3a>
d:\CH573FEVT\LaserRangeFinder\obj/../StdPeriphDriver/CH57x_sys.c:101
        return (480000000 / (rev & 0x1f));
     9ea:	01f57793          	andi	a5,a0,31
     9ee:	1c9c4537          	lui	a0,0x1c9c4
     9f2:	b7cd                	j	9d4 <GetSysClock+0x1a>
d:\CH573FEVT\LaserRangeFinder\obj/../StdPeriphDriver/CH57x_sys.c:105
        return (32000);
     9f4:	6521                	lui	a0,0x8
     9f6:	d0050513          	addi	a0,a0,-768 # 7d00 <_data_lma+0x5f38>
d:\CH573FEVT\LaserRangeFinder\obj/../StdPeriphDriver/CH57x_sys.c:107
}
     9fa:	8082                	ret

000009fc <_write>:
_write():
d:\CH573FEVT\LaserRangeFinder\obj/../StdPeriphDriver/CH57x_sys.c:354

#ifdef DEBUG
int _write(int fd, char *buf, int size)
{
    int i;
    for(i = 0; i < size; i++)
     9fc:	4781                	li	a5,0
d:\CH573FEVT\LaserRangeFinder\obj/../StdPeriphDriver/CH57x_sys.c:360
    {
#if DEBUG == Debug_UART0
        while(R8_UART0_TFC == UART_FIFO_SIZE);                  /* 等待数据发送 */
        R8_UART0_THR = *buf++; /* 发送数据 */
#elif DEBUG == Debug_UART1
        while(R8_UART1_TFC == UART_FIFO_SIZE);                  /* 等待数据发送 */
     9fe:	40003737          	lui	a4,0x40003
     a02:	46a1                	li	a3,8
d:\CH573FEVT\LaserRangeFinder\obj/../StdPeriphDriver/CH57x_sys.c:354 (discriminator 1)
    for(i = 0; i < size; i++)
     a04:	00c7c463          	blt	a5,a2,a0c <_write+0x10>
d:\CH573FEVT\LaserRangeFinder\obj/../StdPeriphDriver/CH57x_sys.c:371
        while(R8_UART3_TFC == UART_FIFO_SIZE);                  /* 等待数据发送 */
        R8_UART3_THR = *buf++; /* 发送数据 */
#endif
    }
    return size;
}
     a08:	8532                	mv	a0,a2
     a0a:	8082                	ret
d:\CH573FEVT\LaserRangeFinder\obj/../StdPeriphDriver/CH57x_sys.c:360 (discriminator 1)
        while(R8_UART1_TFC == UART_FIFO_SIZE);                  /* 等待数据发送 */
     a0c:	40b74503          	lbu	a0,1035(a4) # 4000340b <_eusrstack+0x1fffb40b>
     a10:	fea68ee3          	beq	a3,a0,a0c <_write+0x10>
d:\CH573FEVT\LaserRangeFinder\obj/../StdPeriphDriver/CH57x_sys.c:361 (discriminator 2)
        R8_UART1_THR = *buf++; /* 发送数据 */
     a14:	00f58533          	add	a0,a1,a5
     a18:	00054503          	lbu	a0,0(a0)
d:\CH573FEVT\LaserRangeFinder\obj/../StdPeriphDriver/CH57x_sys.c:354 (discriminator 2)
    for(i = 0; i < size; i++)
     a1c:	0785                	addi	a5,a5,1
d:\CH573FEVT\LaserRangeFinder\obj/../StdPeriphDriver/CH57x_sys.c:361 (discriminator 2)
        R8_UART1_THR = *buf++; /* 发送数据 */
     a1e:	40a70423          	sb	a0,1032(a4)
     a22:	b7cd                	j	a04 <_write+0x8>

00000a24 <_sbrk>:
_sbrk():
d:\CH573FEVT\LaserRangeFinder\obj/../StdPeriphDriver/CH57x_sys.c:389
{
    extern char _end[];
    extern char _heap_end[];
    static char *curbrk = _end;

    if ((curbrk + incr < _end) || (curbrk + incr > _heap_end))
     a24:	20003797          	auipc	a5,0x20003
     a28:	63c78793          	addi	a5,a5,1596 # 20004060 <curbrk.3772>
     a2c:	439c                	lw	a5,0(a5)
     a2e:	81418713          	addi	a4,gp,-2028 # 20004074 <_ebss>
     a32:	953e                	add	a0,a0,a5
     a34:	00e56e63          	bltu	a0,a4,a50 <_sbrk+0x2c>
d:\CH573FEVT\LaserRangeFinder\obj/../StdPeriphDriver/CH57x_sys.c:389 (discriminator 1)
     a38:	20007717          	auipc	a4,0x20007
     a3c:	3c870713          	addi	a4,a4,968 # 20007e00 <_heap_end>
     a40:	00a76863          	bltu	a4,a0,a50 <_sbrk+0x2c>
d:\CH573FEVT\LaserRangeFinder\obj/../StdPeriphDriver/CH57x_sys.c:392
    return NULL - 1;

    curbrk += incr;
     a44:	20003717          	auipc	a4,0x20003
     a48:	60a72e23          	sw	a0,1564(a4) # 20004060 <curbrk.3772>
d:\CH573FEVT\LaserRangeFinder\obj/../StdPeriphDriver/CH57x_sys.c:394
    return curbrk - incr;
}
     a4c:	853e                	mv	a0,a5
     a4e:	8082                	ret
d:\CH573FEVT\LaserRangeFinder\obj/../StdPeriphDriver/CH57x_sys.c:390
    return NULL - 1;
     a50:	57fd                	li	a5,-1
     a52:	bfed                	j	a4c <_sbrk+0x28>

00000a54 <UART1_BaudRateCfg>:
UART1_BaudRateCfg():
d:\CH573FEVT\LaserRangeFinder\obj/../StdPeriphDriver/CH57x_uart1.c:43
 * @param   baudrate    - 波特率
 *
 * @return  none
 */
void UART1_BaudRateCfg(uint32_t baudrate)
{
     a54:	1141                	addi	sp,sp,-16
     a56:	c422                	sw	s0,8(sp)
     a58:	c606                	sw	ra,12(sp)
     a5a:	842a                	mv	s0,a0
d:\CH573FEVT\LaserRangeFinder\obj/../StdPeriphDriver/CH57x_uart1.c:46
    uint32_t x;

    x = 10 * GetSysClock() / 8 / baudrate;
     a5c:	3fb9                	jal	9ba <GetSysClock>
     a5e:	4729                	li	a4,10
     a60:	02e507b3          	mul	a5,a0,a4
d:\CH573FEVT\LaserRangeFinder\obj/../StdPeriphDriver/CH57x_uart1.c:49
    x = (x + 5) / 10;
    R16_UART1_DL = (uint16_t)x;
}
     a64:	40b2                	lw	ra,12(sp)
d:\CH573FEVT\LaserRangeFinder\obj/../StdPeriphDriver/CH57x_uart1.c:46
    x = 10 * GetSysClock() / 8 / baudrate;
     a66:	838d                	srli	a5,a5,0x3
     a68:	0287d7b3          	divu	a5,a5,s0
d:\CH573FEVT\LaserRangeFinder\obj/../StdPeriphDriver/CH57x_uart1.c:49
}
     a6c:	4422                	lw	s0,8(sp)
d:\CH573FEVT\LaserRangeFinder\obj/../StdPeriphDriver/CH57x_uart1.c:47
    x = (x + 5) / 10;
     a6e:	0795                	addi	a5,a5,5
     a70:	02e7d7b3          	divu	a5,a5,a4
d:\CH573FEVT\LaserRangeFinder\obj/../StdPeriphDriver/CH57x_uart1.c:48
    R16_UART1_DL = (uint16_t)x;
     a74:	40003737          	lui	a4,0x40003
     a78:	07c2                	slli	a5,a5,0x10
     a7a:	83c1                	srli	a5,a5,0x10
     a7c:	40f71623          	sh	a5,1036(a4) # 4000340c <_eusrstack+0x1fffb40c>
d:\CH573FEVT\LaserRangeFinder\obj/../StdPeriphDriver/CH57x_uart1.c:49
}
     a80:	0141                	addi	sp,sp,16
     a82:	8082                	ret

00000a84 <UART1_DefInit>:
UART1_DefInit():
d:\CH573FEVT\LaserRangeFinder\obj/../StdPeriphDriver/CH57x_uart1.c:26
    UART1_BaudRateCfg(115200);
     a84:	6571                	lui	a0,0x1c
d:\CH573FEVT\LaserRangeFinder\obj/../StdPeriphDriver/CH57x_uart1.c:25
{
     a86:	1141                	addi	sp,sp,-16
d:\CH573FEVT\LaserRangeFinder\obj/../StdPeriphDriver/CH57x_uart1.c:26
    UART1_BaudRateCfg(115200);
     a88:	20050513          	addi	a0,a0,512 # 1c200 <_data_lma+0x1a438>
d:\CH573FEVT\LaserRangeFinder\obj/../StdPeriphDriver/CH57x_uart1.c:25
{
     a8c:	c606                	sw	ra,12(sp)
d:\CH573FEVT\LaserRangeFinder\obj/../StdPeriphDriver/CH57x_uart1.c:26
    UART1_BaudRateCfg(115200);
     a8e:	37d9                	jal	a54 <UART1_BaudRateCfg>
d:\CH573FEVT\LaserRangeFinder\obj/../StdPeriphDriver/CH57x_uart1.c:27
    R8_UART1_FCR = (2 << 6) | RB_FCR_TX_FIFO_CLR | RB_FCR_RX_FIFO_CLR | RB_FCR_FIFO_EN; // FIFO打开，触发点4字节
     a90:	400037b7          	lui	a5,0x40003
     a94:	f8700713          	li	a4,-121
     a98:	40e78123          	sb	a4,1026(a5) # 40003402 <_eusrstack+0x1fffb402>
d:\CH573FEVT\LaserRangeFinder\obj/../StdPeriphDriver/CH57x_uart1.c:28
    R8_UART1_LCR = RB_LCR_WORD_SZ;
     a9c:	470d                	li	a4,3
     a9e:	40e781a3          	sb	a4,1027(a5)
d:\CH573FEVT\LaserRangeFinder\obj/../StdPeriphDriver/CH57x_uart1.c:29
    R8_UART1_IER = RB_IER_TXD_EN;
     aa2:	04000713          	li	a4,64
     aa6:	40e780a3          	sb	a4,1025(a5)
d:\CH573FEVT\LaserRangeFinder\obj/../StdPeriphDriver/CH57x_uart1.c:30
    R8_UART1_DIV = 1;
     aaa:	4705                	li	a4,1
     aac:	40e78723          	sb	a4,1038(a5)
d:\CH573FEVT\LaserRangeFinder\obj/../StdPeriphDriver/CH57x_uart1.c:31
}
     ab0:	40b2                	lw	ra,12(sp)
     ab2:	0141                	addi	sp,sp,16
     ab4:	8082                	ret

00000ab6 <_free_r>:
_free_r():
     ab6:	c5dd                	beqz	a1,b64 <_free_r+0xae>
     ab8:	ffc5a783          	lw	a5,-4(a1)
     abc:	1141                	addi	sp,sp,-16
     abe:	c422                	sw	s0,8(sp)
     ac0:	c606                	sw	ra,12(sp)
     ac2:	c226                	sw	s1,4(sp)
     ac4:	ffc58413          	addi	s0,a1,-4
     ac8:	0007d363          	bgez	a5,ace <_free_r+0x18>
     acc:	943e                	add	s0,s0,a5
     ace:	84aa                	mv	s1,a0
     ad0:	159000ef          	jal	ra,1428 <__malloc_lock>
     ad4:	20003797          	auipc	a5,0x20003
     ad8:	59478793          	addi	a5,a5,1428 # 20004068 <_edata>
     adc:	439c                	lw	a5,0(a5)
     ade:	ef91                	bnez	a5,afa <_free_r+0x44>
     ae0:	00042223          	sw	zero,4(s0)
     ae4:	20003797          	auipc	a5,0x20003
     ae8:	5887a223          	sw	s0,1412(a5) # 20004068 <_edata>
     aec:	4422                	lw	s0,8(sp)
     aee:	40b2                	lw	ra,12(sp)
     af0:	8526                	mv	a0,s1
     af2:	4492                	lw	s1,4(sp)
     af4:	0141                	addi	sp,sp,16
     af6:	1350006f          	j	142a <__malloc_unlock>
     afa:	00f47e63          	bgeu	s0,a5,b16 <_free_r+0x60>
     afe:	4014                	lw	a3,0(s0)
     b00:	00d40733          	add	a4,s0,a3
     b04:	00e79663          	bne	a5,a4,b10 <_free_r+0x5a>
     b08:	4398                	lw	a4,0(a5)
     b0a:	43dc                	lw	a5,4(a5)
     b0c:	9736                	add	a4,a4,a3
     b0e:	c018                	sw	a4,0(s0)
     b10:	c05c                	sw	a5,4(s0)
     b12:	bfc9                	j	ae4 <_free_r+0x2e>
     b14:	87ba                	mv	a5,a4
     b16:	43d8                	lw	a4,4(a5)
     b18:	c319                	beqz	a4,b1e <_free_r+0x68>
     b1a:	fee47de3          	bgeu	s0,a4,b14 <_free_r+0x5e>
     b1e:	4394                	lw	a3,0(a5)
     b20:	00d78633          	add	a2,a5,a3
     b24:	00861f63          	bne	a2,s0,b42 <_free_r+0x8c>
     b28:	4010                	lw	a2,0(s0)
     b2a:	96b2                	add	a3,a3,a2
     b2c:	c394                	sw	a3,0(a5)
     b2e:	00d78633          	add	a2,a5,a3
     b32:	fac71de3          	bne	a4,a2,aec <_free_r+0x36>
     b36:	4310                	lw	a2,0(a4)
     b38:	4358                	lw	a4,4(a4)
     b3a:	96b2                	add	a3,a3,a2
     b3c:	c394                	sw	a3,0(a5)
     b3e:	c3d8                	sw	a4,4(a5)
     b40:	b775                	j	aec <_free_r+0x36>
     b42:	00c47563          	bgeu	s0,a2,b4c <_free_r+0x96>
     b46:	47b1                	li	a5,12
     b48:	c09c                	sw	a5,0(s1)
     b4a:	b74d                	j	aec <_free_r+0x36>
     b4c:	4010                	lw	a2,0(s0)
     b4e:	00c406b3          	add	a3,s0,a2
     b52:	00d71663          	bne	a4,a3,b5e <_free_r+0xa8>
     b56:	4314                	lw	a3,0(a4)
     b58:	4358                	lw	a4,4(a4)
     b5a:	96b2                	add	a3,a3,a2
     b5c:	c014                	sw	a3,0(s0)
     b5e:	c058                	sw	a4,4(s0)
     b60:	c3c0                	sw	s0,4(a5)
     b62:	b769                	j	aec <_free_r+0x36>
     b64:	8082                	ret

00000b66 <_malloc_r>:
_malloc_r():
     b66:	1101                	addi	sp,sp,-32
     b68:	ca26                	sw	s1,20(sp)
     b6a:	00358493          	addi	s1,a1,3
     b6e:	98f1                	andi	s1,s1,-4
     b70:	ce06                	sw	ra,28(sp)
     b72:	cc22                	sw	s0,24(sp)
     b74:	c84a                	sw	s2,16(sp)
     b76:	c64e                	sw	s3,12(sp)
     b78:	04a1                	addi	s1,s1,8
     b7a:	47b1                	li	a5,12
     b7c:	04f4f363          	bgeu	s1,a5,bc2 <_malloc_r+0x5c>
     b80:	44b1                	li	s1,12
     b82:	04b4e263          	bltu	s1,a1,bc6 <_malloc_r+0x60>
     b86:	892a                	mv	s2,a0
     b88:	0a1000ef          	jal	ra,1428 <__malloc_lock>
     b8c:	80818793          	addi	a5,gp,-2040 # 20004068 <_edata>
     b90:	4398                	lw	a4,0(a5)
     b92:	843a                	mv	s0,a4
     b94:	e039                	bnez	s0,bda <_malloc_r+0x74>
     b96:	80c18793          	addi	a5,gp,-2036 # 2000406c <__malloc_sbrk_start>
     b9a:	439c                	lw	a5,0(a5)
     b9c:	e791                	bnez	a5,ba8 <_malloc_r+0x42>
     b9e:	4581                	li	a1,0
     ba0:	854a                	mv	a0,s2
     ba2:	22d1                	jal	d66 <_sbrk_r>
     ba4:	80a1a623          	sw	a0,-2036(gp) # 2000406c <__malloc_sbrk_start>
     ba8:	85a6                	mv	a1,s1
     baa:	854a                	mv	a0,s2
     bac:	2a6d                	jal	d66 <_sbrk_r>
     bae:	59fd                	li	s3,-1
     bb0:	07351963          	bne	a0,s3,c22 <_malloc_r+0xbc>
     bb4:	47b1                	li	a5,12
     bb6:	00f92023          	sw	a5,0(s2)
     bba:	854a                	mv	a0,s2
     bbc:	06f000ef          	jal	ra,142a <__malloc_unlock>
     bc0:	a029                	j	bca <_malloc_r+0x64>
     bc2:	fc04d0e3          	bgez	s1,b82 <_malloc_r+0x1c>
     bc6:	47b1                	li	a5,12
     bc8:	c11c                	sw	a5,0(a0)
     bca:	4501                	li	a0,0
     bcc:	40f2                	lw	ra,28(sp)
     bce:	4462                	lw	s0,24(sp)
     bd0:	44d2                	lw	s1,20(sp)
     bd2:	4942                	lw	s2,16(sp)
     bd4:	49b2                	lw	s3,12(sp)
     bd6:	6105                	addi	sp,sp,32
     bd8:	8082                	ret
     bda:	401c                	lw	a5,0(s0)
     bdc:	8f85                	sub	a5,a5,s1
     bde:	0207cf63          	bltz	a5,c1c <_malloc_r+0xb6>
     be2:	46ad                	li	a3,11
     be4:	00f6f663          	bgeu	a3,a5,bf0 <_malloc_r+0x8a>
     be8:	c01c                	sw	a5,0(s0)
     bea:	943e                	add	s0,s0,a5
     bec:	c004                	sw	s1,0(s0)
     bee:	a031                	j	bfa <_malloc_r+0x94>
     bf0:	405c                	lw	a5,4(s0)
     bf2:	02871363          	bne	a4,s0,c18 <_malloc_r+0xb2>
     bf6:	80f1a423          	sw	a5,-2040(gp) # 20004068 <_edata>
     bfa:	854a                	mv	a0,s2
     bfc:	02f000ef          	jal	ra,142a <__malloc_unlock>
     c00:	00b40513          	addi	a0,s0,11
     c04:	00440793          	addi	a5,s0,4
     c08:	9961                	andi	a0,a0,-8
     c0a:	40f50733          	sub	a4,a0,a5
     c0e:	df5d                	beqz	a4,bcc <_malloc_r+0x66>
     c10:	943a                	add	s0,s0,a4
     c12:	8f89                	sub	a5,a5,a0
     c14:	c01c                	sw	a5,0(s0)
     c16:	bf5d                	j	bcc <_malloc_r+0x66>
     c18:	c35c                	sw	a5,4(a4)
     c1a:	b7c5                	j	bfa <_malloc_r+0x94>
     c1c:	8722                	mv	a4,s0
     c1e:	4040                	lw	s0,4(s0)
     c20:	bf95                	j	b94 <_malloc_r+0x2e>
     c22:	00350413          	addi	s0,a0,3
     c26:	9871                	andi	s0,s0,-4
     c28:	fc8502e3          	beq	a0,s0,bec <_malloc_r+0x86>
     c2c:	40a405b3          	sub	a1,s0,a0
     c30:	854a                	mv	a0,s2
     c32:	2a15                	jal	d66 <_sbrk_r>
     c34:	fb351ce3          	bne	a0,s3,bec <_malloc_r+0x86>
     c38:	bfb5                	j	bb4 <_malloc_r+0x4e>

00000c3a <iprintf>:
printf():
     c3a:	7139                	addi	sp,sp,-64
     c3c:	da3e                	sw	a5,52(sp)
     c3e:	d22e                	sw	a1,36(sp)
     c40:	d432                	sw	a2,40(sp)
     c42:	d636                	sw	a3,44(sp)
     c44:	d83a                	sw	a4,48(sp)
     c46:	dc42                	sw	a6,56(sp)
     c48:	de46                	sw	a7,60(sp)
     c4a:	20003797          	auipc	a5,0x20003
     c4e:	41a78793          	addi	a5,a5,1050 # 20004064 <_impure_ptr>
     c52:	cc22                	sw	s0,24(sp)
     c54:	4380                	lw	s0,0(a5)
     c56:	ca26                	sw	s1,20(sp)
     c58:	ce06                	sw	ra,28(sp)
     c5a:	84aa                	mv	s1,a0
     c5c:	c409                	beqz	s0,c66 <iprintf+0x2c>
     c5e:	4c1c                	lw	a5,24(s0)
     c60:	e399                	bnez	a5,c66 <iprintf+0x2c>
     c62:	8522                	mv	a0,s0
     c64:	2b91                	jal	11b8 <__sinit>
     c66:	440c                	lw	a1,8(s0)
     c68:	1054                	addi	a3,sp,36
     c6a:	8626                	mv	a2,s1
     c6c:	8522                	mv	a0,s0
     c6e:	c636                	sw	a3,12(sp)
     c70:	027000ef          	jal	ra,1496 <_vfiprintf_r>
     c74:	40f2                	lw	ra,28(sp)
     c76:	4462                	lw	s0,24(sp)
     c78:	44d2                	lw	s1,20(sp)
     c7a:	6121                	addi	sp,sp,64
     c7c:	8082                	ret

00000c7e <_puts_r>:
_puts_r():
     c7e:	1101                	addi	sp,sp,-32
     c80:	ca26                	sw	s1,20(sp)
     c82:	c84a                	sw	s2,16(sp)
     c84:	ce06                	sw	ra,28(sp)
     c86:	cc22                	sw	s0,24(sp)
     c88:	c64e                	sw	s3,12(sp)
     c8a:	c452                	sw	s4,8(sp)
     c8c:	84aa                	mv	s1,a0
     c8e:	892e                	mv	s2,a1
     c90:	c501                	beqz	a0,c98 <_puts_r+0x1a>
     c92:	4d1c                	lw	a5,24(a0)
     c94:	e391                	bnez	a5,c98 <_puts_r+0x1a>
     c96:	230d                	jal	11b8 <__sinit>
     c98:	4c9c                	lw	a5,24(s1)
     c9a:	4480                	lw	s0,8(s1)
     c9c:	e399                	bnez	a5,ca2 <_puts_r+0x24>
     c9e:	8526                	mv	a0,s1
     ca0:	2b21                	jal	11b8 <__sinit>
     ca2:	00001797          	auipc	a5,0x1
     ca6:	0a678793          	addi	a5,a5,166 # 1d48 <__sf_fake_stdin>
     caa:	02f41c63          	bne	s0,a5,ce2 <_puts_r+0x64>
     cae:	40c0                	lw	s0,4(s1)
     cb0:	00c45783          	lhu	a5,12(s0)
     cb4:	8ba1                	andi	a5,a5,8
     cb6:	c7b1                	beqz	a5,d02 <_puts_r+0x84>
     cb8:	481c                	lw	a5,16(s0)
     cba:	c7a1                	beqz	a5,d02 <_puts_r+0x84>
     cbc:	59fd                	li	s3,-1
     cbe:	4a29                	li	s4,10
     cc0:	441c                	lw	a5,8(s0)
     cc2:	00094583          	lbu	a1,0(s2)
     cc6:	17fd                	addi	a5,a5,-1
     cc8:	e9b1                	bnez	a1,d1c <_puts_r+0x9e>
     cca:	c41c                	sw	a5,8(s0)
     ccc:	0607de63          	bgez	a5,d48 <_puts_r+0xca>
     cd0:	8622                	mv	a2,s0
     cd2:	45a9                	li	a1,10
     cd4:	8526                	mv	a0,s1
     cd6:	2865                	jal	d8e <__swbuf_r>
     cd8:	57fd                	li	a5,-1
     cda:	02f50863          	beq	a0,a5,d0a <_puts_r+0x8c>
     cde:	4529                	li	a0,10
     ce0:	a035                	j	d0c <_puts_r+0x8e>
     ce2:	00001797          	auipc	a5,0x1
     ce6:	08678793          	addi	a5,a5,134 # 1d68 <__sf_fake_stdout>
     cea:	00f41463          	bne	s0,a5,cf2 <_puts_r+0x74>
     cee:	4480                	lw	s0,8(s1)
     cf0:	b7c1                	j	cb0 <_puts_r+0x32>
     cf2:	00001797          	auipc	a5,0x1
     cf6:	03678793          	addi	a5,a5,54 # 1d28 <__sf_fake_stderr>
     cfa:	faf41be3          	bne	s0,a5,cb0 <_puts_r+0x32>
     cfe:	44c0                	lw	s0,12(s1)
     d00:	bf45                	j	cb0 <_puts_r+0x32>
     d02:	85a2                	mv	a1,s0
     d04:	8526                	mv	a0,s1
     d06:	22a1                	jal	e4e <__swsetup_r>
     d08:	d955                	beqz	a0,cbc <_puts_r+0x3e>
     d0a:	557d                	li	a0,-1
     d0c:	40f2                	lw	ra,28(sp)
     d0e:	4462                	lw	s0,24(sp)
     d10:	44d2                	lw	s1,20(sp)
     d12:	4942                	lw	s2,16(sp)
     d14:	49b2                	lw	s3,12(sp)
     d16:	4a22                	lw	s4,8(sp)
     d18:	6105                	addi	sp,sp,32
     d1a:	8082                	ret
     d1c:	c41c                	sw	a5,8(s0)
     d1e:	0905                	addi	s2,s2,1
     d20:	0007d763          	bgez	a5,d2e <_puts_r+0xb0>
     d24:	4c18                	lw	a4,24(s0)
     d26:	00e7cb63          	blt	a5,a4,d3c <_puts_r+0xbe>
     d2a:	01458963          	beq	a1,s4,d3c <_puts_r+0xbe>
     d2e:	401c                	lw	a5,0(s0)
     d30:	00178713          	addi	a4,a5,1
     d34:	c018                	sw	a4,0(s0)
     d36:	00b78023          	sb	a1,0(a5)
     d3a:	b759                	j	cc0 <_puts_r+0x42>
     d3c:	8622                	mv	a2,s0
     d3e:	8526                	mv	a0,s1
     d40:	20b9                	jal	d8e <__swbuf_r>
     d42:	f7351fe3          	bne	a0,s3,cc0 <_puts_r+0x42>
     d46:	b7d1                	j	d0a <_puts_r+0x8c>
     d48:	401c                	lw	a5,0(s0)
     d4a:	00178713          	addi	a4,a5,1
     d4e:	c018                	sw	a4,0(s0)
     d50:	4729                	li	a4,10
     d52:	00e78023          	sb	a4,0(a5)
     d56:	b761                	j	cde <_puts_r+0x60>

00000d58 <puts>:
puts():
     d58:	20003797          	auipc	a5,0x20003
     d5c:	30c78793          	addi	a5,a5,780 # 20004064 <_impure_ptr>
     d60:	85aa                	mv	a1,a0
     d62:	4388                	lw	a0,0(a5)
     d64:	bf29                	j	c7e <_puts_r>

00000d66 <_sbrk_r>:
_sbrk_r():
     d66:	1141                	addi	sp,sp,-16
     d68:	c422                	sw	s0,8(sp)
     d6a:	842a                	mv	s0,a0
     d6c:	852e                	mv	a0,a1
     d6e:	8001a823          	sw	zero,-2032(gp) # 20004070 <errno>
     d72:	c606                	sw	ra,12(sp)
     d74:	3945                	jal	a24 <_sbrk>
     d76:	57fd                	li	a5,-1
     d78:	00f51763          	bne	a0,a5,d86 <_sbrk_r+0x20>
     d7c:	81018793          	addi	a5,gp,-2032 # 20004070 <errno>
     d80:	439c                	lw	a5,0(a5)
     d82:	c391                	beqz	a5,d86 <_sbrk_r+0x20>
     d84:	c01c                	sw	a5,0(s0)
     d86:	40b2                	lw	ra,12(sp)
     d88:	4422                	lw	s0,8(sp)
     d8a:	0141                	addi	sp,sp,16
     d8c:	8082                	ret

00000d8e <__swbuf_r>:
__swbuf_r():
     d8e:	1101                	addi	sp,sp,-32
     d90:	cc22                	sw	s0,24(sp)
     d92:	ca26                	sw	s1,20(sp)
     d94:	c84a                	sw	s2,16(sp)
     d96:	ce06                	sw	ra,28(sp)
     d98:	c64e                	sw	s3,12(sp)
     d9a:	84aa                	mv	s1,a0
     d9c:	892e                	mv	s2,a1
     d9e:	8432                	mv	s0,a2
     da0:	c501                	beqz	a0,da8 <__swbuf_r+0x1a>
     da2:	4d1c                	lw	a5,24(a0)
     da4:	e391                	bnez	a5,da8 <__swbuf_r+0x1a>
     da6:	2909                	jal	11b8 <__sinit>
     da8:	00001797          	auipc	a5,0x1
     dac:	fa078793          	addi	a5,a5,-96 # 1d48 <__sf_fake_stdin>
     db0:	06f41963          	bne	s0,a5,e22 <__swbuf_r+0x94>
     db4:	40c0                	lw	s0,4(s1)
     db6:	4c1c                	lw	a5,24(s0)
     db8:	c41c                	sw	a5,8(s0)
     dba:	00c45783          	lhu	a5,12(s0)
     dbe:	8ba1                	andi	a5,a5,8
     dc0:	c3c9                	beqz	a5,e42 <__swbuf_r+0xb4>
     dc2:	481c                	lw	a5,16(s0)
     dc4:	cfbd                	beqz	a5,e42 <__swbuf_r+0xb4>
     dc6:	481c                	lw	a5,16(s0)
     dc8:	4008                	lw	a0,0(s0)
     dca:	0ff97993          	andi	s3,s2,255
     dce:	0ff97913          	andi	s2,s2,255
     dd2:	8d1d                	sub	a0,a0,a5
     dd4:	485c                	lw	a5,20(s0)
     dd6:	00f54663          	blt	a0,a5,de2 <__swbuf_r+0x54>
     dda:	85a2                	mv	a1,s0
     ddc:	8526                	mv	a0,s1
     dde:	2c75                	jal	109a <_fflush_r>
     de0:	e52d                	bnez	a0,e4a <__swbuf_r+0xbc>
     de2:	441c                	lw	a5,8(s0)
     de4:	0505                	addi	a0,a0,1
     de6:	17fd                	addi	a5,a5,-1
     de8:	c41c                	sw	a5,8(s0)
     dea:	401c                	lw	a5,0(s0)
     dec:	00178713          	addi	a4,a5,1
     df0:	c018                	sw	a4,0(s0)
     df2:	01378023          	sb	s3,0(a5)
     df6:	485c                	lw	a5,20(s0)
     df8:	00a78963          	beq	a5,a0,e0a <__swbuf_r+0x7c>
     dfc:	00c45783          	lhu	a5,12(s0)
     e00:	8b85                	andi	a5,a5,1
     e02:	cb81                	beqz	a5,e12 <__swbuf_r+0x84>
     e04:	47a9                	li	a5,10
     e06:	00f91663          	bne	s2,a5,e12 <__swbuf_r+0x84>
     e0a:	85a2                	mv	a1,s0
     e0c:	8526                	mv	a0,s1
     e0e:	2471                	jal	109a <_fflush_r>
     e10:	ed0d                	bnez	a0,e4a <__swbuf_r+0xbc>
     e12:	40f2                	lw	ra,28(sp)
     e14:	4462                	lw	s0,24(sp)
     e16:	854a                	mv	a0,s2
     e18:	44d2                	lw	s1,20(sp)
     e1a:	4942                	lw	s2,16(sp)
     e1c:	49b2                	lw	s3,12(sp)
     e1e:	6105                	addi	sp,sp,32
     e20:	8082                	ret
     e22:	00001797          	auipc	a5,0x1
     e26:	f4678793          	addi	a5,a5,-186 # 1d68 <__sf_fake_stdout>
     e2a:	00f41463          	bne	s0,a5,e32 <__swbuf_r+0xa4>
     e2e:	4480                	lw	s0,8(s1)
     e30:	b759                	j	db6 <__swbuf_r+0x28>
     e32:	00001797          	auipc	a5,0x1
     e36:	ef678793          	addi	a5,a5,-266 # 1d28 <__sf_fake_stderr>
     e3a:	f6f41ee3          	bne	s0,a5,db6 <__swbuf_r+0x28>
     e3e:	44c0                	lw	s0,12(s1)
     e40:	bf9d                	j	db6 <__swbuf_r+0x28>
     e42:	85a2                	mv	a1,s0
     e44:	8526                	mv	a0,s1
     e46:	2021                	jal	e4e <__swsetup_r>
     e48:	dd3d                	beqz	a0,dc6 <__swbuf_r+0x38>
     e4a:	597d                	li	s2,-1
     e4c:	b7d9                	j	e12 <__swbuf_r+0x84>

00000e4e <__swsetup_r>:
__swsetup_r():
     e4e:	1141                	addi	sp,sp,-16
     e50:	20003797          	auipc	a5,0x20003
     e54:	21478793          	addi	a5,a5,532 # 20004064 <_impure_ptr>
     e58:	c226                	sw	s1,4(sp)
     e5a:	4384                	lw	s1,0(a5)
     e5c:	c422                	sw	s0,8(sp)
     e5e:	c04a                	sw	s2,0(sp)
     e60:	c606                	sw	ra,12(sp)
     e62:	892a                	mv	s2,a0
     e64:	842e                	mv	s0,a1
     e66:	c489                	beqz	s1,e70 <__swsetup_r+0x22>
     e68:	4c9c                	lw	a5,24(s1)
     e6a:	e399                	bnez	a5,e70 <__swsetup_r+0x22>
     e6c:	8526                	mv	a0,s1
     e6e:	26a9                	jal	11b8 <__sinit>
     e70:	00001797          	auipc	a5,0x1
     e74:	ed878793          	addi	a5,a5,-296 # 1d48 <__sf_fake_stdin>
     e78:	02f41c63          	bne	s0,a5,eb0 <__swsetup_r+0x62>
     e7c:	40c0                	lw	s0,4(s1)
     e7e:	00c41703          	lh	a4,12(s0)
     e82:	01071793          	slli	a5,a4,0x10
     e86:	83c1                	srli	a5,a5,0x10
     e88:	0087f693          	andi	a3,a5,8
     e8c:	eeb5                	bnez	a3,f08 <__swsetup_r+0xba>
     e8e:	0107f693          	andi	a3,a5,16
     e92:	ee9d                	bnez	a3,ed0 <__swsetup_r+0x82>
     e94:	47a5                	li	a5,9
     e96:	00f92023          	sw	a5,0(s2)
     e9a:	04076713          	ori	a4,a4,64
     e9e:	00e41623          	sh	a4,12(s0)
     ea2:	557d                	li	a0,-1
     ea4:	40b2                	lw	ra,12(sp)
     ea6:	4422                	lw	s0,8(sp)
     ea8:	4492                	lw	s1,4(sp)
     eaa:	4902                	lw	s2,0(sp)
     eac:	0141                	addi	sp,sp,16
     eae:	8082                	ret
     eb0:	00001797          	auipc	a5,0x1
     eb4:	eb878793          	addi	a5,a5,-328 # 1d68 <__sf_fake_stdout>
     eb8:	00f41463          	bne	s0,a5,ec0 <__swsetup_r+0x72>
     ebc:	4480                	lw	s0,8(s1)
     ebe:	b7c1                	j	e7e <__swsetup_r+0x30>
     ec0:	00001797          	auipc	a5,0x1
     ec4:	e6878793          	addi	a5,a5,-408 # 1d28 <__sf_fake_stderr>
     ec8:	faf41be3          	bne	s0,a5,e7e <__swsetup_r+0x30>
     ecc:	44c0                	lw	s0,12(s1)
     ece:	bf45                	j	e7e <__swsetup_r+0x30>
     ed0:	8b91                	andi	a5,a5,4
     ed2:	c78d                	beqz	a5,efc <__swsetup_r+0xae>
     ed4:	584c                	lw	a1,52(s0)
     ed6:	c989                	beqz	a1,ee8 <__swsetup_r+0x9a>
     ed8:	04440793          	addi	a5,s0,68
     edc:	00f58463          	beq	a1,a5,ee4 <__swsetup_r+0x96>
     ee0:	854a                	mv	a0,s2
     ee2:	3ed1                	jal	ab6 <_free_r>
     ee4:	02042a23          	sw	zero,52(s0)
     ee8:	00c45783          	lhu	a5,12(s0)
     eec:	00042223          	sw	zero,4(s0)
     ef0:	fdb7f793          	andi	a5,a5,-37
     ef4:	00f41623          	sh	a5,12(s0)
     ef8:	481c                	lw	a5,16(s0)
     efa:	c01c                	sw	a5,0(s0)
     efc:	00c45783          	lhu	a5,12(s0)
     f00:	0087e793          	ori	a5,a5,8
     f04:	00f41623          	sh	a5,12(s0)
     f08:	481c                	lw	a5,16(s0)
     f0a:	ef81                	bnez	a5,f22 <__swsetup_r+0xd4>
     f0c:	00c45783          	lhu	a5,12(s0)
     f10:	20000713          	li	a4,512
     f14:	2807f793          	andi	a5,a5,640
     f18:	00e78563          	beq	a5,a4,f22 <__swsetup_r+0xd4>
     f1c:	85a2                	mv	a1,s0
     f1e:	854a                	mv	a0,s2
     f20:	21a5                	jal	1388 <__smakebuf_r>
     f22:	00c45783          	lhu	a5,12(s0)
     f26:	0017f713          	andi	a4,a5,1
     f2a:	c705                	beqz	a4,f52 <__swsetup_r+0x104>
     f2c:	485c                	lw	a5,20(s0)
     f2e:	00042423          	sw	zero,8(s0)
     f32:	40f007b3          	neg	a5,a5
     f36:	cc1c                	sw	a5,24(s0)
     f38:	481c                	lw	a5,16(s0)
     f3a:	4501                	li	a0,0
     f3c:	f7a5                	bnez	a5,ea4 <__swsetup_r+0x56>
     f3e:	00c41783          	lh	a5,12(s0)
     f42:	0807f713          	andi	a4,a5,128
     f46:	df39                	beqz	a4,ea4 <__swsetup_r+0x56>
     f48:	0407e793          	ori	a5,a5,64
     f4c:	00f41623          	sh	a5,12(s0)
     f50:	bf89                	j	ea2 <__swsetup_r+0x54>
     f52:	8b89                	andi	a5,a5,2
     f54:	4701                	li	a4,0
     f56:	e391                	bnez	a5,f5a <__swsetup_r+0x10c>
     f58:	4858                	lw	a4,20(s0)
     f5a:	c418                	sw	a4,8(s0)
     f5c:	bff1                	j	f38 <__swsetup_r+0xea>

00000f5e <__sflush_r>:
__sflush_r():
     f5e:	00c5d783          	lhu	a5,12(a1)
     f62:	1101                	addi	sp,sp,-32
     f64:	cc22                	sw	s0,24(sp)
     f66:	ca26                	sw	s1,20(sp)
     f68:	ce06                	sw	ra,28(sp)
     f6a:	c84a                	sw	s2,16(sp)
     f6c:	c64e                	sw	s3,12(sp)
     f6e:	0087f713          	andi	a4,a5,8
     f72:	84aa                	mv	s1,a0
     f74:	842e                	mv	s0,a1
     f76:	ef71                	bnez	a4,1052 <__sflush_r+0xf4>
     f78:	41d8                	lw	a4,4(a1)
     f7a:	00e04d63          	bgtz	a4,f94 <__sflush_r+0x36>
     f7e:	41b8                	lw	a4,64(a1)
     f80:	00e04a63          	bgtz	a4,f94 <__sflush_r+0x36>
     f84:	4501                	li	a0,0
     f86:	40f2                	lw	ra,28(sp)
     f88:	4462                	lw	s0,24(sp)
     f8a:	44d2                	lw	s1,20(sp)
     f8c:	4942                	lw	s2,16(sp)
     f8e:	49b2                	lw	s3,12(sp)
     f90:	6105                	addi	sp,sp,32
     f92:	8082                	ret
     f94:	5458                	lw	a4,44(s0)
     f96:	d77d                	beqz	a4,f84 <__sflush_r+0x26>
     f98:	0004a903          	lw	s2,0(s1)
     f9c:	01379693          	slli	a3,a5,0x13
     fa0:	0004a023          	sw	zero,0(s1)
     fa4:	0606dd63          	bgez	a3,101e <__sflush_r+0xc0>
     fa8:	4870                	lw	a2,84(s0)
     faa:	00c45783          	lhu	a5,12(s0)
     fae:	8b91                	andi	a5,a5,4
     fb0:	c799                	beqz	a5,fbe <__sflush_r+0x60>
     fb2:	405c                	lw	a5,4(s0)
     fb4:	8e1d                	sub	a2,a2,a5
     fb6:	585c                	lw	a5,52(s0)
     fb8:	c399                	beqz	a5,fbe <__sflush_r+0x60>
     fba:	403c                	lw	a5,64(s0)
     fbc:	8e1d                	sub	a2,a2,a5
     fbe:	545c                	lw	a5,44(s0)
     fc0:	500c                	lw	a1,32(s0)
     fc2:	4681                	li	a3,0
     fc4:	8526                	mv	a0,s1
     fc6:	9782                	jalr	a5
     fc8:	57fd                	li	a5,-1
     fca:	00c45703          	lhu	a4,12(s0)
     fce:	00f51d63          	bne	a0,a5,fe8 <__sflush_r+0x8a>
     fd2:	4094                	lw	a3,0(s1)
     fd4:	47f5                	li	a5,29
     fd6:	06d7e863          	bltu	a5,a3,1046 <__sflush_r+0xe8>
     fda:	204007b7          	lui	a5,0x20400
     fde:	0785                	addi	a5,a5,1
     fe0:	00d7d7b3          	srl	a5,a5,a3
     fe4:	8b85                	andi	a5,a5,1
     fe6:	c3a5                	beqz	a5,1046 <__sflush_r+0xe8>
     fe8:	481c                	lw	a5,16(s0)
     fea:	00042223          	sw	zero,4(s0)
     fee:	c01c                	sw	a5,0(s0)
     ff0:	01371793          	slli	a5,a4,0x13
     ff4:	0007d863          	bgez	a5,1004 <__sflush_r+0xa6>
     ff8:	57fd                	li	a5,-1
     ffa:	00f51463          	bne	a0,a5,1002 <__sflush_r+0xa4>
     ffe:	409c                	lw	a5,0(s1)
    1000:	e391                	bnez	a5,1004 <__sflush_r+0xa6>
    1002:	c868                	sw	a0,84(s0)
    1004:	584c                	lw	a1,52(s0)
    1006:	0124a023          	sw	s2,0(s1)
    100a:	ddad                	beqz	a1,f84 <__sflush_r+0x26>
    100c:	04440793          	addi	a5,s0,68
    1010:	00f58463          	beq	a1,a5,1018 <__sflush_r+0xba>
    1014:	8526                	mv	a0,s1
    1016:	3445                	jal	ab6 <_free_r>
    1018:	02042a23          	sw	zero,52(s0)
    101c:	b7a5                	j	f84 <__sflush_r+0x26>
    101e:	500c                	lw	a1,32(s0)
    1020:	4601                	li	a2,0
    1022:	4685                	li	a3,1
    1024:	8526                	mv	a0,s1
    1026:	9702                	jalr	a4
    1028:	57fd                	li	a5,-1
    102a:	862a                	mv	a2,a0
    102c:	f6f51fe3          	bne	a0,a5,faa <__sflush_r+0x4c>
    1030:	409c                	lw	a5,0(s1)
    1032:	dfa5                	beqz	a5,faa <__sflush_r+0x4c>
    1034:	4775                	li	a4,29
    1036:	00e78563          	beq	a5,a4,1040 <__sflush_r+0xe2>
    103a:	4759                	li	a4,22
    103c:	04e79463          	bne	a5,a4,1084 <__sflush_r+0x126>
    1040:	0124a023          	sw	s2,0(s1)
    1044:	b781                	j	f84 <__sflush_r+0x26>
    1046:	04076713          	ori	a4,a4,64
    104a:	00e41623          	sh	a4,12(s0)
    104e:	557d                	li	a0,-1
    1050:	bf1d                	j	f86 <__sflush_r+0x28>
    1052:	0105a983          	lw	s3,16(a1)
    1056:	f20987e3          	beqz	s3,f84 <__sflush_r+0x26>
    105a:	0005a903          	lw	s2,0(a1)
    105e:	8b8d                	andi	a5,a5,3
    1060:	0135a023          	sw	s3,0(a1)
    1064:	41390933          	sub	s2,s2,s3
    1068:	4701                	li	a4,0
    106a:	e391                	bnez	a5,106e <__sflush_r+0x110>
    106c:	49d8                	lw	a4,20(a1)
    106e:	c418                	sw	a4,8(s0)
    1070:	f1205ae3          	blez	s2,f84 <__sflush_r+0x26>
    1074:	541c                	lw	a5,40(s0)
    1076:	500c                	lw	a1,32(s0)
    1078:	86ca                	mv	a3,s2
    107a:	864e                	mv	a2,s3
    107c:	8526                	mv	a0,s1
    107e:	9782                	jalr	a5
    1080:	00a04963          	bgtz	a0,1092 <__sflush_r+0x134>
    1084:	00c45783          	lhu	a5,12(s0)
    1088:	0407e793          	ori	a5,a5,64
    108c:	00f41623          	sh	a5,12(s0)
    1090:	bf7d                	j	104e <__sflush_r+0xf0>
    1092:	99aa                	add	s3,s3,a0
    1094:	40a90933          	sub	s2,s2,a0
    1098:	bfe1                	j	1070 <__sflush_r+0x112>

0000109a <_fflush_r>:
_fflush_r():
    109a:	499c                	lw	a5,16(a1)
    109c:	cfb9                	beqz	a5,10fa <_fflush_r+0x60>
    109e:	1101                	addi	sp,sp,-32
    10a0:	cc22                	sw	s0,24(sp)
    10a2:	ce06                	sw	ra,28(sp)
    10a4:	842a                	mv	s0,a0
    10a6:	c511                	beqz	a0,10b2 <_fflush_r+0x18>
    10a8:	4d1c                	lw	a5,24(a0)
    10aa:	e781                	bnez	a5,10b2 <_fflush_r+0x18>
    10ac:	c62e                	sw	a1,12(sp)
    10ae:	2229                	jal	11b8 <__sinit>
    10b0:	45b2                	lw	a1,12(sp)
    10b2:	00001797          	auipc	a5,0x1
    10b6:	c9678793          	addi	a5,a5,-874 # 1d48 <__sf_fake_stdin>
    10ba:	00f59b63          	bne	a1,a5,10d0 <_fflush_r+0x36>
    10be:	404c                	lw	a1,4(s0)
    10c0:	00c59783          	lh	a5,12(a1)
    10c4:	c795                	beqz	a5,10f0 <_fflush_r+0x56>
    10c6:	8522                	mv	a0,s0
    10c8:	4462                	lw	s0,24(sp)
    10ca:	40f2                	lw	ra,28(sp)
    10cc:	6105                	addi	sp,sp,32
    10ce:	bd41                	j	f5e <__sflush_r>
    10d0:	00001797          	auipc	a5,0x1
    10d4:	c9878793          	addi	a5,a5,-872 # 1d68 <__sf_fake_stdout>
    10d8:	00f59463          	bne	a1,a5,10e0 <_fflush_r+0x46>
    10dc:	440c                	lw	a1,8(s0)
    10de:	b7cd                	j	10c0 <_fflush_r+0x26>
    10e0:	00001797          	auipc	a5,0x1
    10e4:	c4878793          	addi	a5,a5,-952 # 1d28 <__sf_fake_stderr>
    10e8:	fcf59ce3          	bne	a1,a5,10c0 <_fflush_r+0x26>
    10ec:	444c                	lw	a1,12(s0)
    10ee:	bfc9                	j	10c0 <_fflush_r+0x26>
    10f0:	40f2                	lw	ra,28(sp)
    10f2:	4462                	lw	s0,24(sp)
    10f4:	4501                	li	a0,0
    10f6:	6105                	addi	sp,sp,32
    10f8:	8082                	ret
    10fa:	4501                	li	a0,0
    10fc:	8082                	ret

000010fe <std>:
std():
    10fe:	1141                	addi	sp,sp,-16
    1100:	c422                	sw	s0,8(sp)
    1102:	c606                	sw	ra,12(sp)
    1104:	842a                	mv	s0,a0
    1106:	00b51623          	sh	a1,12(a0)
    110a:	00c51723          	sh	a2,14(a0)
    110e:	00052023          	sw	zero,0(a0)
    1112:	00052223          	sw	zero,4(a0)
    1116:	00052423          	sw	zero,8(a0)
    111a:	06052223          	sw	zero,100(a0)
    111e:	00052823          	sw	zero,16(a0)
    1122:	00052a23          	sw	zero,20(a0)
    1126:	00052c23          	sw	zero,24(a0)
    112a:	4621                	li	a2,8
    112c:	4581                	li	a1,0
    112e:	05c50513          	addi	a0,a0,92
    1132:	e50ff0ef          	jal	ra,782 <memset>
    1136:	00001797          	auipc	a5,0x1
    113a:	9ac78793          	addi	a5,a5,-1620 # 1ae2 <__sread>
    113e:	d05c                	sw	a5,36(s0)
    1140:	00001797          	auipc	a5,0x1
    1144:	9d278793          	addi	a5,a5,-1582 # 1b12 <__swrite>
    1148:	d41c                	sw	a5,40(s0)
    114a:	00001797          	auipc	a5,0x1
    114e:	a1678793          	addi	a5,a5,-1514 # 1b60 <__sseek>
    1152:	d45c                	sw	a5,44(s0)
    1154:	00001797          	auipc	a5,0x1
    1158:	a4278793          	addi	a5,a5,-1470 # 1b96 <__sclose>
    115c:	d000                	sw	s0,32(s0)
    115e:	d81c                	sw	a5,48(s0)
    1160:	40b2                	lw	ra,12(sp)
    1162:	4422                	lw	s0,8(sp)
    1164:	0141                	addi	sp,sp,16
    1166:	8082                	ret

00001168 <_cleanup_r>:
_cleanup_r():
    1168:	00000597          	auipc	a1,0x0
    116c:	f3258593          	addi	a1,a1,-206 # 109a <_fflush_r>
    1170:	aa89                	j	12c2 <_fwalk_reent>

00001172 <__sfmoreglue>:
__sfmoreglue():
    1172:	1141                	addi	sp,sp,-16
    1174:	c226                	sw	s1,4(sp)
    1176:	06800613          	li	a2,104
    117a:	fff58493          	addi	s1,a1,-1
    117e:	02c484b3          	mul	s1,s1,a2
    1182:	c04a                	sw	s2,0(sp)
    1184:	892e                	mv	s2,a1
    1186:	c422                	sw	s0,8(sp)
    1188:	c606                	sw	ra,12(sp)
    118a:	07448593          	addi	a1,s1,116
    118e:	3ae1                	jal	b66 <_malloc_r>
    1190:	842a                	mv	s0,a0
    1192:	cd01                	beqz	a0,11aa <__sfmoreglue+0x38>
    1194:	00052023          	sw	zero,0(a0)
    1198:	01252223          	sw	s2,4(a0)
    119c:	0531                	addi	a0,a0,12
    119e:	c408                	sw	a0,8(s0)
    11a0:	06848613          	addi	a2,s1,104
    11a4:	4581                	li	a1,0
    11a6:	ddcff0ef          	jal	ra,782 <memset>
    11aa:	8522                	mv	a0,s0
    11ac:	40b2                	lw	ra,12(sp)
    11ae:	4422                	lw	s0,8(sp)
    11b0:	4492                	lw	s1,4(sp)
    11b2:	4902                	lw	s2,0(sp)
    11b4:	0141                	addi	sp,sp,16
    11b6:	8082                	ret

000011b8 <__sinit>:
__sinit():
    11b8:	4d1c                	lw	a5,24(a0)
    11ba:	e3bd                	bnez	a5,1220 <__sinit+0x68>
    11bc:	1141                	addi	sp,sp,-16
    11be:	c606                	sw	ra,12(sp)
    11c0:	c422                	sw	s0,8(sp)
    11c2:	00000797          	auipc	a5,0x0
    11c6:	fa678793          	addi	a5,a5,-90 # 1168 <_cleanup_r>
    11ca:	d51c                	sw	a5,40(a0)
    11cc:	00001797          	auipc	a5,0x1
    11d0:	bf878793          	addi	a5,a5,-1032 # 1dc4 <_global_impure_ptr>
    11d4:	439c                	lw	a5,0(a5)
    11d6:	04052423          	sw	zero,72(a0)
    11da:	04052623          	sw	zero,76(a0)
    11de:	04052823          	sw	zero,80(a0)
    11e2:	00f51463          	bne	a0,a5,11ea <__sinit+0x32>
    11e6:	4785                	li	a5,1
    11e8:	cd1c                	sw	a5,24(a0)
    11ea:	842a                	mv	s0,a0
    11ec:	281d                	jal	1222 <__sfp>
    11ee:	c048                	sw	a0,4(s0)
    11f0:	8522                	mv	a0,s0
    11f2:	2805                	jal	1222 <__sfp>
    11f4:	c408                	sw	a0,8(s0)
    11f6:	8522                	mv	a0,s0
    11f8:	202d                	jal	1222 <__sfp>
    11fa:	c448                	sw	a0,12(s0)
    11fc:	4048                	lw	a0,4(s0)
    11fe:	4601                	li	a2,0
    1200:	4591                	li	a1,4
    1202:	3df5                	jal	10fe <std>
    1204:	4408                	lw	a0,8(s0)
    1206:	4605                	li	a2,1
    1208:	45a5                	li	a1,9
    120a:	3dd5                	jal	10fe <std>
    120c:	4448                	lw	a0,12(s0)
    120e:	4609                	li	a2,2
    1210:	45c9                	li	a1,18
    1212:	35f5                	jal	10fe <std>
    1214:	4785                	li	a5,1
    1216:	cc1c                	sw	a5,24(s0)
    1218:	40b2                	lw	ra,12(sp)
    121a:	4422                	lw	s0,8(sp)
    121c:	0141                	addi	sp,sp,16
    121e:	8082                	ret
    1220:	8082                	ret

00001222 <__sfp>:
__sfp():
    1222:	1141                	addi	sp,sp,-16
    1224:	00001797          	auipc	a5,0x1
    1228:	ba078793          	addi	a5,a5,-1120 # 1dc4 <_global_impure_ptr>
    122c:	c226                	sw	s1,4(sp)
    122e:	4384                	lw	s1,0(a5)
    1230:	c04a                	sw	s2,0(sp)
    1232:	c606                	sw	ra,12(sp)
    1234:	4c9c                	lw	a5,24(s1)
    1236:	c422                	sw	s0,8(sp)
    1238:	892a                	mv	s2,a0
    123a:	e399                	bnez	a5,1240 <__sfp+0x1e>
    123c:	8526                	mv	a0,s1
    123e:	3fad                	jal	11b8 <__sinit>
    1240:	04848493          	addi	s1,s1,72
    1244:	4480                	lw	s0,8(s1)
    1246:	40dc                	lw	a5,4(s1)
    1248:	17fd                	addi	a5,a5,-1
    124a:	0007d663          	bgez	a5,1256 <__sfp+0x34>
    124e:	409c                	lw	a5,0(s1)
    1250:	cfb9                	beqz	a5,12ae <__sfp+0x8c>
    1252:	4084                	lw	s1,0(s1)
    1254:	bfc5                	j	1244 <__sfp+0x22>
    1256:	00c41703          	lh	a4,12(s0)
    125a:	e739                	bnez	a4,12a8 <__sfp+0x86>
    125c:	77c1                	lui	a5,0xffff0
    125e:	0785                	addi	a5,a5,1
    1260:	06042223          	sw	zero,100(s0)
    1264:	00042023          	sw	zero,0(s0)
    1268:	00042223          	sw	zero,4(s0)
    126c:	00042423          	sw	zero,8(s0)
    1270:	c45c                	sw	a5,12(s0)
    1272:	00042823          	sw	zero,16(s0)
    1276:	00042a23          	sw	zero,20(s0)
    127a:	00042c23          	sw	zero,24(s0)
    127e:	4621                	li	a2,8
    1280:	4581                	li	a1,0
    1282:	05c40513          	addi	a0,s0,92
    1286:	cfcff0ef          	jal	ra,782 <memset>
    128a:	02042a23          	sw	zero,52(s0)
    128e:	02042c23          	sw	zero,56(s0)
    1292:	04042423          	sw	zero,72(s0)
    1296:	04042623          	sw	zero,76(s0)
    129a:	8522                	mv	a0,s0
    129c:	40b2                	lw	ra,12(sp)
    129e:	4422                	lw	s0,8(sp)
    12a0:	4492                	lw	s1,4(sp)
    12a2:	4902                	lw	s2,0(sp)
    12a4:	0141                	addi	sp,sp,16
    12a6:	8082                	ret
    12a8:	06840413          	addi	s0,s0,104
    12ac:	bf71                	j	1248 <__sfp+0x26>
    12ae:	4591                	li	a1,4
    12b0:	854a                	mv	a0,s2
    12b2:	35c1                	jal	1172 <__sfmoreglue>
    12b4:	c088                	sw	a0,0(s1)
    12b6:	fd51                	bnez	a0,1252 <__sfp+0x30>
    12b8:	47b1                	li	a5,12
    12ba:	00f92023          	sw	a5,0(s2)
    12be:	4401                	li	s0,0
    12c0:	bfe9                	j	129a <__sfp+0x78>

000012c2 <_fwalk_reent>:
_fwalk_reent():
    12c2:	7179                	addi	sp,sp,-48
    12c4:	d422                	sw	s0,40(sp)
    12c6:	d04a                	sw	s2,32(sp)
    12c8:	cc52                	sw	s4,24(sp)
    12ca:	ca56                	sw	s5,20(sp)
    12cc:	c85a                	sw	s6,16(sp)
    12ce:	c65e                	sw	s7,12(sp)
    12d0:	d606                	sw	ra,44(sp)
    12d2:	d226                	sw	s1,36(sp)
    12d4:	ce4e                	sw	s3,28(sp)
    12d6:	8a2a                	mv	s4,a0
    12d8:	8aae                	mv	s5,a1
    12da:	04850413          	addi	s0,a0,72
    12de:	4901                	li	s2,0
    12e0:	4b05                	li	s6,1
    12e2:	5bfd                	li	s7,-1
    12e4:	ec09                	bnez	s0,12fe <_fwalk_reent+0x3c>
    12e6:	50b2                	lw	ra,44(sp)
    12e8:	5422                	lw	s0,40(sp)
    12ea:	854a                	mv	a0,s2
    12ec:	5492                	lw	s1,36(sp)
    12ee:	5902                	lw	s2,32(sp)
    12f0:	49f2                	lw	s3,28(sp)
    12f2:	4a62                	lw	s4,24(sp)
    12f4:	4ad2                	lw	s5,20(sp)
    12f6:	4b42                	lw	s6,16(sp)
    12f8:	4bb2                	lw	s7,12(sp)
    12fa:	6145                	addi	sp,sp,48
    12fc:	8082                	ret
    12fe:	4404                	lw	s1,8(s0)
    1300:	00442983          	lw	s3,4(s0)
    1304:	19fd                	addi	s3,s3,-1
    1306:	0009d463          	bgez	s3,130e <_fwalk_reent+0x4c>
    130a:	4000                	lw	s0,0(s0)
    130c:	bfe1                	j	12e4 <_fwalk_reent+0x22>
    130e:	00c4d783          	lhu	a5,12(s1)
    1312:	00fb7b63          	bgeu	s6,a5,1328 <_fwalk_reent+0x66>
    1316:	00e49783          	lh	a5,14(s1)
    131a:	01778763          	beq	a5,s7,1328 <_fwalk_reent+0x66>
    131e:	85a6                	mv	a1,s1
    1320:	8552                	mv	a0,s4
    1322:	9a82                	jalr	s5
    1324:	00a96933          	or	s2,s2,a0
    1328:	06848493          	addi	s1,s1,104
    132c:	bfe1                	j	1304 <_fwalk_reent+0x42>

0000132e <__swhatbuf_r>:
__swhatbuf_r():
    132e:	7119                	addi	sp,sp,-128
    1330:	daa6                	sw	s1,116(sp)
    1332:	84ae                	mv	s1,a1
    1334:	00e59583          	lh	a1,14(a1)
    1338:	dca2                	sw	s0,120(sp)
    133a:	de86                	sw	ra,124(sp)
    133c:	8432                	mv	s0,a2
    133e:	0005dc63          	bgez	a1,1356 <__swhatbuf_r+0x28>
    1342:	00c4d783          	lhu	a5,12(s1)
    1346:	0006a023          	sw	zero,0(a3)
    134a:	0807f793          	andi	a5,a5,128
    134e:	e785                	bnez	a5,1376 <__swhatbuf_r+0x48>
    1350:	40000793          	li	a5,1024
    1354:	a01d                	j	137a <__swhatbuf_r+0x4c>
    1356:	0830                	addi	a2,sp,24
    1358:	c636                	sw	a3,12(sp)
    135a:	099000ef          	jal	ra,1bf2 <_fstat_r>
    135e:	46b2                	lw	a3,12(sp)
    1360:	fe0541e3          	bltz	a0,1342 <__swhatbuf_r+0x14>
    1364:	4772                	lw	a4,28(sp)
    1366:	67bd                	lui	a5,0xf
    1368:	8ff9                	and	a5,a5,a4
    136a:	7779                	lui	a4,0xffffe
    136c:	97ba                	add	a5,a5,a4
    136e:	0017b793          	seqz	a5,a5
    1372:	c29c                	sw	a5,0(a3)
    1374:	bff1                	j	1350 <__swhatbuf_r+0x22>
    1376:	04000793          	li	a5,64
    137a:	c01c                	sw	a5,0(s0)
    137c:	50f6                	lw	ra,124(sp)
    137e:	5466                	lw	s0,120(sp)
    1380:	54d6                	lw	s1,116(sp)
    1382:	4501                	li	a0,0
    1384:	6109                	addi	sp,sp,128
    1386:	8082                	ret

00001388 <__smakebuf_r>:
__smakebuf_r():
    1388:	00c5d783          	lhu	a5,12(a1)
    138c:	1101                	addi	sp,sp,-32
    138e:	cc22                	sw	s0,24(sp)
    1390:	ce06                	sw	ra,28(sp)
    1392:	ca26                	sw	s1,20(sp)
    1394:	c84a                	sw	s2,16(sp)
    1396:	8b89                	andi	a5,a5,2
    1398:	842e                	mv	s0,a1
    139a:	cf89                	beqz	a5,13b4 <__smakebuf_r+0x2c>
    139c:	04740793          	addi	a5,s0,71
    13a0:	c01c                	sw	a5,0(s0)
    13a2:	c81c                	sw	a5,16(s0)
    13a4:	4785                	li	a5,1
    13a6:	c85c                	sw	a5,20(s0)
    13a8:	40f2                	lw	ra,28(sp)
    13aa:	4462                	lw	s0,24(sp)
    13ac:	44d2                	lw	s1,20(sp)
    13ae:	4942                	lw	s2,16(sp)
    13b0:	6105                	addi	sp,sp,32
    13b2:	8082                	ret
    13b4:	0074                	addi	a3,sp,12
    13b6:	0030                	addi	a2,sp,8
    13b8:	84aa                	mv	s1,a0
    13ba:	3f95                	jal	132e <__swhatbuf_r>
    13bc:	45a2                	lw	a1,8(sp)
    13be:	892a                	mv	s2,a0
    13c0:	8526                	mv	a0,s1
    13c2:	fa4ff0ef          	jal	ra,b66 <_malloc_r>
    13c6:	ed01                	bnez	a0,13de <__smakebuf_r+0x56>
    13c8:	00c41783          	lh	a5,12(s0)
    13cc:	2007f713          	andi	a4,a5,512
    13d0:	ff61                	bnez	a4,13a8 <__smakebuf_r+0x20>
    13d2:	9bf1                	andi	a5,a5,-4
    13d4:	0027e793          	ori	a5,a5,2
    13d8:	00f41623          	sh	a5,12(s0)
    13dc:	b7c1                	j	139c <__smakebuf_r+0x14>
    13de:	00000797          	auipc	a5,0x0
    13e2:	d8a78793          	addi	a5,a5,-630 # 1168 <_cleanup_r>
    13e6:	d49c                	sw	a5,40(s1)
    13e8:	00c45783          	lhu	a5,12(s0)
    13ec:	c008                	sw	a0,0(s0)
    13ee:	c808                	sw	a0,16(s0)
    13f0:	0807e793          	ori	a5,a5,128
    13f4:	00f41623          	sh	a5,12(s0)
    13f8:	47a2                	lw	a5,8(sp)
    13fa:	c85c                	sw	a5,20(s0)
    13fc:	47b2                	lw	a5,12(sp)
    13fe:	cf91                	beqz	a5,141a <__smakebuf_r+0x92>
    1400:	00e41583          	lh	a1,14(s0)
    1404:	8526                	mv	a0,s1
    1406:	017000ef          	jal	ra,1c1c <_isatty_r>
    140a:	c901                	beqz	a0,141a <__smakebuf_r+0x92>
    140c:	00c45783          	lhu	a5,12(s0)
    1410:	9bf1                	andi	a5,a5,-4
    1412:	0017e793          	ori	a5,a5,1
    1416:	00f41623          	sh	a5,12(s0)
    141a:	00c45783          	lhu	a5,12(s0)
    141e:	00f96933          	or	s2,s2,a5
    1422:	01241623          	sh	s2,12(s0)
    1426:	b749                	j	13a8 <__smakebuf_r+0x20>

00001428 <__malloc_lock>:
__malloc_lock():
    1428:	8082                	ret

0000142a <__malloc_unlock>:
__malloc_unlock():
    142a:	8082                	ret

0000142c <__sfputc_r>:
__sfputc_r():
    142c:	461c                	lw	a5,8(a2)
    142e:	17fd                	addi	a5,a5,-1
    1430:	c61c                	sw	a5,8(a2)
    1432:	0007d963          	bgez	a5,1444 <__sfputc_r+0x18>
    1436:	4e18                	lw	a4,24(a2)
    1438:	00e7c563          	blt	a5,a4,1442 <__sfputc_r+0x16>
    143c:	47a9                	li	a5,10
    143e:	00f59363          	bne	a1,a5,1444 <__sfputc_r+0x18>
    1442:	b2b1                	j	d8e <__swbuf_r>
    1444:	421c                	lw	a5,0(a2)
    1446:	852e                	mv	a0,a1
    1448:	00178713          	addi	a4,a5,1
    144c:	c218                	sw	a4,0(a2)
    144e:	00b78023          	sb	a1,0(a5)
    1452:	8082                	ret

00001454 <__sfputs_r>:
__sfputs_r():
    1454:	1101                	addi	sp,sp,-32
    1456:	cc22                	sw	s0,24(sp)
    1458:	ca26                	sw	s1,20(sp)
    145a:	c84a                	sw	s2,16(sp)
    145c:	c64e                	sw	s3,12(sp)
    145e:	c452                	sw	s4,8(sp)
    1460:	ce06                	sw	ra,28(sp)
    1462:	892a                	mv	s2,a0
    1464:	89ae                	mv	s3,a1
    1466:	8432                	mv	s0,a2
    1468:	00d604b3          	add	s1,a2,a3
    146c:	5a7d                	li	s4,-1
    146e:	00941463          	bne	s0,s1,1476 <__sfputs_r+0x22>
    1472:	4501                	li	a0,0
    1474:	a809                	j	1486 <__sfputs_r+0x32>
    1476:	00044583          	lbu	a1,0(s0)
    147a:	864e                	mv	a2,s3
    147c:	854a                	mv	a0,s2
    147e:	377d                	jal	142c <__sfputc_r>
    1480:	0405                	addi	s0,s0,1
    1482:	ff4516e3          	bne	a0,s4,146e <__sfputs_r+0x1a>
    1486:	40f2                	lw	ra,28(sp)
    1488:	4462                	lw	s0,24(sp)
    148a:	44d2                	lw	s1,20(sp)
    148c:	4942                	lw	s2,16(sp)
    148e:	49b2                	lw	s3,12(sp)
    1490:	4a22                	lw	s4,8(sp)
    1492:	6105                	addi	sp,sp,32
    1494:	8082                	ret

00001496 <_vfiprintf_r>:
_vfiprintf_r():
    1496:	7135                	addi	sp,sp,-160
    1498:	cd22                	sw	s0,152(sp)
    149a:	cb26                	sw	s1,148(sp)
    149c:	c94a                	sw	s2,144(sp)
    149e:	c74e                	sw	s3,140(sp)
    14a0:	cf06                	sw	ra,156(sp)
    14a2:	c552                	sw	s4,136(sp)
    14a4:	c356                	sw	s5,132(sp)
    14a6:	c15a                	sw	s6,128(sp)
    14a8:	dede                	sw	s7,124(sp)
    14aa:	dce2                	sw	s8,120(sp)
    14ac:	dae6                	sw	s9,116(sp)
    14ae:	89aa                	mv	s3,a0
    14b0:	84ae                	mv	s1,a1
    14b2:	8932                	mv	s2,a2
    14b4:	8436                	mv	s0,a3
    14b6:	c501                	beqz	a0,14be <_vfiprintf_r+0x28>
    14b8:	4d1c                	lw	a5,24(a0)
    14ba:	e391                	bnez	a5,14be <_vfiprintf_r+0x28>
    14bc:	39f5                	jal	11b8 <__sinit>
    14be:	00001797          	auipc	a5,0x1
    14c2:	88a78793          	addi	a5,a5,-1910 # 1d48 <__sf_fake_stdin>
    14c6:	0cf49b63          	bne	s1,a5,159c <_vfiprintf_r+0x106>
    14ca:	0049a483          	lw	s1,4(s3)
    14ce:	00c4d783          	lhu	a5,12(s1)
    14d2:	8ba1                	andi	a5,a5,8
    14d4:	c7f5                	beqz	a5,15c0 <_vfiprintf_r+0x12a>
    14d6:	489c                	lw	a5,16(s1)
    14d8:	c7e5                	beqz	a5,15c0 <_vfiprintf_r+0x12a>
    14da:	02000793          	li	a5,32
    14de:	02f104a3          	sb	a5,41(sp)
    14e2:	03000793          	li	a5,48
    14e6:	d202                	sw	zero,36(sp)
    14e8:	02f10523          	sb	a5,42(sp)
    14ec:	c622                	sw	s0,12(sp)
    14ee:	02500b93          	li	s7,37
    14f2:	00001a97          	auipc	s5,0x1
    14f6:	896a8a93          	addi	s5,s5,-1898 # 1d88 <__sf_fake_stdout+0x20>
    14fa:	4c05                	li	s8,1
    14fc:	4b29                	li	s6,10
    14fe:	844a                	mv	s0,s2
    1500:	00044783          	lbu	a5,0(s0)
    1504:	c399                	beqz	a5,150a <_vfiprintf_r+0x74>
    1506:	0f779063          	bne	a5,s7,15e6 <_vfiprintf_r+0x150>
    150a:	41240cb3          	sub	s9,s0,s2
    150e:	000c8d63          	beqz	s9,1528 <_vfiprintf_r+0x92>
    1512:	86e6                	mv	a3,s9
    1514:	864a                	mv	a2,s2
    1516:	85a6                	mv	a1,s1
    1518:	854e                	mv	a0,s3
    151a:	3f2d                	jal	1454 <__sfputs_r>
    151c:	57fd                	li	a5,-1
    151e:	1ef50663          	beq	a0,a5,170a <_vfiprintf_r+0x274>
    1522:	5692                	lw	a3,36(sp)
    1524:	96e6                	add	a3,a3,s9
    1526:	d236                	sw	a3,36(sp)
    1528:	00044783          	lbu	a5,0(s0)
    152c:	1c078f63          	beqz	a5,170a <_vfiprintf_r+0x274>
    1530:	57fd                	li	a5,-1
    1532:	00140913          	addi	s2,s0,1
    1536:	c802                	sw	zero,16(sp)
    1538:	ce02                	sw	zero,28(sp)
    153a:	ca3e                	sw	a5,20(sp)
    153c:	cc02                	sw	zero,24(sp)
    153e:	040109a3          	sb	zero,83(sp)
    1542:	d482                	sw	zero,104(sp)
    1544:	00094583          	lbu	a1,0(s2)
    1548:	4615                	li	a2,5
    154a:	8556                	mv	a0,s5
    154c:	2715                	jal	1c70 <memchr>
    154e:	00190413          	addi	s0,s2,1
    1552:	47c2                	lw	a5,16(sp)
    1554:	e959                	bnez	a0,15ea <_vfiprintf_r+0x154>
    1556:	0107f713          	andi	a4,a5,16
    155a:	c709                	beqz	a4,1564 <_vfiprintf_r+0xce>
    155c:	02000713          	li	a4,32
    1560:	04e109a3          	sb	a4,83(sp)
    1564:	0087f713          	andi	a4,a5,8
    1568:	c709                	beqz	a4,1572 <_vfiprintf_r+0xdc>
    156a:	02b00713          	li	a4,43
    156e:	04e109a3          	sb	a4,83(sp)
    1572:	00094683          	lbu	a3,0(s2)
    1576:	02a00713          	li	a4,42
    157a:	08e68063          	beq	a3,a4,15fa <_vfiprintf_r+0x164>
    157e:	47f2                	lw	a5,28(sp)
    1580:	844a                	mv	s0,s2
    1582:	4681                	li	a3,0
    1584:	4625                	li	a2,9
    1586:	00044703          	lbu	a4,0(s0)
    158a:	00140593          	addi	a1,s0,1
    158e:	fd070713          	addi	a4,a4,-48 # ffffdfd0 <_eusrstack+0xdfff5fd0>
    1592:	0ae67963          	bgeu	a2,a4,1644 <_vfiprintf_r+0x1ae>
    1596:	cab5                	beqz	a3,160a <_vfiprintf_r+0x174>
    1598:	ce3e                	sw	a5,28(sp)
    159a:	a885                	j	160a <_vfiprintf_r+0x174>
    159c:	00000797          	auipc	a5,0x0
    15a0:	7cc78793          	addi	a5,a5,1996 # 1d68 <__sf_fake_stdout>
    15a4:	00f49563          	bne	s1,a5,15ae <_vfiprintf_r+0x118>
    15a8:	0089a483          	lw	s1,8(s3)
    15ac:	b70d                	j	14ce <_vfiprintf_r+0x38>
    15ae:	00000797          	auipc	a5,0x0
    15b2:	77a78793          	addi	a5,a5,1914 # 1d28 <__sf_fake_stderr>
    15b6:	f0f49ce3          	bne	s1,a5,14ce <_vfiprintf_r+0x38>
    15ba:	00c9a483          	lw	s1,12(s3)
    15be:	bf01                	j	14ce <_vfiprintf_r+0x38>
    15c0:	85a6                	mv	a1,s1
    15c2:	854e                	mv	a0,s3
    15c4:	88bff0ef          	jal	ra,e4e <__swsetup_r>
    15c8:	d909                	beqz	a0,14da <_vfiprintf_r+0x44>
    15ca:	557d                	li	a0,-1
    15cc:	40fa                	lw	ra,156(sp)
    15ce:	446a                	lw	s0,152(sp)
    15d0:	44da                	lw	s1,148(sp)
    15d2:	494a                	lw	s2,144(sp)
    15d4:	49ba                	lw	s3,140(sp)
    15d6:	4a2a                	lw	s4,136(sp)
    15d8:	4a9a                	lw	s5,132(sp)
    15da:	4b0a                	lw	s6,128(sp)
    15dc:	5bf6                	lw	s7,124(sp)
    15de:	5c66                	lw	s8,120(sp)
    15e0:	5cd6                	lw	s9,116(sp)
    15e2:	610d                	addi	sp,sp,160
    15e4:	8082                	ret
    15e6:	0405                	addi	s0,s0,1
    15e8:	bf21                	j	1500 <_vfiprintf_r+0x6a>
    15ea:	41550533          	sub	a0,a0,s5
    15ee:	00ac1533          	sll	a0,s8,a0
    15f2:	8fc9                	or	a5,a5,a0
    15f4:	c83e                	sw	a5,16(sp)
    15f6:	8922                	mv	s2,s0
    15f8:	b7b1                	j	1544 <_vfiprintf_r+0xae>
    15fa:	4732                	lw	a4,12(sp)
    15fc:	00470693          	addi	a3,a4,4
    1600:	4318                	lw	a4,0(a4)
    1602:	c636                	sw	a3,12(sp)
    1604:	02074963          	bltz	a4,1636 <_vfiprintf_r+0x1a0>
    1608:	ce3a                	sw	a4,28(sp)
    160a:	00044703          	lbu	a4,0(s0)
    160e:	02e00793          	li	a5,46
    1612:	04f71f63          	bne	a4,a5,1670 <_vfiprintf_r+0x1da>
    1616:	00144703          	lbu	a4,1(s0)
    161a:	02a00793          	li	a5,42
    161e:	02f71b63          	bne	a4,a5,1654 <_vfiprintf_r+0x1be>
    1622:	47b2                	lw	a5,12(sp)
    1624:	0409                	addi	s0,s0,2
    1626:	00478713          	addi	a4,a5,4
    162a:	439c                	lw	a5,0(a5)
    162c:	c63a                	sw	a4,12(sp)
    162e:	0207c163          	bltz	a5,1650 <_vfiprintf_r+0x1ba>
    1632:	ca3e                	sw	a5,20(sp)
    1634:	a835                	j	1670 <_vfiprintf_r+0x1da>
    1636:	40e00733          	neg	a4,a4
    163a:	0027e793          	ori	a5,a5,2
    163e:	ce3a                	sw	a4,28(sp)
    1640:	c83e                	sw	a5,16(sp)
    1642:	b7e1                	j	160a <_vfiprintf_r+0x174>
    1644:	036787b3          	mul	a5,a5,s6
    1648:	4685                	li	a3,1
    164a:	842e                	mv	s0,a1
    164c:	97ba                	add	a5,a5,a4
    164e:	bf25                	j	1586 <_vfiprintf_r+0xf0>
    1650:	57fd                	li	a5,-1
    1652:	b7c5                	j	1632 <_vfiprintf_r+0x19c>
    1654:	0405                	addi	s0,s0,1
    1656:	ca02                	sw	zero,20(sp)
    1658:	4681                	li	a3,0
    165a:	4781                	li	a5,0
    165c:	4625                	li	a2,9
    165e:	00044703          	lbu	a4,0(s0)
    1662:	00140593          	addi	a1,s0,1
    1666:	fd070713          	addi	a4,a4,-48
    166a:	06e67663          	bgeu	a2,a4,16d6 <_vfiprintf_r+0x240>
    166e:	f2f1                	bnez	a3,1632 <_vfiprintf_r+0x19c>
    1670:	00044583          	lbu	a1,0(s0)
    1674:	460d                	li	a2,3
    1676:	00000517          	auipc	a0,0x0
    167a:	71a50513          	addi	a0,a0,1818 # 1d90 <__sf_fake_stdout+0x28>
    167e:	2bcd                	jal	1c70 <memchr>
    1680:	cd11                	beqz	a0,169c <_vfiprintf_r+0x206>
    1682:	00000797          	auipc	a5,0x0
    1686:	70e78793          	addi	a5,a5,1806 # 1d90 <__sf_fake_stdout+0x28>
    168a:	8d1d                	sub	a0,a0,a5
    168c:	04000793          	li	a5,64
    1690:	00a797b3          	sll	a5,a5,a0
    1694:	4542                	lw	a0,16(sp)
    1696:	0405                	addi	s0,s0,1
    1698:	8d5d                	or	a0,a0,a5
    169a:	c82a                	sw	a0,16(sp)
    169c:	00044583          	lbu	a1,0(s0)
    16a0:	4619                	li	a2,6
    16a2:	00000517          	auipc	a0,0x0
    16a6:	6f250513          	addi	a0,a0,1778 # 1d94 <__sf_fake_stdout+0x2c>
    16aa:	00140913          	addi	s2,s0,1
    16ae:	02b10423          	sb	a1,40(sp)
    16b2:	2b7d                	jal	1c70 <memchr>
    16b4:	c13d                	beqz	a0,171a <_vfiprintf_r+0x284>
    16b6:	fffff797          	auipc	a5,0xfffff
    16ba:	94a78793          	addi	a5,a5,-1718 # 0 <_sinit>
    16be:	e795                	bnez	a5,16ea <_vfiprintf_r+0x254>
    16c0:	4742                	lw	a4,16(sp)
    16c2:	47b2                	lw	a5,12(sp)
    16c4:	10077713          	andi	a4,a4,256
    16c8:	cf09                	beqz	a4,16e2 <_vfiprintf_r+0x24c>
    16ca:	0791                	addi	a5,a5,4
    16cc:	c63e                	sw	a5,12(sp)
    16ce:	5792                	lw	a5,36(sp)
    16d0:	97d2                	add	a5,a5,s4
    16d2:	d23e                	sw	a5,36(sp)
    16d4:	b52d                	j	14fe <_vfiprintf_r+0x68>
    16d6:	036787b3          	mul	a5,a5,s6
    16da:	4685                	li	a3,1
    16dc:	842e                	mv	s0,a1
    16de:	97ba                	add	a5,a5,a4
    16e0:	bfbd                	j	165e <_vfiprintf_r+0x1c8>
    16e2:	079d                	addi	a5,a5,7
    16e4:	9be1                	andi	a5,a5,-8
    16e6:	07a1                	addi	a5,a5,8
    16e8:	b7d5                	j	16cc <_vfiprintf_r+0x236>
    16ea:	0078                	addi	a4,sp,12
    16ec:	00000697          	auipc	a3,0x0
    16f0:	d6868693          	addi	a3,a3,-664 # 1454 <__sfputs_r>
    16f4:	8626                	mv	a2,s1
    16f6:	080c                	addi	a1,sp,16
    16f8:	854e                	mv	a0,s3
    16fa:	00000097          	auipc	ra,0x0
    16fe:	000000e7          	jalr	zero # 0 <_sinit>
    1702:	57fd                	li	a5,-1
    1704:	8a2a                	mv	s4,a0
    1706:	fcf514e3          	bne	a0,a5,16ce <_vfiprintf_r+0x238>
    170a:	00c4d783          	lhu	a5,12(s1)
    170e:	0407f793          	andi	a5,a5,64
    1712:	ea079ce3          	bnez	a5,15ca <_vfiprintf_r+0x134>
    1716:	5512                	lw	a0,36(sp)
    1718:	bd55                	j	15cc <_vfiprintf_r+0x136>
    171a:	0078                	addi	a4,sp,12
    171c:	00000697          	auipc	a3,0x0
    1720:	d3868693          	addi	a3,a3,-712 # 1454 <__sfputs_r>
    1724:	8626                	mv	a2,s1
    1726:	080c                	addi	a1,sp,16
    1728:	854e                	mv	a0,s3
    172a:	2a01                	jal	183a <_printf_i>
    172c:	bfd9                	j	1702 <_vfiprintf_r+0x26c>

0000172e <_printf_common>:
_printf_common():
    172e:	7179                	addi	sp,sp,-48
    1730:	ca56                	sw	s5,20(sp)
    1732:	499c                	lw	a5,16(a1)
    1734:	8aba                	mv	s5,a4
    1736:	4598                	lw	a4,8(a1)
    1738:	d422                	sw	s0,40(sp)
    173a:	d226                	sw	s1,36(sp)
    173c:	ce4e                	sw	s3,28(sp)
    173e:	cc52                	sw	s4,24(sp)
    1740:	d606                	sw	ra,44(sp)
    1742:	d04a                	sw	s2,32(sp)
    1744:	c85a                	sw	s6,16(sp)
    1746:	c65e                	sw	s7,12(sp)
    1748:	89aa                	mv	s3,a0
    174a:	842e                	mv	s0,a1
    174c:	84b2                	mv	s1,a2
    174e:	8a36                	mv	s4,a3
    1750:	00e7d363          	bge	a5,a4,1756 <_printf_common+0x28>
    1754:	87ba                	mv	a5,a4
    1756:	c09c                	sw	a5,0(s1)
    1758:	04344703          	lbu	a4,67(s0)
    175c:	c319                	beqz	a4,1762 <_printf_common+0x34>
    175e:	0785                	addi	a5,a5,1
    1760:	c09c                	sw	a5,0(s1)
    1762:	401c                	lw	a5,0(s0)
    1764:	0207f793          	andi	a5,a5,32
    1768:	c781                	beqz	a5,1770 <_printf_common+0x42>
    176a:	409c                	lw	a5,0(s1)
    176c:	0789                	addi	a5,a5,2
    176e:	c09c                	sw	a5,0(s1)
    1770:	00042903          	lw	s2,0(s0)
    1774:	00697913          	andi	s2,s2,6
    1778:	00091a63          	bnez	s2,178c <_printf_common+0x5e>
    177c:	01940b13          	addi	s6,s0,25
    1780:	5bfd                	li	s7,-1
    1782:	445c                	lw	a5,12(s0)
    1784:	4098                	lw	a4,0(s1)
    1786:	8f99                	sub	a5,a5,a4
    1788:	04f94c63          	blt	s2,a5,17e0 <_printf_common+0xb2>
    178c:	401c                	lw	a5,0(s0)
    178e:	04344683          	lbu	a3,67(s0)
    1792:	0207f793          	andi	a5,a5,32
    1796:	00d036b3          	snez	a3,a3
    179a:	eba5                	bnez	a5,180a <_printf_common+0xdc>
    179c:	04340613          	addi	a2,s0,67
    17a0:	85d2                	mv	a1,s4
    17a2:	854e                	mv	a0,s3
    17a4:	9a82                	jalr	s5
    17a6:	57fd                	li	a5,-1
    17a8:	04f50363          	beq	a0,a5,17ee <_printf_common+0xc0>
    17ac:	401c                	lw	a5,0(s0)
    17ae:	4611                	li	a2,4
    17b0:	4098                	lw	a4,0(s1)
    17b2:	8b99                	andi	a5,a5,6
    17b4:	4454                	lw	a3,12(s0)
    17b6:	4481                	li	s1,0
    17b8:	00c79763          	bne	a5,a2,17c6 <_printf_common+0x98>
    17bc:	40e684b3          	sub	s1,a3,a4
    17c0:	0004d363          	bgez	s1,17c6 <_printf_common+0x98>
    17c4:	4481                	li	s1,0
    17c6:	441c                	lw	a5,8(s0)
    17c8:	4818                	lw	a4,16(s0)
    17ca:	00f75463          	bge	a4,a5,17d2 <_printf_common+0xa4>
    17ce:	8f99                	sub	a5,a5,a4
    17d0:	94be                	add	s1,s1,a5
    17d2:	4901                	li	s2,0
    17d4:	0469                	addi	s0,s0,26
    17d6:	5b7d                	li	s6,-1
    17d8:	05249863          	bne	s1,s2,1828 <_printf_common+0xfa>
    17dc:	4501                	li	a0,0
    17de:	a809                	j	17f0 <_printf_common+0xc2>
    17e0:	4685                	li	a3,1
    17e2:	865a                	mv	a2,s6
    17e4:	85d2                	mv	a1,s4
    17e6:	854e                	mv	a0,s3
    17e8:	9a82                	jalr	s5
    17ea:	01751e63          	bne	a0,s7,1806 <_printf_common+0xd8>
    17ee:	557d                	li	a0,-1
    17f0:	50b2                	lw	ra,44(sp)
    17f2:	5422                	lw	s0,40(sp)
    17f4:	5492                	lw	s1,36(sp)
    17f6:	5902                	lw	s2,32(sp)
    17f8:	49f2                	lw	s3,28(sp)
    17fa:	4a62                	lw	s4,24(sp)
    17fc:	4ad2                	lw	s5,20(sp)
    17fe:	4b42                	lw	s6,16(sp)
    1800:	4bb2                	lw	s7,12(sp)
    1802:	6145                	addi	sp,sp,48
    1804:	8082                	ret
    1806:	0905                	addi	s2,s2,1
    1808:	bfad                	j	1782 <_printf_common+0x54>
    180a:	00d40733          	add	a4,s0,a3
    180e:	03000613          	li	a2,48
    1812:	04c701a3          	sb	a2,67(a4)
    1816:	04544703          	lbu	a4,69(s0)
    181a:	00168793          	addi	a5,a3,1
    181e:	97a2                	add	a5,a5,s0
    1820:	0689                	addi	a3,a3,2
    1822:	04e781a3          	sb	a4,67(a5)
    1826:	bf9d                	j	179c <_printf_common+0x6e>
    1828:	4685                	li	a3,1
    182a:	8622                	mv	a2,s0
    182c:	85d2                	mv	a1,s4
    182e:	854e                	mv	a0,s3
    1830:	9a82                	jalr	s5
    1832:	fb650ee3          	beq	a0,s6,17ee <_printf_common+0xc0>
    1836:	0905                	addi	s2,s2,1
    1838:	b745                	j	17d8 <_printf_common+0xaa>

0000183a <_printf_i>:
_printf_i():
    183a:	7179                	addi	sp,sp,-48
    183c:	d422                	sw	s0,40(sp)
    183e:	d226                	sw	s1,36(sp)
    1840:	d04a                	sw	s2,32(sp)
    1842:	ce4e                	sw	s3,28(sp)
    1844:	d606                	sw	ra,44(sp)
    1846:	cc52                	sw	s4,24(sp)
    1848:	ca56                	sw	s5,20(sp)
    184a:	c85a                	sw	s6,16(sp)
    184c:	89b6                	mv	s3,a3
    184e:	0185c683          	lbu	a3,24(a1)
    1852:	06900793          	li	a5,105
    1856:	8932                	mv	s2,a2
    1858:	84aa                	mv	s1,a0
    185a:	842e                	mv	s0,a1
    185c:	04358613          	addi	a2,a1,67
    1860:	02f68d63          	beq	a3,a5,189a <_printf_i+0x60>
    1864:	06d7e263          	bltu	a5,a3,18c8 <_printf_i+0x8e>
    1868:	05800793          	li	a5,88
    186c:	18f68763          	beq	a3,a5,19fa <_printf_i+0x1c0>
    1870:	00d7ed63          	bltu	a5,a3,188a <_printf_i+0x50>
    1874:	22068063          	beqz	a3,1a94 <_printf_i+0x25a>
    1878:	04300793          	li	a5,67
    187c:	0af68e63          	beq	a3,a5,1938 <_printf_i+0xfe>
    1880:	04240a93          	addi	s5,s0,66
    1884:	04d40123          	sb	a3,66(s0)
    1888:	a0c9                	j	194a <_printf_i+0x110>
    188a:	06300793          	li	a5,99
    188e:	0af68563          	beq	a3,a5,1938 <_printf_i+0xfe>
    1892:	06400793          	li	a5,100
    1896:	fef695e3          	bne	a3,a5,1880 <_printf_i+0x46>
    189a:	401c                	lw	a5,0(s0)
    189c:	4308                	lw	a0,0(a4)
    189e:	0807f693          	andi	a3,a5,128
    18a2:	00450593          	addi	a1,a0,4
    18a6:	c6c5                	beqz	a3,194e <_printf_i+0x114>
    18a8:	411c                	lw	a5,0(a0)
    18aa:	c30c                	sw	a1,0(a4)
    18ac:	0007d863          	bgez	a5,18bc <_printf_i+0x82>
    18b0:	02d00713          	li	a4,45
    18b4:	40f007b3          	neg	a5,a5
    18b8:	04e401a3          	sb	a4,67(s0)
    18bc:	00000697          	auipc	a3,0x0
    18c0:	4e068693          	addi	a3,a3,1248 # 1d9c <__sf_fake_stdout+0x34>
    18c4:	4729                	li	a4,10
    18c6:	a86d                	j	1980 <_printf_i+0x146>
    18c8:	07000793          	li	a5,112
    18cc:	16f68363          	beq	a3,a5,1a32 <_printf_i+0x1f8>
    18d0:	02d7e563          	bltu	a5,a3,18fa <_printf_i+0xc0>
    18d4:	06e00793          	li	a5,110
    18d8:	18f68a63          	beq	a3,a5,1a6c <_printf_i+0x232>
    18dc:	06f00793          	li	a5,111
    18e0:	faf690e3          	bne	a3,a5,1880 <_printf_i+0x46>
    18e4:	400c                	lw	a1,0(s0)
    18e6:	431c                	lw	a5,0(a4)
    18e8:	0805f813          	andi	a6,a1,128
    18ec:	00478513          	addi	a0,a5,4
    18f0:	06080763          	beqz	a6,195e <_printf_i+0x124>
    18f4:	c308                	sw	a0,0(a4)
    18f6:	439c                	lw	a5,0(a5)
    18f8:	a88d                	j	196a <_printf_i+0x130>
    18fa:	07500793          	li	a5,117
    18fe:	fef683e3          	beq	a3,a5,18e4 <_printf_i+0xaa>
    1902:	07800793          	li	a5,120
    1906:	12f68a63          	beq	a3,a5,1a3a <_printf_i+0x200>
    190a:	07300793          	li	a5,115
    190e:	f6f699e3          	bne	a3,a5,1880 <_printf_i+0x46>
    1912:	431c                	lw	a5,0(a4)
    1914:	41d0                	lw	a2,4(a1)
    1916:	4581                	li	a1,0
    1918:	00478693          	addi	a3,a5,4
    191c:	c314                	sw	a3,0(a4)
    191e:	0007aa83          	lw	s5,0(a5)
    1922:	8556                	mv	a0,s5
    1924:	26b1                	jal	1c70 <memchr>
    1926:	c501                	beqz	a0,192e <_printf_i+0xf4>
    1928:	41550533          	sub	a0,a0,s5
    192c:	c048                	sw	a0,4(s0)
    192e:	405c                	lw	a5,4(s0)
    1930:	c81c                	sw	a5,16(s0)
    1932:	040401a3          	sb	zero,67(s0)
    1936:	a871                	j	19d2 <_printf_i+0x198>
    1938:	431c                	lw	a5,0(a4)
    193a:	04240a93          	addi	s5,s0,66
    193e:	00478693          	addi	a3,a5,4
    1942:	439c                	lw	a5,0(a5)
    1944:	c314                	sw	a3,0(a4)
    1946:	04f40123          	sb	a5,66(s0)
    194a:	4785                	li	a5,1
    194c:	b7d5                	j	1930 <_printf_i+0xf6>
    194e:	0407f693          	andi	a3,a5,64
    1952:	411c                	lw	a5,0(a0)
    1954:	c30c                	sw	a1,0(a4)
    1956:	dab9                	beqz	a3,18ac <_printf_i+0x72>
    1958:	07c2                	slli	a5,a5,0x10
    195a:	87c1                	srai	a5,a5,0x10
    195c:	bf81                	j	18ac <_printf_i+0x72>
    195e:	0405f593          	andi	a1,a1,64
    1962:	c308                	sw	a0,0(a4)
    1964:	d9c9                	beqz	a1,18f6 <_printf_i+0xbc>
    1966:	0007d783          	lhu	a5,0(a5)
    196a:	06f00713          	li	a4,111
    196e:	0ee68763          	beq	a3,a4,1a5c <_printf_i+0x222>
    1972:	00000697          	auipc	a3,0x0
    1976:	42a68693          	addi	a3,a3,1066 # 1d9c <__sf_fake_stdout+0x34>
    197a:	4729                	li	a4,10
    197c:	040401a3          	sb	zero,67(s0)
    1980:	404c                	lw	a1,4(s0)
    1982:	c40c                	sw	a1,8(s0)
    1984:	0005c563          	bltz	a1,198e <_printf_i+0x154>
    1988:	4008                	lw	a0,0(s0)
    198a:	996d                	andi	a0,a0,-5
    198c:	c008                	sw	a0,0(s0)
    198e:	e399                	bnez	a5,1994 <_printf_i+0x15a>
    1990:	8ab2                	mv	s5,a2
    1992:	cd91                	beqz	a1,19ae <_printf_i+0x174>
    1994:	8ab2                	mv	s5,a2
    1996:	02e7f5b3          	remu	a1,a5,a4
    199a:	1afd                	addi	s5,s5,-1
    199c:	95b6                	add	a1,a1,a3
    199e:	0005c583          	lbu	a1,0(a1)
    19a2:	00ba8023          	sb	a1,0(s5)
    19a6:	02e7d5b3          	divu	a1,a5,a4
    19aa:	0ae7ff63          	bgeu	a5,a4,1a68 <_printf_i+0x22e>
    19ae:	47a1                	li	a5,8
    19b0:	00f71e63          	bne	a4,a5,19cc <_printf_i+0x192>
    19b4:	401c                	lw	a5,0(s0)
    19b6:	8b85                	andi	a5,a5,1
    19b8:	cb91                	beqz	a5,19cc <_printf_i+0x192>
    19ba:	4058                	lw	a4,4(s0)
    19bc:	481c                	lw	a5,16(s0)
    19be:	00e7c763          	blt	a5,a4,19cc <_printf_i+0x192>
    19c2:	03000793          	li	a5,48
    19c6:	fefa8fa3          	sb	a5,-1(s5)
    19ca:	1afd                	addi	s5,s5,-1
    19cc:	41560633          	sub	a2,a2,s5
    19d0:	c810                	sw	a2,16(s0)
    19d2:	874e                	mv	a4,s3
    19d4:	86ca                	mv	a3,s2
    19d6:	0070                	addi	a2,sp,12
    19d8:	85a2                	mv	a1,s0
    19da:	8526                	mv	a0,s1
    19dc:	3b89                	jal	172e <_printf_common>
    19de:	5a7d                	li	s4,-1
    19e0:	0b451e63          	bne	a0,s4,1a9c <_printf_i+0x262>
    19e4:	557d                	li	a0,-1
    19e6:	50b2                	lw	ra,44(sp)
    19e8:	5422                	lw	s0,40(sp)
    19ea:	5492                	lw	s1,36(sp)
    19ec:	5902                	lw	s2,32(sp)
    19ee:	49f2                	lw	s3,28(sp)
    19f0:	4a62                	lw	s4,24(sp)
    19f2:	4ad2                	lw	s5,20(sp)
    19f4:	4b42                	lw	s6,16(sp)
    19f6:	6145                	addi	sp,sp,48
    19f8:	8082                	ret
    19fa:	04d582a3          	sb	a3,69(a1)
    19fe:	00000697          	auipc	a3,0x0
    1a02:	39e68693          	addi	a3,a3,926 # 1d9c <__sf_fake_stdout+0x34>
    1a06:	400c                	lw	a1,0(s0)
    1a08:	4308                	lw	a0,0(a4)
    1a0a:	0805f813          	andi	a6,a1,128
    1a0e:	411c                	lw	a5,0(a0)
    1a10:	0511                	addi	a0,a0,4
    1a12:	02080d63          	beqz	a6,1a4c <_printf_i+0x212>
    1a16:	c308                	sw	a0,0(a4)
    1a18:	0015f713          	andi	a4,a1,1
    1a1c:	c701                	beqz	a4,1a24 <_printf_i+0x1ea>
    1a1e:	0205e593          	ori	a1,a1,32
    1a22:	c00c                	sw	a1,0(s0)
    1a24:	4741                	li	a4,16
    1a26:	fbb9                	bnez	a5,197c <_printf_i+0x142>
    1a28:	400c                	lw	a1,0(s0)
    1a2a:	fdf5f593          	andi	a1,a1,-33
    1a2e:	c00c                	sw	a1,0(s0)
    1a30:	b7b1                	j	197c <_printf_i+0x142>
    1a32:	419c                	lw	a5,0(a1)
    1a34:	0207e793          	ori	a5,a5,32
    1a38:	c19c                	sw	a5,0(a1)
    1a3a:	07800793          	li	a5,120
    1a3e:	04f402a3          	sb	a5,69(s0)
    1a42:	00000697          	auipc	a3,0x0
    1a46:	36e68693          	addi	a3,a3,878 # 1db0 <__sf_fake_stdout+0x48>
    1a4a:	bf75                	j	1a06 <_printf_i+0x1cc>
    1a4c:	0405f813          	andi	a6,a1,64
    1a50:	c308                	sw	a0,0(a4)
    1a52:	fc0803e3          	beqz	a6,1a18 <_printf_i+0x1de>
    1a56:	07c2                	slli	a5,a5,0x10
    1a58:	83c1                	srli	a5,a5,0x10
    1a5a:	bf7d                	j	1a18 <_printf_i+0x1de>
    1a5c:	00000697          	auipc	a3,0x0
    1a60:	34068693          	addi	a3,a3,832 # 1d9c <__sf_fake_stdout+0x34>
    1a64:	4721                	li	a4,8
    1a66:	bf19                	j	197c <_printf_i+0x142>
    1a68:	87ae                	mv	a5,a1
    1a6a:	b735                	j	1996 <_printf_i+0x15c>
    1a6c:	4194                	lw	a3,0(a1)
    1a6e:	431c                	lw	a5,0(a4)
    1a70:	49cc                	lw	a1,20(a1)
    1a72:	0806f813          	andi	a6,a3,128
    1a76:	00478513          	addi	a0,a5,4
    1a7a:	00080663          	beqz	a6,1a86 <_printf_i+0x24c>
    1a7e:	c308                	sw	a0,0(a4)
    1a80:	439c                	lw	a5,0(a5)
    1a82:	c38c                	sw	a1,0(a5)
    1a84:	a801                	j	1a94 <_printf_i+0x25a>
    1a86:	c308                	sw	a0,0(a4)
    1a88:	0406f693          	andi	a3,a3,64
    1a8c:	439c                	lw	a5,0(a5)
    1a8e:	daf5                	beqz	a3,1a82 <_printf_i+0x248>
    1a90:	00b79023          	sh	a1,0(a5)
    1a94:	00042823          	sw	zero,16(s0)
    1a98:	8ab2                	mv	s5,a2
    1a9a:	bf25                	j	19d2 <_printf_i+0x198>
    1a9c:	4814                	lw	a3,16(s0)
    1a9e:	8656                	mv	a2,s5
    1aa0:	85ca                	mv	a1,s2
    1aa2:	8526                	mv	a0,s1
    1aa4:	9982                	jalr	s3
    1aa6:	f3450fe3          	beq	a0,s4,19e4 <_printf_i+0x1aa>
    1aaa:	401c                	lw	a5,0(s0)
    1aac:	8b89                	andi	a5,a5,2
    1aae:	e78d                	bnez	a5,1ad8 <_printf_i+0x29e>
    1ab0:	47b2                	lw	a5,12(sp)
    1ab2:	4448                	lw	a0,12(s0)
    1ab4:	f2f559e3          	bge	a0,a5,19e6 <_printf_i+0x1ac>
    1ab8:	853e                	mv	a0,a5
    1aba:	b735                	j	19e6 <_printf_i+0x1ac>
    1abc:	4685                	li	a3,1
    1abe:	8656                	mv	a2,s5
    1ac0:	85ca                	mv	a1,s2
    1ac2:	8526                	mv	a0,s1
    1ac4:	9982                	jalr	s3
    1ac6:	f1650fe3          	beq	a0,s6,19e4 <_printf_i+0x1aa>
    1aca:	0a05                	addi	s4,s4,1
    1acc:	445c                	lw	a5,12(s0)
    1ace:	4732                	lw	a4,12(sp)
    1ad0:	8f99                	sub	a5,a5,a4
    1ad2:	fefa45e3          	blt	s4,a5,1abc <_printf_i+0x282>
    1ad6:	bfe9                	j	1ab0 <_printf_i+0x276>
    1ad8:	4a01                	li	s4,0
    1ada:	01940a93          	addi	s5,s0,25
    1ade:	5b7d                	li	s6,-1
    1ae0:	b7f5                	j	1acc <_printf_i+0x292>

00001ae2 <__sread>:
__sread():
    1ae2:	1141                	addi	sp,sp,-16
    1ae4:	c422                	sw	s0,8(sp)
    1ae6:	842e                	mv	s0,a1
    1ae8:	00e59583          	lh	a1,14(a1)
    1aec:	c606                	sw	ra,12(sp)
    1aee:	2a71                	jal	1c8a <_read_r>
    1af0:	00054963          	bltz	a0,1b02 <__sread+0x20>
    1af4:	487c                	lw	a5,84(s0)
    1af6:	97aa                	add	a5,a5,a0
    1af8:	c87c                	sw	a5,84(s0)
    1afa:	40b2                	lw	ra,12(sp)
    1afc:	4422                	lw	s0,8(sp)
    1afe:	0141                	addi	sp,sp,16
    1b00:	8082                	ret
    1b02:	00c45783          	lhu	a5,12(s0)
    1b06:	777d                	lui	a4,0xfffff
    1b08:	177d                	addi	a4,a4,-1
    1b0a:	8ff9                	and	a5,a5,a4
    1b0c:	00f41623          	sh	a5,12(s0)
    1b10:	b7ed                	j	1afa <__sread+0x18>

00001b12 <__swrite>:
__swrite():
    1b12:	00c5d783          	lhu	a5,12(a1)
    1b16:	1101                	addi	sp,sp,-32
    1b18:	cc22                	sw	s0,24(sp)
    1b1a:	ca26                	sw	s1,20(sp)
    1b1c:	c84a                	sw	s2,16(sp)
    1b1e:	c64e                	sw	s3,12(sp)
    1b20:	ce06                	sw	ra,28(sp)
    1b22:	1007f793          	andi	a5,a5,256
    1b26:	84aa                	mv	s1,a0
    1b28:	842e                	mv	s0,a1
    1b2a:	8932                	mv	s2,a2
    1b2c:	89b6                	mv	s3,a3
    1b2e:	c791                	beqz	a5,1b3a <__swrite+0x28>
    1b30:	00e59583          	lh	a1,14(a1)
    1b34:	4689                	li	a3,2
    1b36:	4601                	li	a2,0
    1b38:	2231                	jal	1c44 <_lseek_r>
    1b3a:	00c45783          	lhu	a5,12(s0)
    1b3e:	777d                	lui	a4,0xfffff
    1b40:	177d                	addi	a4,a4,-1
    1b42:	8ff9                	and	a5,a5,a4
    1b44:	00f41623          	sh	a5,12(s0)
    1b48:	00e41583          	lh	a1,14(s0)
    1b4c:	4462                	lw	s0,24(sp)
    1b4e:	40f2                	lw	ra,28(sp)
    1b50:	86ce                	mv	a3,s3
    1b52:	864a                	mv	a2,s2
    1b54:	49b2                	lw	s3,12(sp)
    1b56:	4942                	lw	s2,16(sp)
    1b58:	8526                	mv	a0,s1
    1b5a:	44d2                	lw	s1,20(sp)
    1b5c:	6105                	addi	sp,sp,32
    1b5e:	a83d                	j	1b9c <_write_r>

00001b60 <__sseek>:
__sseek():
    1b60:	1141                	addi	sp,sp,-16
    1b62:	c422                	sw	s0,8(sp)
    1b64:	842e                	mv	s0,a1
    1b66:	00e59583          	lh	a1,14(a1)
    1b6a:	c606                	sw	ra,12(sp)
    1b6c:	28e1                	jal	1c44 <_lseek_r>
    1b6e:	57fd                	li	a5,-1
    1b70:	00c45703          	lhu	a4,12(s0)
    1b74:	00f51b63          	bne	a0,a5,1b8a <__sseek+0x2a>
    1b78:	77fd                	lui	a5,0xfffff
    1b7a:	17fd                	addi	a5,a5,-1
    1b7c:	8ff9                	and	a5,a5,a4
    1b7e:	00f41623          	sh	a5,12(s0)
    1b82:	40b2                	lw	ra,12(sp)
    1b84:	4422                	lw	s0,8(sp)
    1b86:	0141                	addi	sp,sp,16
    1b88:	8082                	ret
    1b8a:	6785                	lui	a5,0x1
    1b8c:	8fd9                	or	a5,a5,a4
    1b8e:	00f41623          	sh	a5,12(s0)
    1b92:	c868                	sw	a0,84(s0)
    1b94:	b7fd                	j	1b82 <__sseek+0x22>

00001b96 <__sclose>:
__sclose():
    1b96:	00e59583          	lh	a1,14(a1)
    1b9a:	a805                	j	1bca <_close_r>

00001b9c <_write_r>:
_write_r():
    1b9c:	1141                	addi	sp,sp,-16
    1b9e:	c422                	sw	s0,8(sp)
    1ba0:	842a                	mv	s0,a0
    1ba2:	852e                	mv	a0,a1
    1ba4:	85b2                	mv	a1,a2
    1ba6:	8636                	mv	a2,a3
    1ba8:	8001a823          	sw	zero,-2032(gp) # 20004070 <errno>
    1bac:	c606                	sw	ra,12(sp)
    1bae:	e4ffe0ef          	jal	ra,9fc <_write>
    1bb2:	57fd                	li	a5,-1
    1bb4:	00f51763          	bne	a0,a5,1bc2 <_write_r+0x26>
    1bb8:	81018793          	addi	a5,gp,-2032 # 20004070 <errno>
    1bbc:	439c                	lw	a5,0(a5)
    1bbe:	c391                	beqz	a5,1bc2 <_write_r+0x26>
    1bc0:	c01c                	sw	a5,0(s0)
    1bc2:	40b2                	lw	ra,12(sp)
    1bc4:	4422                	lw	s0,8(sp)
    1bc6:	0141                	addi	sp,sp,16
    1bc8:	8082                	ret

00001bca <_close_r>:
_close_r():
    1bca:	1141                	addi	sp,sp,-16
    1bcc:	c422                	sw	s0,8(sp)
    1bce:	842a                	mv	s0,a0
    1bd0:	852e                	mv	a0,a1
    1bd2:	8001a823          	sw	zero,-2032(gp) # 20004070 <errno>
    1bd6:	c606                	sw	ra,12(sp)
    1bd8:	28f9                	jal	1cb6 <_close>
    1bda:	57fd                	li	a5,-1
    1bdc:	00f51763          	bne	a0,a5,1bea <_close_r+0x20>
    1be0:	81018793          	addi	a5,gp,-2032 # 20004070 <errno>
    1be4:	439c                	lw	a5,0(a5)
    1be6:	c391                	beqz	a5,1bea <_close_r+0x20>
    1be8:	c01c                	sw	a5,0(s0)
    1bea:	40b2                	lw	ra,12(sp)
    1bec:	4422                	lw	s0,8(sp)
    1bee:	0141                	addi	sp,sp,16
    1bf0:	8082                	ret

00001bf2 <_fstat_r>:
_fstat_r():
    1bf2:	1141                	addi	sp,sp,-16
    1bf4:	c422                	sw	s0,8(sp)
    1bf6:	842a                	mv	s0,a0
    1bf8:	852e                	mv	a0,a1
    1bfa:	85b2                	mv	a1,a2
    1bfc:	8001a823          	sw	zero,-2032(gp) # 20004070 <errno>
    1c00:	c606                	sw	ra,12(sp)
    1c02:	20c1                	jal	1cc2 <_fstat>
    1c04:	57fd                	li	a5,-1
    1c06:	00f51763          	bne	a0,a5,1c14 <_fstat_r+0x22>
    1c0a:	81018793          	addi	a5,gp,-2032 # 20004070 <errno>
    1c0e:	439c                	lw	a5,0(a5)
    1c10:	c391                	beqz	a5,1c14 <_fstat_r+0x22>
    1c12:	c01c                	sw	a5,0(s0)
    1c14:	40b2                	lw	ra,12(sp)
    1c16:	4422                	lw	s0,8(sp)
    1c18:	0141                	addi	sp,sp,16
    1c1a:	8082                	ret

00001c1c <_isatty_r>:
_isatty_r():
    1c1c:	1141                	addi	sp,sp,-16
    1c1e:	c422                	sw	s0,8(sp)
    1c20:	842a                	mv	s0,a0
    1c22:	852e                	mv	a0,a1
    1c24:	8001a823          	sw	zero,-2032(gp) # 20004070 <errno>
    1c28:	c606                	sw	ra,12(sp)
    1c2a:	2055                	jal	1cce <_isatty>
    1c2c:	57fd                	li	a5,-1
    1c2e:	00f51763          	bne	a0,a5,1c3c <_isatty_r+0x20>
    1c32:	81018793          	addi	a5,gp,-2032 # 20004070 <errno>
    1c36:	439c                	lw	a5,0(a5)
    1c38:	c391                	beqz	a5,1c3c <_isatty_r+0x20>
    1c3a:	c01c                	sw	a5,0(s0)
    1c3c:	40b2                	lw	ra,12(sp)
    1c3e:	4422                	lw	s0,8(sp)
    1c40:	0141                	addi	sp,sp,16
    1c42:	8082                	ret

00001c44 <_lseek_r>:
_lseek_r():
    1c44:	1141                	addi	sp,sp,-16
    1c46:	c422                	sw	s0,8(sp)
    1c48:	842a                	mv	s0,a0
    1c4a:	852e                	mv	a0,a1
    1c4c:	85b2                	mv	a1,a2
    1c4e:	8636                	mv	a2,a3
    1c50:	8001a823          	sw	zero,-2032(gp) # 20004070 <errno>
    1c54:	c606                	sw	ra,12(sp)
    1c56:	2051                	jal	1cda <_lseek>
    1c58:	57fd                	li	a5,-1
    1c5a:	00f51763          	bne	a0,a5,1c68 <_lseek_r+0x24>
    1c5e:	81018793          	addi	a5,gp,-2032 # 20004070 <errno>
    1c62:	439c                	lw	a5,0(a5)
    1c64:	c391                	beqz	a5,1c68 <_lseek_r+0x24>
    1c66:	c01c                	sw	a5,0(s0)
    1c68:	40b2                	lw	ra,12(sp)
    1c6a:	4422                	lw	s0,8(sp)
    1c6c:	0141                	addi	sp,sp,16
    1c6e:	8082                	ret

00001c70 <memchr>:
memchr():
    1c70:	0ff5f593          	andi	a1,a1,255
    1c74:	962a                	add	a2,a2,a0
    1c76:	00c51463          	bne	a0,a2,1c7e <memchr+0xe>
    1c7a:	4501                	li	a0,0
    1c7c:	8082                	ret
    1c7e:	00054783          	lbu	a5,0(a0)
    1c82:	feb78de3          	beq	a5,a1,1c7c <memchr+0xc>
    1c86:	0505                	addi	a0,a0,1
    1c88:	b7fd                	j	1c76 <memchr+0x6>

00001c8a <_read_r>:
_read_r():
    1c8a:	1141                	addi	sp,sp,-16
    1c8c:	c422                	sw	s0,8(sp)
    1c8e:	842a                	mv	s0,a0
    1c90:	852e                	mv	a0,a1
    1c92:	85b2                	mv	a1,a2
    1c94:	8636                	mv	a2,a3
    1c96:	8001a823          	sw	zero,-2032(gp) # 20004070 <errno>
    1c9a:	c606                	sw	ra,12(sp)
    1c9c:	20a9                	jal	1ce6 <_read>
    1c9e:	57fd                	li	a5,-1
    1ca0:	00f51763          	bne	a0,a5,1cae <_read_r+0x24>
    1ca4:	81018793          	addi	a5,gp,-2032 # 20004070 <errno>
    1ca8:	439c                	lw	a5,0(a5)
    1caa:	c391                	beqz	a5,1cae <_read_r+0x24>
    1cac:	c01c                	sw	a5,0(s0)
    1cae:	40b2                	lw	ra,12(sp)
    1cb0:	4422                	lw	s0,8(sp)
    1cb2:	0141                	addi	sp,sp,16
    1cb4:	8082                	ret

00001cb6 <_close>:
_close():
    1cb6:	05800793          	li	a5,88
    1cba:	80f1a823          	sw	a5,-2032(gp) # 20004070 <errno>
    1cbe:	557d                	li	a0,-1
    1cc0:	8082                	ret

00001cc2 <_fstat>:
_fstat():
    1cc2:	05800793          	li	a5,88
    1cc6:	80f1a823          	sw	a5,-2032(gp) # 20004070 <errno>
    1cca:	557d                	li	a0,-1
    1ccc:	8082                	ret

00001cce <_isatty>:
_isatty():
    1cce:	05800793          	li	a5,88
    1cd2:	80f1a823          	sw	a5,-2032(gp) # 20004070 <errno>
    1cd6:	4501                	li	a0,0
    1cd8:	8082                	ret

00001cda <_lseek>:
_lseek():
    1cda:	05800793          	li	a5,88
    1cde:	80f1a823          	sw	a5,-2032(gp) # 20004070 <errno>
    1ce2:	557d                	li	a0,-1
    1ce4:	8082                	ret

00001ce6 <_read>:
_read():
    1ce6:	05800793          	li	a5,88
    1cea:	80f1a823          	sw	a5,-2032(gp) # 20004070 <errno>
    1cee:	557d                	li	a0,-1
    1cf0:	8082                	ret
    1cf2:	0000                	unimp
    1cf4:	72617453          	0x72617453
    1cf8:	2074                	fld	fa3,192(s0)
    1cfa:	4340                	lw	s0,4(a4)
    1cfc:	6968                	flw	fa0,84(a0)
    1cfe:	4970                	lw	a2,84(a0)
    1d00:	3d44                	fld	fs1,184(a0)
    1d02:	3025                	jal	152a <_vfiprintf_r+0x94>
    1d04:	5832                	lw	a6,44(sp)
    1d06:	000a                	c.slli	zero,0x2
    1d08:	4f495047          	fmsub.q	ft0,fs2,fs4,fs1,unknown
    1d0c:	aaa1                	j	1e64 <_data_lma+0x9c>
    1d0e:	aaa1                	j	1e66 <_data_lma+0x9e>
    1d10:	2041                	jal	1d90 <__sf_fake_stdout+0x28>
    1d12:	0000                	unimp
    1d14:	eb96                	fsw	ft5,212(sp)
    1d16:	ffff                	0xffff
    1d18:	ebbe                	fsw	fa5,212(sp)
    1d1a:	ffff                	0xffff
    1d1c:	ebe6                	fsw	fs9,212(sp)
    1d1e:	ffff                	0xffff
    1d20:	ebfe                	fsw	ft11,212(sp)
    1d22:	ffff                	0xffff
    1d24:	ec18                	fsw	fa4,24(s0)
    1d26:	ffff                	0xffff

00001d28 <__sf_fake_stderr>:
	...

00001d48 <__sf_fake_stdin>:
	...

00001d68 <__sf_fake_stdout>:
	...
    1d88:	2d23 2b30 0020 0000 6c68 004c 6665 4567     #-0+ ...hlL.efgE
    1d98:	4746 0000 3130 3332 3534 3736 3938 4241     FG..0123456789AB
    1da8:	4443 4645 0000 0000 3130 3332 3534 3736     CDEF....01234567
    1db8:	3938 6261 6463 6665 0000 0000               89abcdef....

00001dc4 <_global_impure_ptr>:
    1dc4:	4000 2000                                   .@. 
