
LaserRangeFinder.elf:     file format elf32-littleriscv
LaserRangeFinder.elf
architecture: riscv:rv32, flags 0x00000112:
EXEC_P, HAS_SYMS, D_PAGED
start address 0x00000000

Program Header:
    LOAD off    0x00001000 vaddr 0x00000000 paddr 0x00000000 align 2**12
         filesz 0x00000004 memsz 0x00000004 flags r-x
    LOAD off    0x00001800 vaddr 0x20003800 paddr 0x00000004 align 2**12
         filesz 0x00000688 memsz 0x00000688 flags r-x
    LOAD off    0x0000268c vaddr 0x0000068c paddr 0x0000068c align 2**12
         filesz 0x00003b30 memsz 0x00003b30 flags r-x
    LOAD off    0x00006e88 vaddr 0x20003e88 paddr 0x000041bc align 2**12
         filesz 0x00000000 memsz 0x00000178 flags rw-
    LOAD off    0x00007000 vaddr 0x20004000 paddr 0x000041bc align 2**12
         filesz 0x00000068 memsz 0x000000b0 flags rw-
    LOAD off    0x00007e00 vaddr 0x20007e00 paddr 0x20007e00 align 2**12
         filesz 0x00000000 memsz 0x00000200 flags rw-

Sections:
Idx Name            Size      VMA       LMA       File off  Algn  Flags
  0 .init           00000004  00000000  00000000  00001000  2**1  CONTENTS, ALLOC, LOAD, READONLY, CODE
  1 .highcodelalign 00000000  00000004  00000004  00007068  2**0  CONTENTS
  2 .highcode       00000688  20003800  00000004  00001800  2**1  CONTENTS, ALLOC, LOAD, READONLY, CODE
  3 .text           00003b30  0000068c  0000068c  0000268c  2**2  CONTENTS, ALLOC, LOAD, READONLY, CODE
  4 .fini           00000000  000041bc  000041bc  00007068  2**0  CONTENTS, ALLOC, LOAD, CODE
  5 .dalign         00000178  20003e88  000041bc  00006e88  2**0  ALLOC
  6 .dlalign        00000000  000041bc  000041bc  00007068  2**0  CONTENTS
  7 .data           00000068  20004000  000041bc  00007000  2**2  CONTENTS, ALLOC, LOAD, DATA
  8 .bss            00000048  20004068  00004224  00007068  2**2  ALLOC
  9 .stack          00000200  20007e00  20007e00  00007e00  2**0  ALLOC
 10 .debug_info     0000d7f6  00000000  00000000  00007068  2**0  CONTENTS, READONLY, DEBUGGING
 11 .debug_abbrev   00001dcf  00000000  00000000  0001485e  2**0  CONTENTS, READONLY, DEBUGGING
 12 .debug_loc      000045fe  00000000  00000000  0001662d  2**0  CONTENTS, READONLY, DEBUGGING
 13 .debug_aranges  00000400  00000000  00000000  0001ac30  2**3  CONTENTS, READONLY, DEBUGGING
 14 .debug_ranges   00000640  00000000  00000000  0001b030  2**3  CONTENTS, READONLY, DEBUGGING
 15 .debug_line     00007c49  00000000  00000000  0001b670  2**0  CONTENTS, READONLY, DEBUGGING
 16 .debug_str      000017d1  00000000  00000000  000232b9  2**0  CONTENTS, READONLY, DEBUGGING
 17 .comment        00000033  00000000  00000000  00024a8a  2**0  CONTENTS, READONLY
 18 .debug_frame    00001638  00000000  00000000  00024ac0  2**2  CONTENTS, READONLY, DEBUGGING
 19 .stab           00000084  00000000  00000000  000260f8  2**2  CONTENTS, READONLY, DEBUGGING
 20 .stabstr        00000117  00000000  00000000  0002617c  2**0  CONTENTS, READONLY, DEBUGGING
SYMBOL TABLE:
00000000 l    d  .init	00000000 .init
00000004 l    d  .highcodelalign	00000000 .highcodelalign
20003800 l    d  .highcode	00000000 .highcode
0000068c l    d  .text	00000000 .text
000041bc l    d  .fini	00000000 .fini
20003e88 l    d  .dalign	00000000 .dalign
000041bc l    d  .dlalign	00000000 .dlalign
20004000 l    d  .data	00000000 .data
20004068 l    d  .bss	00000000 .bss
20007e00 l    d  .stack	00000000 .stack
00000000 l    d  .debug_info	00000000 .debug_info
00000000 l    d  .debug_abbrev	00000000 .debug_abbrev
00000000 l    d  .debug_loc	00000000 .debug_loc
00000000 l    d  .debug_aranges	00000000 .debug_aranges
00000000 l    d  .debug_ranges	00000000 .debug_ranges
00000000 l    d  .debug_line	00000000 .debug_line
00000000 l    d  .debug_str	00000000 .debug_str
00000000 l    d  .comment	00000000 .comment
00000000 l    d  .debug_frame	00000000 .debug_frame
00000000 l    d  .stab	00000000 .stab
00000000 l    d  .stabstr	00000000 .stabstr
00000000 l    df *ABS*	00000000 ./Startup/startup_CH573.o
20003800 l       .highcode	00000000 _vector_base
00000000 l    df *ABS*	00000000 CH57x_sys.c
20004060 l     O .data	00000004 curbrk.3772
00000000 l    df *ABS*	00000000 ISP573.c
20003a9c l       .highcode	00000000 .loop17
20003aaa l       .highcode	00000000 .loop28
20003ab8 l       .highcode	00000000 .loop39
20003d46 l       .highcode	00000000 .loop406
00000000 l    df *ABS*	00000000 TFT_CAD.c
000007fe l     F .text	0000005a TFT_Draw_MultiPoint.part.0
00000000 l    df *ABS*	00000000 TFT_init.c
000011e2 l     F .text	00000046 TFT_Set_Direction
00000000 l    df *ABS*	00000000 TFT_io.c
0000177a l     F .text	00000014 TFT_Wait_DMA_Transfer_Complete
20004068 l     O .bss	00000004 g_tft_handles
00000000 l    df *ABS*	00000000 TFT_text.c
00000000 l    df *ABS*	00000000 Main.c
00000000 l    df *ABS*	00000000 CH57x_gpio.c
00000000 l    df *ABS*	00000000 CH57x_spi0.c
00000000 l    df *ABS*	00000000 CH57x_uart1.c
00000000 l    df *ABS*	00000000 malloc.c
00000000 l    df *ABS*	00000000 nano-mallocr.c
00000000 l    df *ABS*	00000000 nano-mallocr.c
00000000 l    df *ABS*	00000000 printf.c
00000000 l    df *ABS*	00000000 sbrkr.c
00000000 l    df *ABS*	00000000 findfp.c
0000248a l     F .text	0000006a std
00000000 l    df *ABS*	00000000 fwalk.c
00000000 l    df *ABS*	00000000 mlock.c
00000000 l    df *ABS*	00000000 nano-vfprintf.c
000026be l     F .text	00000028 __sfputc_r
00000000 l    df *ABS*	00000000 nano-vfprintf_i.c
00000000 l    df *ABS*	00000000 stdio.c
00000000 l    df *ABS*	00000000 wbuf.c
00000000 l    df *ABS*	00000000 writer.c
00000000 l    df *ABS*	00000000 wsetup.c
00000000 l    df *ABS*	00000000 closer.c
00000000 l    df *ABS*	00000000 fflush.c
00000000 l    df *ABS*	00000000 lseekr.c
00000000 l    df *ABS*	00000000 makebuf.c
00000000 l    df *ABS*	00000000 memchr.c
00000000 l    df *ABS*	00000000 readr.c
00000000 l    df *ABS*	00000000 fstatr.c
00000000 l    df *ABS*	00000000 isattyr.c
00000000 l    df *ABS*	00000000 close.c
00000000 l    df *ABS*	00000000 fstat.c
00000000 l    df *ABS*	00000000 isatty.c
00000000 l    df *ABS*	00000000 lseek.c
00000000 l    df *ABS*	00000000 read.c
00000000 l    df *ABS*	00000000 font.c
00000000 l    df *ABS*	00000000 impure.c
20004000 l     O .data	00000060 impure_data
00000000 l    df *ABS*	00000000 reent.c
0000339a g     F .text	00000028 _isatty_r
00003208 g     F .text	0000002c _lseek_r
20003ab8 g     F .highcode	0000000e FLASH_ROM_OUT
00001078 g     F .text	0000016a TFT_Fill_Ellipse
000017c8 g     F .text	0000000e TFT_Config_Display
0000241e g     F .text	00000042 printf
20004860 g       .data	00000000 __global_pointer$
000017b2 g     F .text	00000016 TFT_Config_Pins
00002dfc g     F .text	00000036 __sseek
00002544 g     F .text	0000006a __sinit
00002e38 g     F .text	000000c2 __swbuf_r
20003a56 g     F .highcode	0000000e mDelayuS
20003a10  w    F .highcode	00000046 HardFault_Handler
000024fe g     F .text	00000046 __sfmoreglue
2000389c  w      .highcode	00000000 GPIOB_IRQHandler
000026bc g     F .text	00000002 __malloc_unlock
2000389a  w      .highcode	00000000 GPIOA_IRQHandler
20003894  w      .highcode	00000000 SysTick_Handler
20003890  w      .highcode	00000000 NMI_Handler
200038ac  w      .highcode	00000000 UART1_IRQHandler
000008ec g     F .text	00000056 TFT_Draw_Fast_HLine
00000bf6 g     F .text	0000017c TFT_Draw_Circle
00003370 g     F .text	0000002a _fstat_r
200040ac g     O .bss	00000004 errno
20004068 g       .bss	00000000 _sbss
00000200 g       *ABS*	00000000 __stack_size
00001aa0 g     F .text	00000038 TFT_Write_Command
20003aaa g     F .highcode	0000000e FLASH_ROM_IN
200038aa  w      .highcode	00000000 UART0_IRQHandler
00001970 g     F .text	0000005c TFT_Buffer_Write16
00000858 g     F .text	00000024 TFT_Draw_Point
000024f4 g     F .text	0000000a _cleanup_r
00000942 g     F .text	00000056 TFT_Draw_Fast_VLine
0000229e g     F .text	0000000e malloc
000033ce g     F .text	0000000c _fstat
00000004 g       .init	00000000 _einit
200038a0  w      .highcode	00000000 BB_IRQHandler
20003b46 g     F .highcode	00000340 FLASH_EEPROM_CMD
0000207a g     F .text	000000a6 GPIOB_ModeCfg
00002460 g     F .text	0000002a _sbrk_r
00000998 g     F .text	000001ce TFT_Draw_Line
00002152 g     F .text	00000050 SPI0_MasterDMATrans
20003898  w      .highcode	00000000 TMR0_IRQHandler
00003344 g     F .text	0000002c _read_r
0000178e g     F .text	00000024 TFT_Init_Instance
00000eba g     F .text	000001be TFT_Draw_Ellipse
000041a0 g     O .text	00000008 afont12x6
20003a8c g     F .highcode	00000010 FLASH_ROM_BEG
20003a64 g     F .highcode	00000028 mDelaymS
20007e00 g       .stack	00000000 _heap_end
00002120 g     F .text	00000032 SPI0_MasterDefInit
000033da g     F .text	0000000c _isatty
000041b8 g     O .text	00000004 _global_impure_ptr
20003ac6 g     F .highcode	00000048 FLASH_ROM_ADDR
0000220c g     F .text	00000030 _sbrk
2000406c g     O .bss	00000004 SPI0
20004078 g     O .bss	00000034 htft1
0000087c g     F .text	00000070 TFT_Fill_Area
200038ae  w      .highcode	00000000 RTC_IRQHandler
200040b0 g       .bss	00000000 _ebss
0000226c g     F .text	00000032 UART1_DefInit
20003b0e g     F .highcode	00000038 FLASH_ROM_WAIT
00004104 g     O .text	00000020 __sf_fake_stderr
200038b6  w      .highcode	00000000 UART2_IRQHandler
000041a8 g     O .text	00000008 afont16x8
200038b2  w      .highcode	00000000 PWMX_IRQHandler
000026e6 g     F .text	00000042 __sfputs_r
0000332a g     F .text	0000001a memchr
000022ac g     F .text	000000a4 _free_r
000041b0 g     O .text	00000008 afont8x6
00000000 g       .init	00000000 _start
000033e6 g     F .text	0000000c _lseek
00001ba6 g     F .text	0000013c TFT_Show_Char
00001856 g     F .text	00000040 TFT_Pin_CS_Set
200038b0  w      .highcode	00000000 ADC_IRQHandler
20003800 g       .highcode	00000000 _highcode_vma_start
000019cc g     F .text	00000008 TFT_Reset_Buffer
200038a8  w      .highcode	00000000 TMR2_IRQHandler
00003e64 g     O .text	00000228 ascii_8x6
0000303c g     F .text	00000028 _close_r
20004000 g       .data	00000000 _data_vma
00000d72 g     F .text	00000148 TFT_Fill_Circle
0000194a g     F .text	00000026 TFT_Flush_Buffer
200038bc g     F .highcode	00000118 SetSysClock
200038a4  w      .highcode	00000000 USB_IRQHandler
00002f28 g     F .text	00000114 __swsetup_r
000025ae g     F .text	000000a0 __sfp
00002d7e g     F .text	00000030 __sread
00001a2a g     F .text	00000038 TFT_Write_Data8
00000bd4 g     F .text	00000022 TFT_Fill_Rectangle
000026ba g     F .text	00000002 __malloc_lock
000031a2 g     F .text	00000066 _fflush_r
00004124 g     O .text	00000020 __sf_fake_stdin
00000756 g     F .text	000000a8 memset
00001d7a g     F .text	0000025a main
00002e32 g     F .text	00000006 __sclose
00002350 g     F .text	000000ce _malloc_r
00001ce2 g     F .text	00000098 TFT_Show_String
00001550 g     F .text	0000022a TFT_Init_ST7789v3
00000004 g       .highcodelalign	00000000 _highcode_lma
000017d6 g     F .text	00000040 TFT_Pin_RES_Set
00001b92 g     F .text	00000014 TFT_RGB
0000241e g     F .text	00000042 iprintf
200038a2  w      .highcode	00000000 LLE_IRQHandler
00001228 g     F .text	00000328 TFT_Init_ST7735S
00000000 g       .init	00000000 _sinit
00002efa g     F .text	0000002e _write_r
00003400 g     O .text	00000474 ascii_12x6
000029c6 g     F .text	0000010c _printf_common
20004064 g     O .data	00000004 _impure_ptr
00003064 g     F .text	0000013e __sflush_r
00001a62 g     F .text	0000003e TFT_Write_Data16
200038ba  w      .highcode	00000000 WDOG_BAT_IRQHandler
200038b4  w      .highcode	00000000 TMR3_IRQHandler
000019d4 g     F .text	00000056 TFT_IO_Init
20008000 g       .stack	00000000 _eusrstack
20003896  w      .highcode	00000000 SW_Handler
00001fd4 g     F .text	000000a6 GPIOA_ModeCfg
00000b66 g     F .text	0000006e TFT_Draw_Rectangle
00003234 g     F .text	00000058 __swhatbuf_r
000021a2 g     F .text	00000042 GetSysClock
000021e4 g     F .text	00000028 _write
20004068 g       .data	00000000 _edata
2000389e  w      .highcode	00000000 SPI0_IRQHandler
200040b0 g       .bss	00000000 _end
20003e88 g       .highcode	00000000 _highcode_vma_end
000041bc g       .dlalign	00000000 _data_lma
00003874 g     O .text	000005f0 ascii_16x8
00002dae g     F .text	0000004e __swrite
00002728 g     F .text	0000029e _vfiprintf_r
0000264e g     F .text	0000006c _fwalk_reent
00001ad8 g     F .text	000000ba TFT_Set_Address
00004144 g     O .text	00000020 __sf_fake_stdout
000033f2 g     F .text	0000000c _read
0000068c  w      .text	00000000 handle_reset
0000328c g     F .text	0000009e __smakebuf_r
00002ad2 g     F .text	000002ac _printf_i
000018d6 g     F .text	00000074 TFT_SPI_Send
200038b8  w      .highcode	00000000 UART3_IRQHandler
20004074 g     O .bss	00000004 __malloc_sbrk_start
20003a9c g     F .highcode	0000000e FLASH_ROM_END
20004070 g     O .bss	00000004 __malloc_free_list
00002728 g     F .text	0000029e _vfprintf_r
200038a6  w      .highcode	00000000 TMR1_IRQHandler
00001896 g     F .text	00000040 TFT_Pin_BLK_Set
200039d4 g     F .highcode	0000003c SYS_ResetExecute
00001816 g     F .text	00000040 TFT_Pin_DC_Set
000033c2 g     F .text	0000000c _close
0000223c g     F .text	00000030 UART1_BaudRateCfg



Disassembly of section .init:

00000000 <_sinit>:
_start():
d:\CH573FEVT\LaserRangeFinder\obj/../Startup/startup_CH573.S:17

	.section	.init,"ax",@progbits
	.global	_start
	.align	1
_start:
	j	handle_reset
   0:	68c0006f          	j	68c <handle_reset>

Disassembly of section .highcode:

20003800 <_highcode_vma_start>:
	...
_vector_base():
d:\CH573FEVT\LaserRangeFinder\obj/../Startup/startup_CH573.S:25
    .align  1
_vector_base:
    .option norvc;
    .word   0
    .word   0
        j   NMI_Handler                 /* NMI Handler */
20003808:	0880006f          	j	20003890 <NMI_Handler>
d:\CH573FEVT\LaserRangeFinder\obj/../Startup/startup_CH573.S:26
        j   HardFault_Handler           /* Hard Fault Handler */
2000380c:	2040006f          	j	20003a10 <HardFault_Handler>
	...
d:\CH573FEVT\LaserRangeFinder\obj/../Startup/startup_CH573.S:35
    .word   0
    .word   0
    .word   0
    .word   0
    .word   0
        j   SysTick_Handler            /* SysTick Handler */
20003830:	0640006f          	j	20003894 <SysTick_Handler>
20003834:	0000                	unimp
20003836:	0000                	unimp
d:\CH573FEVT\LaserRangeFinder\obj/../Startup/startup_CH573.S:37
    .word   0
        j   SW_Handler                 /* SW Handler */
20003838:	05e0006f          	j	20003896 <SW_Handler>
2000383c:	0000                	unimp
2000383e:	0000                	unimp
d:\CH573FEVT\LaserRangeFinder\obj/../Startup/startup_CH573.S:40
    .word   0
    /* External Interrupts */
        j   TMR0_IRQHandler            /* 0:  TMR0 */
20003840:	0580006f          	j	20003898 <TMR0_IRQHandler>
d:\CH573FEVT\LaserRangeFinder\obj/../Startup/startup_CH573.S:41
        j   GPIOA_IRQHandler           /* GPIOA */
20003844:	0560006f          	j	2000389a <GPIOA_IRQHandler>
d:\CH573FEVT\LaserRangeFinder\obj/../Startup/startup_CH573.S:42
        j   GPIOB_IRQHandler           /* GPIOB */
20003848:	0540006f          	j	2000389c <GPIOB_IRQHandler>
d:\CH573FEVT\LaserRangeFinder\obj/../Startup/startup_CH573.S:43
        j   SPI0_IRQHandler            /* SPI0 */
2000384c:	0520006f          	j	2000389e <SPI0_IRQHandler>
d:\CH573FEVT\LaserRangeFinder\obj/../Startup/startup_CH573.S:44
        j   BB_IRQHandler              /* BLEB */
20003850:	0500006f          	j	200038a0 <BB_IRQHandler>
d:\CH573FEVT\LaserRangeFinder\obj/../Startup/startup_CH573.S:45
        j   LLE_IRQHandler             /* BLEL */
20003854:	04e0006f          	j	200038a2 <LLE_IRQHandler>
d:\CH573FEVT\LaserRangeFinder\obj/../Startup/startup_CH573.S:46
        j   USB_IRQHandler             /* USB */
20003858:	04c0006f          	j	200038a4 <USB_IRQHandler>
2000385c:	0000                	unimp
2000385e:	0000                	unimp
d:\CH573FEVT\LaserRangeFinder\obj/../Startup/startup_CH573.S:48
        .word   0
        j   TMR1_IRQHandler            /* TMR1 */
20003860:	0460006f          	j	200038a6 <TMR1_IRQHandler>
d:\CH573FEVT\LaserRangeFinder\obj/../Startup/startup_CH573.S:49
        j   TMR2_IRQHandler            /* TMR2 */
20003864:	0440006f          	j	200038a8 <TMR2_IRQHandler>
d:\CH573FEVT\LaserRangeFinder\obj/../Startup/startup_CH573.S:50
        j   UART0_IRQHandler           /* UART0 */
20003868:	0420006f          	j	200038aa <UART0_IRQHandler>
d:\CH573FEVT\LaserRangeFinder\obj/../Startup/startup_CH573.S:51
        j   UART1_IRQHandler           /* UART1 */
2000386c:	0400006f          	j	200038ac <UART1_IRQHandler>
d:\CH573FEVT\LaserRangeFinder\obj/../Startup/startup_CH573.S:52
        j   RTC_IRQHandler             /* RTC */
20003870:	03e0006f          	j	200038ae <RTC_IRQHandler>
d:\CH573FEVT\LaserRangeFinder\obj/../Startup/startup_CH573.S:53
        j   ADC_IRQHandler             /* ADC */
20003874:	03c0006f          	j	200038b0 <ADC_IRQHandler>
20003878:	0000                	unimp
2000387a:	0000                	unimp
d:\CH573FEVT\LaserRangeFinder\obj/../Startup/startup_CH573.S:55
        .word   0
        j   PWMX_IRQHandler            /* PWMX */
2000387c:	0360006f          	j	200038b2 <PWMX_IRQHandler>
d:\CH573FEVT\LaserRangeFinder\obj/../Startup/startup_CH573.S:56
        j   TMR3_IRQHandler            /* TMR3 */
20003880:	0340006f          	j	200038b4 <TMR3_IRQHandler>
d:\CH573FEVT\LaserRangeFinder\obj/../Startup/startup_CH573.S:57
        j   UART2_IRQHandler           /* UART2 */
20003884:	0320006f          	j	200038b6 <UART2_IRQHandler>
d:\CH573FEVT\LaserRangeFinder\obj/../Startup/startup_CH573.S:58
        j   UART3_IRQHandler           /* UART3 */
20003888:	0300006f          	j	200038b8 <UART3_IRQHandler>
d:\CH573FEVT\LaserRangeFinder\obj/../Startup/startup_CH573.S:59
        j   WDOG_BAT_IRQHandler        /* WDOG_BAT */
2000388c:	02e0006f          	j	200038ba <WDOG_BAT_IRQHandler>

20003890 <NMI_Handler>:
NMI_Handler():
d:\CH573FEVT\LaserRangeFinder\obj/../Startup/startup_CH573.S:87
    .weak   TMR3_IRQHandler
    .weak   UART2_IRQHandler
    .weak   UART3_IRQHandler
    .weak   WDOG_BAT_IRQHandler

NMI_Handler:  1:  j 1b
20003890:	a001                	j	20003890 <NMI_Handler>
d:\CH573FEVT\LaserRangeFinder\obj/../Startup/startup_CH573.S:88
HardFault_Handler:  1:  j 1b
20003892:	a001                	j	20003892 <NMI_Handler+0x2>

20003894 <SysTick_Handler>:
SysTick_Handler():
d:\CH573FEVT\LaserRangeFinder\obj/../Startup/startup_CH573.S:89
SysTick_Handler:  1:  j 1b
20003894:	a001                	j	20003894 <SysTick_Handler>

20003896 <SW_Handler>:
SW_Handler():
d:\CH573FEVT\LaserRangeFinder\obj/../Startup/startup_CH573.S:90
SW_Handler:  1:  j 1b
20003896:	a001                	j	20003896 <SW_Handler>

20003898 <TMR0_IRQHandler>:
TMR0_IRQHandler():
d:\CH573FEVT\LaserRangeFinder\obj/../Startup/startup_CH573.S:91
TMR0_IRQHandler:  1:  j 1b
20003898:	a001                	j	20003898 <TMR0_IRQHandler>

2000389a <GPIOA_IRQHandler>:
GPIOA_IRQHandler():
d:\CH573FEVT\LaserRangeFinder\obj/../Startup/startup_CH573.S:92
GPIOA_IRQHandler:  1:  j 1b
2000389a:	a001                	j	2000389a <GPIOA_IRQHandler>

2000389c <GPIOB_IRQHandler>:
GPIOB_IRQHandler():
d:\CH573FEVT\LaserRangeFinder\obj/../Startup/startup_CH573.S:93
GPIOB_IRQHandler:  1:  j 1b
2000389c:	a001                	j	2000389c <GPIOB_IRQHandler>

2000389e <SPI0_IRQHandler>:
SPI0_IRQHandler():
d:\CH573FEVT\LaserRangeFinder\obj/../Startup/startup_CH573.S:94
SPI0_IRQHandler:  1:  j 1b
2000389e:	a001                	j	2000389e <SPI0_IRQHandler>

200038a0 <BB_IRQHandler>:
BB_IRQHandler():
d:\CH573FEVT\LaserRangeFinder\obj/../Startup/startup_CH573.S:95
BB_IRQHandler:  1:  j 1b
200038a0:	a001                	j	200038a0 <BB_IRQHandler>

200038a2 <LLE_IRQHandler>:
LLE_IRQHandler():
d:\CH573FEVT\LaserRangeFinder\obj/../Startup/startup_CH573.S:96
LLE_IRQHandler:  1:  j 1b
200038a2:	a001                	j	200038a2 <LLE_IRQHandler>

200038a4 <USB_IRQHandler>:
USB_IRQHandler():
d:\CH573FEVT\LaserRangeFinder\obj/../Startup/startup_CH573.S:97
USB_IRQHandler:  1:  j 1b
200038a4:	a001                	j	200038a4 <USB_IRQHandler>

200038a6 <TMR1_IRQHandler>:
TMR1_IRQHandler():
d:\CH573FEVT\LaserRangeFinder\obj/../Startup/startup_CH573.S:98
TMR1_IRQHandler:  1:  j 1b
200038a6:	a001                	j	200038a6 <TMR1_IRQHandler>

200038a8 <TMR2_IRQHandler>:
TMR2_IRQHandler():
d:\CH573FEVT\LaserRangeFinder\obj/../Startup/startup_CH573.S:99
TMR2_IRQHandler:  1:  j 1b
200038a8:	a001                	j	200038a8 <TMR2_IRQHandler>

200038aa <UART0_IRQHandler>:
UART0_IRQHandler():
d:\CH573FEVT\LaserRangeFinder\obj/../Startup/startup_CH573.S:100
UART0_IRQHandler:  1:  j 1b
200038aa:	a001                	j	200038aa <UART0_IRQHandler>

200038ac <UART1_IRQHandler>:
UART1_IRQHandler():
d:\CH573FEVT\LaserRangeFinder\obj/../Startup/startup_CH573.S:101
UART1_IRQHandler:  1:  j 1b
200038ac:	a001                	j	200038ac <UART1_IRQHandler>

200038ae <RTC_IRQHandler>:
RTC_IRQHandler():
d:\CH573FEVT\LaserRangeFinder\obj/../Startup/startup_CH573.S:102
RTC_IRQHandler:  1:  j 1b
200038ae:	a001                	j	200038ae <RTC_IRQHandler>

200038b0 <ADC_IRQHandler>:
ADC_IRQHandler():
d:\CH573FEVT\LaserRangeFinder\obj/../Startup/startup_CH573.S:103
ADC_IRQHandler:  1:  j 1b
200038b0:	a001                	j	200038b0 <ADC_IRQHandler>

200038b2 <PWMX_IRQHandler>:
PWMX_IRQHandler():
d:\CH573FEVT\LaserRangeFinder\obj/../Startup/startup_CH573.S:104
PWMX_IRQHandler:  1:  j 1b
200038b2:	a001                	j	200038b2 <PWMX_IRQHandler>

200038b4 <TMR3_IRQHandler>:
TMR3_IRQHandler():
d:\CH573FEVT\LaserRangeFinder\obj/../Startup/startup_CH573.S:105
TMR3_IRQHandler:  1:  j 1b
200038b4:	a001                	j	200038b4 <TMR3_IRQHandler>

200038b6 <UART2_IRQHandler>:
UART2_IRQHandler():
d:\CH573FEVT\LaserRangeFinder\obj/../Startup/startup_CH573.S:106
UART2_IRQHandler:  1:  j 1b
200038b6:	a001                	j	200038b6 <UART2_IRQHandler>

200038b8 <UART3_IRQHandler>:
UART3_IRQHandler():
d:\CH573FEVT\LaserRangeFinder\obj/../Startup/startup_CH573.S:107
UART3_IRQHandler:  1:  j 1b
200038b8:	a001                	j	200038b8 <UART3_IRQHandler>

200038ba <WDOG_BAT_IRQHandler>:
WDOG_BAT_IRQHandler():
d:\CH573FEVT\LaserRangeFinder\obj/../Startup/startup_CH573.S:108
WDOG_BAT_IRQHandler:  1:  j 1b
200038ba:	a001                	j	200038ba <WDOG_BAT_IRQHandler>

200038bc <SetSysClock>:
sys_safe_access_enable():
d:/CH573FEVT/LaserRangeFinder/StdPeriphDriver/inc/CH57x_sys.h:178
 * @NOTE: 进入安全访问模式后约16个系统主频周期都处于安全模式下，
 * 该有效期内可以改写一个或多个安全类寄存器，超出上述有效期后将自动终止安全模式。
 */
 __attribute__((always_inline)) static inline void sys_safe_access_enable(void)
{
    R8_SAFE_ACCESS_SIG = SAFE_ACCESS_SIG1;
200038bc:	400017b7          	lui	a5,0x40001
200038c0:	05700693          	li	a3,87
200038c4:	04d78023          	sb	a3,64(a5) # 40001040 <_eusrstack+0x1fff9040>
d:/CH573FEVT/LaserRangeFinder/StdPeriphDriver/inc/CH57x_sys.h:179
    R8_SAFE_ACCESS_SIG = SAFE_ACCESS_SIG2;
200038c8:	fa800713          	li	a4,-88
200038cc:	04e78023          	sb	a4,64(a5)
d:/CH573FEVT/LaserRangeFinder/StdPeriphDriver/inc/CH57x_sys.h:180
    asm volatile("fence.i");
200038d0:	0000100f          	fence.i
SetSysClock():
d:\CH573FEVT\LaserRangeFinder\obj/../StdPeriphDriver/CH57x_sys.c:29
__attribute__((section(".highcode")))
void SetSysClock(SYS_CLKTypeDef sc)
{
    uint32_t i;
    sys_safe_access_enable();
    R8_PLL_CONFIG &= ~(1 << 5); //
200038d4:	04b7c603          	lbu	a2,75(a5)
200038d8:	0df67613          	andi	a2,a2,223
200038dc:	04c785a3          	sb	a2,75(a5)
sys_safe_access_disable():
d:/CH573FEVT/LaserRangeFinder/StdPeriphDriver/inc/CH57x_sys.h:185
}

__attribute__((always_inline)) static inline void sys_safe_access_disable(void)
{
    R8_SAFE_ACCESS_SIG = 0;
200038e0:	04078023          	sb	zero,64(a5)
SetSysClock():
d:\CH573FEVT\LaserRangeFinder\obj/../StdPeriphDriver/CH57x_sys.c:31
    sys_safe_access_disable();
    if(sc & 0x20)
200038e4:	02057613          	andi	a2,a0,32
200038e8:	ca3d                	beqz	a2,2000395e <SetSysClock+0xa2>
d:\CH573FEVT\LaserRangeFinder\obj/../StdPeriphDriver/CH57x_sys.c:33
    { // HSE div
        if(!(R8_HFCK_PWR_CTRL & RB_CLK_XT32M_PON))
200038ea:	00a7c603          	lbu	a2,10(a5)
200038ee:	8a11                	andi	a2,a2,4
200038f0:	e21d                	bnez	a2,20003916 <SetSysClock+0x5a>
sys_safe_access_enable():
d:/CH573FEVT/LaserRangeFinder/StdPeriphDriver/inc/CH57x_sys.h:178
    R8_SAFE_ACCESS_SIG = SAFE_ACCESS_SIG1;
200038f2:	04d78023          	sb	a3,64(a5)
d:/CH573FEVT/LaserRangeFinder/StdPeriphDriver/inc/CH57x_sys.h:179
    R8_SAFE_ACCESS_SIG = SAFE_ACCESS_SIG2;
200038f6:	04e78023          	sb	a4,64(a5)
d:/CH573FEVT/LaserRangeFinder/StdPeriphDriver/inc/CH57x_sys.h:180
    asm volatile("fence.i");
200038fa:	0000100f          	fence.i
SetSysClock():
d:\CH573FEVT\LaserRangeFinder\obj/../StdPeriphDriver/CH57x_sys.c:36
        {
            sys_safe_access_enable();
            R8_HFCK_PWR_CTRL |= RB_CLK_XT32M_PON; // HSE power on
200038fe:	00a7c703          	lbu	a4,10(a5)
20003902:	00476713          	ori	a4,a4,4
20003906:	00e78523          	sb	a4,10(a5)
2000390a:	4b000793          	li	a5,1200
d:\CH573FEVT\LaserRangeFinder\obj/../StdPeriphDriver/CH57x_sys.c:39 (discriminator 3)
            for(i = 0; i < 1200; i++)
            {
                __nop();
2000390e:	0001                	nop
d:\CH573FEVT\LaserRangeFinder\obj/../StdPeriphDriver/CH57x_sys.c:40 (discriminator 3)
                __nop();
20003910:	0001                	nop
20003912:	17fd                	addi	a5,a5,-1
d:\CH573FEVT\LaserRangeFinder\obj/../StdPeriphDriver/CH57x_sys.c:37 (discriminator 3)
            for(i = 0; i < 1200; i++)
20003914:	ffed                	bnez	a5,2000390e <SetSysClock+0x52>
sys_safe_access_enable():
d:/CH573FEVT/LaserRangeFinder/StdPeriphDriver/inc/CH57x_sys.h:178
    R8_SAFE_ACCESS_SIG = SAFE_ACCESS_SIG1;
20003916:	400017b7          	lui	a5,0x40001
2000391a:	05700693          	li	a3,87
2000391e:	04d78023          	sb	a3,64(a5) # 40001040 <_eusrstack+0x1fff9040>
d:/CH573FEVT/LaserRangeFinder/StdPeriphDriver/inc/CH57x_sys.h:179
    R8_SAFE_ACCESS_SIG = SAFE_ACCESS_SIG2;
20003922:	fa800713          	li	a4,-88
20003926:	04e78023          	sb	a4,64(a5)
d:/CH573FEVT/LaserRangeFinder/StdPeriphDriver/inc/CH57x_sys.h:180
    asm volatile("fence.i");
2000392a:	0000100f          	fence.i
SetSysClock():
d:\CH573FEVT\LaserRangeFinder\obj/../StdPeriphDriver/CH57x_sys.c:45
            }
        }

        sys_safe_access_enable();
        R16_CLK_SYS_CFG = (0 << 6) | (sc & 0x1f);
2000392e:	897d                	andi	a0,a0,31
20003930:	00a79423          	sh	a0,8(a5)
d:\CH573FEVT\LaserRangeFinder\obj/../StdPeriphDriver/CH57x_sys.c:46
        __nop();
20003934:	0001                	nop
d:\CH573FEVT\LaserRangeFinder\obj/../StdPeriphDriver/CH57x_sys.c:47
        __nop();
20003936:	0001                	nop
d:\CH573FEVT\LaserRangeFinder\obj/../StdPeriphDriver/CH57x_sys.c:48
        __nop();
20003938:	0001                	nop
d:\CH573FEVT\LaserRangeFinder\obj/../StdPeriphDriver/CH57x_sys.c:49
        __nop();
2000393a:	0001                	nop
sys_safe_access_disable():
d:/CH573FEVT/LaserRangeFinder/StdPeriphDriver/inc/CH57x_sys.h:185
    R8_SAFE_ACCESS_SIG = 0;
2000393c:	04078023          	sb	zero,64(a5)
sys_safe_access_enable():
d:/CH573FEVT/LaserRangeFinder/StdPeriphDriver/inc/CH57x_sys.h:178
    R8_SAFE_ACCESS_SIG = SAFE_ACCESS_SIG1;
20003940:	04d78023          	sb	a3,64(a5)
d:/CH573FEVT/LaserRangeFinder/StdPeriphDriver/inc/CH57x_sys.h:179
    R8_SAFE_ACCESS_SIG = SAFE_ACCESS_SIG2;
20003944:	04e78023          	sb	a4,64(a5)
d:/CH573FEVT/LaserRangeFinder/StdPeriphDriver/inc/CH57x_sys.h:180
    asm volatile("fence.i");
20003948:	0000100f          	fence.i
SetSysClock():
d:\CH573FEVT\LaserRangeFinder\obj/../StdPeriphDriver/CH57x_sys.c:52
        sys_safe_access_disable();
        sys_safe_access_enable();
        R8_FLASH_CFG = 0X51;
2000394c:	40002737          	lui	a4,0x40002
20003950:	05100693          	li	a3,81
d:\CH573FEVT\LaserRangeFinder\obj/../StdPeriphDriver/CH57x_sys.c:76
        __nop();
        __nop();
        __nop();
        sys_safe_access_disable();
        sys_safe_access_enable();
        R8_FLASH_CFG = 0X53;
20003954:	80d703a3          	sb	a3,-2041(a4) # 40001807 <_eusrstack+0x1fff9807>
sys_safe_access_disable():
d:/CH573FEVT/LaserRangeFinder/StdPeriphDriver/inc/CH57x_sys.h:185
    R8_SAFE_ACCESS_SIG = 0;
20003958:	04078023          	sb	zero,64(a5)
SetSysClock():
d:\CH573FEVT\LaserRangeFinder\obj/../StdPeriphDriver/CH57x_sys.c:79
        sys_safe_access_disable();
    }
}
2000395c:	8082                	ret
d:\CH573FEVT\LaserRangeFinder\obj/../StdPeriphDriver/CH57x_sys.c:56
    else if(sc & 0x40)
2000395e:	04057613          	andi	a2,a0,64
20003962:	de6d                	beqz	a2,2000395c <SetSysClock+0xa0>
d:\CH573FEVT\LaserRangeFinder\obj/../StdPeriphDriver/CH57x_sys.c:58
        if(!(R8_HFCK_PWR_CTRL & RB_CLK_PLL_PON))
20003964:	00a7c603          	lbu	a2,10(a5)
20003968:	8a41                	andi	a2,a2,16
2000396a:	e21d                	bnez	a2,20003990 <SetSysClock+0xd4>
sys_safe_access_enable():
d:/CH573FEVT/LaserRangeFinder/StdPeriphDriver/inc/CH57x_sys.h:178
    R8_SAFE_ACCESS_SIG = SAFE_ACCESS_SIG1;
2000396c:	04d78023          	sb	a3,64(a5)
d:/CH573FEVT/LaserRangeFinder/StdPeriphDriver/inc/CH57x_sys.h:179
    R8_SAFE_ACCESS_SIG = SAFE_ACCESS_SIG2;
20003970:	04e78023          	sb	a4,64(a5)
d:/CH573FEVT/LaserRangeFinder/StdPeriphDriver/inc/CH57x_sys.h:180
    asm volatile("fence.i");
20003974:	0000100f          	fence.i
SetSysClock():
d:\CH573FEVT\LaserRangeFinder\obj/../StdPeriphDriver/CH57x_sys.c:61
            R8_HFCK_PWR_CTRL |= RB_CLK_PLL_PON; // PLL power on
20003978:	00a7c703          	lbu	a4,10(a5)
2000397c:	01076713          	ori	a4,a4,16
20003980:	00e78523          	sb	a4,10(a5)
20003984:	7d000793          	li	a5,2000
d:\CH573FEVT\LaserRangeFinder\obj/../StdPeriphDriver/CH57x_sys.c:64 (discriminator 3)
                __nop();
20003988:	0001                	nop
d:\CH573FEVT\LaserRangeFinder\obj/../StdPeriphDriver/CH57x_sys.c:65 (discriminator 3)
                __nop();
2000398a:	0001                	nop
2000398c:	17fd                	addi	a5,a5,-1
d:\CH573FEVT\LaserRangeFinder\obj/../StdPeriphDriver/CH57x_sys.c:62 (discriminator 3)
            for(i = 0; i < 2000; i++)
2000398e:	ffed                	bnez	a5,20003988 <SetSysClock+0xcc>
sys_safe_access_enable():
d:/CH573FEVT/LaserRangeFinder/StdPeriphDriver/inc/CH57x_sys.h:178
    R8_SAFE_ACCESS_SIG = SAFE_ACCESS_SIG1;
20003990:	400017b7          	lui	a5,0x40001
20003994:	05700693          	li	a3,87
20003998:	04d78023          	sb	a3,64(a5) # 40001040 <_eusrstack+0x1fff9040>
d:/CH573FEVT/LaserRangeFinder/StdPeriphDriver/inc/CH57x_sys.h:179
    R8_SAFE_ACCESS_SIG = SAFE_ACCESS_SIG2;
2000399c:	fa800713          	li	a4,-88
200039a0:	04e78023          	sb	a4,64(a5)
d:/CH573FEVT/LaserRangeFinder/StdPeriphDriver/inc/CH57x_sys.h:180
    asm volatile("fence.i");
200039a4:	0000100f          	fence.i
SetSysClock():
d:\CH573FEVT\LaserRangeFinder\obj/../StdPeriphDriver/CH57x_sys.c:69
        R16_CLK_SYS_CFG = (1 << 6) | (sc & 0x1f);
200039a8:	897d                	andi	a0,a0,31
200039aa:	04056513          	ori	a0,a0,64
200039ae:	00a79423          	sh	a0,8(a5)
d:\CH573FEVT\LaserRangeFinder\obj/../StdPeriphDriver/CH57x_sys.c:70
        __nop();
200039b2:	0001                	nop
d:\CH573FEVT\LaserRangeFinder\obj/../StdPeriphDriver/CH57x_sys.c:71
        __nop();
200039b4:	0001                	nop
d:\CH573FEVT\LaserRangeFinder\obj/../StdPeriphDriver/CH57x_sys.c:72
        __nop();
200039b6:	0001                	nop
d:\CH573FEVT\LaserRangeFinder\obj/../StdPeriphDriver/CH57x_sys.c:73
        __nop();
200039b8:	0001                	nop
sys_safe_access_disable():
d:/CH573FEVT/LaserRangeFinder/StdPeriphDriver/inc/CH57x_sys.h:185
    R8_SAFE_ACCESS_SIG = 0;
200039ba:	04078023          	sb	zero,64(a5)
sys_safe_access_enable():
d:/CH573FEVT/LaserRangeFinder/StdPeriphDriver/inc/CH57x_sys.h:178
    R8_SAFE_ACCESS_SIG = SAFE_ACCESS_SIG1;
200039be:	04d78023          	sb	a3,64(a5)
d:/CH573FEVT/LaserRangeFinder/StdPeriphDriver/inc/CH57x_sys.h:179
    R8_SAFE_ACCESS_SIG = SAFE_ACCESS_SIG2;
200039c2:	04e78023          	sb	a4,64(a5)
d:/CH573FEVT/LaserRangeFinder/StdPeriphDriver/inc/CH57x_sys.h:180
    asm volatile("fence.i");
200039c6:	0000100f          	fence.i
SetSysClock():
d:\CH573FEVT\LaserRangeFinder\obj/../StdPeriphDriver/CH57x_sys.c:76
        R8_FLASH_CFG = 0X53;
200039ca:	40002737          	lui	a4,0x40002
200039ce:	05300693          	li	a3,83
200039d2:	b749                	j	20003954 <SetSysClock+0x98>

200039d4 <SYS_ResetExecute>:
SYS_ResetExecute():
d:\CH573FEVT\LaserRangeFinder\obj/../StdPeriphDriver/CH57x_sys.c:141
 *
 * @return  none
 */
__attribute__((section(".highcode")))
void SYS_ResetExecute(void)
{
200039d4:	1141                	addi	sp,sp,-16
d:\CH573FEVT\LaserRangeFinder\obj/../StdPeriphDriver/CH57x_sys.c:142
    FLASH_ROM_SW_RESET();
200039d6:	4681                	li	a3,0
200039d8:	4601                	li	a2,0
200039da:	4581                	li	a1,0
200039dc:	4511                	li	a0,4
d:\CH573FEVT\LaserRangeFinder\obj/../StdPeriphDriver/CH57x_sys.c:141
{
200039de:	c606                	sw	ra,12(sp)
d:\CH573FEVT\LaserRangeFinder\obj/../StdPeriphDriver/CH57x_sys.c:142
    FLASH_ROM_SW_RESET();
200039e0:	229d                	jal	20003b46 <FLASH_EEPROM_CMD>
sys_safe_access_enable():
d:/CH573FEVT/LaserRangeFinder/StdPeriphDriver/inc/CH57x_sys.h:178
    R8_SAFE_ACCESS_SIG = SAFE_ACCESS_SIG1;
200039e2:	400017b7          	lui	a5,0x40001
200039e6:	05700713          	li	a4,87
200039ea:	04e78023          	sb	a4,64(a5) # 40001040 <_eusrstack+0x1fff9040>
d:/CH573FEVT/LaserRangeFinder/StdPeriphDriver/inc/CH57x_sys.h:179
    R8_SAFE_ACCESS_SIG = SAFE_ACCESS_SIG2;
200039ee:	fa800713          	li	a4,-88
200039f2:	04e78023          	sb	a4,64(a5)
d:/CH573FEVT/LaserRangeFinder/StdPeriphDriver/inc/CH57x_sys.h:180
    asm volatile("fence.i");
200039f6:	0000100f          	fence.i
SYS_ResetExecute():
d:\CH573FEVT\LaserRangeFinder\obj/../StdPeriphDriver/CH57x_sys.c:144
    sys_safe_access_enable();
    R8_RST_WDOG_CTRL |= RB_SOFTWARE_RESET;
200039fa:	0467c703          	lbu	a4,70(a5)
200039fe:	00176713          	ori	a4,a4,1
20003a02:	04e78323          	sb	a4,70(a5)
sys_safe_access_disable():
d:/CH573FEVT/LaserRangeFinder/StdPeriphDriver/inc/CH57x_sys.h:185
    R8_SAFE_ACCESS_SIG = 0;
20003a06:	04078023          	sb	zero,64(a5)
SYS_ResetExecute():
d:\CH573FEVT\LaserRangeFinder\obj/../StdPeriphDriver/CH57x_sys.c:146
    sys_safe_access_disable();
}
20003a0a:	40b2                	lw	ra,12(sp)
20003a0c:	0141                	addi	sp,sp,16
20003a0e:	8082                	ret

20003a10 <HardFault_Handler>:
HardFault_Handler():
d:\CH573FEVT\LaserRangeFinder\obj/../StdPeriphDriver/CH57x_sys.c:281
__attribute__((interrupt("WCH-Interrupt-fast")))
__attribute__((section(".highcode")))
__attribute__((weak))
void HardFault_Handler(void)
{
    FLASH_ROM_SW_RESET();
20003a10:	4681                	li	a3,0
20003a12:	4601                	li	a2,0
20003a14:	4581                	li	a1,0
20003a16:	4511                	li	a0,4
20003a18:	223d                	jal	20003b46 <FLASH_EEPROM_CMD>
sys_safe_access_enable():
d:/CH573FEVT/LaserRangeFinder/StdPeriphDriver/inc/CH57x_sys.h:178
    R8_SAFE_ACCESS_SIG = SAFE_ACCESS_SIG1;
20003a1a:	400017b7          	lui	a5,0x40001
20003a1e:	05700693          	li	a3,87
20003a22:	04d78023          	sb	a3,64(a5) # 40001040 <_eusrstack+0x1fff9040>
d:/CH573FEVT/LaserRangeFinder/StdPeriphDriver/inc/CH57x_sys.h:179
    R8_SAFE_ACCESS_SIG = SAFE_ACCESS_SIG2;
20003a26:	fa800713          	li	a4,-88
20003a2a:	04e78023          	sb	a4,64(a5)
d:/CH573FEVT/LaserRangeFinder/StdPeriphDriver/inc/CH57x_sys.h:180
    asm volatile("fence.i");
20003a2e:	0000100f          	fence.i
HardFault_Handler():
d:\CH573FEVT\LaserRangeFinder\obj/../StdPeriphDriver/CH57x_sys.c:283
    sys_safe_access_enable();
    R16_INT32K_TUNE = 0xFFFF;
20003a32:	567d                	li	a2,-1
20003a34:	02c79623          	sh	a2,44(a5)
sys_safe_access_enable():
d:/CH573FEVT/LaserRangeFinder/StdPeriphDriver/inc/CH57x_sys.h:178
    R8_SAFE_ACCESS_SIG = SAFE_ACCESS_SIG1;
20003a38:	04d78023          	sb	a3,64(a5)
d:/CH573FEVT/LaserRangeFinder/StdPeriphDriver/inc/CH57x_sys.h:179
    R8_SAFE_ACCESS_SIG = SAFE_ACCESS_SIG2;
20003a3c:	04e78023          	sb	a4,64(a5)
d:/CH573FEVT/LaserRangeFinder/StdPeriphDriver/inc/CH57x_sys.h:180
    asm volatile("fence.i");
20003a40:	0000100f          	fence.i
HardFault_Handler():
d:\CH573FEVT\LaserRangeFinder\obj/../StdPeriphDriver/CH57x_sys.c:285
    sys_safe_access_enable();
    R8_RST_WDOG_CTRL |= RB_SOFTWARE_RESET;
20003a44:	0467c703          	lbu	a4,70(a5)
20003a48:	00176713          	ori	a4,a4,1
20003a4c:	04e78323          	sb	a4,70(a5)
sys_safe_access_disable():
d:/CH573FEVT/LaserRangeFinder/StdPeriphDriver/inc/CH57x_sys.h:185
    R8_SAFE_ACCESS_SIG = 0;
20003a50:	04078023          	sb	zero,64(a5)
HardFault_Handler():
d:\CH573FEVT\LaserRangeFinder\obj/../StdPeriphDriver/CH57x_sys.c:287 (discriminator 1)
    sys_safe_access_disable();
    while(1);
20003a54:	a001                	j	20003a54 <HardFault_Handler+0x44>

20003a56 <mDelayuS>:
mDelayuS():
d:\CH573FEVT\LaserRangeFinder\obj/../StdPeriphDriver/CH57x_sys.c:304
__attribute__((section(".highcode")))
void mDelayuS(uint16_t t)
{
    uint32_t i;
#if(FREQ_SYS == 60000000)
    i = t * 15;
20003a56:	47bd                	li	a5,15
20003a58:	02f50533          	mul	a0,a0,a5
d:\CH573FEVT\LaserRangeFinder\obj/../StdPeriphDriver/CH57x_sys.c:326 (discriminator 1)
#elif(FREQ_SYS == 1000000)
    i = t >> 2;
#endif
    do
    {
        __nop();
20003a5c:	0001                	nop
d:\CH573FEVT\LaserRangeFinder\obj/../StdPeriphDriver/CH57x_sys.c:327 (discriminator 1)
    } while(--i);
20003a5e:	157d                	addi	a0,a0,-1
20003a60:	fd75                	bnez	a0,20003a5c <mDelayuS+0x6>
d:\CH573FEVT\LaserRangeFinder\obj/../StdPeriphDriver/CH57x_sys.c:328
}
20003a62:	8082                	ret

20003a64 <mDelaymS>:
mDelaymS():
d:\CH573FEVT\LaserRangeFinder\obj/../StdPeriphDriver/CH57x_sys.c:341
 *
 * @return  none
 */
__attribute__((section(".highcode")))
void mDelaymS(uint16_t t)
{
20003a64:	1141                	addi	sp,sp,-16
20003a66:	c422                	sw	s0,8(sp)
20003a68:	c226                	sw	s1,4(sp)
20003a6a:	c606                	sw	ra,12(sp)
20003a6c:	84aa                	mv	s1,a0
d:\CH573FEVT\LaserRangeFinder\obj/../StdPeriphDriver/CH57x_sys.c:344
    uint16_t i;

    for(i = 0; i < t; i++)
20003a6e:	4401                	li	s0,0
d:\CH573FEVT\LaserRangeFinder\obj/../StdPeriphDriver/CH57x_sys.c:344 (discriminator 1)
20003a70:	00941763          	bne	s0,s1,20003a7e <mDelaymS+0x1a>
d:\CH573FEVT\LaserRangeFinder\obj/../StdPeriphDriver/CH57x_sys.c:348
    {
        mDelayuS(1000);
    }
}
20003a74:	40b2                	lw	ra,12(sp)
20003a76:	4422                	lw	s0,8(sp)
20003a78:	4492                	lw	s1,4(sp)
20003a7a:	0141                	addi	sp,sp,16
20003a7c:	8082                	ret
d:\CH573FEVT\LaserRangeFinder\obj/../StdPeriphDriver/CH57x_sys.c:344 (discriminator 3)
    for(i = 0; i < t; i++)
20003a7e:	0405                	addi	s0,s0,1
d:\CH573FEVT\LaserRangeFinder\obj/../StdPeriphDriver/CH57x_sys.c:346 (discriminator 3)
        mDelayuS(1000);
20003a80:	3e800513          	li	a0,1000
d:\CH573FEVT\LaserRangeFinder\obj/../StdPeriphDriver/CH57x_sys.c:344 (discriminator 3)
    for(i = 0; i < t; i++)
20003a84:	0442                	slli	s0,s0,0x10
d:\CH573FEVT\LaserRangeFinder\obj/../StdPeriphDriver/CH57x_sys.c:346 (discriminator 3)
        mDelayuS(1000);
20003a86:	3fc1                	jal	20003a56 <mDelayuS>
d:\CH573FEVT\LaserRangeFinder\obj/../StdPeriphDriver/CH57x_sys.c:344 (discriminator 3)
    for(i = 0; i < t; i++)
20003a88:	8041                	srli	s0,s0,0x10
20003a8a:	b7dd                	j	20003a70 <mDelaymS+0xc>

20003a8c <FLASH_ROM_BEG>:
FLASH_ROM_BEG():
20003a8c:	80040323          	sb	zero,-2042(s0)
20003a90:	4795                	li	a5,5
20003a92:	80f40323          	sb	a5,-2042(s0)
20003a96:	80a40223          	sb	a0,-2044(s0)
20003a9a:	8082                	ret

20003a9c <FLASH_ROM_END>:
FLASH_ROM_END():
20003a9c:	80640783          	lb	a5,-2042(s0)
20003aa0:	fe07cee3          	bltz	a5,20003a9c <FLASH_ROM_END>
20003aa4:	80040323          	sb	zero,-2042(s0)
20003aa8:	8082                	ret

20003aaa <FLASH_ROM_IN>:
FLASH_ROM_IN():
20003aaa:	80640783          	lb	a5,-2042(s0)
20003aae:	fe07cee3          	bltz	a5,20003aaa <FLASH_ROM_IN>
20003ab2:	80444503          	lbu	a0,-2044(s0)
20003ab6:	8082                	ret

20003ab8 <FLASH_ROM_OUT>:
FLASH_ROM_OUT():
20003ab8:	80640783          	lb	a5,-2042(s0)
20003abc:	fe07cee3          	bltz	a5,20003ab8 <FLASH_ROM_OUT>
20003ac0:	80a40223          	sb	a0,-2044(s0)
20003ac4:	8082                	ret

20003ac6 <FLASH_ROM_ADDR>:
FLASH_ROM_ADDR():
20003ac6:	1141                	addi	sp,sp,-16
20003ac8:	c426                	sw	s1,8(sp)
20003aca:	c24a                	sw	s2,4(sp)
20003acc:	c04e                	sw	s3,0(sp)
20003ace:	c606                	sw	ra,12(sp)
20003ad0:	0bf57713          	andi	a4,a0,191
20003ad4:	47ad                	li	a5,11
20003ad6:	89aa                	mv	s3,a0
20003ad8:	892e                	mv	s2,a1
20003ada:	4495                	li	s1,5
20003adc:	00f70663          	beq	a4,a5,20003ae8 <FLASH_ROM_ADDR+0x22>
20003ae0:	4519                	li	a0,6
20003ae2:	376d                	jal	20003a8c <FLASH_ROM_BEG>
20003ae4:	3f65                	jal	20003a9c <FLASH_ROM_END>
20003ae6:	448d                	li	s1,3
20003ae8:	854e                	mv	a0,s3
20003aea:	374d                	jal	20003a8c <FLASH_ROM_BEG>
20003aec:	59fd                	li	s3,-1
20003aee:	14fd                	addi	s1,s1,-1
20003af0:	01349863          	bne	s1,s3,20003b00 <FLASH_ROM_ADDR+0x3a>
20003af4:	40b2                	lw	ra,12(sp)
20003af6:	44a2                	lw	s1,8(sp)
20003af8:	4912                	lw	s2,4(sp)
20003afa:	4982                	lw	s3,0(sp)
20003afc:	0141                	addi	sp,sp,16
20003afe:	8082                	ret
20003b00:	01095513          	srli	a0,s2,0x10
20003b04:	0ff57513          	andi	a0,a0,255
20003b08:	3f45                	jal	20003ab8 <FLASH_ROM_OUT>
20003b0a:	0922                	slli	s2,s2,0x8
20003b0c:	b7cd                	j	20003aee <FLASH_ROM_ADDR+0x28>

20003b0e <FLASH_ROM_WAIT>:
FLASH_ROM_WAIT():
20003b0e:	1101                	addi	sp,sp,-32
20003b10:	cc26                	sw	s1,24(sp)
20003b12:	ce06                	sw	ra,28(sp)
20003b14:	000804b7          	lui	s1,0x80
20003b18:	3751                	jal	20003a9c <FLASH_ROM_END>
20003b1a:	4515                	li	a0,5
20003b1c:	3f85                	jal	20003a8c <FLASH_ROM_BEG>
20003b1e:	3771                	jal	20003aaa <FLASH_ROM_IN>
20003b20:	3769                	jal	20003aaa <FLASH_ROM_IN>
20003b22:	c62a                	sw	a0,12(sp)
20003b24:	3fa5                	jal	20003a9c <FLASH_ROM_END>
20003b26:	4532                	lw	a0,12(sp)
20003b28:	00157793          	andi	a5,a0,1
20003b2c:	eb89                	bnez	a5,20003b3e <FLASH_ROM_WAIT+0x30>
20003b2e:	00156513          	ori	a0,a0,1
20003b32:	0ff57513          	andi	a0,a0,255
20003b36:	40f2                	lw	ra,28(sp)
20003b38:	44e2                	lw	s1,24(sp)
20003b3a:	6105                	addi	sp,sp,32
20003b3c:	8082                	ret
20003b3e:	14fd                	addi	s1,s1,-1
20003b40:	fce9                	bnez	s1,20003b1a <FLASH_ROM_WAIT+0xc>
20003b42:	4501                	li	a0,0
20003b44:	bfcd                	j	20003b36 <FLASH_ROM_WAIT+0x28>

20003b46 <FLASH_EEPROM_CMD>:
FLASH_EEPROM_CMD():
20003b46:	7139                	addi	sp,sp,-64
20003b48:	dc26                	sw	s1,56(sp)
20003b4a:	da4a                	sw	s2,52(sp)
20003b4c:	d84e                	sw	s3,48(sp)
20003b4e:	d652                	sw	s4,44(sp)
20003b50:	d456                	sw	s5,40(sp)
20003b52:	d25a                	sw	s6,36(sp)
20003b54:	d05e                	sw	s7,32(sp)
20003b56:	ce62                	sw	s8,28(sp)
20003b58:	e000e7b7          	lui	a5,0xe000e
20003b5c:	de06                	sw	ra,60(sp)
20003b5e:	cc66                	sw	s9,24(sp)
20003b60:	ca6a                	sw	s10,20(sp)
20003b62:	4741                	li	a4,16
20003b64:	0407ab83          	lw	s7,64(a5) # e000e040 <_eusrstack+0xc0006040>
20003b68:	c622                	sw	s0,12(sp)
20003b6a:	c3b8                	sw	a4,64(a5)
20003b6c:	577d                	li	a4,-1
20003b6e:	0007ab03          	lw	s6,0(a5)
20003b72:	0047aa83          	lw	s5,4(a5)
20003b76:	18e7a023          	sw	a4,384(a5)
20003b7a:	18e7a223          	sw	a4,388(a5)
20003b7e:	400017b7          	lui	a5,0x40001
20003b82:	05700713          	li	a4,87
20003b86:	04e78023          	sb	a4,64(a5) # 40001040 <_eusrstack+0x1fff9040>
20003b8a:	fa800713          	li	a4,-88
20003b8e:	04e78023          	sb	a4,64(a5)
20003b92:	0447c783          	lbu	a5,68(a5)
20003b96:	ff750c13          	addi	s8,a0,-9
20003b9a:	84b6                	mv	s1,a3
20003b9c:	07e2                	slli	a5,a5,0x18
20003b9e:	0ffc7c13          	andi	s8,s8,255
20003ba2:	4685                	li	a3,1
20003ba4:	8a2a                	mv	s4,a0
20003ba6:	892e                	mv	s2,a1
20003ba8:	89b2                	mv	s3,a2
20003baa:	40002437          	lui	s0,0x40002
20003bae:	87e1                	srai	a5,a5,0x18
20003bb0:	5701                	li	a4,-32
20003bb2:	0186fa63          	bgeu	a3,s8,20003bc6 <FLASH_EEPROM_CMD+0x80>
20003bb6:	00d50863          	beq	a0,a3,20003bc6 <FLASH_EEPROM_CMD+0x80>
20003bba:	4689                	li	a3,2
20003bbc:	02000713          	li	a4,32
20003bc0:	00d51363          	bne	a0,a3,20003bc6 <FLASH_EEPROM_CMD+0x80>
20003bc4:	5701                	li	a4,-32
20003bc6:	8fd9                	or	a5,a5,a4
20003bc8:	0ff7f793          	andi	a5,a5,255
20003bcc:	40001d37          	lui	s10,0x40001
20003bd0:	04fd0223          	sb	a5,68(s10) # 40001044 <_eusrstack+0x1fff9044>
20003bd4:	4711                	li	a4,4
20003bd6:	80e40323          	sb	a4,-2042(s0) # 40001806 <_eusrstack+0x1fff9806>
20003bda:	0ff00513          	li	a0,255
20003bde:	357d                	jal	20003a8c <FLASH_ROM_BEG>
20003be0:	4c89                	li	s9,2
20003be2:	3d6d                	jal	20003a9c <FLASH_ROM_END>
20003be4:	118ceb63          	bltu	s9,s8,20003cfa <FLASH_EEPROM_CMD+0x1b4>
20003be8:	000707b7          	lui	a5,0x70
20003bec:	993e                	add	s2,s2,a5
20003bee:	00078737          	lui	a4,0x78
20003bf2:	5579                	li	a0,-2
20003bf4:	02e97e63          	bgeu	s2,a4,20003c30 <FLASH_EEPROM_CMD+0xea>
20003bf8:	009907b3          	add	a5,s2,s1
20003bfc:	02f76a63          	bltu	a4,a5,20003c30 <FLASH_EEPROM_CMD+0xea>
20003c00:	47a9                	li	a5,10
20003c02:	06fa1c63          	bne	s4,a5,20003c7a <FLASH_EEPROM_CMD+0x134>
20003c06:	e489                	bnez	s1,20003c10 <FLASH_EEPROM_CMD+0xca>
20003c08:	4481                	li	s1,0
20003c0a:	3d49                	jal	20003a9c <FLASH_ROM_END>
20003c0c:	8526                	mv	a0,s1
20003c0e:	a00d                	j	20003c30 <FLASH_EEPROM_CMD+0xea>
20003c10:	85ca                	mv	a1,s2
20003c12:	4509                	li	a0,2
20003c14:	3d4d                	jal	20003ac6 <FLASH_ROM_ADDR>
20003c16:	0985                	addi	s3,s3,1
20003c18:	fff9c503          	lbu	a0,-1(s3)
20003c1c:	14fd                	addi	s1,s1,-1
20003c1e:	0905                	addi	s2,s2,1
20003c20:	3d61                	jal	20003ab8 <FLASH_ROM_OUT>
20003c22:	c481                	beqz	s1,20003c2a <FLASH_EEPROM_CMD+0xe4>
20003c24:	0ff97793          	andi	a5,s2,255
20003c28:	f7fd                	bnez	a5,20003c16 <FLASH_EEPROM_CMD+0xd0>
20003c2a:	35d5                	jal	20003b0e <FLASH_ROM_WAIT>
20003c2c:	fd69                	bnez	a0,20003c06 <FLASH_EEPROM_CMD+0xc0>
20003c2e:	557d                	li	a0,-1
20003c30:	400017b7          	lui	a5,0x40001
20003c34:	05700713          	li	a4,87
20003c38:	04e78023          	sb	a4,64(a5) # 40001040 <_eusrstack+0x1fff9040>
20003c3c:	fa800713          	li	a4,-88
20003c40:	04e78023          	sb	a4,64(a5)
20003c44:	0447c703          	lbu	a4,68(a5)
20003c48:	8b41                	andi	a4,a4,16
20003c4a:	04e78223          	sb	a4,68(a5)
20003c4e:	e000e7b7          	lui	a5,0xe000e
20003c52:	0577a023          	sw	s7,64(a5) # e000e040 <_eusrstack+0xc0006040>
20003c56:	50f2                	lw	ra,60(sp)
20003c58:	1167a023          	sw	s6,256(a5)
20003c5c:	1157a223          	sw	s5,260(a5)
20003c60:	54e2                	lw	s1,56(sp)
20003c62:	4432                	lw	s0,12(sp)
20003c64:	5952                	lw	s2,52(sp)
20003c66:	59c2                	lw	s3,48(sp)
20003c68:	5a32                	lw	s4,44(sp)
20003c6a:	5aa2                	lw	s5,40(sp)
20003c6c:	5b12                	lw	s6,36(sp)
20003c6e:	5b82                	lw	s7,32(sp)
20003c70:	4c72                	lw	s8,28(sp)
20003c72:	4ce2                	lw	s9,24(sp)
20003c74:	4d52                	lw	s10,20(sp)
20003c76:	6121                	addi	sp,sp,64
20003c78:	8082                	ret
20003c7a:	47a5                	li	a5,9
20003c7c:	06fa1463          	bne	s4,a5,20003ce4 <FLASH_EEPROM_CMD+0x19e>
20003c80:	6985                	lui	s3,0x1
20003c82:	0ff00793          	li	a5,255
20003c86:	009786b3          	add	a3,a5,s1
20003c8a:	00f974b3          	and	s1,s2,a5
20003c8e:	94b6                	add	s1,s1,a3
20003c90:	fff7c793          	not	a5,a5
20003c94:	8cfd                	and	s1,s1,a5
20003c96:	0127f933          	and	s2,a5,s2
20003c9a:	6a41                	lui	s4,0x10
20003c9c:	6c05                	lui	s8,0x1
20003c9e:	fff98793          	addi	a5,s3,-1 # fff <TFT_Draw_Ellipse+0x145>
20003ca2:	0127f7b3          	and	a5,a5,s2
20003ca6:	e399                	bnez	a5,20003cac <FLASH_EEPROM_CMD+0x166>
20003ca8:	0134fc63          	bgeu	s1,s3,20003cc0 <FLASH_EEPROM_CMD+0x17a>
20003cac:	0049d993          	srli	s3,s3,0x4
20003cb0:	47c1                	li	a5,16
20003cb2:	ff37e6e3          	bltu	a5,s3,20003c9e <FLASH_EEPROM_CMD+0x158>
20003cb6:	bf89                	j	20003c08 <FLASH_EEPROM_CMD+0xc2>
20003cb8:	6785                	lui	a5,0x1
20003cba:	69c1                	lui	s3,0x10
20003cbc:	17fd                	addi	a5,a5,-1
20003cbe:	b7e1                	j	20003c86 <FLASH_EEPROM_CMD+0x140>
20003cc0:	0d800513          	li	a0,216
20003cc4:	01498863          	beq	s3,s4,20003cd4 <FLASH_EEPROM_CMD+0x18e>
20003cc8:	02000513          	li	a0,32
20003ccc:	01898463          	beq	s3,s8,20003cd4 <FLASH_EEPROM_CMD+0x18e>
20003cd0:	08100513          	li	a0,129
20003cd4:	85ca                	mv	a1,s2
20003cd6:	3bc5                	jal	20003ac6 <FLASH_ROM_ADDR>
20003cd8:	3d1d                	jal	20003b0e <FLASH_ROM_WAIT>
20003cda:	d931                	beqz	a0,20003c2e <FLASH_EEPROM_CMD+0xe8>
20003cdc:	994e                	add	s2,s2,s3
20003cde:	413484b3          	sub	s1,s1,s3
20003ce2:	b7d9                	j	20003ca8 <FLASH_EEPROM_CMD+0x162>
20003ce4:	85ca                	mv	a1,s2
20003ce6:	452d                	li	a0,11
20003ce8:	3bf9                	jal	20003ac6 <FLASH_ROM_ADDR>
20003cea:	94ce                	add	s1,s1,s3
20003cec:	f0998ee3          	beq	s3,s1,20003c08 <FLASH_EEPROM_CMD+0xc2>
20003cf0:	0985                	addi	s3,s3,1
20003cf2:	3b65                	jal	20003aaa <FLASH_ROM_IN>
20003cf4:	fea98fa3          	sb	a0,-1(s3) # ffff <_data_lma+0xbe43>
20003cf8:	bfd5                	j	20003cec <FLASH_EEPROM_CMD+0x1a6>
20003cfa:	fffa0793          	addi	a5,s4,-1 # ffff <_data_lma+0xbe43>
20003cfe:	0ff7f793          	andi	a5,a5,255
20003d02:	08fcec63          	bltu	s9,a5,20003d9a <.loop406+0x54>
20003d06:	045d4703          	lbu	a4,69(s10)
20003d0a:	000807b7          	lui	a5,0x80
20003d0e:	02077713          	andi	a4,a4,32
20003d12:	e319                	bnez	a4,20003d18 <FLASH_EEPROM_CMD+0x1d2>
20003d14:	000787b7          	lui	a5,0x78
20003d18:	5579                	li	a0,-2
20003d1a:	f0f97be3          	bgeu	s2,a5,20003c30 <FLASH_EEPROM_CMD+0xea>
20003d1e:	00990733          	add	a4,s2,s1
20003d22:	f0e7e7e3          	bltu	a5,a4,20003c30 <FLASH_EEPROM_CMD+0xea>
20003d26:	4789                	li	a5,2
20003d28:	04fa1063          	bne	s4,a5,20003d68 <.loop406+0x22>
20003d2c:	8089                	srli	s1,s1,0x2
20003d2e:	4a55                	li	s4,21
20003d30:	ec048ce3          	beqz	s1,20003c08 <FLASH_EEPROM_CMD+0xc2>
20003d34:	85ca                	mv	a1,s2
20003d36:	4509                	li	a0,2
20003d38:	3379                	jal	20003ac6 <FLASH_ROM_ADDR>
20003d3a:	0991                	addi	s3,s3,4
20003d3c:	ffc9a703          	lw	a4,-4(s3)
20003d40:	4791                	li	a5,4
20003d42:	80e42023          	sw	a4,-2048(s0)

20003d46 <.loop406>:
20003d46:	80640703          	lb	a4,-2042(s0)
20003d4a:	fe074ee3          	bltz	a4,20003d46 <.loop406>
20003d4e:	81440323          	sb	s4,-2042(s0)
20003d52:	17fd                	addi	a5,a5,-1
20003d54:	fbed                	bnez	a5,20003d46 <.loop406>
20003d56:	14fd                	addi	s1,s1,-1
20003d58:	0911                	addi	s2,s2,4
20003d5a:	c481                	beqz	s1,20003d62 <.loop406+0x1c>
20003d5c:	0ff97793          	andi	a5,s2,255
20003d60:	ffe9                	bnez	a5,20003d3a <FLASH_EEPROM_CMD+0x1f4>
20003d62:	3375                	jal	20003b0e <FLASH_ROM_WAIT>
20003d64:	f571                	bnez	a0,20003d30 <FLASH_EEPROM_CMD+0x1ea>
20003d66:	b5e1                	j	20003c2e <FLASH_EEPROM_CMD+0xe8>
20003d68:	4785                	li	a5,1
20003d6a:	f4fa07e3          	beq	s4,a5,20003cb8 <FLASH_EEPROM_CMD+0x172>
20003d6e:	85ca                	mv	a1,s2
20003d70:	452d                	li	a0,11
20003d72:	3b91                	jal	20003ac6 <FLASH_ROM_ADDR>
20003d74:	fff48913          	addi	s2,s1,-1 # 7ffff <_data_lma+0x7be43>
20003d78:	e80488e3          	beqz	s1,20003c08 <FLASH_EEPROM_CMD+0xc2>
20003d7c:	333d                	jal	20003aaa <FLASH_ROM_IN>
20003d7e:	00397793          	andi	a5,s2,3
20003d82:	eb91                	bnez	a5,20003d96 <.loop406+0x50>
20003d84:	80042683          	lw	a3,-2048(s0)
20003d88:	0009a703          	lw	a4,0(s3)
20003d8c:	00498793          	addi	a5,s3,4
20003d90:	e6e69de3          	bne	a3,a4,20003c0a <FLASH_EEPROM_CMD+0xc4>
20003d94:	89be                	mv	s3,a5
20003d96:	84ca                	mv	s1,s2
20003d98:	bff1                	j	20003d74 <.loop406+0x2e>
20003d9a:	47b5                	li	a5,13
20003d9c:	00fa1663          	bne	s4,a5,20003da8 <.loop406+0x62>
20003da0:	0b900513          	li	a0,185
20003da4:	31e5                	jal	20003a8c <FLASH_ROM_BEG>
20003da6:	b58d                	j	20003c08 <FLASH_EEPROM_CMD+0xc2>
20003da8:	47b1                	li	a5,12
20003daa:	0ab00513          	li	a0,171
20003dae:	fefa0be3          	beq	s4,a5,20003da4 <.loop406+0x5e>
20003db2:	4799                	li	a5,6
20003db4:	02fa1e63          	bne	s4,a5,20003df0 <.loop406+0xaa>
20003db8:	85ca                	mv	a1,s2
20003dba:	452d                	li	a0,11
20003dbc:	3329                	jal	20003ac6 <FLASH_ROM_ADDR>
20003dbe:	4481                	li	s1,0
20003dc0:	4c0d                	li	s8,3
20003dc2:	4a21                	li	s4,8
20003dc4:	31dd                	jal	20003aaa <FLASH_ROM_IN>
20003dc6:	01849663          	bne	s1,s8,20003dd2 <.loop406+0x8c>
20003dca:	80042783          	lw	a5,-2048(s0)
20003dce:	00f9a023          	sw	a5,0(s3)
20003dd2:	0485                	addi	s1,s1,1
20003dd4:	ff4498e3          	bne	s1,s4,20003dc4 <.loop406+0x7e>
20003dd8:	80042783          	lw	a5,-2048(s0)
20003ddc:	01291713          	slli	a4,s2,0x12
20003de0:	00075563          	bgez	a4,20003dea <.loop406+0xa4>
20003de4:	00f99223          	sh	a5,4(s3)
20003de8:	b505                	j	20003c08 <FLASH_EEPROM_CMD+0xc2>
20003dea:	00f9a223          	sw	a5,4(s3)
20003dee:	bd29                	j	20003c08 <FLASH_EEPROM_CMD+0xc2>
20003df0:	479d                	li	a5,7
20003df2:	02fa1963          	bne	s4,a5,20003e24 <.loop406+0xde>
20003df6:	4581                	li	a1,0
20003df8:	04b00513          	li	a0,75
20003dfc:	31e9                	jal	20003ac6 <FLASH_ROM_ADDR>
20003dfe:	44bd                	li	s1,15
20003e00:	0009a023          	sw	zero,0(s3)
20003e04:	0009a223          	sw	zero,4(s3)
20003e08:	597d                	li	s2,-1
20003e0a:	3145                	jal	20003aaa <FLASH_ROM_IN>
20003e0c:	0074f793          	andi	a5,s1,7
20003e10:	97ce                	add	a5,a5,s3
20003e12:	0007c703          	lbu	a4,0(a5) # 78000 <_data_lma+0x73e44>
20003e16:	14fd                	addi	s1,s1,-1
20003e18:	8d39                	xor	a0,a0,a4
20003e1a:	00a78023          	sb	a0,0(a5)
20003e1e:	ff2496e3          	bne	s1,s2,20003e0a <.loop406+0xc4>
20003e22:	b3dd                	j	20003c08 <FLASH_EEPROM_CMD+0xc2>
20003e24:	47a1                	li	a5,8
20003e26:	04fa1263          	bne	s4,a5,20003e6a <.loop406+0x124>
20003e2a:	31d5                	jal	20003b0e <FLASH_ROM_WAIT>
20003e2c:	4481                	li	s1,0
20003e2e:	00090d63          	beqz	s2,20003e48 <.loop406+0x102>
20003e32:	478d                	li	a5,3
20003e34:	03c00493          	li	s1,60
20003e38:	00f90863          	beq	s2,a5,20003e48 <.loop406+0x102>
20003e3c:	05000493          	li	s1,80
20003e40:	01990463          	beq	s2,s9,20003e48 <.loop406+0x102>
20003e44:	04400493          	li	s1,68
20003e48:	07c57513          	andi	a0,a0,124
20003e4c:	da950ee3          	beq	a0,s1,20003c08 <FLASH_EEPROM_CMD+0xc2>
20003e50:	4519                	li	a0,6
20003e52:	392d                	jal	20003a8c <FLASH_ROM_BEG>
20003e54:	31a1                	jal	20003a9c <FLASH_ROM_END>
20003e56:	4505                	li	a0,1
20003e58:	3915                	jal	20003a8c <FLASH_ROM_BEG>
20003e5a:	8526                	mv	a0,s1
20003e5c:	39b1                	jal	20003ab8 <FLASH_ROM_OUT>
20003e5e:	4509                	li	a0,2
20003e60:	39a1                	jal	20003ab8 <FLASH_ROM_OUT>
20003e62:	3175                	jal	20003b0e <FLASH_ROM_WAIT>
20003e64:	da0512e3          	bnez	a0,20003c08 <FLASH_EEPROM_CMD+0xc2>
20003e68:	b3d9                	j	20003c2e <FLASH_EEPROM_CMD+0xe8>
20003e6a:	4791                	li	a5,4
20003e6c:	00fa1963          	bne	s4,a5,20003e7e <.loop406+0x138>
20003e70:	06600513          	li	a0,102
20003e74:	3921                	jal	20003a8c <FLASH_ROM_BEG>
20003e76:	311d                	jal	20003a9c <FLASH_ROM_END>
20003e78:	09900513          	li	a0,153
20003e7c:	b725                	j	20003da4 <.loop406+0x5e>
20003e7e:	d80a05e3          	beqz	s4,20003c08 <FLASH_EEPROM_CMD+0xc2>
20003e82:	54f1                	li	s1,-4
20003e84:	b359                	j	20003c0a <FLASH_EEPROM_CMD+0xc4>
	...

Disassembly of section .text:

0000068c <handle_reset>:
handle_reset():
d:\CH573FEVT\LaserRangeFinder\obj/../Startup/startup_CH573.S:116
	.weak	handle_reset
	.align	1
handle_reset:
.option push 
.option	norelax 
	la gp, __global_pointer$
     68c:	20004197          	auipc	gp,0x20004
     690:	1d418193          	addi	gp,gp,468 # 20004860 <__global_pointer$>
d:\CH573FEVT\LaserRangeFinder\obj/../Startup/startup_CH573.S:119
.option	pop 
1:
	la sp, _eusrstack 
     694:	20008117          	auipc	sp,0x20008
     698:	96c10113          	addi	sp,sp,-1684 # 20008000 <_eusrstack>
d:\CH573FEVT\LaserRangeFinder\obj/../Startup/startup_CH573.S:123

/* Load highcode code  section from flash to RAM */
2:
    la a0, _highcode_lma
     69c:	00400513          	li	a0,4
d:\CH573FEVT\LaserRangeFinder\obj/../Startup/startup_CH573.S:124
    la a1, _highcode_vma_start
     6a0:	20003597          	auipc	a1,0x20003
     6a4:	16058593          	addi	a1,a1,352 # 20003800 <_highcode_vma_start>
d:\CH573FEVT\LaserRangeFinder\obj/../Startup/startup_CH573.S:125
    la a2, _highcode_vma_end
     6a8:	20003617          	auipc	a2,0x20003
     6ac:	7e060613          	addi	a2,a2,2016 # 20003e88 <_highcode_vma_end>
d:\CH573FEVT\LaserRangeFinder\obj/../Startup/startup_CH573.S:126
    bgeu a1, a2, 2f
     6b0:	00c5fa63          	bgeu	a1,a2,6c4 <handle_reset+0x38>
d:\CH573FEVT\LaserRangeFinder\obj/../Startup/startup_CH573.S:128
1:
    lw t0, (a0)
     6b4:	00052283          	lw	t0,0(a0)
d:\CH573FEVT\LaserRangeFinder\obj/../Startup/startup_CH573.S:129
    sw t0, (a1)
     6b8:	0055a023          	sw	t0,0(a1)
d:\CH573FEVT\LaserRangeFinder\obj/../Startup/startup_CH573.S:130
    addi a0, a0, 4
     6bc:	0511                	addi	a0,a0,4
d:\CH573FEVT\LaserRangeFinder\obj/../Startup/startup_CH573.S:131
    addi a1, a1, 4
     6be:	0591                	addi	a1,a1,4
d:\CH573FEVT\LaserRangeFinder\obj/../Startup/startup_CH573.S:132
    bltu a1, a2, 1b
     6c0:	fec5eae3          	bltu	a1,a2,6b4 <handle_reset+0x28>
d:\CH573FEVT\LaserRangeFinder\obj/../Startup/startup_CH573.S:136

/* Load data section from flash to RAM */
2:
	la a0, _data_lma
     6c4:	00004517          	auipc	a0,0x4
     6c8:	af850513          	addi	a0,a0,-1288 # 41bc <_data_lma>
d:\CH573FEVT\LaserRangeFinder\obj/../Startup/startup_CH573.S:137
	la a1, _data_vma
     6cc:	20004597          	auipc	a1,0x20004
     6d0:	93458593          	addi	a1,a1,-1740 # 20004000 <_data_vma>
d:\CH573FEVT\LaserRangeFinder\obj/../Startup/startup_CH573.S:138
	la a2, _edata
     6d4:	80818613          	addi	a2,gp,-2040 # 20004068 <_edata>
d:\CH573FEVT\LaserRangeFinder\obj/../Startup/startup_CH573.S:139
	bgeu a1, a2, 2f
     6d8:	00c5fa63          	bgeu	a1,a2,6ec <handle_reset+0x60>
d:\CH573FEVT\LaserRangeFinder\obj/../Startup/startup_CH573.S:141
1:
	lw t0, (a0)
     6dc:	00052283          	lw	t0,0(a0)
d:\CH573FEVT\LaserRangeFinder\obj/../Startup/startup_CH573.S:142
	sw t0, (a1)
     6e0:	0055a023          	sw	t0,0(a1)
d:\CH573FEVT\LaserRangeFinder\obj/../Startup/startup_CH573.S:143
	addi a0, a0, 4
     6e4:	0511                	addi	a0,a0,4
d:\CH573FEVT\LaserRangeFinder\obj/../Startup/startup_CH573.S:144
	addi a1, a1, 4
     6e6:	0591                	addi	a1,a1,4
d:\CH573FEVT\LaserRangeFinder\obj/../Startup/startup_CH573.S:145
	bltu a1, a2, 1b
     6e8:	fec5eae3          	bltu	a1,a2,6dc <handle_reset+0x50>
d:\CH573FEVT\LaserRangeFinder\obj/../Startup/startup_CH573.S:148
2:
	/* clear bss section */
	la a0, _sbss
     6ec:	80818513          	addi	a0,gp,-2040 # 20004068 <_edata>
d:\CH573FEVT\LaserRangeFinder\obj/../Startup/startup_CH573.S:149
	la a1, _ebss
     6f0:	85018593          	addi	a1,gp,-1968 # 200040b0 <_ebss>
d:\CH573FEVT\LaserRangeFinder\obj/../Startup/startup_CH573.S:150
	bgeu a0, a1, 2f
     6f4:	00b57763          	bgeu	a0,a1,702 <handle_reset+0x76>
d:\CH573FEVT\LaserRangeFinder\obj/../Startup/startup_CH573.S:152
1:
	sw zero, (a0)
     6f8:	00052023          	sw	zero,0(a0)
d:\CH573FEVT\LaserRangeFinder\obj/../Startup/startup_CH573.S:153
	addi a0, a0, 4
     6fc:	0511                	addi	a0,a0,4
d:\CH573FEVT\LaserRangeFinder\obj/../Startup/startup_CH573.S:154
	bltu a0, a1, 1b
     6fe:	feb56de3          	bltu	a0,a1,6f8 <handle_reset+0x6c>
d:\CH573FEVT\LaserRangeFinder\obj/../Startup/startup_CH573.S:156
2:
    li t0, 0x88
     702:	08800293          	li	t0,136
d:\CH573FEVT\LaserRangeFinder\obj/../Startup/startup_CH573.S:157
    csrs mstatus, t0
     706:	3002a073          	csrs	mstatus,t0
d:\CH573FEVT\LaserRangeFinder\obj/../Startup/startup_CH573.S:158
	la t0, _vector_base
     70a:	20003297          	auipc	t0,0x20003
     70e:	0f628293          	addi	t0,t0,246 # 20003800 <_highcode_vma_start>
d:\CH573FEVT\LaserRangeFinder\obj/../Startup/startup_CH573.S:159
    ori t0, t0, 1
     712:	0012e293          	ori	t0,t0,1
d:\CH573FEVT\LaserRangeFinder\obj/../Startup/startup_CH573.S:160
	csrw mtvec, t0
     716:	30529073          	csrw	mtvec,t0
d:\CH573FEVT\LaserRangeFinder\obj/../Startup/startup_CH573.S:162

    lui a4,0x40001
     71a:	40001737          	lui	a4,0x40001
d:\CH573FEVT\LaserRangeFinder\obj/../Startup/startup_CH573.S:163
    li  a5,87
     71e:	05700793          	li	a5,87
d:\CH573FEVT\LaserRangeFinder\obj/../Startup/startup_CH573.S:164
    sb  a5,64(a4)
     722:	04f70023          	sb	a5,64(a4) # 40001040 <_eusrstack+0x1fff9040>
d:\CH573FEVT\LaserRangeFinder\obj/../Startup/startup_CH573.S:165
    li  a5,-88
     726:	fa800793          	li	a5,-88
d:\CH573FEVT\LaserRangeFinder\obj/../Startup/startup_CH573.S:166
    sb  a5,64(a4)
     72a:	04f70023          	sb	a5,64(a4)
d:\CH573FEVT\LaserRangeFinder\obj/../Startup/startup_CH573.S:167
    fence.i
     72e:	0000100f          	fence.i
d:\CH573FEVT\LaserRangeFinder\obj/../Startup/startup_CH573.S:168
    lw  a5,72(a4)
     732:	473c                	lw	a5,72(a4)
d:\CH573FEVT\LaserRangeFinder\obj/../Startup/startup_CH573.S:169
    lui a3,0xfa000
     734:	fa0006b7          	lui	a3,0xfa000
d:\CH573FEVT\LaserRangeFinder\obj/../Startup/startup_CH573.S:170
    addi  a3,a3,-8
     738:	16e1                	addi	a3,a3,-8
d:\CH573FEVT\LaserRangeFinder\obj/../Startup/startup_CH573.S:171
    and a5,a5,a3
     73a:	8ff5                	and	a5,a5,a3
d:\CH573FEVT\LaserRangeFinder\obj/../Startup/startup_CH573.S:172
    lui a3,0x6000
     73c:	060006b7          	lui	a3,0x6000
d:\CH573FEVT\LaserRangeFinder\obj/../Startup/startup_CH573.S:173
    addi a3,a3,5
     740:	0695                	addi	a3,a3,5
d:\CH573FEVT\LaserRangeFinder\obj/../Startup/startup_CH573.S:174
    or  a5,a5,a3
     742:	8fd5                	or	a5,a5,a3
d:\CH573FEVT\LaserRangeFinder\obj/../Startup/startup_CH573.S:175
    sw  a5,72(a4)
     744:	c73c                	sw	a5,72(a4)
d:\CH573FEVT\LaserRangeFinder\obj/../Startup/startup_CH573.S:177

	la t0, main
     746:	00001297          	auipc	t0,0x1
     74a:	63428293          	addi	t0,t0,1588 # 1d7a <main>
d:\CH573FEVT\LaserRangeFinder\obj/../Startup/startup_CH573.S:178
	csrw mepc, t0
     74e:	34129073          	csrw	mepc,t0
d:\CH573FEVT\LaserRangeFinder\obj/../Startup/startup_CH573.S:185
	/* enable vector relocation
	li t0, 0xE000ED14
	li t1, 1
	sw t1, 0(t0)*/
	
	mret
     752:	30200073          	mret

00000756 <memset>:
memset():
     756:	433d                	li	t1,15
     758:	872a                	mv	a4,a0
     75a:	02c37363          	bgeu	t1,a2,780 <memset+0x2a>
     75e:	00f77793          	andi	a5,a4,15
     762:	efbd                	bnez	a5,7e0 <memset+0x8a>
     764:	e5ad                	bnez	a1,7ce <memset+0x78>
     766:	ff067693          	andi	a3,a2,-16
     76a:	8a3d                	andi	a2,a2,15
     76c:	96ba                	add	a3,a3,a4
     76e:	c30c                	sw	a1,0(a4)
     770:	c34c                	sw	a1,4(a4)
     772:	c70c                	sw	a1,8(a4)
     774:	c74c                	sw	a1,12(a4)
     776:	0741                	addi	a4,a4,16
     778:	fed76be3          	bltu	a4,a3,76e <memset+0x18>
     77c:	e211                	bnez	a2,780 <memset+0x2a>
     77e:	8082                	ret
     780:	40c306b3          	sub	a3,t1,a2
     784:	068a                	slli	a3,a3,0x2
     786:	00000297          	auipc	t0,0x0
     78a:	9696                	add	a3,a3,t0
     78c:	00a68067          	jr	10(a3) # 600000a <_data_lma+0x5ffbe4e>
     790:	00b70723          	sb	a1,14(a4)
     794:	00b706a3          	sb	a1,13(a4)
     798:	00b70623          	sb	a1,12(a4)
     79c:	00b705a3          	sb	a1,11(a4)
     7a0:	00b70523          	sb	a1,10(a4)
     7a4:	00b704a3          	sb	a1,9(a4)
     7a8:	00b70423          	sb	a1,8(a4)
     7ac:	00b703a3          	sb	a1,7(a4)
     7b0:	00b70323          	sb	a1,6(a4)
     7b4:	00b702a3          	sb	a1,5(a4)
     7b8:	00b70223          	sb	a1,4(a4)
     7bc:	00b701a3          	sb	a1,3(a4)
     7c0:	00b70123          	sb	a1,2(a4)
     7c4:	00b700a3          	sb	a1,1(a4)
     7c8:	00b70023          	sb	a1,0(a4)
     7cc:	8082                	ret
     7ce:	0ff5f593          	andi	a1,a1,255
     7d2:	00859693          	slli	a3,a1,0x8
     7d6:	8dd5                	or	a1,a1,a3
     7d8:	01059693          	slli	a3,a1,0x10
     7dc:	8dd5                	or	a1,a1,a3
     7de:	b761                	j	766 <memset+0x10>
     7e0:	00279693          	slli	a3,a5,0x2
     7e4:	00000297          	auipc	t0,0x0
     7e8:	9696                	add	a3,a3,t0
     7ea:	8286                	mv	t0,ra
     7ec:	fa8680e7          	jalr	-88(a3)
     7f0:	8096                	mv	ra,t0
     7f2:	17c1                	addi	a5,a5,-16
     7f4:	8f1d                	sub	a4,a4,a5
     7f6:	963e                	add	a2,a2,a5
     7f8:	f8c374e3          	bgeu	t1,a2,780 <memset+0x2a>
     7fc:	b7a5                	j	764 <memset+0xe>

000007fe <TFT_Draw_MultiPoint.part.0>:
TFT_Draw_MultiPoint():
d:\CH573FEVT\LaserRangeFinder\obj/../src/TFTc/TFT_CAD.c:42
 * @param  points  瑰扮
 * @param  count   圭伴
 * @param  color   圭棰 (RGB565煎)
 * @retval 
 */
void TFT_Draw_MultiPoint(TFT_HandleTypeDef *htft, const TFT_Point points[], uint16_t count, uint16_t color)
     7fe:	1101                	addi	sp,sp,-32
     800:	cc22                	sw	s0,24(sp)
     802:	ca26                	sw	s1,20(sp)
     804:	c84a                	sw	s2,16(sp)
     806:	c64e                	sw	s3,12(sp)
     808:	c452                	sw	s4,8(sp)
     80a:	ce06                	sw	ra,28(sp)
     80c:	892a                	mv	s2,a0
     80e:	842e                	mv	s0,a1
     810:	89b2                	mv	s3,a2
     812:	8a36                	mv	s4,a3
d:\CH573FEVT\LaserRangeFinder\obj/../src/TFTc/TFT_CAD.c:52
	}

	// 缃缂插虹‘淇浠绌虹缂插哄濮
	TFT_Reset_Buffer(htft);

	for (uint16_t i = 0; i < count; i++)
     814:	4481                	li	s1,0
d:\CH573FEVT\LaserRangeFinder\obj/../src/TFTc/TFT_CAD.c:50
	TFT_Reset_Buffer(htft);
     816:	1b6010ef          	jal	ra,19cc <TFT_Reset_Buffer>
d:\CH573FEVT\LaserRangeFinder\obj/../src/TFTc/TFT_CAD.c:52
	for (uint16_t i = 0; i < count; i++)
     81a:	01349d63          	bne	s1,s3,834 <TFT_Draw_MultiPoint.part.0+0x36>
d:\CH573FEVT\LaserRangeFinder\obj/../src/TFTc/TFT_CAD.c:60
		TFT_Buffer_Write16(htft, color);										   // 灏棰插ョ插
	}

	// 纭淇缂茬归借
	TFT_Flush_Buffer(htft, 1);
}
     81e:	4462                	lw	s0,24(sp)
     820:	40f2                	lw	ra,28(sp)
     822:	44d2                	lw	s1,20(sp)
     824:	49b2                	lw	s3,12(sp)
     826:	4a22                	lw	s4,8(sp)
d:\CH573FEVT\LaserRangeFinder\obj/../src/TFTc/TFT_CAD.c:59
	TFT_Flush_Buffer(htft, 1);
     828:	854a                	mv	a0,s2
d:\CH573FEVT\LaserRangeFinder\obj/../src/TFTc/TFT_CAD.c:60
}
     82a:	4942                	lw	s2,16(sp)
d:\CH573FEVT\LaserRangeFinder\obj/../src/TFTc/TFT_CAD.c:59
	TFT_Flush_Buffer(htft, 1);
     82c:	4585                	li	a1,1
d:\CH573FEVT\LaserRangeFinder\obj/../src/TFTc/TFT_CAD.c:60
}
     82e:	6105                	addi	sp,sp,32
d:\CH573FEVT\LaserRangeFinder\obj/../src/TFTc/TFT_CAD.c:59
	TFT_Flush_Buffer(htft, 1);
     830:	11a0106f          	j	194a <TFT_Flush_Buffer>
d:\CH573FEVT\LaserRangeFinder\obj/../src/TFTc/TFT_CAD.c:54
		TFT_Set_Address(htft, points[i].x, points[i].y, points[i].x, points[i].y); // 璁剧疆涓瑰板
     834:	00045683          	lhu	a3,0(s0)
     838:	00245703          	lhu	a4,2(s0)
     83c:	854a                	mv	a0,s2
     83e:	85b6                	mv	a1,a3
     840:	863a                	mv	a2,a4
     842:	296010ef          	jal	ra,1ad8 <TFT_Set_Address>
d:\CH573FEVT\LaserRangeFinder\obj/../src/TFTc/TFT_CAD.c:52
	for (uint16_t i = 0; i < count; i++)
     846:	0485                	addi	s1,s1,1
d:\CH573FEVT\LaserRangeFinder\obj/../src/TFTc/TFT_CAD.c:55
		TFT_Buffer_Write16(htft, color);										   // 灏棰插ョ插
     848:	85d2                	mv	a1,s4
     84a:	854a                	mv	a0,s2
d:\CH573FEVT\LaserRangeFinder\obj/../src/TFTc/TFT_CAD.c:52
	for (uint16_t i = 0; i < count; i++)
     84c:	04c2                	slli	s1,s1,0x10
d:\CH573FEVT\LaserRangeFinder\obj/../src/TFTc/TFT_CAD.c:55
		TFT_Buffer_Write16(htft, color);										   // 灏棰插ョ插
     84e:	122010ef          	jal	ra,1970 <TFT_Buffer_Write16>
d:\CH573FEVT\LaserRangeFinder\obj/../src/TFTc/TFT_CAD.c:52
	for (uint16_t i = 0; i < count; i++)
     852:	80c1                	srli	s1,s1,0x10
     854:	0411                	addi	s0,s0,4
     856:	b7d1                	j	81a <TFT_Draw_MultiPoint.part.0+0x1c>

00000858 <TFT_Draw_Point>:
TFT_Draw_Point():
d:\CH573FEVT\LaserRangeFinder\obj/../src/TFTc/TFT_CAD.c:29
{
     858:	1141                	addi	sp,sp,-16
     85a:	c226                	sw	s1,4(sp)
d:\CH573FEVT\LaserRangeFinder\obj/../src/TFTc/TFT_CAD.c:30
	TFT_Set_Address(htft, x, y, x, y); // 璁剧疆浣缃板涓
     85c:	8732                	mv	a4,a2
d:\CH573FEVT\LaserRangeFinder\obj/../src/TFTc/TFT_CAD.c:29
{
     85e:	84b6                	mv	s1,a3
d:\CH573FEVT\LaserRangeFinder\obj/../src/TFTc/TFT_CAD.c:30
	TFT_Set_Address(htft, x, y, x, y); // 璁剧疆浣缃板涓
     860:	86ae                	mv	a3,a1
d:\CH573FEVT\LaserRangeFinder\obj/../src/TFTc/TFT_CAD.c:29
{
     862:	c422                	sw	s0,8(sp)
     864:	c606                	sw	ra,12(sp)
     866:	842a                	mv	s0,a0
d:\CH573FEVT\LaserRangeFinder\obj/../src/TFTc/TFT_CAD.c:30
	TFT_Set_Address(htft, x, y, x, y); // 璁剧疆浣缃板涓
     868:	270010ef          	jal	ra,1ad8 <TFT_Set_Address>
d:\CH573FEVT\LaserRangeFinder\obj/../src/TFTc/TFT_CAD.c:31
	TFT_Write_Data16(htft, color);	   // 瀵逛癸存ュュ冲 (诲)
     86c:	8522                	mv	a0,s0
d:\CH573FEVT\LaserRangeFinder\obj/../src/TFTc/TFT_CAD.c:32
}
     86e:	4422                	lw	s0,8(sp)
     870:	40b2                	lw	ra,12(sp)
d:\CH573FEVT\LaserRangeFinder\obj/../src/TFTc/TFT_CAD.c:31
	TFT_Write_Data16(htft, color);	   // 瀵逛癸存ュュ冲 (诲)
     872:	85a6                	mv	a1,s1
d:\CH573FEVT\LaserRangeFinder\obj/../src/TFTc/TFT_CAD.c:32
}
     874:	4492                	lw	s1,4(sp)
     876:	0141                	addi	sp,sp,16
d:\CH573FEVT\LaserRangeFinder\obj/../src/TFTc/TFT_CAD.c:31
	TFT_Write_Data16(htft, color);	   // 瀵逛癸存ュュ冲 (诲)
     878:	1ea0106f          	j	1a62 <TFT_Write_Data16>

0000087c <TFT_Fill_Area>:
TFT_Fill_Area():
d:\CH573FEVT\LaserRangeFinder\obj/../src/TFTc/TFT_CAD.c:75
 * @retval 
 */
void TFT_Fill_Area(TFT_HandleTypeDef *htft, uint16_t x_start, uint16_t y_start, uint16_t x_end, uint16_t y_end, uint16_t color)
{
	// 妫ュэ叉 x_end <= x_start  y_end <= y_start
	if (x_end <= x_start || y_end <= y_start)
     87c:	06d5f763          	bgeu	a1,a3,8ea <TFT_Fill_Area+0x6e>
d:\CH573FEVT\LaserRangeFinder\obj/../src/TFTc/TFT_CAD.c:75 (discriminator 1)
     880:	06e67563          	bgeu	a2,a4,8ea <TFT_Fill_Area+0x6e>
d:\CH573FEVT\LaserRangeFinder\obj/../src/TFTc/TFT_CAD.c:73
{
     884:	1101                	addi	sp,sp,-32
     886:	cc22                	sw	s0,24(sp)
d:\CH573FEVT\LaserRangeFinder\obj/../src/TFTc/TFT_CAD.c:78
		return;

	uint32_t total_pixels = (uint32_t)(x_end - x_start) * (y_end - y_start);
     888:	40c70833          	sub	a6,a4,a2
     88c:	40b68433          	sub	s0,a3,a1
     890:	03040433          	mul	s0,s0,a6
d:\CH573FEVT\LaserRangeFinder\obj/../src/TFTc/TFT_CAD.c:73
{
     894:	ce06                	sw	ra,28(sp)
     896:	ca26                	sw	s1,20(sp)
     898:	c84a                	sw	s2,16(sp)
     89a:	c64e                	sw	s3,12(sp)
d:\CH573FEVT\LaserRangeFinder\obj/../src/TFTc/TFT_CAD.c:79
	if (total_pixels == 0)
     89c:	c021                	beqz	s0,8dc <TFT_Fill_Area+0x60>
d:\CH573FEVT\LaserRangeFinder\obj/../src/TFTc/TFT_CAD.c:82
		return;

	TFT_Set_Address(htft, x_start, y_start, x_end - 1, y_end - 1); // 璁剧疆剧ず (Set_Address 浣跨ㄥ)
     89e:	177d                	addi	a4,a4,-1
     8a0:	16fd                	addi	a3,a3,-1
     8a2:	0742                	slli	a4,a4,0x10
     8a4:	06c2                	slli	a3,a3,0x10
     8a6:	8341                	srli	a4,a4,0x10
     8a8:	82c1                	srli	a3,a3,0x10
     8aa:	84aa                	mv	s1,a0
     8ac:	89be                	mv	s3,a5
     8ae:	22a010ef          	jal	ra,1ad8 <TFT_Set_Address>
d:\CH573FEVT\LaserRangeFinder\obj/../src/TFTc/TFT_CAD.c:85

	// 缃缂插轰互纭淇浠涓涓骞插缂插哄濮
	TFT_Reset_Buffer(htft);
     8b2:	8526                	mv	a0,s1
     8b4:	118010ef          	jal	ra,19cc <TFT_Reset_Buffer>
d:\CH573FEVT\LaserRangeFinder\obj/../src/TFTc/TFT_CAD.c:88

	// 归濉绱锛╃ㄧ插烘楂ц
	for (uint32_t i = 0; i < total_pixels; i++)
     8b8:	4901                	li	s2,0
d:\CH573FEVT\LaserRangeFinder\obj/../src/TFTc/TFT_CAD.c:90
	{
		TFT_Buffer_Write16(htft, color); // ラ叉版扮插猴缂插烘弧朵ㄥ
     8ba:	85ce                	mv	a1,s3
     8bc:	8526                	mv	a0,s1
d:\CH573FEVT\LaserRangeFinder\obj/../src/TFTc/TFT_CAD.c:88
	for (uint32_t i = 0; i < total_pixels; i++)
     8be:	0905                	addi	s2,s2,1
d:\CH573FEVT\LaserRangeFinder\obj/../src/TFTc/TFT_CAD.c:90
		TFT_Buffer_Write16(htft, color); // ラ叉版扮插猴缂插烘弧朵ㄥ
     8c0:	0b0010ef          	jal	ra,1970 <TFT_Buffer_Write16>
d:\CH573FEVT\LaserRangeFinder\obj/../src/TFTc/TFT_CAD.c:88
	for (uint32_t i = 0; i < total_pixels; i++)
     8c4:	ff241be3          	bne	s0,s2,8ba <TFT_Fill_Area+0x3e>
d:\CH573FEVT\LaserRangeFinder\obj/../src/TFTc/TFT_CAD.c:95
	}

	// 纭淇╀版借
	TFT_Flush_Buffer(htft, 1);
}
     8c8:	4462                	lw	s0,24(sp)
     8ca:	40f2                	lw	ra,28(sp)
     8cc:	4942                	lw	s2,16(sp)
     8ce:	49b2                	lw	s3,12(sp)
d:\CH573FEVT\LaserRangeFinder\obj/../src/TFTc/TFT_CAD.c:94
	TFT_Flush_Buffer(htft, 1);
     8d0:	8526                	mv	a0,s1
d:\CH573FEVT\LaserRangeFinder\obj/../src/TFTc/TFT_CAD.c:95
}
     8d2:	44d2                	lw	s1,20(sp)
d:\CH573FEVT\LaserRangeFinder\obj/../src/TFTc/TFT_CAD.c:94
	TFT_Flush_Buffer(htft, 1);
     8d4:	4585                	li	a1,1
d:\CH573FEVT\LaserRangeFinder\obj/../src/TFTc/TFT_CAD.c:95
}
     8d6:	6105                	addi	sp,sp,32
d:\CH573FEVT\LaserRangeFinder\obj/../src/TFTc/TFT_CAD.c:94
	TFT_Flush_Buffer(htft, 1);
     8d8:	0720106f          	j	194a <TFT_Flush_Buffer>
d:\CH573FEVT\LaserRangeFinder\obj/../src/TFTc/TFT_CAD.c:95
}
     8dc:	40f2                	lw	ra,28(sp)
     8de:	4462                	lw	s0,24(sp)
     8e0:	44d2                	lw	s1,20(sp)
     8e2:	4942                	lw	s2,16(sp)
     8e4:	49b2                	lw	s3,12(sp)
     8e6:	6105                	addi	sp,sp,32
     8e8:	8082                	ret
     8ea:	8082                	ret

000008ec <TFT_Draw_Fast_HLine>:
TFT_Draw_Fast_HLine():
d:\CH573FEVT\LaserRangeFinder\obj/../src/TFTc/TFT_CAD.c:108
 * @param  color   绾跨棰 (RGB565煎)
 * @retval 
 */
void TFT_Draw_Fast_HLine(TFT_HandleTypeDef *htft, uint16_t x, uint16_t y, uint16_t width, uint16_t color)
{
	if (width == 0)
     8ec:	cab1                	beqz	a3,940 <TFT_Draw_Fast_HLine+0x54>
d:\CH573FEVT\LaserRangeFinder\obj/../src/TFTc/TFT_CAD.c:111
		return;

	TFT_Set_Address(htft, x, y, x + width - 1, y); // 璁剧疆板绐
     8ee:	fff58793          	addi	a5,a1,-1
d:\CH573FEVT\LaserRangeFinder\obj/../src/TFTc/TFT_CAD.c:107
{
     8f2:	1101                	addi	sp,sp,-32
d:\CH573FEVT\LaserRangeFinder\obj/../src/TFTc/TFT_CAD.c:111
	TFT_Set_Address(htft, x, y, x + width - 1, y); // 璁剧疆板绐
     8f4:	97b6                	add	a5,a5,a3
d:\CH573FEVT\LaserRangeFinder\obj/../src/TFTc/TFT_CAD.c:107
{
     8f6:	c84a                	sw	s2,16(sp)
     8f8:	8936                	mv	s2,a3
d:\CH573FEVT\LaserRangeFinder\obj/../src/TFTc/TFT_CAD.c:111
	TFT_Set_Address(htft, x, y, x + width - 1, y); // 璁剧疆板绐
     8fa:	01079693          	slli	a3,a5,0x10
d:\CH573FEVT\LaserRangeFinder\obj/../src/TFTc/TFT_CAD.c:107
{
     8fe:	c64e                	sw	s3,12(sp)
d:\CH573FEVT\LaserRangeFinder\obj/../src/TFTc/TFT_CAD.c:111
	TFT_Set_Address(htft, x, y, x + width - 1, y); // 璁剧疆板绐
     900:	82c1                	srli	a3,a3,0x10
     902:	89ba                	mv	s3,a4
     904:	8732                	mv	a4,a2
d:\CH573FEVT\LaserRangeFinder\obj/../src/TFTc/TFT_CAD.c:107
{
     906:	ce06                	sw	ra,28(sp)
     908:	cc22                	sw	s0,24(sp)
     90a:	ca26                	sw	s1,20(sp)
     90c:	842a                	mv	s0,a0
d:\CH573FEVT\LaserRangeFinder\obj/../src/TFTc/TFT_CAD.c:111
	TFT_Set_Address(htft, x, y, x + width - 1, y); // 璁剧疆板绐
     90e:	1ca010ef          	jal	ra,1ad8 <TFT_Set_Address>
d:\CH573FEVT\LaserRangeFinder\obj/../src/TFTc/TFT_CAD.c:112
	TFT_Reset_Buffer(htft);						   // 缃缂插
     912:	8522                	mv	a0,s0
     914:	0b8010ef          	jal	ra,19cc <TFT_Reset_Buffer>
d:\CH573FEVT\LaserRangeFinder\obj/../src/TFTc/TFT_CAD.c:115

	// 濉绱扮插
	for (uint16_t i = 0; i < width; i++)
     918:	4481                	li	s1,0
     91a:	0485                	addi	s1,s1,1
     91c:	04c2                	slli	s1,s1,0x10
d:\CH573FEVT\LaserRangeFinder\obj/../src/TFTc/TFT_CAD.c:117
	{
		TFT_Buffer_Write16(htft, color);
     91e:	85ce                	mv	a1,s3
     920:	8522                	mv	a0,s0
d:\CH573FEVT\LaserRangeFinder\obj/../src/TFTc/TFT_CAD.c:115
	for (uint16_t i = 0; i < width; i++)
     922:	80c1                	srli	s1,s1,0x10
d:\CH573FEVT\LaserRangeFinder\obj/../src/TFTc/TFT_CAD.c:117
		TFT_Buffer_Write16(htft, color);
     924:	04c010ef          	jal	ra,1970 <TFT_Buffer_Write16>
d:\CH573FEVT\LaserRangeFinder\obj/../src/TFTc/TFT_CAD.c:115
	for (uint16_t i = 0; i < width; i++)
     928:	fe9919e3          	bne	s2,s1,91a <TFT_Draw_Fast_HLine+0x2e>
d:\CH573FEVT\LaserRangeFinder\obj/../src/TFTc/TFT_CAD.c:120
	}

	TFT_Flush_Buffer(htft, 1); // 骞剁寰瀹
     92c:	8522                	mv	a0,s0
d:\CH573FEVT\LaserRangeFinder\obj/../src/TFTc/TFT_CAD.c:121
}
     92e:	4462                	lw	s0,24(sp)
     930:	40f2                	lw	ra,28(sp)
     932:	44d2                	lw	s1,20(sp)
     934:	4942                	lw	s2,16(sp)
     936:	49b2                	lw	s3,12(sp)
d:\CH573FEVT\LaserRangeFinder\obj/../src/TFTc/TFT_CAD.c:120
	TFT_Flush_Buffer(htft, 1); // 骞剁寰瀹
     938:	4585                	li	a1,1
d:\CH573FEVT\LaserRangeFinder\obj/../src/TFTc/TFT_CAD.c:121
}
     93a:	6105                	addi	sp,sp,32
d:\CH573FEVT\LaserRangeFinder\obj/../src/TFTc/TFT_CAD.c:120
	TFT_Flush_Buffer(htft, 1); // 骞剁寰瀹
     93c:	00e0106f          	j	194a <TFT_Flush_Buffer>
     940:	8082                	ret

00000942 <TFT_Draw_Fast_VLine>:
TFT_Draw_Fast_VLine():
d:\CH573FEVT\LaserRangeFinder\obj/../src/TFTc/TFT_CAD.c:134
 * @param  color    绾跨棰 (RGB565煎)
 * @retval 
 */
void TFT_Draw_Fast_VLine(TFT_HandleTypeDef *htft, uint16_t x, uint16_t y, uint16_t height, uint16_t color)
{
	if (height == 0)
     942:	cab1                	beqz	a3,996 <TFT_Draw_Fast_VLine+0x54>
d:\CH573FEVT\LaserRangeFinder\obj/../src/TFTc/TFT_CAD.c:133
{
     944:	1101                	addi	sp,sp,-32
d:\CH573FEVT\LaserRangeFinder\obj/../src/TFTc/TFT_CAD.c:137
		return;

	TFT_Set_Address(htft, x, y, x, y + height - 1); // 璁剧疆板绐
     946:	fff60793          	addi	a5,a2,-1
d:\CH573FEVT\LaserRangeFinder\obj/../src/TFTc/TFT_CAD.c:133
{
     94a:	c84a                	sw	s2,16(sp)
     94c:	8936                	mv	s2,a3
d:\CH573FEVT\LaserRangeFinder\obj/../src/TFTc/TFT_CAD.c:137
	TFT_Set_Address(htft, x, y, x, y + height - 1); // 璁剧疆板绐
     94e:	97ca                	add	a5,a5,s2
d:\CH573FEVT\LaserRangeFinder\obj/../src/TFTc/TFT_CAD.c:133
{
     950:	c64e                	sw	s3,12(sp)
     952:	89ba                	mv	s3,a4
d:\CH573FEVT\LaserRangeFinder\obj/../src/TFTc/TFT_CAD.c:137
	TFT_Set_Address(htft, x, y, x, y + height - 1); // 璁剧疆板绐
     954:	01079713          	slli	a4,a5,0x10
     958:	86ae                	mv	a3,a1
     95a:	8341                	srli	a4,a4,0x10
d:\CH573FEVT\LaserRangeFinder\obj/../src/TFTc/TFT_CAD.c:133
{
     95c:	ce06                	sw	ra,28(sp)
     95e:	cc22                	sw	s0,24(sp)
     960:	ca26                	sw	s1,20(sp)
     962:	842a                	mv	s0,a0
d:\CH573FEVT\LaserRangeFinder\obj/../src/TFTc/TFT_CAD.c:137
	TFT_Set_Address(htft, x, y, x, y + height - 1); // 璁剧疆板绐
     964:	174010ef          	jal	ra,1ad8 <TFT_Set_Address>
d:\CH573FEVT\LaserRangeFinder\obj/../src/TFTc/TFT_CAD.c:138
	TFT_Reset_Buffer(htft);							// 缃缂插
     968:	8522                	mv	a0,s0
     96a:	062010ef          	jal	ra,19cc <TFT_Reset_Buffer>
d:\CH573FEVT\LaserRangeFinder\obj/../src/TFTc/TFT_CAD.c:141

	// 濉绱扮插
	for (uint16_t i = 0; i < height; i++)
     96e:	4481                	li	s1,0
     970:	0485                	addi	s1,s1,1
     972:	04c2                	slli	s1,s1,0x10
d:\CH573FEVT\LaserRangeFinder\obj/../src/TFTc/TFT_CAD.c:143
	{
		TFT_Buffer_Write16(htft, color);
     974:	85ce                	mv	a1,s3
     976:	8522                	mv	a0,s0
d:\CH573FEVT\LaserRangeFinder\obj/../src/TFTc/TFT_CAD.c:141
	for (uint16_t i = 0; i < height; i++)
     978:	80c1                	srli	s1,s1,0x10
d:\CH573FEVT\LaserRangeFinder\obj/../src/TFTc/TFT_CAD.c:143
		TFT_Buffer_Write16(htft, color);
     97a:	7f7000ef          	jal	ra,1970 <TFT_Buffer_Write16>
d:\CH573FEVT\LaserRangeFinder\obj/../src/TFTc/TFT_CAD.c:141
	for (uint16_t i = 0; i < height; i++)
     97e:	fe9919e3          	bne	s2,s1,970 <TFT_Draw_Fast_VLine+0x2e>
d:\CH573FEVT\LaserRangeFinder\obj/../src/TFTc/TFT_CAD.c:146
	}

	TFT_Flush_Buffer(htft, 1); // 骞剁寰瀹
     982:	8522                	mv	a0,s0
d:\CH573FEVT\LaserRangeFinder\obj/../src/TFTc/TFT_CAD.c:147
}
     984:	4462                	lw	s0,24(sp)
     986:	40f2                	lw	ra,28(sp)
     988:	44d2                	lw	s1,20(sp)
     98a:	4942                	lw	s2,16(sp)
     98c:	49b2                	lw	s3,12(sp)
d:\CH573FEVT\LaserRangeFinder\obj/../src/TFTc/TFT_CAD.c:146
	TFT_Flush_Buffer(htft, 1); // 骞剁寰瀹
     98e:	4585                	li	a1,1
d:\CH573FEVT\LaserRangeFinder\obj/../src/TFTc/TFT_CAD.c:147
}
     990:	6105                	addi	sp,sp,32
d:\CH573FEVT\LaserRangeFinder\obj/../src/TFTc/TFT_CAD.c:146
	TFT_Flush_Buffer(htft, 1); // 骞剁寰瀹
     992:	7b90006f          	j	194a <TFT_Flush_Buffer>
     996:	8082                	ret

00000998 <TFT_Draw_Line>:
TFT_Draw_Line():
d:\CH573FEVT\LaserRangeFinder\obj/../src/TFTc/TFT_CAD.c:160
 * @param  y2      缁硅
 * @param  color   绾跨棰 (RGB565煎)
 * @retval 
 */
void TFT_Draw_Line(TFT_HandleTypeDef *htft, uint16_t x1, uint16_t y1, uint16_t x2, uint16_t y2, uint16_t color)
{
     998:	7139                	addi	sp,sp,-64
     99a:	d64e                	sw	s3,44(sp)
     99c:	d05a                	sw	s6,32(sp)
     99e:	ce5e                	sw	s7,28(sp)
     9a0:	de06                	sw	ra,60(sp)
     9a2:	dc22                	sw	s0,56(sp)
     9a4:	da26                	sw	s1,52(sp)
     9a6:	d84a                	sw	s2,48(sp)
     9a8:	d452                	sw	s4,40(sp)
     9aa:	d256                	sw	s5,36(sp)
     9ac:	cc62                	sw	s8,24(sp)
     9ae:	ca66                	sw	s9,20(sp)
     9b0:	c86a                	sw	s10,16(sp)
     9b2:	c66e                	sw	s11,12(sp)
     9b4:	8b2a                	mv	s6,a0
     9b6:	89b6                	mv	s3,a3
     9b8:	8bbe                	mv	s7,a5
d:\CH573FEVT\LaserRangeFinder\obj/../src/TFTc/TFT_CAD.c:162
	// 浼锛澶姘村钩绾
	if (y1 == y2)
     9ba:	02e61d63          	bne	a2,a4,9f4 <TFT_Draw_Line+0x5c>
d:\CH573FEVT\LaserRangeFinder\obj/../src/TFTc/TFT_CAD.c:164
	{
		if (x1 > x2) // 纭淇 x1 <= x2
     9be:	00b6f563          	bgeu	a3,a1,9c8 <TFT_Draw_Line+0x30>
     9c2:	87ae                	mv	a5,a1
     9c4:	89be                	mv	s3,a5
     9c6:	85b6                	mv	a1,a3
d:\CH573FEVT\LaserRangeFinder\obj/../src/TFTc/TFT_CAD.c:168 (discriminator 1)
		{
			SWAP_INT16(x1, x2); // 浣跨ㄥ浜ゆ
		}
		TFT_Draw_Fast_HLine(htft, x1, y1, x2 - x1 + 1, color); // 浣跨ㄥ揩姘村钩绾垮芥
     9c8:	00198693          	addi	a3,s3,1
d:\CH573FEVT\LaserRangeFinder\obj/../src/TFTc/TFT_CAD.c:227 (discriminator 1)
	}
	TFT_Draw_Point(htft, currentX, currentY, color); // 缁剁 (Bresenham 寰涓缁)

	// 濡 TFT_Write_Data16 ユ逛负诲+缂诧介瑕ㄦゅ娣诲 Flush
	TFT_Flush_Buffer(htft, 1); // 缁舵绾垮锋扮插猴涓 Draw_Point 涓锋
}
     9cc:	5462                	lw	s0,56(sp)
     9ce:	50f2                	lw	ra,60(sp)
     9d0:	54d2                	lw	s1,52(sp)
     9d2:	5942                	lw	s2,48(sp)
     9d4:	59b2                	lw	s3,44(sp)
     9d6:	5a22                	lw	s4,40(sp)
     9d8:	5a92                	lw	s5,36(sp)
     9da:	4c62                	lw	s8,24(sp)
     9dc:	4cd2                	lw	s9,20(sp)
     9de:	4d42                	lw	s10,16(sp)
     9e0:	4db2                	lw	s11,12(sp)
d:\CH573FEVT\LaserRangeFinder\obj/../src/TFTc/TFT_CAD.c:168 (discriminator 1)
		TFT_Draw_Fast_HLine(htft, x1, y1, x2 - x1 + 1, color); // 浣跨ㄥ揩姘村钩绾垮芥
     9e2:	8e8d                	sub	a3,a3,a1
     9e4:	875e                	mv	a4,s7
     9e6:	855a                	mv	a0,s6
d:\CH573FEVT\LaserRangeFinder\obj/../src/TFTc/TFT_CAD.c:227 (discriminator 1)
}
     9e8:	4bf2                	lw	s7,28(sp)
     9ea:	5b02                	lw	s6,32(sp)
d:\CH573FEVT\LaserRangeFinder\obj/../src/TFTc/TFT_CAD.c:168 (discriminator 1)
		TFT_Draw_Fast_HLine(htft, x1, y1, x2 - x1 + 1, color); // 浣跨ㄥ揩姘村钩绾垮芥
     9ec:	06c2                	slli	a3,a3,0x10
     9ee:	82c1                	srli	a3,a3,0x10
d:\CH573FEVT\LaserRangeFinder\obj/../src/TFTc/TFT_CAD.c:227 (discriminator 1)
}
     9f0:	6121                	addi	sp,sp,64
d:\CH573FEVT\LaserRangeFinder\obj/../src/TFTc/TFT_CAD.c:168 (discriminator 1)
		TFT_Draw_Fast_HLine(htft, x1, y1, x2 - x1 + 1, color); // 浣跨ㄥ揩姘村钩绾垮芥
     9f2:	bded                	j	8ec <TFT_Draw_Fast_HLine>
     9f4:	893a                	mv	s2,a4
d:\CH573FEVT\LaserRangeFinder\obj/../src/TFTc/TFT_CAD.c:173
	if (x1 == x2)
     9f6:	02d59d63          	bne	a1,a3,a30 <TFT_Draw_Line+0x98>
d:\CH573FEVT\LaserRangeFinder\obj/../src/TFTc/TFT_CAD.c:175
		if (y1 > y2) // 纭淇 y1 <= y2
     9fa:	00c77563          	bgeu	a4,a2,a04 <TFT_Draw_Line+0x6c>
     9fe:	87b2                	mv	a5,a2
     a00:	893e                	mv	s2,a5
     a02:	863a                	mv	a2,a4
d:\CH573FEVT\LaserRangeFinder\obj/../src/TFTc/TFT_CAD.c:179 (discriminator 1)
		TFT_Draw_Fast_VLine(htft, x1, y1, y2 - y1 + 1, color); // 浣跨ㄥ揩寸嚎芥
     a04:	00190693          	addi	a3,s2,1
d:\CH573FEVT\LaserRangeFinder\obj/../src/TFTc/TFT_CAD.c:227 (discriminator 1)
}
     a08:	5462                	lw	s0,56(sp)
     a0a:	50f2                	lw	ra,60(sp)
     a0c:	54d2                	lw	s1,52(sp)
     a0e:	5942                	lw	s2,48(sp)
     a10:	59b2                	lw	s3,44(sp)
     a12:	5a22                	lw	s4,40(sp)
     a14:	5a92                	lw	s5,36(sp)
     a16:	4c62                	lw	s8,24(sp)
     a18:	4cd2                	lw	s9,20(sp)
     a1a:	4d42                	lw	s10,16(sp)
     a1c:	4db2                	lw	s11,12(sp)
d:\CH573FEVT\LaserRangeFinder\obj/../src/TFTc/TFT_CAD.c:179 (discriminator 1)
		TFT_Draw_Fast_VLine(htft, x1, y1, y2 - y1 + 1, color); // 浣跨ㄥ揩寸嚎芥
     a1e:	8e91                	sub	a3,a3,a2
     a20:	875e                	mv	a4,s7
     a22:	855a                	mv	a0,s6
d:\CH573FEVT\LaserRangeFinder\obj/../src/TFTc/TFT_CAD.c:227 (discriminator 1)
}
     a24:	4bf2                	lw	s7,28(sp)
     a26:	5b02                	lw	s6,32(sp)
d:\CH573FEVT\LaserRangeFinder\obj/../src/TFTc/TFT_CAD.c:179 (discriminator 1)
		TFT_Draw_Fast_VLine(htft, x1, y1, y2 - y1 + 1, color); // 浣跨ㄥ揩寸嚎芥
     a28:	06c2                	slli	a3,a3,0x10
     a2a:	82c1                	srli	a3,a3,0x10
d:\CH573FEVT\LaserRangeFinder\obj/../src/TFTc/TFT_CAD.c:227 (discriminator 1)
}
     a2c:	6121                	addi	sp,sp,64
d:\CH573FEVT\LaserRangeFinder\obj/../src/TFTc/TFT_CAD.c:179 (discriminator 1)
		TFT_Draw_Fast_VLine(htft, x1, y1, y2 - y1 + 1, color); // 浣跨ㄥ揩寸嚎芥
     a2e:	bf11                	j	942 <TFT_Draw_Fast_VLine>
d:\CH573FEVT\LaserRangeFinder\obj/../src/TFTc/TFT_CAD.c:184
	int16_t deltaX = abs(x2 - x1);		// X 杞磋绂荤瀵瑰
     a30:	40b68a33          	sub	s4,a3,a1
     a34:	41fa5793          	srai	a5,s4,0x1f
     a38:	0147ca33          	xor	s4,a5,s4
d:\CH573FEVT\LaserRangeFinder\obj/../src/TFTc/TFT_CAD.c:185
	int16_t deltaY = abs(y2 - y1);		// Y 杞磋绂荤瀵瑰
     a3c:	40c70ab3          	sub	s5,a4,a2
d:\CH573FEVT\LaserRangeFinder\obj/../src/TFTc/TFT_CAD.c:184
	int16_t deltaX = abs(x2 - x1);		// X 杞磋绂荤瀵瑰
     a40:	40fa0a33          	sub	s4,s4,a5
d:\CH573FEVT\LaserRangeFinder\obj/../src/TFTc/TFT_CAD.c:185
	int16_t deltaY = abs(y2 - y1);		// Y 杞磋绂荤瀵瑰
     a44:	41fad793          	srai	a5,s5,0x1f
     a48:	0157cab3          	xor	s5,a5,s5
     a4c:	40fa8ab3          	sub	s5,s5,a5
d:\CH573FEVT\LaserRangeFinder\obj/../src/TFTc/TFT_CAD.c:184
	int16_t deltaX = abs(x2 - x1);		// X 杞磋绂荤瀵瑰
     a50:	010a1513          	slli	a0,s4,0x10
d:\CH573FEVT\LaserRangeFinder\obj/../src/TFTc/TFT_CAD.c:185
	int16_t deltaY = abs(y2 - y1);		// Y 杞磋绂荤瀵瑰
     a54:	010a9693          	slli	a3,s5,0x10
d:\CH573FEVT\LaserRangeFinder\obj/../src/TFTc/TFT_CAD.c:184
	int16_t deltaX = abs(x2 - x1);		// X 杞磋绂荤瀵瑰
     a58:	8541                	srai	a0,a0,0x10
d:\CH573FEVT\LaserRangeFinder\obj/../src/TFTc/TFT_CAD.c:185
	int16_t deltaY = abs(y2 - y1);		// Y 杞磋绂荤瀵瑰
     a5a:	86c1                	srai	a3,a3,0x10
d:\CH573FEVT\LaserRangeFinder\obj/../src/TFTc/TFT_CAD.c:186
	int16_t stepX = (x1 < x2) ? 1 : -1; // X 杞存ヨ瑰
     a5c:	4d85                	li	s11,1
     a5e:	0135e363          	bltu	a1,s3,a64 <TFT_Draw_Line+0xcc>
     a62:	5dfd                	li	s11,-1
d:\CH573FEVT\LaserRangeFinder\obj/../src/TFTc/TFT_CAD.c:187
	int16_t stepY = (y1 < y2) ? 1 : -1; // Y 杞存ヨ瑰
     a64:	4d05                	li	s10,1
     a66:	01266363          	bltu	a2,s2,a6c <TFT_Draw_Line+0xd4>
     a6a:	5d7d                	li	s10,-1
d:\CH573FEVT\LaserRangeFinder\obj/../src/TFTc/TFT_CAD.c:188
	int16_t currentX = x1;
     a6c:	01059493          	slli	s1,a1,0x10
d:\CH573FEVT\LaserRangeFinder\obj/../src/TFTc/TFT_CAD.c:189
	int16_t currentY = y1;
     a70:	01061413          	slli	s0,a2,0x10
d:\CH573FEVT\LaserRangeFinder\obj/../src/TFTc/TFT_CAD.c:188
	int16_t currentX = x1;
     a74:	84c1                	srai	s1,s1,0x10
d:\CH573FEVT\LaserRangeFinder\obj/../src/TFTc/TFT_CAD.c:189
	int16_t currentY = y1;
     a76:	8441                	srai	s0,s0,0x10
d:\CH573FEVT\LaserRangeFinder\obj/../src/TFTc/TFT_CAD.c:193
	if (deltaX > deltaY) // 浠 X 杞翠负涓昏酱 (缁瀵瑰 < 1)
     a78:	08a6da63          	bge	a3,a0,b0c <TFT_Draw_Line+0x174>
d:\CH573FEVT\LaserRangeFinder\obj/../src/TFTc/TFT_CAD.c:195
		errorTerm = deltaX / 2; // 濮璇宸
     a7c:	4909                	li	s2,2
     a7e:	03254933          	div	s2,a0,s2
d:\CH573FEVT\LaserRangeFinder\obj/../src/TFTc/TFT_CAD.c:196
		while (currentX != x2)	// 寰村板拌揪缁 X 
     a82:	01049c93          	slli	s9,s1,0x10
     a86:	01041c13          	slli	s8,s0,0x10
     a8a:	010cdc93          	srli	s9,s9,0x10
     a8e:	010c5c13          	srli	s8,s8,0x10
     a92:	02999d63          	bne	s3,s1,acc <TFT_Draw_Line+0x134>
d:\CH573FEVT\LaserRangeFinder\obj/../src/TFTc/TFT_CAD.c:223
	TFT_Draw_Point(htft, currentX, currentY, color); // 缁剁 (Bresenham 寰涓缁)
     a96:	01041613          	slli	a2,s0,0x10
     a9a:	01049593          	slli	a1,s1,0x10
     a9e:	855a                	mv	a0,s6
     aa0:	86de                	mv	a3,s7
     aa2:	81c1                	srli	a1,a1,0x10
     aa4:	8241                	srli	a2,a2,0x10
     aa6:	3b4d                	jal	858 <TFT_Draw_Point>
d:\CH573FEVT\LaserRangeFinder\obj/../src/TFTc/TFT_CAD.c:227
}
     aa8:	5462                	lw	s0,56(sp)
     aaa:	50f2                	lw	ra,60(sp)
     aac:	54d2                	lw	s1,52(sp)
     aae:	5942                	lw	s2,48(sp)
     ab0:	59b2                	lw	s3,44(sp)
     ab2:	5a22                	lw	s4,40(sp)
     ab4:	5a92                	lw	s5,36(sp)
     ab6:	4bf2                	lw	s7,28(sp)
     ab8:	4c62                	lw	s8,24(sp)
     aba:	4cd2                	lw	s9,20(sp)
     abc:	4d42                	lw	s10,16(sp)
     abe:	4db2                	lw	s11,12(sp)
d:\CH573FEVT\LaserRangeFinder\obj/../src/TFTc/TFT_CAD.c:226
	TFT_Flush_Buffer(htft, 1); // 缁舵绾垮锋扮插猴涓 Draw_Point 涓锋
     ac0:	855a                	mv	a0,s6
d:\CH573FEVT\LaserRangeFinder\obj/../src/TFTc/TFT_CAD.c:227
}
     ac2:	5b02                	lw	s6,32(sp)
d:\CH573FEVT\LaserRangeFinder\obj/../src/TFTc/TFT_CAD.c:226
	TFT_Flush_Buffer(htft, 1); // 缁舵绾垮锋扮插猴涓 Draw_Point 涓锋
     ac4:	4585                	li	a1,1
d:\CH573FEVT\LaserRangeFinder\obj/../src/TFTc/TFT_CAD.c:227
}
     ac6:	6121                	addi	sp,sp,64
d:\CH573FEVT\LaserRangeFinder\obj/../src/TFTc/TFT_CAD.c:226
	TFT_Flush_Buffer(htft, 1); // 缁舵绾垮锋扮插猴涓 Draw_Point 涓锋
     ac8:	6830006f          	j	194a <TFT_Flush_Buffer>
d:\CH573FEVT\LaserRangeFinder\obj/../src/TFTc/TFT_CAD.c:198
			TFT_Draw_Point(htft, currentX, currentY, color); // 缁跺
     acc:	86de                	mv	a3,s7
     ace:	8662                	mv	a2,s8
     ad0:	85e6                	mv	a1,s9
     ad2:	855a                	mv	a0,s6
d:\CH573FEVT\LaserRangeFinder\obj/../src/TFTc/TFT_CAD.c:199
			errorTerm -= deltaY;
     ad4:	41590933          	sub	s2,s2,s5
d:\CH573FEVT\LaserRangeFinder\obj/../src/TFTc/TFT_CAD.c:198
			TFT_Draw_Point(htft, currentX, currentY, color); // 缁跺
     ad8:	3341                	jal	858 <TFT_Draw_Point>
d:\CH573FEVT\LaserRangeFinder\obj/../src/TFTc/TFT_CAD.c:199
			errorTerm -= deltaY;
     ada:	01091793          	slli	a5,s2,0x10
     ade:	83c1                	srli	a5,a5,0x10
     ae0:	01079913          	slli	s2,a5,0x10
     ae4:	41095913          	srai	s2,s2,0x10
d:\CH573FEVT\LaserRangeFinder\obj/../src/TFTc/TFT_CAD.c:200
			if (errorTerm < 0)
     ae8:	00095c63          	bgez	s2,b00 <TFT_Draw_Line+0x168>
d:\CH573FEVT\LaserRangeFinder\obj/../src/TFTc/TFT_CAD.c:202
				currentY += stepY; // Y 绉诲ㄤ姝
     aec:	01ac0633          	add	a2,s8,s10
d:\CH573FEVT\LaserRangeFinder\obj/../src/TFTc/TFT_CAD.c:203
				errorTerm += deltaX;
     af0:	01478933          	add	s2,a5,s4
d:\CH573FEVT\LaserRangeFinder\obj/../src/TFTc/TFT_CAD.c:202
				currentY += stepY; // Y 绉诲ㄤ姝
     af4:	01061413          	slli	s0,a2,0x10
d:\CH573FEVT\LaserRangeFinder\obj/../src/TFTc/TFT_CAD.c:203
				errorTerm += deltaX;
     af8:	0942                	slli	s2,s2,0x10
d:\CH573FEVT\LaserRangeFinder\obj/../src/TFTc/TFT_CAD.c:202
				currentY += stepY; // Y 绉诲ㄤ姝
     afa:	8441                	srai	s0,s0,0x10
d:\CH573FEVT\LaserRangeFinder\obj/../src/TFTc/TFT_CAD.c:203
				errorTerm += deltaX;
     afc:	41095913          	srai	s2,s2,0x10
d:\CH573FEVT\LaserRangeFinder\obj/../src/TFTc/TFT_CAD.c:205
			currentX += stepX; // X 绉诲ㄤ姝
     b00:	01bc85b3          	add	a1,s9,s11
     b04:	01059493          	slli	s1,a1,0x10
     b08:	84c1                	srai	s1,s1,0x10
     b0a:	bfa5                	j	a82 <TFT_Draw_Line+0xea>
d:\CH573FEVT\LaserRangeFinder\obj/../src/TFTc/TFT_CAD.c:210
		errorTerm = deltaY / 2; // 濮璇宸
     b0c:	4989                	li	s3,2
     b0e:	0336c9b3          	div	s3,a3,s3
d:\CH573FEVT\LaserRangeFinder\obj/../src/TFTc/TFT_CAD.c:211
		while (currentY != y2)	// 寰村板拌揪缁 Y 
     b12:	01049c93          	slli	s9,s1,0x10
     b16:	01041c13          	slli	s8,s0,0x10
     b1a:	010cdc93          	srli	s9,s9,0x10
     b1e:	010c5c13          	srli	s8,s8,0x10
     b22:	f6890ae3          	beq	s2,s0,a96 <TFT_Draw_Line+0xfe>
d:\CH573FEVT\LaserRangeFinder\obj/../src/TFTc/TFT_CAD.c:213
			TFT_Draw_Point(htft, currentX, currentY, color); // 缁跺
     b26:	86de                	mv	a3,s7
     b28:	8662                	mv	a2,s8
     b2a:	85e6                	mv	a1,s9
     b2c:	855a                	mv	a0,s6
d:\CH573FEVT\LaserRangeFinder\obj/../src/TFTc/TFT_CAD.c:214
			errorTerm -= deltaX;
     b2e:	414989b3          	sub	s3,s3,s4
d:\CH573FEVT\LaserRangeFinder\obj/../src/TFTc/TFT_CAD.c:213
			TFT_Draw_Point(htft, currentX, currentY, color); // 缁跺
     b32:	331d                	jal	858 <TFT_Draw_Point>
d:\CH573FEVT\LaserRangeFinder\obj/../src/TFTc/TFT_CAD.c:214
			errorTerm -= deltaX;
     b34:	01099793          	slli	a5,s3,0x10
     b38:	83c1                	srli	a5,a5,0x10
     b3a:	01079993          	slli	s3,a5,0x10
     b3e:	4109d993          	srai	s3,s3,0x10
d:\CH573FEVT\LaserRangeFinder\obj/../src/TFTc/TFT_CAD.c:215
			if (errorTerm < 0)
     b42:	0009dc63          	bgez	s3,b5a <TFT_Draw_Line+0x1c2>
d:\CH573FEVT\LaserRangeFinder\obj/../src/TFTc/TFT_CAD.c:217
				currentX += stepX; // X 绉诲ㄤ姝
     b46:	01bc85b3          	add	a1,s9,s11
d:\CH573FEVT\LaserRangeFinder\obj/../src/TFTc/TFT_CAD.c:218
				errorTerm += deltaY;
     b4a:	015789b3          	add	s3,a5,s5
d:\CH573FEVT\LaserRangeFinder\obj/../src/TFTc/TFT_CAD.c:217
				currentX += stepX; // X 绉诲ㄤ姝
     b4e:	01059493          	slli	s1,a1,0x10
d:\CH573FEVT\LaserRangeFinder\obj/../src/TFTc/TFT_CAD.c:218
				errorTerm += deltaY;
     b52:	09c2                	slli	s3,s3,0x10
d:\CH573FEVT\LaserRangeFinder\obj/../src/TFTc/TFT_CAD.c:217
				currentX += stepX; // X 绉诲ㄤ姝
     b54:	84c1                	srai	s1,s1,0x10
d:\CH573FEVT\LaserRangeFinder\obj/../src/TFTc/TFT_CAD.c:218
				errorTerm += deltaY;
     b56:	4109d993          	srai	s3,s3,0x10
d:\CH573FEVT\LaserRangeFinder\obj/../src/TFTc/TFT_CAD.c:220
			currentY += stepY; // Y 绉诲ㄤ姝
     b5a:	01ac0633          	add	a2,s8,s10
     b5e:	01061413          	slli	s0,a2,0x10
     b62:	8441                	srai	s0,s0,0x10
     b64:	b77d                	j	b12 <TFT_Draw_Line+0x17a>

00000b66 <TFT_Draw_Rectangle>:
TFT_Draw_Rectangle():
d:\CH573FEVT\LaserRangeFinder\obj/../src/TFTc/TFT_CAD.c:240
 * @param  y2      充瑙琛
 * @param  color   ╁舰杈规棰 (RGB565煎)
 * @retval 
 */
void TFT_Draw_Rectangle(TFT_HandleTypeDef *htft, uint16_t x1, uint16_t y1, uint16_t x2, uint16_t y2, uint16_t color)
{
     b66:	1101                	addi	sp,sp,-32
     b68:	ca26                	sw	s1,20(sp)
d:\CH573FEVT\LaserRangeFinder\obj/../src/TFTc/TFT_CAD.c:241
	TFT_Draw_Fast_HLine(htft, x1, y1, x2 - x1 + 1, color); // 涓杈
     b6a:	40b684b3          	sub	s1,a3,a1
     b6e:	0485                	addi	s1,s1,1
     b70:	04c2                	slli	s1,s1,0x10
     b72:	80c1                	srli	s1,s1,0x10
d:\CH573FEVT\LaserRangeFinder\obj/../src/TFTc/TFT_CAD.c:240
{
     b74:	cc22                	sw	s0,24(sp)
     b76:	c05a                	sw	s6,0(sp)
     b78:	843a                	mv	s0,a4
     b7a:	8b36                	mv	s6,a3
d:\CH573FEVT\LaserRangeFinder\obj/../src/TFTc/TFT_CAD.c:241
	TFT_Draw_Fast_HLine(htft, x1, y1, x2 - x1 + 1, color); // 涓杈
     b7c:	873e                	mv	a4,a5
     b7e:	86a6                	mv	a3,s1
d:\CH573FEVT\LaserRangeFinder\obj/../src/TFTc/TFT_CAD.c:240
{
     b80:	ce06                	sw	ra,28(sp)
     b82:	c84a                	sw	s2,16(sp)
     b84:	c64e                	sw	s3,12(sp)
     b86:	c452                	sw	s4,8(sp)
     b88:	c256                	sw	s5,4(sp)
     b8a:	893e                	mv	s2,a5
     b8c:	8a32                	mv	s4,a2
     b8e:	89aa                	mv	s3,a0
     b90:	8aae                	mv	s5,a1
d:\CH573FEVT\LaserRangeFinder\obj/../src/TFTc/TFT_CAD.c:241
	TFT_Draw_Fast_HLine(htft, x1, y1, x2 - x1 + 1, color); // 涓杈
     b92:	3ba9                	jal	8ec <TFT_Draw_Fast_HLine>
d:\CH573FEVT\LaserRangeFinder\obj/../src/TFTc/TFT_CAD.c:242
	TFT_Draw_Fast_HLine(htft, x1, y2, x2 - x1 + 1, color); // 涓杈
     b94:	8622                	mv	a2,s0
d:\CH573FEVT\LaserRangeFinder\obj/../src/TFTc/TFT_CAD.c:243
	TFT_Draw_Fast_VLine(htft, x1, y1, y2 - y1 + 1, color); // 宸杈
     b96:	0405                	addi	s0,s0,1
     b98:	41440433          	sub	s0,s0,s4
d:\CH573FEVT\LaserRangeFinder\obj/../src/TFTc/TFT_CAD.c:242
	TFT_Draw_Fast_HLine(htft, x1, y2, x2 - x1 + 1, color); // 涓杈
     b9c:	874a                	mv	a4,s2
     b9e:	86a6                	mv	a3,s1
     ba0:	85d6                	mv	a1,s5
     ba2:	854e                	mv	a0,s3
d:\CH573FEVT\LaserRangeFinder\obj/../src/TFTc/TFT_CAD.c:243
	TFT_Draw_Fast_VLine(htft, x1, y1, y2 - y1 + 1, color); // 宸杈
     ba4:	0442                	slli	s0,s0,0x10
d:\CH573FEVT\LaserRangeFinder\obj/../src/TFTc/TFT_CAD.c:242
	TFT_Draw_Fast_HLine(htft, x1, y2, x2 - x1 + 1, color); // 涓杈
     ba6:	3399                	jal	8ec <TFT_Draw_Fast_HLine>
d:\CH573FEVT\LaserRangeFinder\obj/../src/TFTc/TFT_CAD.c:243
	TFT_Draw_Fast_VLine(htft, x1, y1, y2 - y1 + 1, color); // 宸杈
     ba8:	8041                	srli	s0,s0,0x10
     baa:	874a                	mv	a4,s2
     bac:	86a2                	mv	a3,s0
     bae:	8652                	mv	a2,s4
     bb0:	85d6                	mv	a1,s5
     bb2:	854e                	mv	a0,s3
     bb4:	3379                	jal	942 <TFT_Draw_Fast_VLine>
d:\CH573FEVT\LaserRangeFinder\obj/../src/TFTc/TFT_CAD.c:244
	TFT_Draw_Fast_VLine(htft, x2, y1, y2 - y1 + 1, color); // 宠竟
     bb6:	86a2                	mv	a3,s0
d:\CH573FEVT\LaserRangeFinder\obj/../src/TFTc/TFT_CAD.c:245
}
     bb8:	4462                	lw	s0,24(sp)
     bba:	40f2                	lw	ra,28(sp)
     bbc:	44d2                	lw	s1,20(sp)
     bbe:	4a92                	lw	s5,4(sp)
d:\CH573FEVT\LaserRangeFinder\obj/../src/TFTc/TFT_CAD.c:244
	TFT_Draw_Fast_VLine(htft, x2, y1, y2 - y1 + 1, color); // 宠竟
     bc0:	874a                	mv	a4,s2
     bc2:	8652                	mv	a2,s4
d:\CH573FEVT\LaserRangeFinder\obj/../src/TFTc/TFT_CAD.c:245
}
     bc4:	4942                	lw	s2,16(sp)
     bc6:	4a22                	lw	s4,8(sp)
d:\CH573FEVT\LaserRangeFinder\obj/../src/TFTc/TFT_CAD.c:244
	TFT_Draw_Fast_VLine(htft, x2, y1, y2 - y1 + 1, color); // 宠竟
     bc8:	85da                	mv	a1,s6
     bca:	854e                	mv	a0,s3
d:\CH573FEVT\LaserRangeFinder\obj/../src/TFTc/TFT_CAD.c:245
}
     bcc:	4b02                	lw	s6,0(sp)
     bce:	49b2                	lw	s3,12(sp)
     bd0:	6105                	addi	sp,sp,32
d:\CH573FEVT\LaserRangeFinder\obj/../src/TFTc/TFT_CAD.c:244
	TFT_Draw_Fast_VLine(htft, x2, y1, y2 - y1 + 1, color); // 宠竟
     bd2:	bb85                	j	942 <TFT_Draw_Fast_VLine>

00000bd4 <TFT_Fill_Rectangle>:
TFT_Fill_Rectangle():
d:\CH573FEVT\LaserRangeFinder\obj/../src/TFTc/TFT_CAD.c:259
 * @param  color   ╁舰濉棰 (RGB565煎)
 * @retval 
 */
void TFT_Fill_Rectangle(TFT_HandleTypeDef *htft, uint16_t x1, uint16_t y1, uint16_t x2, uint16_t y2, uint16_t color)
{
	if (x1 > x2)
     bd4:	00b6f563          	bgeu	a3,a1,bde <TFT_Fill_Rectangle+0xa>
     bd8:	882e                	mv	a6,a1
     bda:	85b6                	mv	a1,a3
     bdc:	86c2                	mv	a3,a6
d:\CH573FEVT\LaserRangeFinder\obj/../src/TFTc/TFT_CAD.c:266
		uint16_t temp = x1;
		x1 = x2;
		x2 = temp;
	}

	if (y1 > y2)
     bde:	00c77563          	bgeu	a4,a2,be8 <TFT_Fill_Rectangle+0x14>
     be2:	8832                	mv	a6,a2
     be4:	863a                	mv	a2,a4
     be6:	8742                	mv	a4,a6
d:\CH573FEVT\LaserRangeFinder\obj/../src/TFTc/TFT_CAD.c:274
		y1 = y2;
		y2 = temp;
	}

	// 存ヨㄥ～哄芥
	TFT_Fill_Area(htft, x1, y1, x2 + 1, y2 + 1, color);
     be8:	0705                	addi	a4,a4,1
     bea:	0685                	addi	a3,a3,1
     bec:	0742                	slli	a4,a4,0x10
     bee:	06c2                	slli	a3,a3,0x10
     bf0:	8341                	srli	a4,a4,0x10
     bf2:	82c1                	srli	a3,a3,0x10
     bf4:	b161                	j	87c <TFT_Fill_Area>

00000bf6 <TFT_Draw_Circle>:
TFT_Draw_Circle():
d:\CH573FEVT\LaserRangeFinder\obj/../src/TFTc/TFT_CAD.c:287
 * @param  r       寰
 * @param  color   棰 (RGB565煎)
 * @retval 
 */
void TFT_Draw_Circle(TFT_HandleTypeDef *htft, uint16_t x0, uint16_t y0, uint8_t r, uint16_t color)
{
     bf6:	7139                	addi	sp,sp,-64
     bf8:	d64e                	sw	s3,44(sp)
     bfa:	d256                	sw	s5,36(sp)
     bfc:	de06                	sw	ra,60(sp)
     bfe:	dc22                	sw	s0,56(sp)
     c00:	da26                	sw	s1,52(sp)
     c02:	d84a                	sw	s2,48(sp)
     c04:	d452                	sw	s4,40(sp)
     c06:	d05a                	sw	s6,32(sp)
     c08:	89aa                	mv	s3,a0
     c0a:	8aba                	mv	s5,a4
d:\CH573FEVT\LaserRangeFinder\obj/../src/TFTc/TFT_CAD.c:295
	int16_t decisionParam = 3 - (r << 1); // 濮崇: 3 - 2*r
	TFT_Point circlePoints[8];			  // ㄤ瀛ㄥ圭О圭扮

	// 缁跺濮涓 (0, r), (0, -r), (r, 0), (-r, 0)
	// 杩浜瑰ㄥ惊涓涓浼琚缁讹瑕澶
	if (r > 0)
     c0c:	cef1                	beqz	a3,ce8 <TFT_Draw_Circle+0xf2>
d:\CH573FEVT\LaserRangeFinder\obj/../src/TFTc/TFT_CAD.c:290
	int16_t decisionParam = 3 - (r << 1); // 濮崇: 3 - 2*r
     c0e:	01069493          	slli	s1,a3,0x10
     c12:	80c1                	srli	s1,s1,0x10
     c14:	8932                	mv	s2,a2
d:\CH573FEVT\LaserRangeFinder\obj/../src/TFTc/TFT_CAD.c:297
	{
		TFT_Draw_Point(htft, x0, y0 + r, color);
     c16:	9626                	add	a2,a2,s1
     c18:	0642                	slli	a2,a2,0x10
d:\CH573FEVT\LaserRangeFinder\obj/../src/TFTc/TFT_CAD.c:290
	int16_t decisionParam = 3 - (r << 1); // 濮崇: 3 - 2*r
     c1a:	00149793          	slli	a5,s1,0x1
d:\CH573FEVT\LaserRangeFinder\obj/../src/TFTc/TFT_CAD.c:289
	int16_t plotY = r;					  // 稿逛蹇 y 
     c1e:	01069b13          	slli	s6,a3,0x10
d:\CH573FEVT\LaserRangeFinder\obj/../src/TFTc/TFT_CAD.c:297
		TFT_Draw_Point(htft, x0, y0 + r, color);
     c22:	8241                	srli	a2,a2,0x10
     c24:	86ba                	mv	a3,a4
d:\CH573FEVT\LaserRangeFinder\obj/../src/TFTc/TFT_CAD.c:290
	int16_t decisionParam = 3 - (r << 1); // 濮崇: 3 - 2*r
     c26:	440d                	li	s0,3
     c28:	8c1d                	sub	s0,s0,a5
d:\CH573FEVT\LaserRangeFinder\obj/../src/TFTc/TFT_CAD.c:297
		TFT_Draw_Point(htft, x0, y0 + r, color);
     c2a:	8a2e                	mv	s4,a1
     c2c:	3135                	jal	858 <TFT_Draw_Point>
d:\CH573FEVT\LaserRangeFinder\obj/../src/TFTc/TFT_CAD.c:298
		TFT_Draw_Point(htft, x0, y0 - r, color);
     c2e:	40990633          	sub	a2,s2,s1
     c32:	0642                	slli	a2,a2,0x10
     c34:	86d6                	mv	a3,s5
     c36:	8241                	srli	a2,a2,0x10
     c38:	85d2                	mv	a1,s4
     c3a:	854e                	mv	a0,s3
     c3c:	3931                	jal	858 <TFT_Draw_Point>
d:\CH573FEVT\LaserRangeFinder\obj/../src/TFTc/TFT_CAD.c:299
		TFT_Draw_Point(htft, x0 + r, y0, color);
     c3e:	014485b3          	add	a1,s1,s4
     c42:	05c2                	slli	a1,a1,0x10
     c44:	86d6                	mv	a3,s5
     c46:	864a                	mv	a2,s2
     c48:	81c1                	srli	a1,a1,0x10
     c4a:	854e                	mv	a0,s3
     c4c:	3131                	jal	858 <TFT_Draw_Point>
d:\CH573FEVT\LaserRangeFinder\obj/../src/TFTc/TFT_CAD.c:300
		TFT_Draw_Point(htft, x0 - r, y0, color);
     c4e:	409a05b3          	sub	a1,s4,s1
     c52:	05c2                	slli	a1,a1,0x10
     c54:	86d6                	mv	a3,s5
     c56:	864a                	mv	a2,s2
     c58:	81c1                	srli	a1,a1,0x10
     c5a:	854e                	mv	a0,s3
     c5c:	3ef5                	jal	858 <TFT_Draw_Point>
d:\CH573FEVT\LaserRangeFinder\obj/../src/TFTc/TFT_CAD.c:301
		TFT_Flush_Buffer(htft, 1); // 锋板濮
     c5e:	4585                	li	a1,1
     c60:	854e                	mv	a0,s3
d:\CH573FEVT\LaserRangeFinder\obj/../src/TFTc/TFT_CAD.c:289
	int16_t plotY = r;					  // 稿逛蹇 y 
     c62:	410b5b13          	srai	s6,s6,0x10
d:\CH573FEVT\LaserRangeFinder\obj/../src/TFTc/TFT_CAD.c:301
		TFT_Flush_Buffer(htft, 1); // 锋板濮
     c66:	4e5000ef          	jal	ra,194a <TFT_Flush_Buffer>
d:\CH573FEVT\LaserRangeFinder\obj/../src/TFTc/TFT_CAD.c:288
	int16_t plotX = 0;					  // 稿逛蹇 x 
     c6a:	4481                	li	s1,0
d:\CH573FEVT\LaserRangeFinder\obj/../src/TFTc/TFT_CAD.c:312
		return;
	}

	while (plotX < plotY) // 浠璁＄涔涓寮 (绗浜璞￠浠 y 杞村 y=x)
	{
		plotX++; // x 澧 1
     c6c:	00148793          	addi	a5,s1,1
     c70:	07c2                	slli	a5,a5,0x10
     c72:	83c1                	srli	a5,a5,0x10
     c74:	01079493          	slli	s1,a5,0x10
     c78:	01041713          	slli	a4,s0,0x10
     c7c:	84c1                	srai	s1,s1,0x10
d:\CH573FEVT\LaserRangeFinder\obj/../src/TFTc/TFT_CAD.c:315

		// 存板崇
		if (decisionParam < 0)
     c7e:	8341                	srli	a4,a4,0x10
     c80:	08045463          	bgez	s0,d08 <TFT_Draw_Circle+0x112>
d:\CH573FEVT\LaserRangeFinder\obj/../src/TFTc/TFT_CAD.c:318
		{
			//  E  (x+1, y)
			decisionParam += (plotX << 2) + 6; // decisionParam += 4*plotX + 6
     c84:	00670413          	addi	s0,a4,6
     c88:	00279713          	slli	a4,a5,0x2
d:\CH573FEVT\LaserRangeFinder\obj/../src/TFTc/TFT_CAD.c:324
		}
		else
		{
			//  SE  (x+1, y-1)
			plotY--;									  // y 灏 1
			decisionParam += ((plotX - plotY) << 2) + 10; // decisionParam += 4*(plotX - plotY) + 10
     c8c:	943a                	add	s0,s0,a4
     c8e:	010b1713          	slli	a4,s6,0x10
     c92:	8341                	srli	a4,a4,0x10
     c94:	014785b3          	add	a1,a5,s4
     c98:	00e90533          	add	a0,s2,a4
     c9c:	40fa0633          	sub	a2,s4,a5
     ca0:	40e906b3          	sub	a3,s2,a4
     ca4:	05c2                	slli	a1,a1,0x10
     ca6:	0542                	slli	a0,a0,0x10
     ca8:	0642                	slli	a2,a2,0x10
     caa:	06c2                	slli	a3,a3,0x10
     cac:	81c1                	srli	a1,a1,0x10
     cae:	8141                	srli	a0,a0,0x10
     cb0:	8241                	srli	a2,a2,0x10
     cb2:	82c1                	srli	a3,a3,0x10
     cb4:	0442                	slli	s0,s0,0x10
d:\CH573FEVT\LaserRangeFinder\obj/../src/TFTc/TFT_CAD.c:330
		}

		// 濡 plotX == plotY锛璇存拌揪 y=x 绾匡缁 4 涓
		if (plotX == plotY)
		{
			circlePoints[0] = (TFT_Point){x0 + plotX, y0 + plotY};
     cb6:	00b11023          	sh	a1,0(sp)
     cba:	00a11123          	sh	a0,2(sp)
d:\CH573FEVT\LaserRangeFinder\obj/../src/TFTc/TFT_CAD.c:331
			circlePoints[1] = (TFT_Point){x0 - plotX, y0 + plotY};
     cbe:	00c11223          	sh	a2,4(sp)
     cc2:	00a11323          	sh	a0,6(sp)
d:\CH573FEVT\LaserRangeFinder\obj/../src/TFTc/TFT_CAD.c:332
			circlePoints[2] = (TFT_Point){x0 + plotX, y0 - plotY};
     cc6:	00b11423          	sh	a1,8(sp)
     cca:	00d11523          	sh	a3,10(sp)
d:\CH573FEVT\LaserRangeFinder\obj/../src/TFTc/TFT_CAD.c:333
			circlePoints[3] = (TFT_Point){x0 - plotX, y0 - plotY};
     cce:	00c11623          	sh	a2,12(sp)
     cd2:	00d11723          	sh	a3,14(sp)
d:\CH573FEVT\LaserRangeFinder\obj/../src/TFTc/TFT_CAD.c:324
			decisionParam += ((plotX - plotY) << 2) + 10; // decisionParam += 4*(plotX - plotY) + 10
     cd6:	8441                	srai	s0,s0,0x10
d:\CH573FEVT\LaserRangeFinder\obj/../src/TFTc/TFT_CAD.c:328
		if (plotX == plotY)
     cd8:	049b1563          	bne	s6,s1,d22 <TFT_Draw_Circle+0x12c>
TFT_Draw_MultiPoint():
d:\CH573FEVT\LaserRangeFinder\obj/../src/TFTc/TFT_CAD.c:44
	if (points == NULL || count == 0)
     cdc:	86d6                	mv	a3,s5
     cde:	4611                	li	a2,4
     ce0:	858a                	mv	a1,sp
     ce2:	854e                	mv	a0,s3
     ce4:	3e29                	jal	7fe <TFT_Draw_MultiPoint.part.0>
     ce6:	a039                	j	cf4 <TFT_Draw_Circle+0xfe>
TFT_Draw_Circle():
d:\CH573FEVT\LaserRangeFinder\obj/../src/TFTc/TFT_CAD.c:305
		TFT_Draw_Point(htft, x0, y0, color); // 寰涓0锛讳涓
     ce8:	86ba                	mv	a3,a4
     cea:	36bd                	jal	858 <TFT_Draw_Point>
d:\CH573FEVT\LaserRangeFinder\obj/../src/TFTc/TFT_CAD.c:306
		TFT_Flush_Buffer(htft, 1);
     cec:	4585                	li	a1,1
     cee:	854e                	mv	a0,s3
     cf0:	45b000ef          	jal	ra,194a <TFT_Flush_Buffer>
d:\CH573FEVT\LaserRangeFinder\obj/../src/TFTc/TFT_CAD.c:352
			// 璋 MultiPoint 芥版归缁惰 8 涓
			TFT_Draw_MultiPoint(htft, circlePoints, 8, color);
		}
		// 娉ㄦ锛涓瑕ㄨ Flush锛涓 TFT_Draw_MultiPoint ㄤ Flush
	}
}
     cf4:	50f2                	lw	ra,60(sp)
     cf6:	5462                	lw	s0,56(sp)
     cf8:	54d2                	lw	s1,52(sp)
     cfa:	5942                	lw	s2,48(sp)
     cfc:	59b2                	lw	s3,44(sp)
     cfe:	5a22                	lw	s4,40(sp)
     d00:	5a92                	lw	s5,36(sp)
     d02:	5b02                	lw	s6,32(sp)
     d04:	6121                	addi	sp,sp,64
     d06:	8082                	ret
d:\CH573FEVT\LaserRangeFinder\obj/../src/TFTc/TFT_CAD.c:323
			plotY--;									  // y 灏 1
     d08:	fffb0693          	addi	a3,s6,-1
     d0c:	06c2                	slli	a3,a3,0x10
     d0e:	82c1                	srli	a3,a3,0x10
     d10:	01069b13          	slli	s6,a3,0x10
d:\CH573FEVT\LaserRangeFinder\obj/../src/TFTc/TFT_CAD.c:324
			decisionParam += ((plotX - plotY) << 2) + 10; // decisionParam += 4*(plotX - plotY) + 10
     d14:	40d78433          	sub	s0,a5,a3
d:\CH573FEVT\LaserRangeFinder\obj/../src/TFTc/TFT_CAD.c:323
			plotY--;									  // y 灏 1
     d18:	410b5b13          	srai	s6,s6,0x10
d:\CH573FEVT\LaserRangeFinder\obj/../src/TFTc/TFT_CAD.c:324
			decisionParam += ((plotX - plotY) << 2) + 10; // decisionParam += 4*(plotX - plotY) + 10
     d1c:	040a                	slli	s0,s0,0x2
     d1e:	0729                	addi	a4,a4,10
     d20:	b7b5                	j	c8c <TFT_Draw_Circle+0x96>
d:\CH573FEVT\LaserRangeFinder\obj/../src/TFTc/TFT_CAD.c:343
			circlePoints[4] = (TFT_Point){x0 + plotY, y0 + plotX}; // 绗 3 璞￠
     d22:	00ea06b3          	add	a3,s4,a4
     d26:	01278633          	add	a2,a5,s2
     d2a:	06c2                	slli	a3,a3,0x10
     d2c:	0642                	slli	a2,a2,0x10
d:\CH573FEVT\LaserRangeFinder\obj/../src/TFTc/TFT_CAD.c:344
			circlePoints[5] = (TFT_Point){x0 - plotY, y0 + plotX}; // 绗 6 璞￠
     d2e:	40ea0733          	sub	a4,s4,a4
     d32:	40f907b3          	sub	a5,s2,a5
d:\CH573FEVT\LaserRangeFinder\obj/../src/TFTc/TFT_CAD.c:343
			circlePoints[4] = (TFT_Point){x0 + plotY, y0 + plotX}; // 绗 3 璞￠
     d36:	82c1                	srli	a3,a3,0x10
     d38:	8241                	srli	a2,a2,0x10
d:\CH573FEVT\LaserRangeFinder\obj/../src/TFTc/TFT_CAD.c:344
			circlePoints[5] = (TFT_Point){x0 - plotY, y0 + plotX}; // 绗 6 璞￠
     d3a:	0742                	slli	a4,a4,0x10
     d3c:	07c2                	slli	a5,a5,0x10
     d3e:	8341                	srli	a4,a4,0x10
     d40:	83c1                	srli	a5,a5,0x10
d:\CH573FEVT\LaserRangeFinder\obj/../src/TFTc/TFT_CAD.c:343
			circlePoints[4] = (TFT_Point){x0 + plotY, y0 + plotX}; // 绗 3 璞￠
     d42:	00d11823          	sh	a3,16(sp)
     d46:	00c11923          	sh	a2,18(sp)
d:\CH573FEVT\LaserRangeFinder\obj/../src/TFTc/TFT_CAD.c:344
			circlePoints[5] = (TFT_Point){x0 - plotY, y0 + plotX}; // 绗 6 璞￠
     d4a:	00c11b23          	sh	a2,22(sp)
d:\CH573FEVT\LaserRangeFinder\obj/../src/TFTc/TFT_CAD.c:345
			circlePoints[6] = (TFT_Point){x0 + plotY, y0 - plotX}; // 绗 2 璞￠
     d4e:	00d11c23          	sh	a3,24(sp)
TFT_Draw_MultiPoint():
d:\CH573FEVT\LaserRangeFinder\obj/../src/TFTc/TFT_CAD.c:345
     d52:	4621                	li	a2,8
     d54:	86d6                	mv	a3,s5
     d56:	858a                	mv	a1,sp
     d58:	854e                	mv	a0,s3
TFT_Draw_Circle():
d:\CH573FEVT\LaserRangeFinder\obj/../src/TFTc/TFT_CAD.c:344
			circlePoints[5] = (TFT_Point){x0 - plotY, y0 + plotX}; // 绗 6 璞￠
     d5a:	00e11a23          	sh	a4,20(sp)
d:\CH573FEVT\LaserRangeFinder\obj/../src/TFTc/TFT_CAD.c:345
			circlePoints[6] = (TFT_Point){x0 + plotY, y0 - plotX}; // 绗 2 璞￠
     d5e:	00f11d23          	sh	a5,26(sp)
d:\CH573FEVT\LaserRangeFinder\obj/../src/TFTc/TFT_CAD.c:346
			circlePoints[7] = (TFT_Point){x0 - plotY, y0 - plotX}; // 绗 7 璞￠
     d62:	00e11e23          	sh	a4,28(sp)
     d66:	00f11f23          	sh	a5,30(sp)
TFT_Draw_MultiPoint():
d:\CH573FEVT\LaserRangeFinder\obj/../src/TFTc/TFT_CAD.c:44
	if (points == NULL || count == 0)
     d6a:	3c51                	jal	7fe <TFT_Draw_MultiPoint.part.0>
TFT_Draw_Circle():
d:\CH573FEVT\LaserRangeFinder\obj/../src/TFTc/TFT_CAD.c:310
	while (plotX < plotY) // 浠璁＄涔涓寮 (绗浜璞￠浠 y 杞村 y=x)
     d6c:	f164c0e3          	blt	s1,s6,c6c <TFT_Draw_Circle+0x76>
     d70:	b751                	j	cf4 <TFT_Draw_Circle+0xfe>

00000d72 <TFT_Fill_Circle>:
TFT_Fill_Circle():
d:\CH573FEVT\LaserRangeFinder\obj/../src/TFTc/TFT_CAD.c:364
 * @param  r       寰
 * @param  color   濉棰 (RGB565煎)
 * @retval 
 */
void TFT_Fill_Circle(TFT_HandleTypeDef *htft, uint16_t x0, uint16_t y0, uint8_t r, uint16_t color)
{
     d72:	7179                	addi	sp,sp,-48
     d74:	d04a                	sw	s2,32(sp)
     d76:	ce4e                	sw	s3,28(sp)
     d78:	d606                	sw	ra,44(sp)
     d7a:	d422                	sw	s0,40(sp)
     d7c:	d226                	sw	s1,36(sp)
     d7e:	cc52                	sw	s4,24(sp)
     d80:	ca56                	sw	s5,20(sp)
     d82:	c85a                	sw	s6,16(sp)
     d84:	c65e                	sw	s7,12(sp)
     d86:	c462                	sw	s8,8(sp)
     d88:	c266                	sw	s9,4(sp)
     d8a:	892a                	mv	s2,a0
     d8c:	89ba                	mv	s3,a4
d:\CH573FEVT\LaserRangeFinder\obj/../src/TFTc/TFT_CAD.c:365
	if (r == 0)
     d8e:	e29d                	bnez	a3,db4 <TFT_Fill_Circle+0x42>
d:\CH573FEVT\LaserRangeFinder\obj/../src/TFTc/TFT_CAD.c:368
	{
		// 澶寰涓 0 碉缁朵涓
		TFT_Draw_Point(htft, x0, y0, color);
     d90:	86ba                	mv	a3,a4
     d92:	34d9                	jal	858 <TFT_Draw_Point>
d:\CH573FEVT\LaserRangeFinder\obj/../src/TFTc/TFT_CAD.c:412
		// : x0 - y  x0 + y (瀹藉害 2*y + 1)
		TFT_Draw_Fast_HLine(htft, x0 - plotY, y0 + plotX, 2 * plotY + 1, color);
		TFT_Draw_Fast_HLine(htft, x0 - plotY, y0 - plotX, 2 * plotY + 1, color);
	}
	// 娉ㄦ: Fast_HLine ㄤ Flush锛杩涓瑕棰澶 Flush
}
     d94:	5422                	lw	s0,40(sp)
     d96:	50b2                	lw	ra,44(sp)
     d98:	5492                	lw	s1,36(sp)
     d9a:	49f2                	lw	s3,28(sp)
     d9c:	4a62                	lw	s4,24(sp)
     d9e:	4ad2                	lw	s5,20(sp)
     da0:	4b42                	lw	s6,16(sp)
     da2:	4bb2                	lw	s7,12(sp)
     da4:	4c22                	lw	s8,8(sp)
     da6:	4c92                	lw	s9,4(sp)
d:\CH573FEVT\LaserRangeFinder\obj/../src/TFTc/TFT_CAD.c:369
		TFT_Flush_Buffer(htft, 1); // 锋板涓
     da8:	854a                	mv	a0,s2
d:\CH573FEVT\LaserRangeFinder\obj/../src/TFTc/TFT_CAD.c:412
}
     daa:	5902                	lw	s2,32(sp)
d:\CH573FEVT\LaserRangeFinder\obj/../src/TFTc/TFT_CAD.c:369
		TFT_Flush_Buffer(htft, 1); // 锋板涓
     dac:	4585                	li	a1,1
d:\CH573FEVT\LaserRangeFinder\obj/../src/TFTc/TFT_CAD.c:412
}
     dae:	6145                	addi	sp,sp,48
d:\CH573FEVT\LaserRangeFinder\obj/../src/TFTc/TFT_CAD.c:369
		TFT_Flush_Buffer(htft, 1); // 锋板涓
     db0:	39b0006f          	j	194a <TFT_Flush_Buffer>
     db4:	8aae                	mv	s5,a1
d:\CH573FEVT\LaserRangeFinder\obj/../src/TFTc/TFT_CAD.c:376
	int16_t decisionParam = 3 - (r << 1); // 濮崇: 3 - 2*r
     db6:	01069593          	slli	a1,a3,0x10
     dba:	81c1                	srli	a1,a1,0x10
d:\CH573FEVT\LaserRangeFinder\obj/../src/TFTc/TFT_CAD.c:375
	int16_t plotY = r;					  // 稿逛蹇 y 
     dbc:	01069c93          	slli	s9,a3,0x10
d:\CH573FEVT\LaserRangeFinder\obj/../src/TFTc/TFT_CAD.c:376
	int16_t decisionParam = 3 - (r << 1); // 濮崇: 3 - 2*r
     dc0:	00159693          	slli	a3,a1,0x1
d:\CH573FEVT\LaserRangeFinder\obj/../src/TFTc/TFT_CAD.c:379
	TFT_Draw_Fast_HLine(htft, x0 - r, y0, 2 * r + 1, color);
     dc4:	40ba85b3          	sub	a1,s5,a1
d:\CH573FEVT\LaserRangeFinder\obj/../src/TFTc/TFT_CAD.c:376
	int16_t decisionParam = 3 - (r << 1); // 濮崇: 3 - 2*r
     dc8:	440d                	li	s0,3
d:\CH573FEVT\LaserRangeFinder\obj/../src/TFTc/TFT_CAD.c:379
	TFT_Draw_Fast_HLine(htft, x0 - r, y0, 2 * r + 1, color);
     dca:	05c2                	slli	a1,a1,0x10
d:\CH573FEVT\LaserRangeFinder\obj/../src/TFTc/TFT_CAD.c:376
	int16_t decisionParam = 3 - (r << 1); // 濮崇: 3 - 2*r
     dcc:	8c15                	sub	s0,s0,a3
d:\CH573FEVT\LaserRangeFinder\obj/../src/TFTc/TFT_CAD.c:379
	TFT_Draw_Fast_HLine(htft, x0 - r, y0, 2 * r + 1, color);
     dce:	81c1                	srli	a1,a1,0x10
     dd0:	0685                	addi	a3,a3,1
     dd2:	8a32                	mv	s4,a2
d:\CH573FEVT\LaserRangeFinder\obj/../src/TFTc/TFT_CAD.c:375
	int16_t plotY = r;					  // 稿逛蹇 y 
     dd4:	410cdc93          	srai	s9,s9,0x10
d:\CH573FEVT\LaserRangeFinder\obj/../src/TFTc/TFT_CAD.c:379
	TFT_Draw_Fast_HLine(htft, x0 - r, y0, 2 * r + 1, color);
     dd8:	3e11                	jal	8ec <TFT_Draw_Fast_HLine>
d:\CH573FEVT\LaserRangeFinder\obj/../src/TFTc/TFT_CAD.c:374
	int16_t plotX = 0;					  // 稿逛蹇 x 
     dda:	4c01                	li	s8,0
d:\CH573FEVT\LaserRangeFinder\obj/../src/TFTc/TFT_CAD.c:384
		plotX++; // x 澧 1
     ddc:	001c0b13          	addi	s6,s8,1 # 1001 <TFT_Draw_Ellipse+0x147>
     de0:	0b42                	slli	s6,s6,0x10
     de2:	010b5b13          	srli	s6,s6,0x10
     de6:	010b1c13          	slli	s8,s6,0x10
     dea:	01041b93          	slli	s7,s0,0x10
     dee:	410c5c13          	srai	s8,s8,0x10
d:\CH573FEVT\LaserRangeFinder\obj/../src/TFTc/TFT_CAD.c:387
		if (decisionParam < 0)
     df2:	010bdb93          	srli	s7,s7,0x10
     df6:	06045763          	bgez	s0,e64 <TFT_Fill_Circle+0xf2>
d:\CH573FEVT\LaserRangeFinder\obj/../src/TFTc/TFT_CAD.c:390
			decisionParam += (plotX << 2) + 6; // decisionParam += 4*plotX + 6
     dfa:	006b8413          	addi	s0,s7,6
     dfe:	002b1b93          	slli	s7,s6,0x2
d:\CH573FEVT\LaserRangeFinder\obj/../src/TFTc/TFT_CAD.c:402
			decisionParam += ((plotX - plotY) << 2) + 10; // decisionParam += 4*(plotX - plotY) + 10
     e02:	945e                	add	s0,s0,s7
d:\CH573FEVT\LaserRangeFinder\obj/../src/TFTc/TFT_CAD.c:408
		TFT_Draw_Fast_HLine(htft, x0 - plotY, y0 + plotX, 2 * plotY + 1, color);
     e04:	010c9b93          	slli	s7,s9,0x10
     e08:	010bdb93          	srli	s7,s7,0x10
     e0c:	417a84b3          	sub	s1,s5,s7
     e10:	0b86                	slli	s7,s7,0x1
     e12:	0b85                	addi	s7,s7,1
     e14:	04c2                	slli	s1,s1,0x10
     e16:	0bc2                	slli	s7,s7,0x10
     e18:	014b0633          	add	a2,s6,s4
     e1c:	80c1                	srli	s1,s1,0x10
     e1e:	010bdb93          	srli	s7,s7,0x10
     e22:	0642                	slli	a2,a2,0x10
     e24:	874e                	mv	a4,s3
     e26:	86de                	mv	a3,s7
     e28:	8241                	srli	a2,a2,0x10
     e2a:	85a6                	mv	a1,s1
     e2c:	854a                	mv	a0,s2
     e2e:	3c7d                	jal	8ec <TFT_Draw_Fast_HLine>
d:\CH573FEVT\LaserRangeFinder\obj/../src/TFTc/TFT_CAD.c:409
		TFT_Draw_Fast_HLine(htft, x0 - plotY, y0 - plotX, 2 * plotY + 1, color);
     e30:	416a0633          	sub	a2,s4,s6
     e34:	0642                	slli	a2,a2,0x10
d:\CH573FEVT\LaserRangeFinder\obj/../src/TFTc/TFT_CAD.c:402
			decisionParam += ((plotX - plotY) << 2) + 10; // decisionParam += 4*(plotX - plotY) + 10
     e36:	0442                	slli	s0,s0,0x10
d:\CH573FEVT\LaserRangeFinder\obj/../src/TFTc/TFT_CAD.c:409
		TFT_Draw_Fast_HLine(htft, x0 - plotY, y0 - plotX, 2 * plotY + 1, color);
     e38:	874e                	mv	a4,s3
     e3a:	86de                	mv	a3,s7
     e3c:	8241                	srli	a2,a2,0x10
     e3e:	85a6                	mv	a1,s1
     e40:	854a                	mv	a0,s2
d:\CH573FEVT\LaserRangeFinder\obj/../src/TFTc/TFT_CAD.c:402
			decisionParam += ((plotX - plotY) << 2) + 10; // decisionParam += 4*(plotX - plotY) + 10
     e42:	8441                	srai	s0,s0,0x10
d:\CH573FEVT\LaserRangeFinder\obj/../src/TFTc/TFT_CAD.c:409
		TFT_Draw_Fast_HLine(htft, x0 - plotY, y0 - plotX, 2 * plotY + 1, color);
     e44:	3465                	jal	8ec <TFT_Draw_Fast_HLine>
d:\CH573FEVT\LaserRangeFinder\obj/../src/TFTc/TFT_CAD.c:382
	while (plotX < plotY)
     e46:	f99c4be3          	blt	s8,s9,ddc <TFT_Fill_Circle+0x6a>
d:\CH573FEVT\LaserRangeFinder\obj/../src/TFTc/TFT_CAD.c:412
}
     e4a:	50b2                	lw	ra,44(sp)
     e4c:	5422                	lw	s0,40(sp)
     e4e:	5492                	lw	s1,36(sp)
     e50:	5902                	lw	s2,32(sp)
     e52:	49f2                	lw	s3,28(sp)
     e54:	4a62                	lw	s4,24(sp)
     e56:	4ad2                	lw	s5,20(sp)
     e58:	4b42                	lw	s6,16(sp)
     e5a:	4bb2                	lw	s7,12(sp)
     e5c:	4c22                	lw	s8,8(sp)
     e5e:	4c92                	lw	s9,4(sp)
     e60:	6145                	addi	sp,sp,48
     e62:	8082                	ret
     e64:	010c9493          	slli	s1,s9,0x10
d:\CH573FEVT\LaserRangeFinder\obj/../src/TFTc/TFT_CAD.c:399
			TFT_Draw_Fast_HLine(htft, x0 - plotX, y0 + plotY, 2 * plotX + 1, color);
     e68:	001b1413          	slli	s0,s6,0x1
     e6c:	80c1                	srli	s1,s1,0x10
     e6e:	416a8cb3          	sub	s9,s5,s6
     e72:	0405                	addi	s0,s0,1
     e74:	009a0633          	add	a2,s4,s1
     e78:	0cc2                	slli	s9,s9,0x10
     e7a:	0442                	slli	s0,s0,0x10
     e7c:	010cdc93          	srli	s9,s9,0x10
     e80:	8041                	srli	s0,s0,0x10
     e82:	0642                	slli	a2,a2,0x10
     e84:	86a2                	mv	a3,s0
     e86:	85e6                	mv	a1,s9
     e88:	874e                	mv	a4,s3
     e8a:	8241                	srli	a2,a2,0x10
     e8c:	854a                	mv	a0,s2
     e8e:	3cb9                	jal	8ec <TFT_Draw_Fast_HLine>
d:\CH573FEVT\LaserRangeFinder\obj/../src/TFTc/TFT_CAD.c:400
			TFT_Draw_Fast_HLine(htft, x0 - plotX, y0 - plotY, 2 * plotX + 1, color);
     e90:	409a0633          	sub	a2,s4,s1
d:\CH573FEVT\LaserRangeFinder\obj/../src/TFTc/TFT_CAD.c:401
			plotY--;									  // y 灏 1
     e94:	14fd                	addi	s1,s1,-1
     e96:	04c2                	slli	s1,s1,0x10
     e98:	80c1                	srli	s1,s1,0x10
d:\CH573FEVT\LaserRangeFinder\obj/../src/TFTc/TFT_CAD.c:400
			TFT_Draw_Fast_HLine(htft, x0 - plotX, y0 - plotY, 2 * plotX + 1, color);
     e9a:	0642                	slli	a2,a2,0x10
     e9c:	86a2                	mv	a3,s0
     e9e:	85e6                	mv	a1,s9
     ea0:	874e                	mv	a4,s3
     ea2:	8241                	srli	a2,a2,0x10
     ea4:	854a                	mv	a0,s2
d:\CH573FEVT\LaserRangeFinder\obj/../src/TFTc/TFT_CAD.c:401
			plotY--;									  // y 灏 1
     ea6:	01049c93          	slli	s9,s1,0x10
d:\CH573FEVT\LaserRangeFinder\obj/../src/TFTc/TFT_CAD.c:402
			decisionParam += ((plotX - plotY) << 2) + 10; // decisionParam += 4*(plotX - plotY) + 10
     eaa:	409b0433          	sub	s0,s6,s1
d:\CH573FEVT\LaserRangeFinder\obj/../src/TFTc/TFT_CAD.c:400
			TFT_Draw_Fast_HLine(htft, x0 - plotX, y0 - plotY, 2 * plotX + 1, color);
     eae:	3c3d                	jal	8ec <TFT_Draw_Fast_HLine>
d:\CH573FEVT\LaserRangeFinder\obj/../src/TFTc/TFT_CAD.c:401
			plotY--;									  // y 灏 1
     eb0:	410cdc93          	srai	s9,s9,0x10
d:\CH573FEVT\LaserRangeFinder\obj/../src/TFTc/TFT_CAD.c:402
			decisionParam += ((plotX - plotY) << 2) + 10; // decisionParam += 4*(plotX - plotY) + 10
     eb4:	040a                	slli	s0,s0,0x2
     eb6:	0ba9                	addi	s7,s7,10
     eb8:	b7a9                	j	e02 <TFT_Fill_Circle+0x90>

00000eba <TFT_Draw_Ellipse>:
TFT_Draw_Ellipse():
d:\CH573FEVT\LaserRangeFinder\obj/../src/TFTc/TFT_CAD.c:799
 * @param  radiusY 妞Y杞村寰
 * @param  color   妞棰 (RGB565煎)
 * @retval 
 */
void TFT_Draw_Ellipse(TFT_HandleTypeDef *htft, uint16_t centerX, uint16_t centerY, uint16_t radiusX, uint16_t radiusY, uint16_t color)
{
     eba:	711d                	addi	sp,sp,-96
     ebc:	d86a                	sw	s10,48(sp)
d:\CH573FEVT\LaserRangeFinder\obj/../src/TFTc/TFT_CAD.c:803
	int32_t x = 0;
	int32_t y = radiusY;

	int32_t radiusX2 = radiusX * radiusX;
     ebe:	02d68d33          	mul	s10,a3,a3
d:\CH573FEVT\LaserRangeFinder\obj/../src/TFTc/TFT_CAD.c:799
{
     ec2:	caa6                	sw	s1,84(sp)
     ec4:	dc62                	sw	s8,56(sp)
     ec6:	de5e                	sw	s7,60(sp)
     ec8:	8bbe                	mv	s7,a5
     eca:	cca2                	sw	s0,88(sp)
     ecc:	c8ca                	sw	s2,80(sp)
     ece:	c6ce                	sw	s3,76(sp)
     ed0:	c4d2                	sw	s4,72(sp)
     ed2:	c2d6                	sw	s5,68(sp)
d:\CH573FEVT\LaserRangeFinder\obj/../src/TFTc/TFT_CAD.c:804
	int32_t radiusY2 = radiusY * radiusY;
     ed4:	02e70c33          	mul	s8,a4,a4
d:\CH573FEVT\LaserRangeFinder\obj/../src/TFTc/TFT_CAD.c:805
	int32_t error = radiusY2 - (radiusX2 * radiusY) + (radiusX2 / 4);
     ed8:	402d5793          	srai	a5,s10,0x2
d:\CH573FEVT\LaserRangeFinder\obj/../src/TFTc/TFT_CAD.c:799
{
     edc:	c0da                	sw	s6,64(sp)
     ede:	ce86                	sw	ra,92(sp)
     ee0:	da66                	sw	s9,52(sp)
     ee2:	d66e                	sw	s11,44(sp)
     ee4:	8a2a                	mv	s4,a0
     ee6:	8aae                	mv	s5,a1
     ee8:	8b32                	mv	s6,a2
d:\CH573FEVT\LaserRangeFinder\obj/../src/TFTc/TFT_CAD.c:801
	int32_t y = radiusY;
     eea:	893a                	mv	s2,a4
d:\CH573FEVT\LaserRangeFinder\obj/../src/TFTc/TFT_CAD.c:805
	int32_t error = radiusY2 - (radiusX2 * radiusY) + (radiusX2 / 4);
     eec:	03a704b3          	mul	s1,a4,s10
d:\CH573FEVT\LaserRangeFinder\obj/../src/TFTc/TFT_CAD.c:812
	TFT_Point ellipsePoints[4]; // ㄤ归缁剁圭扮

	// 纭淇缂插烘绌虹
	TFT_Reset_Buffer(htft);

	while (radiusX2 * y > radiusY2 * x)
     ef0:	4401                	li	s0,0
d:\CH573FEVT\LaserRangeFinder\obj/../src/TFTc/TFT_CAD.c:800
	int32_t x = 0;
     ef2:	4981                	li	s3,0
d:\CH573FEVT\LaserRangeFinder\obj/../src/TFTc/TFT_CAD.c:805
	int32_t error = radiusY2 - (radiusX2 * radiusY) + (radiusX2 / 4);
     ef4:	409c04b3          	sub	s1,s8,s1
     ef8:	94be                	add	s1,s1,a5
d:\CH573FEVT\LaserRangeFinder\obj/../src/TFTc/TFT_CAD.c:810
	TFT_Reset_Buffer(htft);
     efa:	2d3000ef          	jal	ra,19cc <TFT_Reset_Buffer>
d:\CH573FEVT\LaserRangeFinder\obj/../src/TFTc/TFT_CAD.c:812
	while (radiusX2 * y > radiusY2 * x)
     efe:	480d                	li	a6,3
     f00:	030c0833          	mul	a6,s8,a6
     f04:	03a90cb3          	mul	s9,s2,s10
     f08:	05944a63          	blt	s0,s9,f5c <TFT_Draw_Ellipse+0xa2>
d:\CH573FEVT\LaserRangeFinder\obj/../src/TFTc/TFT_CAD.c:837
		}
		x++;
		error += 2 * radiusY2 * x + radiusY2;
	}

	error = radiusY2 * x * x + radiusX2 * y * y - radiusX2 * radiusY2;
     f0c:	03340433          	mul	s0,s0,s3
     f10:	fff90493          	addi	s1,s2,-1
     f14:	001d1d93          	slli	s11,s10,0x1
     f18:	032c8cb3          	mul	s9,s9,s2
     f1c:	038d07b3          	mul	a5,s10,s8
     f20:	9466                	add	s0,s0,s9
     f22:	03a484b3          	mul	s1,s1,s10
     f26:	8c1d                	sub	s0,s0,a5
d:\CH573FEVT\LaserRangeFinder\obj/../src/TFTc/TFT_CAD.c:839

	while (y >= 0)
     f28:	57f9                	li	a5,-2
     f2a:	02f484b3          	mul	s1,s1,a5
     f2e:	94ea                	add	s1,s1,s10
     f30:	02010d13          	addi	s10,sp,32
     f34:	0a095f63          	bgez	s2,ff2 <TFT_Draw_Ellipse+0x138>
d:\CH573FEVT\LaserRangeFinder\obj/../src/TFTc/TFT_CAD.c:865
		y--;
		error += -2 * radiusX2 * y + radiusX2;
	}

	TFT_Flush_Buffer(htft, 1); // 纭淇归借板骞
}
     f38:	4466                	lw	s0,88(sp)
     f3a:	40f6                	lw	ra,92(sp)
     f3c:	44d6                	lw	s1,84(sp)
     f3e:	4946                	lw	s2,80(sp)
     f40:	49b6                	lw	s3,76(sp)
     f42:	4a96                	lw	s5,68(sp)
     f44:	4b06                	lw	s6,64(sp)
     f46:	5bf2                	lw	s7,60(sp)
     f48:	5c62                	lw	s8,56(sp)
     f4a:	5cd2                	lw	s9,52(sp)
     f4c:	5d42                	lw	s10,48(sp)
     f4e:	5db2                	lw	s11,44(sp)
d:\CH573FEVT\LaserRangeFinder\obj/../src/TFTc/TFT_CAD.c:864
	TFT_Flush_Buffer(htft, 1); // 纭淇归借板骞
     f50:	8552                	mv	a0,s4
d:\CH573FEVT\LaserRangeFinder\obj/../src/TFTc/TFT_CAD.c:865
}
     f52:	4a26                	lw	s4,72(sp)
d:\CH573FEVT\LaserRangeFinder\obj/../src/TFTc/TFT_CAD.c:864
	TFT_Flush_Buffer(htft, 1); // 纭淇归借板骞
     f54:	4585                	li	a1,1
d:\CH573FEVT\LaserRangeFinder\obj/../src/TFTc/TFT_CAD.c:865
}
     f56:	6125                	addi	sp,sp,96
d:\CH573FEVT\LaserRangeFinder\obj/../src/TFTc/TFT_CAD.c:864
	TFT_Flush_Buffer(htft, 1); // 纭淇归借板骞
     f58:	1f30006f          	j	194a <TFT_Flush_Buffer>
d:\CH573FEVT\LaserRangeFinder\obj/../src/TFTc/TFT_CAD.c:815
		ellipsePoints[0] = (TFT_Point){centerX + x, centerY + y};
     f5c:	01099713          	slli	a4,s3,0x10
     f60:	01091793          	slli	a5,s2,0x10
     f64:	8341                	srli	a4,a4,0x10
     f66:	83c1                	srli	a5,a5,0x10
     f68:	00ea86b3          	add	a3,s5,a4
     f6c:	01678633          	add	a2,a5,s6
     f70:	40ea8733          	sub	a4,s5,a4
d:\CH573FEVT\LaserRangeFinder\obj/../src/TFTc/TFT_CAD.c:817
		ellipsePoints[2] = (TFT_Point){centerX + x, centerY - y};
     f74:	40fb07b3          	sub	a5,s6,a5
     f78:	06c2                	slli	a3,a3,0x10
d:\CH573FEVT\LaserRangeFinder\obj/../src/TFTc/TFT_CAD.c:815
		ellipsePoints[0] = (TFT_Point){centerX + x, centerY + y};
     f7a:	0642                	slli	a2,a2,0x10
     f7c:	0742                	slli	a4,a4,0x10
d:\CH573FEVT\LaserRangeFinder\obj/../src/TFTc/TFT_CAD.c:817
		ellipsePoints[2] = (TFT_Point){centerX + x, centerY - y};
     f7e:	07c2                	slli	a5,a5,0x10
     f80:	82c1                	srli	a3,a3,0x10
d:\CH573FEVT\LaserRangeFinder\obj/../src/TFTc/TFT_CAD.c:815
		ellipsePoints[0] = (TFT_Point){centerX + x, centerY + y};
     f82:	8241                	srli	a2,a2,0x10
     f84:	8341                	srli	a4,a4,0x10
d:\CH573FEVT\LaserRangeFinder\obj/../src/TFTc/TFT_CAD.c:817
		ellipsePoints[2] = (TFT_Point){centerX + x, centerY - y};
     f86:	83c1                	srli	a5,a5,0x10
d:\CH573FEVT\LaserRangeFinder\obj/../src/TFTc/TFT_CAD.c:815
		ellipsePoints[0] = (TFT_Point){centerX + x, centerY + y};
     f88:	00d11823          	sh	a3,16(sp)
     f8c:	00c11923          	sh	a2,18(sp)
d:\CH573FEVT\LaserRangeFinder\obj/../src/TFTc/TFT_CAD.c:816
		ellipsePoints[1] = (TFT_Point){centerX - x, centerY + y};
     f90:	00e11a23          	sh	a4,20(sp)
     f94:	00c11b23          	sh	a2,22(sp)
d:\CH573FEVT\LaserRangeFinder\obj/../src/TFTc/TFT_CAD.c:817
		ellipsePoints[2] = (TFT_Point){centerX + x, centerY - y};
     f98:	00d11c23          	sh	a3,24(sp)
     f9c:	00f11d23          	sh	a5,26(sp)
d:\CH573FEVT\LaserRangeFinder\obj/../src/TFTc/TFT_CAD.c:818
		ellipsePoints[3] = (TFT_Point){centerX - x, centerY - y};
     fa0:	00e11e23          	sh	a4,28(sp)
     fa4:	00f11f23          	sh	a5,30(sp)
d:\CH573FEVT\LaserRangeFinder\obj/../src/TFTc/TFT_CAD.c:821
		for (uint8_t i = 0; i < 4; i++)
     fa8:	01010d93          	addi	s11,sp,16
d:\CH573FEVT\LaserRangeFinder\obj/../src/TFTc/TFT_CAD.c:823 (discriminator 3)
			TFT_Set_Address(htft, ellipsePoints[i].x, ellipsePoints[i].y,
     fac:	000dd683          	lhu	a3,0(s11)
     fb0:	002dd703          	lhu	a4,2(s11)
     fb4:	8552                	mv	a0,s4
     fb6:	85b6                	mv	a1,a3
     fb8:	863a                	mv	a2,a4
     fba:	c642                	sw	a6,12(sp)
     fbc:	31d000ef          	jal	ra,1ad8 <TFT_Set_Address>
d:\CH573FEVT\LaserRangeFinder\obj/../src/TFTc/TFT_CAD.c:825 (discriminator 3)
			TFT_Buffer_Write16(htft, color);
     fc0:	85de                	mv	a1,s7
     fc2:	8552                	mv	a0,s4
     fc4:	1ad000ef          	jal	ra,1970 <TFT_Buffer_Write16>
     fc8:	0d91                	addi	s11,s11,4
d:\CH573FEVT\LaserRangeFinder\obj/../src/TFTc/TFT_CAD.c:821 (discriminator 3)
		for (uint8_t i = 0; i < 4; i++)
     fca:	02010893          	addi	a7,sp,32
     fce:	4832                	lw	a6,12(sp)
     fd0:	fd1d9ee3          	bne	s11,a7,fac <TFT_Draw_Ellipse+0xf2>
d:\CH573FEVT\LaserRangeFinder\obj/../src/TFTc/TFT_CAD.c:828
		if (error >= 0)
     fd4:	0004c863          	bltz	s1,fe4 <TFT_Draw_Ellipse+0x12a>
d:\CH573FEVT\LaserRangeFinder\obj/../src/TFTc/TFT_CAD.c:831
			error -= 2 * radiusX2 * y;
     fd8:	41ac8cb3          	sub	s9,s9,s10
     fdc:	0c86                	slli	s9,s9,0x1
d:\CH573FEVT\LaserRangeFinder\obj/../src/TFTc/TFT_CAD.c:830
			y--;
     fde:	197d                	addi	s2,s2,-1
d:\CH573FEVT\LaserRangeFinder\obj/../src/TFTc/TFT_CAD.c:831
			error -= 2 * radiusX2 * y;
     fe0:	419484b3          	sub	s1,s1,s9
d:\CH573FEVT\LaserRangeFinder\obj/../src/TFTc/TFT_CAD.c:834
		error += 2 * radiusY2 * x + radiusY2;
     fe4:	00141793          	slli	a5,s0,0x1
     fe8:	97c2                	add	a5,a5,a6
d:\CH573FEVT\LaserRangeFinder\obj/../src/TFTc/TFT_CAD.c:833
		x++;
     fea:	0985                	addi	s3,s3,1
d:\CH573FEVT\LaserRangeFinder\obj/../src/TFTc/TFT_CAD.c:834
		error += 2 * radiusY2 * x + radiusY2;
     fec:	94be                	add	s1,s1,a5
     fee:	9462                	add	s0,s0,s8
     ff0:	bf11                	j	f04 <TFT_Draw_Ellipse+0x4a>
d:\CH573FEVT\LaserRangeFinder\obj/../src/TFTc/TFT_CAD.c:842
		ellipsePoints[0] = (TFT_Point){centerX + x, centerY + y};
     ff2:	01099713          	slli	a4,s3,0x10
     ff6:	01091793          	slli	a5,s2,0x10
     ffa:	8341                	srli	a4,a4,0x10
     ffc:	83c1                	srli	a5,a5,0x10
     ffe:	015706b3          	add	a3,a4,s5
    1002:	00fb0633          	add	a2,s6,a5
d:\CH573FEVT\LaserRangeFinder\obj/../src/TFTc/TFT_CAD.c:843
		ellipsePoints[1] = (TFT_Point){centerX - x, centerY + y};
    1006:	40ea8733          	sub	a4,s5,a4
    100a:	40fb07b3          	sub	a5,s6,a5
d:\CH573FEVT\LaserRangeFinder\obj/../src/TFTc/TFT_CAD.c:842
		ellipsePoints[0] = (TFT_Point){centerX + x, centerY + y};
    100e:	06c2                	slli	a3,a3,0x10
    1010:	0642                	slli	a2,a2,0x10
d:\CH573FEVT\LaserRangeFinder\obj/../src/TFTc/TFT_CAD.c:843
		ellipsePoints[1] = (TFT_Point){centerX - x, centerY + y};
    1012:	0742                	slli	a4,a4,0x10
    1014:	07c2                	slli	a5,a5,0x10
d:\CH573FEVT\LaserRangeFinder\obj/../src/TFTc/TFT_CAD.c:842
		ellipsePoints[0] = (TFT_Point){centerX + x, centerY + y};
    1016:	82c1                	srli	a3,a3,0x10
    1018:	8241                	srli	a2,a2,0x10
d:\CH573FEVT\LaserRangeFinder\obj/../src/TFTc/TFT_CAD.c:843
		ellipsePoints[1] = (TFT_Point){centerX - x, centerY + y};
    101a:	8341                	srli	a4,a4,0x10
    101c:	83c1                	srli	a5,a5,0x10
d:\CH573FEVT\LaserRangeFinder\obj/../src/TFTc/TFT_CAD.c:842
		ellipsePoints[0] = (TFT_Point){centerX + x, centerY + y};
    101e:	00d11823          	sh	a3,16(sp)
    1022:	00c11923          	sh	a2,18(sp)
d:\CH573FEVT\LaserRangeFinder\obj/../src/TFTc/TFT_CAD.c:843
		ellipsePoints[1] = (TFT_Point){centerX - x, centerY + y};
    1026:	00e11a23          	sh	a4,20(sp)
    102a:	00c11b23          	sh	a2,22(sp)
d:\CH573FEVT\LaserRangeFinder\obj/../src/TFTc/TFT_CAD.c:844
		ellipsePoints[2] = (TFT_Point){centerX + x, centerY - y};
    102e:	00d11c23          	sh	a3,24(sp)
    1032:	00f11d23          	sh	a5,26(sp)
d:\CH573FEVT\LaserRangeFinder\obj/../src/TFTc/TFT_CAD.c:845
		ellipsePoints[3] = (TFT_Point){centerX - x, centerY - y};
    1036:	00e11e23          	sh	a4,28(sp)
    103a:	00f11f23          	sh	a5,30(sp)
d:\CH573FEVT\LaserRangeFinder\obj/../src/TFTc/TFT_CAD.c:848
		for (uint8_t i = 0; i < 4; i++)
    103e:	01010c93          	addi	s9,sp,16
d:\CH573FEVT\LaserRangeFinder\obj/../src/TFTc/TFT_CAD.c:850 (discriminator 3)
			TFT_Set_Address(htft, ellipsePoints[i].x, ellipsePoints[i].y,
    1042:	000cd683          	lhu	a3,0(s9)
    1046:	002cd703          	lhu	a4,2(s9)
    104a:	8552                	mv	a0,s4
    104c:	85b6                	mv	a1,a3
    104e:	863a                	mv	a2,a4
    1050:	289000ef          	jal	ra,1ad8 <TFT_Set_Address>
d:\CH573FEVT\LaserRangeFinder\obj/../src/TFTc/TFT_CAD.c:852 (discriminator 3)
			TFT_Buffer_Write16(htft, color);
    1054:	85de                	mv	a1,s7
    1056:	8552                	mv	a0,s4
    1058:	0c91                	addi	s9,s9,4
    105a:	117000ef          	jal	ra,1970 <TFT_Buffer_Write16>
d:\CH573FEVT\LaserRangeFinder\obj/../src/TFTc/TFT_CAD.c:848 (discriminator 3)
		for (uint8_t i = 0; i < 4; i++)
    105e:	ffac92e3          	bne	s9,s10,1042 <TFT_Draw_Ellipse+0x188>
d:\CH573FEVT\LaserRangeFinder\obj/../src/TFTc/TFT_CAD.c:855
		if (error <= 0)
    1062:	00804763          	bgtz	s0,1070 <TFT_Draw_Ellipse+0x1b6>
d:\CH573FEVT\LaserRangeFinder\obj/../src/TFTc/TFT_CAD.c:857
			x++;
    1066:	0985                	addi	s3,s3,1
d:\CH573FEVT\LaserRangeFinder\obj/../src/TFTc/TFT_CAD.c:858
			error += 2 * radiusY2 * x;
    1068:	033c07b3          	mul	a5,s8,s3
    106c:	0786                	slli	a5,a5,0x1
    106e:	943e                	add	s0,s0,a5
d:\CH573FEVT\LaserRangeFinder\obj/../src/TFTc/TFT_CAD.c:861
		error += -2 * radiusX2 * y + radiusX2;
    1070:	9426                	add	s0,s0,s1
d:\CH573FEVT\LaserRangeFinder\obj/../src/TFTc/TFT_CAD.c:860
		y--;
    1072:	197d                	addi	s2,s2,-1
d:\CH573FEVT\LaserRangeFinder\obj/../src/TFTc/TFT_CAD.c:861
		error += -2 * radiusX2 * y + radiusX2;
    1074:	94ee                	add	s1,s1,s11
    1076:	bd7d                	j	f34 <TFT_Draw_Ellipse+0x7a>

00001078 <TFT_Fill_Ellipse>:
TFT_Fill_Ellipse():
d:\CH573FEVT\LaserRangeFinder\obj/../src/TFTc/TFT_CAD.c:877
 * @param  radiusY 妞Y杞村寰
 * @param  color   濉棰 (RGB565煎)
 * @retval 
 */
void TFT_Fill_Ellipse(TFT_HandleTypeDef *htft, uint16_t centerX, uint16_t centerY, uint16_t radiusX, uint16_t radiusY, uint16_t color)
{
    1078:	715d                	addi	sp,sp,-80
    107a:	ce6e                	sw	s11,28(sp)
d:\CH573FEVT\LaserRangeFinder\obj/../src/TFTc/TFT_CAD.c:880
	int32_t x = 0;
	int32_t y = radiusY;
	int32_t radiusX2 = radiusX * radiusX;
    107c:	02d68db3          	mul	s11,a3,a3
d:\CH573FEVT\LaserRangeFinder\obj/../src/TFTc/TFT_CAD.c:877
{
    1080:	d06a                	sw	s10,32(sp)
    1082:	da56                	sw	s5,52(sp)
    1084:	8abe                	mv	s5,a5
    1086:	488d                	li	a7,3
    1088:	d65e                	sw	s7,44(sp)
d:\CH573FEVT\LaserRangeFinder\obj/../src/TFTc/TFT_CAD.c:879
	int32_t y = radiusY;
    108a:	8bba                	mv	s7,a4
d:\CH573FEVT\LaserRangeFinder\obj/../src/TFTc/TFT_CAD.c:877
{
    108c:	c0ca                	sw	s2,64(sp)
    108e:	de4e                	sw	s3,60(sp)
    1090:	dc52                	sw	s4,56(sp)
d:\CH573FEVT\LaserRangeFinder\obj/../src/TFTc/TFT_CAD.c:881
	int32_t radiusY2 = radiusY * radiusY;
    1092:	02e70d33          	mul	s10,a4,a4
d:\CH573FEVT\LaserRangeFinder\obj/../src/TFTc/TFT_CAD.c:877
{
    1096:	d85a                	sw	s6,48(sp)
    1098:	d266                	sw	s9,36(sp)
    109a:	c686                	sw	ra,76(sp)
    109c:	c4a2                	sw	s0,72(sp)
    109e:	c2a6                	sw	s1,68(sp)
    10a0:	d462                	sw	s8,40(sp)
    10a2:	89aa                	mv	s3,a0
    10a4:	8b2e                	mv	s6,a1
    10a6:	8a32                	mv	s4,a2
d:\CH573FEVT\LaserRangeFinder\obj/../src/TFTc/TFT_CAD.c:882
	int32_t error = radiusY2 - (radiusX2 * radiusY) + (radiusX2 / 4);
    10a8:	03b707b3          	mul	a5,a4,s11
    10ac:	402dd713          	srai	a4,s11,0x2
d:\CH573FEVT\LaserRangeFinder\obj/../src/TFTc/TFT_CAD.c:885

	// 绗涓哄
	while (radiusX2 * y > radiusY2 * x)
    10b0:	4901                	li	s2,0
d:\CH573FEVT\LaserRangeFinder\obj/../src/TFTc/TFT_CAD.c:878
	int32_t x = 0;
    10b2:	4c81                	li	s9,0
    10b4:	031d08b3          	mul	a7,s10,a7
d:\CH573FEVT\LaserRangeFinder\obj/../src/TFTc/TFT_CAD.c:882
	int32_t error = radiusY2 - (radiusX2 * radiusY) + (radiusX2 / 4);
    10b8:	40fd07b3          	sub	a5,s10,a5
    10bc:	97ba                	add	a5,a5,a4
d:\CH573FEVT\LaserRangeFinder\obj/../src/TFTc/TFT_CAD.c:885
	while (radiusX2 * y > radiusY2 * x)
    10be:	03bb8c33          	mul	s8,s7,s11
    10c2:	05894563          	blt	s2,s8,110c <TFT_Fill_Ellipse+0x94>
d:\CH573FEVT\LaserRangeFinder\obj/../src/TFTc/TFT_CAD.c:901
		x++;
		error += 2 * radiusY2 * x + radiusY2;
	}

	// 绗浜哄
	error = radiusY2 * x * x + radiusX2 * y * y - radiusX2 * radiusY2;
    10c6:	fffb8493          	addi	s1,s7,-1
    10ca:	03b484b3          	mul	s1,s1,s11
    10ce:	5779                	li	a4,-2
    10d0:	03990433          	mul	s0,s2,s9
    10d4:	037c0c33          	mul	s8,s8,s7
    10d8:	03ad87b3          	mul	a5,s11,s10
    10dc:	9462                	add	s0,s0,s8
    10de:	02e484b3          	mul	s1,s1,a4
    10e2:	8c1d                	sub	s0,s0,a5
d:\CH573FEVT\LaserRangeFinder\obj/../src/TFTc/TFT_CAD.c:903

	while (y >= 0)
    10e4:	001d9793          	slli	a5,s11,0x1
    10e8:	94ee                	add	s1,s1,s11
    10ea:	080bd963          	bgez	s7,117c <TFT_Fill_Ellipse+0x104>
d:\CH573FEVT\LaserRangeFinder\obj/../src/TFTc/TFT_CAD.c:917
			error += 2 * radiusY2 * x;
		}
		y--;
		error += -2 * radiusX2 * y + radiusX2;
	}
}
    10ee:	40b6                	lw	ra,76(sp)
    10f0:	4426                	lw	s0,72(sp)
    10f2:	4496                	lw	s1,68(sp)
    10f4:	4906                	lw	s2,64(sp)
    10f6:	59f2                	lw	s3,60(sp)
    10f8:	5a62                	lw	s4,56(sp)
    10fa:	5ad2                	lw	s5,52(sp)
    10fc:	5b42                	lw	s6,48(sp)
    10fe:	5bb2                	lw	s7,44(sp)
    1100:	5c22                	lw	s8,40(sp)
    1102:	5c92                	lw	s9,36(sp)
    1104:	5d02                	lw	s10,32(sp)
    1106:	4df2                	lw	s11,28(sp)
    1108:	6161                	addi	sp,sp,80
    110a:	8082                	ret
    110c:	010c9413          	slli	s0,s9,0x10
    1110:	8041                	srli	s0,s0,0x10
    1112:	408b0833          	sub	a6,s6,s0
d:\CH573FEVT\LaserRangeFinder\obj/../src/TFTc/TFT_CAD.c:888
		TFT_Draw_Fast_HLine(htft, centerX - x, centerY + y, 2 * x + 1, color);
    1116:	010b9493          	slli	s1,s7,0x10
    111a:	0406                	slli	s0,s0,0x1
    111c:	80c1                	srli	s1,s1,0x10
    111e:	0405                	addi	s0,s0,1
    1120:	0842                	slli	a6,a6,0x10
    1122:	0442                	slli	s0,s0,0x10
    1124:	01448633          	add	a2,s1,s4
    1128:	01085813          	srli	a6,a6,0x10
    112c:	8041                	srli	s0,s0,0x10
    112e:	0642                	slli	a2,a2,0x10
    1130:	85c2                	mv	a1,a6
    1132:	8756                	mv	a4,s5
    1134:	86a2                	mv	a3,s0
    1136:	8241                	srli	a2,a2,0x10
    1138:	854e                	mv	a0,s3
    113a:	c646                	sw	a7,12(sp)
    113c:	c43e                	sw	a5,8(sp)
    113e:	c242                	sw	a6,4(sp)
    1140:	facff0ef          	jal	ra,8ec <TFT_Draw_Fast_HLine>
d:\CH573FEVT\LaserRangeFinder\obj/../src/TFTc/TFT_CAD.c:889
		TFT_Draw_Fast_HLine(htft, centerX - x, centerY - y, 2 * x + 1, color);
    1144:	4812                	lw	a6,4(sp)
    1146:	409a0633          	sub	a2,s4,s1
    114a:	0642                	slli	a2,a2,0x10
    114c:	8756                	mv	a4,s5
    114e:	86a2                	mv	a3,s0
    1150:	8241                	srli	a2,a2,0x10
    1152:	85c2                	mv	a1,a6
    1154:	854e                	mv	a0,s3
    1156:	f96ff0ef          	jal	ra,8ec <TFT_Draw_Fast_HLine>
d:\CH573FEVT\LaserRangeFinder\obj/../src/TFTc/TFT_CAD.c:891
		if (error >= 0)
    115a:	47a2                	lw	a5,8(sp)
    115c:	48b2                	lw	a7,12(sp)
    115e:	0007c863          	bltz	a5,116e <TFT_Fill_Ellipse+0xf6>
d:\CH573FEVT\LaserRangeFinder\obj/../src/TFTc/TFT_CAD.c:894
			error -= 2 * radiusX2 * y;
    1162:	41bc0c33          	sub	s8,s8,s11
    1166:	0c06                	slli	s8,s8,0x1
d:\CH573FEVT\LaserRangeFinder\obj/../src/TFTc/TFT_CAD.c:893
			y--;
    1168:	1bfd                	addi	s7,s7,-1
d:\CH573FEVT\LaserRangeFinder\obj/../src/TFTc/TFT_CAD.c:894
			error -= 2 * radiusX2 * y;
    116a:	418787b3          	sub	a5,a5,s8
d:\CH573FEVT\LaserRangeFinder\obj/../src/TFTc/TFT_CAD.c:897
		error += 2 * radiusY2 * x + radiusY2;
    116e:	00191713          	slli	a4,s2,0x1
    1172:	9746                	add	a4,a4,a7
d:\CH573FEVT\LaserRangeFinder\obj/../src/TFTc/TFT_CAD.c:896
		x++;
    1174:	0c85                	addi	s9,s9,1
d:\CH573FEVT\LaserRangeFinder\obj/../src/TFTc/TFT_CAD.c:897
		error += 2 * radiusY2 * x + radiusY2;
    1176:	97ba                	add	a5,a5,a4
    1178:	996a                	add	s2,s2,s10
    117a:	b791                	j	10be <TFT_Fill_Ellipse+0x46>
d:\CH573FEVT\LaserRangeFinder\obj/../src/TFTc/TFT_CAD.c:906
		TFT_Draw_Fast_HLine(htft, centerX - x, centerY + y, 2 * x + 1, color);
    117c:	010c9913          	slli	s2,s9,0x10
    1180:	01095913          	srli	s2,s2,0x10
    1184:	412b0db3          	sub	s11,s6,s2
    1188:	010b9c13          	slli	s8,s7,0x10
    118c:	0906                	slli	s2,s2,0x1
    118e:	010c5c13          	srli	s8,s8,0x10
    1192:	0905                	addi	s2,s2,1
    1194:	0dc2                	slli	s11,s11,0x10
    1196:	0942                	slli	s2,s2,0x10
    1198:	018a0633          	add	a2,s4,s8
    119c:	010ddd93          	srli	s11,s11,0x10
    11a0:	01095913          	srli	s2,s2,0x10
    11a4:	0642                	slli	a2,a2,0x10
    11a6:	8756                	mv	a4,s5
    11a8:	86ca                	mv	a3,s2
    11aa:	8241                	srli	a2,a2,0x10
    11ac:	85ee                	mv	a1,s11
    11ae:	854e                	mv	a0,s3
    11b0:	c23e                	sw	a5,4(sp)
    11b2:	f3aff0ef          	jal	ra,8ec <TFT_Draw_Fast_HLine>
d:\CH573FEVT\LaserRangeFinder\obj/../src/TFTc/TFT_CAD.c:907
		TFT_Draw_Fast_HLine(htft, centerX - x, centerY - y, 2 * x + 1, color);
    11b6:	418a0633          	sub	a2,s4,s8
    11ba:	0642                	slli	a2,a2,0x10
    11bc:	8756                	mv	a4,s5
    11be:	86ca                	mv	a3,s2
    11c0:	8241                	srli	a2,a2,0x10
    11c2:	85ee                	mv	a1,s11
    11c4:	854e                	mv	a0,s3
    11c6:	f26ff0ef          	jal	ra,8ec <TFT_Draw_Fast_HLine>
d:\CH573FEVT\LaserRangeFinder\obj/../src/TFTc/TFT_CAD.c:909
		if (error <= 0)
    11ca:	4792                	lw	a5,4(sp)
    11cc:	00804763          	bgtz	s0,11da <TFT_Fill_Ellipse+0x162>
d:\CH573FEVT\LaserRangeFinder\obj/../src/TFTc/TFT_CAD.c:911
			x++;
    11d0:	0c85                	addi	s9,s9,1
d:\CH573FEVT\LaserRangeFinder\obj/../src/TFTc/TFT_CAD.c:912
			error += 2 * radiusY2 * x;
    11d2:	039d0733          	mul	a4,s10,s9
    11d6:	0706                	slli	a4,a4,0x1
    11d8:	943a                	add	s0,s0,a4
d:\CH573FEVT\LaserRangeFinder\obj/../src/TFTc/TFT_CAD.c:915
		error += -2 * radiusX2 * y + radiusX2;
    11da:	9426                	add	s0,s0,s1
d:\CH573FEVT\LaserRangeFinder\obj/../src/TFTc/TFT_CAD.c:914
		y--;
    11dc:	1bfd                	addi	s7,s7,-1
d:\CH573FEVT\LaserRangeFinder\obj/../src/TFTc/TFT_CAD.c:915
		error += -2 * radiusX2 * y + radiusX2;
    11de:	94be                	add	s1,s1,a5
    11e0:	b729                	j	10ea <TFT_Fill_Ellipse+0x72>

000011e2 <TFT_Set_Direction>:
TFT_Set_Direction():
d:\CH573FEVT\LaserRangeFinder\obj/../src/TFTc/TFT_init.c:162
 * @retval 
 * @note   绉TFT灞骞MADCTL璁剧疆戒锛璇锋规版璋
 *         ST7735S绾㈡垮ST7735R榛跨MADCTL璁剧疆棰查『搴涓
 */
static void TFT_Set_Direction(TFT_HandleTypeDef *htft, uint8_t direction)
{
    11e2:	1141                	addi	sp,sp,-16
    11e4:	c226                	sw	s1,4(sp)
    11e6:	84ae                	mv	s1,a1
d:\CH573FEVT\LaserRangeFinder\obj/../src/TFTc/TFT_init.c:163
	TFT_Write_Command(htft, 0x36); // MADCTL - Memory Data Access Control
    11e8:	03600593          	li	a1,54
d:\CH573FEVT\LaserRangeFinder\obj/../src/TFTc/TFT_init.c:162
{
    11ec:	c422                	sw	s0,8(sp)
    11ee:	c606                	sw	ra,12(sp)
    11f0:	842a                	mv	s0,a0
d:\CH573FEVT\LaserRangeFinder\obj/../src/TFTc/TFT_init.c:163
	TFT_Write_Command(htft, 0x36); // MADCTL - Memory Data Access Control
    11f2:	0af000ef          	jal	ra,1aa0 <TFT_Write_Command>
d:\CH573FEVT\LaserRangeFinder\obj/../src/TFTc/TFT_init.c:173
	// MX: 板椤哄 (0=浠宸板, 1=浠冲板乏)
	// MV: 琛/浜ゆ (0=姝ｅ父, 1=浜ゆ)
	// ML: 村锋伴『搴 (0=浠涓颁, 1=浠涓颁)
	// RGB: 棰查『搴 (0=RGB, 1=BGR)
	// MH: 姘村钩锋伴『搴 (0=浠宸板, 1=浠冲板乏)
	switch (direction)
    11f6:	4785                	li	a5,1
d:\CH573FEVT\LaserRangeFinder\obj/../src/TFTc/TFT_init.c:179
	{
	case 0:							 // 0搴杞
		TFT_Write_Data8(htft, 0x00); // MY=0, MX=0, MV=0, RGB
		break;
	case 1:							 // 90搴杞
		TFT_Write_Data8(htft, 0xA0); // MY=1, MX=0, MV=1, RGB
    11f8:	0a000593          	li	a1,160
    11fc:	00f48f63          	beq	s1,a5,121a <TFT_Set_Direction+0x38>
d:\CH573FEVT\LaserRangeFinder\obj/../src/TFTc/TFT_init.c:176
		TFT_Write_Data8(htft, 0x00); // MY=0, MX=0, MV=0, RGB
    1200:	4581                	li	a1,0
    1202:	cc81                	beqz	s1,121a <TFT_Set_Direction+0x38>
    1204:	4789                	li	a5,2
    1206:	00f48863          	beq	s1,a5,1216 <TFT_Set_Direction+0x34>
    120a:	478d                	li	a5,3
    120c:	00f49563          	bne	s1,a5,1216 <TFT_Set_Direction+0x34>
d:\CH573FEVT\LaserRangeFinder\obj/../src/TFTc/TFT_init.c:185
		break;
	case 2:							 // 180搴杞
		TFT_Write_Data8(htft, 0xC0); // MY=1, MX=1, MV=0, RGB
		break;
	case 3:							 // 270搴杞
		TFT_Write_Data8(htft, 0x60); // MY=0, MX=1, MV=1, RGB
    1210:	06000593          	li	a1,96
    1214:	a019                	j	121a <TFT_Set_Direction+0x38>
d:\CH573FEVT\LaserRangeFinder\obj/../src/TFTc/TFT_init.c:182
		TFT_Write_Data8(htft, 0xC0); // MY=1, MX=1, MV=0, RGB
    1216:	0c000593          	li	a1,192
d:\CH573FEVT\LaserRangeFinder\obj/../src/TFTc/TFT_init.c:185
		TFT_Write_Data8(htft, 0x60); // MY=0, MX=1, MV=1, RGB
    121a:	8522                	mv	a0,s0
d:\CH573FEVT\LaserRangeFinder\obj/../src/TFTc/TFT_init.c:191
		break;
	default:						 // 榛璁0搴杞
		TFT_Write_Data8(htft, 0xC0); // MY=1, MX=1, MV=0, RGB
		break;
	}
}
    121c:	4422                	lw	s0,8(sp)
    121e:	40b2                	lw	ra,12(sp)
    1220:	4492                	lw	s1,4(sp)
    1222:	0141                	addi	sp,sp,16
d:\CH573FEVT\LaserRangeFinder\obj/../src/TFTc/TFT_init.c:185
		TFT_Write_Data8(htft, 0x60); // MY=0, MX=1, MV=1, RGB
    1224:	0070006f          	j	1a2a <TFT_Write_Data8>

00001228 <TFT_Init_ST7735S>:
TFT_Init_ST7735S():
d:\CH573FEVT\LaserRangeFinder\obj/../src/TFTc/TFT_init.c:20
{
    1228:	1141                	addi	sp,sp,-16
    122a:	c606                	sw	ra,12(sp)
    122c:	c422                	sw	s0,8(sp)
    122e:	842a                	mv	s0,a0
d:\CH573FEVT\LaserRangeFinder\obj/../src/TFTc/TFT_init.c:22
	TFT_IO_Init(htft);
    1230:	7a4000ef          	jal	ra,19d4 <TFT_IO_Init>
d:\CH573FEVT\LaserRangeFinder\obj/../src/TFTc/TFT_init.c:25
	TFT_Pin_RES_Set(htft, 0);
    1234:	4581                	li	a1,0
    1236:	8522                	mv	a0,s0
    1238:	59e000ef          	jal	ra,17d6 <TFT_Pin_RES_Set>
d:\CH573FEVT\LaserRangeFinder\obj/../src/TFTc/TFT_init.c:26
	HAL_Delay(100);
    123c:	06400513          	li	a0,100
    1240:	20003097          	auipc	ra,0x20003
    1244:	824080e7          	jalr	-2012(ra) # 20003a64 <mDelaymS>
d:\CH573FEVT\LaserRangeFinder\obj/../src/TFTc/TFT_init.c:27
	TFT_Pin_RES_Set(htft, 1);
    1248:	4585                	li	a1,1
    124a:	8522                	mv	a0,s0
    124c:	58a000ef          	jal	ra,17d6 <TFT_Pin_RES_Set>
d:\CH573FEVT\LaserRangeFinder\obj/../src/TFTc/TFT_init.c:28
	HAL_Delay(100);
    1250:	06400513          	li	a0,100
    1254:	20003097          	auipc	ra,0x20003
    1258:	810080e7          	jalr	-2032(ra) # 20003a64 <mDelaymS>
d:\CH573FEVT\LaserRangeFinder\obj/../src/TFTc/TFT_init.c:30
	TFT_Pin_BLK_Set(htft, 1); // 寮 (楂)
    125c:	4585                	li	a1,1
    125e:	8522                	mv	a0,s0
    1260:	636000ef          	jal	ra,1896 <TFT_Pin_BLK_Set>
d:\CH573FEVT\LaserRangeFinder\obj/../src/TFTc/TFT_init.c:31
	HAL_Delay(100);
    1264:	06400513          	li	a0,100
    1268:	20002097          	auipc	ra,0x20002
    126c:	7fc080e7          	jalr	2044(ra) # 20003a64 <mDelaymS>
d:\CH573FEVT\LaserRangeFinder\obj/../src/TFTc/TFT_init.c:34
	TFT_Write_Command(htft, 0x01);
    1270:	4585                	li	a1,1
    1272:	8522                	mv	a0,s0
    1274:	02d000ef          	jal	ra,1aa0 <TFT_Write_Command>
d:\CH573FEVT\LaserRangeFinder\obj/../src/TFTc/TFT_init.c:35
	HAL_Delay(150);
    1278:	09600513          	li	a0,150
    127c:	20002097          	auipc	ra,0x20002
    1280:	7e8080e7          	jalr	2024(ra) # 20003a64 <mDelaymS>
d:\CH573FEVT\LaserRangeFinder\obj/../src/TFTc/TFT_init.c:38
	TFT_Write_Command(htft, 0x11); // 虹＄妯″
    1284:	45c5                	li	a1,17
    1286:	8522                	mv	a0,s0
    1288:	019000ef          	jal	ra,1aa0 <TFT_Write_Command>
d:\CH573FEVT\LaserRangeFinder\obj/../src/TFTc/TFT_init.c:39
	HAL_Delay(255);
    128c:	0ff00513          	li	a0,255
    1290:	20002097          	auipc	ra,0x20002
    1294:	7d4080e7          	jalr	2004(ra) # 20003a64 <mDelaymS>
d:\CH573FEVT\LaserRangeFinder\obj/../src/TFTc/TFT_init.c:42
	TFT_Write_Command(htft, 0xB1); // FRMCTR1 (In normal mode/ Full colors)
    1298:	8522                	mv	a0,s0
    129a:	0b100593          	li	a1,177
    129e:	003000ef          	jal	ra,1aa0 <TFT_Write_Command>
d:\CH573FEVT\LaserRangeFinder\obj/../src/TFTc/TFT_init.c:43
	TFT_Write_Data8(htft, 0x01);   // Frame rate = fosc/(1*2+40) * (LINE+2C+2D)
    12a2:	8522                	mv	a0,s0
    12a4:	4585                	li	a1,1
    12a6:	784000ef          	jal	ra,1a2a <TFT_Write_Data8>
d:\CH573FEVT\LaserRangeFinder\obj/../src/TFTc/TFT_init.c:44
	TFT_Write_Data8(htft, 0x2C);
    12aa:	8522                	mv	a0,s0
    12ac:	02c00593          	li	a1,44
    12b0:	77a000ef          	jal	ra,1a2a <TFT_Write_Data8>
d:\CH573FEVT\LaserRangeFinder\obj/../src/TFTc/TFT_init.c:45
	TFT_Write_Data8(htft, 0x2D);
    12b4:	8522                	mv	a0,s0
    12b6:	02d00593          	li	a1,45
    12ba:	770000ef          	jal	ra,1a2a <TFT_Write_Data8>
d:\CH573FEVT\LaserRangeFinder\obj/../src/TFTc/TFT_init.c:48
	TFT_Write_Command(htft, 0xB2); // FRMCTR2 (In Idle mode/ 8-colors)
    12be:	8522                	mv	a0,s0
    12c0:	0b200593          	li	a1,178
    12c4:	7dc000ef          	jal	ra,1aa0 <TFT_Write_Command>
d:\CH573FEVT\LaserRangeFinder\obj/../src/TFTc/TFT_init.c:49
	TFT_Write_Data8(htft, 0x01);
    12c8:	8522                	mv	a0,s0
    12ca:	4585                	li	a1,1
    12cc:	75e000ef          	jal	ra,1a2a <TFT_Write_Data8>
d:\CH573FEVT\LaserRangeFinder\obj/../src/TFTc/TFT_init.c:50
	TFT_Write_Data8(htft, 0x2C);
    12d0:	8522                	mv	a0,s0
    12d2:	02c00593          	li	a1,44
    12d6:	754000ef          	jal	ra,1a2a <TFT_Write_Data8>
d:\CH573FEVT\LaserRangeFinder\obj/../src/TFTc/TFT_init.c:51
	TFT_Write_Data8(htft, 0x2D);
    12da:	8522                	mv	a0,s0
    12dc:	02d00593          	li	a1,45
    12e0:	74a000ef          	jal	ra,1a2a <TFT_Write_Data8>
d:\CH573FEVT\LaserRangeFinder\obj/../src/TFTc/TFT_init.c:54
	TFT_Write_Command(htft, 0xB3); // FRMCTR3 (In Partial mode/ full colors)
    12e4:	8522                	mv	a0,s0
    12e6:	0b300593          	li	a1,179
    12ea:	7b6000ef          	jal	ra,1aa0 <TFT_Write_Command>
d:\CH573FEVT\LaserRangeFinder\obj/../src/TFTc/TFT_init.c:55
	TFT_Write_Data8(htft, 0x01);
    12ee:	8522                	mv	a0,s0
    12f0:	4585                	li	a1,1
    12f2:	738000ef          	jal	ra,1a2a <TFT_Write_Data8>
d:\CH573FEVT\LaserRangeFinder\obj/../src/TFTc/TFT_init.c:56
	TFT_Write_Data8(htft, 0x2C);
    12f6:	8522                	mv	a0,s0
    12f8:	02c00593          	li	a1,44
    12fc:	72e000ef          	jal	ra,1a2a <TFT_Write_Data8>
d:\CH573FEVT\LaserRangeFinder\obj/../src/TFTc/TFT_init.c:57
	TFT_Write_Data8(htft, 0x2D);
    1300:	8522                	mv	a0,s0
    1302:	02d00593          	li	a1,45
    1306:	724000ef          	jal	ra,1a2a <TFT_Write_Data8>
d:\CH573FEVT\LaserRangeFinder\obj/../src/TFTc/TFT_init.c:58
	TFT_Write_Data8(htft, 0x01);
    130a:	8522                	mv	a0,s0
    130c:	4585                	li	a1,1
    130e:	71c000ef          	jal	ra,1a2a <TFT_Write_Data8>
d:\CH573FEVT\LaserRangeFinder\obj/../src/TFTc/TFT_init.c:59
	TFT_Write_Data8(htft, 0x2C);
    1312:	8522                	mv	a0,s0
    1314:	02c00593          	li	a1,44
    1318:	712000ef          	jal	ra,1a2a <TFT_Write_Data8>
d:\CH573FEVT\LaserRangeFinder\obj/../src/TFTc/TFT_init.c:60
	TFT_Write_Data8(htft, 0x2D);
    131c:	8522                	mv	a0,s0
    131e:	02d00593          	li	a1,45
    1322:	708000ef          	jal	ra,1a2a <TFT_Write_Data8>
d:\CH573FEVT\LaserRangeFinder\obj/../src/TFTc/TFT_init.c:63
	TFT_Write_Command(htft, 0xB4); // INVCTR
    1326:	8522                	mv	a0,s0
    1328:	0b400593          	li	a1,180
    132c:	774000ef          	jal	ra,1aa0 <TFT_Write_Command>
d:\CH573FEVT\LaserRangeFinder\obj/../src/TFTc/TFT_init.c:64
	TFT_Write_Data8(htft, 0x07);   // 瑁
    1330:	8522                	mv	a0,s0
    1332:	459d                	li	a1,7
    1334:	6f6000ef          	jal	ra,1a2a <TFT_Write_Data8>
d:\CH573FEVT\LaserRangeFinder\obj/../src/TFTc/TFT_init.c:67
	TFT_Write_Command(htft, 0xC0); // PWCTR1
    1338:	8522                	mv	a0,s0
    133a:	0c000593          	li	a1,192
    133e:	762000ef          	jal	ra,1aa0 <TFT_Write_Command>
d:\CH573FEVT\LaserRangeFinder\obj/../src/TFTc/TFT_init.c:68
	TFT_Write_Data8(htft, 0xA2);   // -4.6V
    1342:	8522                	mv	a0,s0
    1344:	0a200593          	li	a1,162
    1348:	6e2000ef          	jal	ra,1a2a <TFT_Write_Data8>
d:\CH573FEVT\LaserRangeFinder\obj/../src/TFTc/TFT_init.c:69
	TFT_Write_Data8(htft, 0x02);   // AVCC=VCIx2, VGH=VCIx7, VGL=-VCIx4
    134c:	8522                	mv	a0,s0
    134e:	4589                	li	a1,2
    1350:	6da000ef          	jal	ra,1a2a <TFT_Write_Data8>
d:\CH573FEVT\LaserRangeFinder\obj/../src/TFTc/TFT_init.c:70
	TFT_Write_Data8(htft, 0x84);   // Opamp current small, Boost frequency
    1354:	8522                	mv	a0,s0
    1356:	08400593          	li	a1,132
    135a:	6d0000ef          	jal	ra,1a2a <TFT_Write_Data8>
d:\CH573FEVT\LaserRangeFinder\obj/../src/TFTc/TFT_init.c:73
	TFT_Write_Command(htft, 0xC1); // PWCTR2
    135e:	8522                	mv	a0,s0
    1360:	0c100593          	li	a1,193
    1364:	73c000ef          	jal	ra,1aa0 <TFT_Write_Command>
d:\CH573FEVT\LaserRangeFinder\obj/../src/TFTc/TFT_init.c:74
	TFT_Write_Data8(htft, 0xC5);   // VGH = VCI * 2.5, VGL = -VCI * 2.5
    1368:	8522                	mv	a0,s0
    136a:	0c500593          	li	a1,197
    136e:	6bc000ef          	jal	ra,1a2a <TFT_Write_Data8>
d:\CH573FEVT\LaserRangeFinder\obj/../src/TFTc/TFT_init.c:77
	TFT_Write_Command(htft, 0xC2); // PWCTR3 (In Normal mode/ Full colors)
    1372:	8522                	mv	a0,s0
    1374:	0c200593          	li	a1,194
    1378:	728000ef          	jal	ra,1aa0 <TFT_Write_Command>
d:\CH573FEVT\LaserRangeFinder\obj/../src/TFTc/TFT_init.c:78
	TFT_Write_Data8(htft, 0x0A);   // Opamp current small, Boost frequency
    137c:	8522                	mv	a0,s0
    137e:	45a9                	li	a1,10
    1380:	6aa000ef          	jal	ra,1a2a <TFT_Write_Data8>
d:\CH573FEVT\LaserRangeFinder\obj/../src/TFTc/TFT_init.c:79
	TFT_Write_Data8(htft, 0x00);   // Boost frequency
    1384:	8522                	mv	a0,s0
    1386:	4581                	li	a1,0
    1388:	6a2000ef          	jal	ra,1a2a <TFT_Write_Data8>
d:\CH573FEVT\LaserRangeFinder\obj/../src/TFTc/TFT_init.c:82
	TFT_Write_Command(htft, 0xC3); // PWCTR4 (In Idle mode/ 8-colors)
    138c:	8522                	mv	a0,s0
    138e:	0c300593          	li	a1,195
    1392:	70e000ef          	jal	ra,1aa0 <TFT_Write_Command>
d:\CH573FEVT\LaserRangeFinder\obj/../src/TFTc/TFT_init.c:83
	TFT_Write_Data8(htft, 0x8A);   // Opamp current small, Boost frequency
    1396:	8522                	mv	a0,s0
    1398:	08a00593          	li	a1,138
    139c:	68e000ef          	jal	ra,1a2a <TFT_Write_Data8>
d:\CH573FEVT\LaserRangeFinder\obj/../src/TFTc/TFT_init.c:84
	TFT_Write_Data8(htft, 0x2A);   // Boost frequency
    13a0:	8522                	mv	a0,s0
    13a2:	02a00593          	li	a1,42
    13a6:	684000ef          	jal	ra,1a2a <TFT_Write_Data8>
d:\CH573FEVT\LaserRangeFinder\obj/../src/TFTc/TFT_init.c:87
	TFT_Write_Command(htft, 0xC4); // PWCTR5 (In Partial mode/ full colors)
    13aa:	8522                	mv	a0,s0
    13ac:	0c400593          	li	a1,196
    13b0:	6f0000ef          	jal	ra,1aa0 <TFT_Write_Command>
d:\CH573FEVT\LaserRangeFinder\obj/../src/TFTc/TFT_init.c:88
	TFT_Write_Data8(htft, 0x8A);   // Opamp current small, Boost frequency
    13b4:	8522                	mv	a0,s0
    13b6:	08a00593          	li	a1,138
    13ba:	670000ef          	jal	ra,1a2a <TFT_Write_Data8>
d:\CH573FEVT\LaserRangeFinder\obj/../src/TFTc/TFT_init.c:89
	TFT_Write_Data8(htft, 0xEE);   // Boost frequency
    13be:	8522                	mv	a0,s0
    13c0:	0ee00593          	li	a1,238
    13c4:	666000ef          	jal	ra,1a2a <TFT_Write_Data8>
d:\CH573FEVT\LaserRangeFinder\obj/../src/TFTc/TFT_init.c:92
	TFT_Write_Command(htft, 0xC5); // VMCTR1
    13c8:	8522                	mv	a0,s0
    13ca:	0c500593          	li	a1,197
    13ce:	6d2000ef          	jal	ra,1aa0 <TFT_Write_Command>
d:\CH573FEVT\LaserRangeFinder\obj/../src/TFTc/TFT_init.c:93
	TFT_Write_Data8(htft, 0x0E);   // VCOMH = 4.025V, VCOML = -1.5V
    13d2:	8522                	mv	a0,s0
    13d4:	45b9                	li	a1,14
    13d6:	654000ef          	jal	ra,1a2a <TFT_Write_Data8>
d:\CH573FEVT\LaserRangeFinder\obj/../src/TFTc/TFT_init.c:96
	TFT_Set_Direction(htft, htft->display_direction);
    13da:	02e44583          	lbu	a1,46(s0)
    13de:	8522                	mv	a0,s0
    13e0:	3509                	jal	11e2 <TFT_Set_Direction>
d:\CH573FEVT\LaserRangeFinder\obj/../src/TFTc/TFT_init.c:99
	TFT_Write_Command(htft, 0x3A); // COLMOD
    13e2:	8522                	mv	a0,s0
    13e4:	03a00593          	li	a1,58
    13e8:	6b8000ef          	jal	ra,1aa0 <TFT_Write_Command>
d:\CH573FEVT\LaserRangeFinder\obj/../src/TFTc/TFT_init.c:100
	TFT_Write_Data8(htft, 0x05);   // 16浣绱煎 (RGB565)
    13ec:	8522                	mv	a0,s0
    13ee:	4595                	li	a1,5
    13f0:	63a000ef          	jal	ra,1a2a <TFT_Write_Data8>
d:\CH573FEVT\LaserRangeFinder\obj/../src/TFTc/TFT_init.c:104
	TFT_Write_Command(htft, 0xE0); // GMCTRP1
    13f4:	8522                	mv	a0,s0
    13f6:	0e000593          	li	a1,224
    13fa:	6a6000ef          	jal	ra,1aa0 <TFT_Write_Command>
d:\CH573FEVT\LaserRangeFinder\obj/../src/TFTc/TFT_init.c:105
	TFT_Write_Data8(htft, 0x0F);
    13fe:	8522                	mv	a0,s0
    1400:	45bd                	li	a1,15
    1402:	628000ef          	jal	ra,1a2a <TFT_Write_Data8>
d:\CH573FEVT\LaserRangeFinder\obj/../src/TFTc/TFT_init.c:106
	TFT_Write_Data8(htft, 0x1A);
    1406:	8522                	mv	a0,s0
    1408:	45e9                	li	a1,26
    140a:	620000ef          	jal	ra,1a2a <TFT_Write_Data8>
d:\CH573FEVT\LaserRangeFinder\obj/../src/TFTc/TFT_init.c:107
	TFT_Write_Data8(htft, 0x0F);
    140e:	8522                	mv	a0,s0
    1410:	45bd                	li	a1,15
    1412:	618000ef          	jal	ra,1a2a <TFT_Write_Data8>
d:\CH573FEVT\LaserRangeFinder\obj/../src/TFTc/TFT_init.c:108
	TFT_Write_Data8(htft, 0x18);
    1416:	8522                	mv	a0,s0
    1418:	45e1                	li	a1,24
    141a:	610000ef          	jal	ra,1a2a <TFT_Write_Data8>
d:\CH573FEVT\LaserRangeFinder\obj/../src/TFTc/TFT_init.c:109
	TFT_Write_Data8(htft, 0x2F);
    141e:	8522                	mv	a0,s0
    1420:	02f00593          	li	a1,47
    1424:	606000ef          	jal	ra,1a2a <TFT_Write_Data8>
d:\CH573FEVT\LaserRangeFinder\obj/../src/TFTc/TFT_init.c:110
	TFT_Write_Data8(htft, 0x28);
    1428:	8522                	mv	a0,s0
    142a:	02800593          	li	a1,40
    142e:	5fc000ef          	jal	ra,1a2a <TFT_Write_Data8>
d:\CH573FEVT\LaserRangeFinder\obj/../src/TFTc/TFT_init.c:111
	TFT_Write_Data8(htft, 0x20);
    1432:	8522                	mv	a0,s0
    1434:	02000593          	li	a1,32
    1438:	5f2000ef          	jal	ra,1a2a <TFT_Write_Data8>
d:\CH573FEVT\LaserRangeFinder\obj/../src/TFTc/TFT_init.c:112
	TFT_Write_Data8(htft, 0x22);
    143c:	8522                	mv	a0,s0
    143e:	02200593          	li	a1,34
    1442:	5e8000ef          	jal	ra,1a2a <TFT_Write_Data8>
d:\CH573FEVT\LaserRangeFinder\obj/../src/TFTc/TFT_init.c:113
	TFT_Write_Data8(htft, 0x1F);
    1446:	8522                	mv	a0,s0
    1448:	45fd                	li	a1,31
    144a:	5e0000ef          	jal	ra,1a2a <TFT_Write_Data8>
d:\CH573FEVT\LaserRangeFinder\obj/../src/TFTc/TFT_init.c:114
	TFT_Write_Data8(htft, 0x1B);
    144e:	8522                	mv	a0,s0
    1450:	45ed                	li	a1,27
    1452:	5d8000ef          	jal	ra,1a2a <TFT_Write_Data8>
d:\CH573FEVT\LaserRangeFinder\obj/../src/TFTc/TFT_init.c:115
	TFT_Write_Data8(htft, 0x23);
    1456:	8522                	mv	a0,s0
    1458:	02300593          	li	a1,35
    145c:	5ce000ef          	jal	ra,1a2a <TFT_Write_Data8>
d:\CH573FEVT\LaserRangeFinder\obj/../src/TFTc/TFT_init.c:116
	TFT_Write_Data8(htft, 0x37);
    1460:	8522                	mv	a0,s0
    1462:	03700593          	li	a1,55
    1466:	5c4000ef          	jal	ra,1a2a <TFT_Write_Data8>
d:\CH573FEVT\LaserRangeFinder\obj/../src/TFTc/TFT_init.c:117
	TFT_Write_Data8(htft, 0x00);
    146a:	8522                	mv	a0,s0
    146c:	4581                	li	a1,0
    146e:	5bc000ef          	jal	ra,1a2a <TFT_Write_Data8>
d:\CH573FEVT\LaserRangeFinder\obj/../src/TFTc/TFT_init.c:118
	TFT_Write_Data8(htft, 0x07);
    1472:	8522                	mv	a0,s0
    1474:	459d                	li	a1,7
    1476:	5b4000ef          	jal	ra,1a2a <TFT_Write_Data8>
d:\CH573FEVT\LaserRangeFinder\obj/../src/TFTc/TFT_init.c:119
	TFT_Write_Data8(htft, 0x02);
    147a:	8522                	mv	a0,s0
    147c:	4589                	li	a1,2
    147e:	5ac000ef          	jal	ra,1a2a <TFT_Write_Data8>
d:\CH573FEVT\LaserRangeFinder\obj/../src/TFTc/TFT_init.c:120
	TFT_Write_Data8(htft, 0x10);
    1482:	8522                	mv	a0,s0
    1484:	45c1                	li	a1,16
    1486:	5a4000ef          	jal	ra,1a2a <TFT_Write_Data8>
d:\CH573FEVT\LaserRangeFinder\obj/../src/TFTc/TFT_init.c:122
	TFT_Write_Command(htft, 0xE1); // GMCTRN1
    148a:	8522                	mv	a0,s0
    148c:	0e100593          	li	a1,225
    1490:	610000ef          	jal	ra,1aa0 <TFT_Write_Command>
d:\CH573FEVT\LaserRangeFinder\obj/../src/TFTc/TFT_init.c:123
	TFT_Write_Data8(htft, 0x0F);
    1494:	8522                	mv	a0,s0
    1496:	45bd                	li	a1,15
    1498:	592000ef          	jal	ra,1a2a <TFT_Write_Data8>
d:\CH573FEVT\LaserRangeFinder\obj/../src/TFTc/TFT_init.c:124
	TFT_Write_Data8(htft, 0x1B);
    149c:	8522                	mv	a0,s0
    149e:	45ed                	li	a1,27
    14a0:	58a000ef          	jal	ra,1a2a <TFT_Write_Data8>
d:\CH573FEVT\LaserRangeFinder\obj/../src/TFTc/TFT_init.c:125
	TFT_Write_Data8(htft, 0x0F);
    14a4:	8522                	mv	a0,s0
    14a6:	45bd                	li	a1,15
    14a8:	582000ef          	jal	ra,1a2a <TFT_Write_Data8>
d:\CH573FEVT\LaserRangeFinder\obj/../src/TFTc/TFT_init.c:126
	TFT_Write_Data8(htft, 0x17);
    14ac:	8522                	mv	a0,s0
    14ae:	45dd                	li	a1,23
    14b0:	57a000ef          	jal	ra,1a2a <TFT_Write_Data8>
d:\CH573FEVT\LaserRangeFinder\obj/../src/TFTc/TFT_init.c:127
	TFT_Write_Data8(htft, 0x33);
    14b4:	8522                	mv	a0,s0
    14b6:	03300593          	li	a1,51
    14ba:	570000ef          	jal	ra,1a2a <TFT_Write_Data8>
d:\CH573FEVT\LaserRangeFinder\obj/../src/TFTc/TFT_init.c:128
	TFT_Write_Data8(htft, 0x2C);
    14be:	8522                	mv	a0,s0
    14c0:	02c00593          	li	a1,44
    14c4:	566000ef          	jal	ra,1a2a <TFT_Write_Data8>
d:\CH573FEVT\LaserRangeFinder\obj/../src/TFTc/TFT_init.c:129
	TFT_Write_Data8(htft, 0x29);
    14c8:	8522                	mv	a0,s0
    14ca:	02900593          	li	a1,41
    14ce:	55c000ef          	jal	ra,1a2a <TFT_Write_Data8>
d:\CH573FEVT\LaserRangeFinder\obj/../src/TFTc/TFT_init.c:130
	TFT_Write_Data8(htft, 0x2E);
    14d2:	8522                	mv	a0,s0
    14d4:	02e00593          	li	a1,46
    14d8:	552000ef          	jal	ra,1a2a <TFT_Write_Data8>
d:\CH573FEVT\LaserRangeFinder\obj/../src/TFTc/TFT_init.c:131
	TFT_Write_Data8(htft, 0x30);
    14dc:	8522                	mv	a0,s0
    14de:	03000593          	li	a1,48
    14e2:	548000ef          	jal	ra,1a2a <TFT_Write_Data8>
d:\CH573FEVT\LaserRangeFinder\obj/../src/TFTc/TFT_init.c:132
	TFT_Write_Data8(htft, 0x30);
    14e6:	8522                	mv	a0,s0
    14e8:	03000593          	li	a1,48
    14ec:	53e000ef          	jal	ra,1a2a <TFT_Write_Data8>
d:\CH573FEVT\LaserRangeFinder\obj/../src/TFTc/TFT_init.c:133
	TFT_Write_Data8(htft, 0x39);
    14f0:	8522                	mv	a0,s0
    14f2:	03900593          	li	a1,57
    14f6:	534000ef          	jal	ra,1a2a <TFT_Write_Data8>
d:\CH573FEVT\LaserRangeFinder\obj/../src/TFTc/TFT_init.c:134
	TFT_Write_Data8(htft, 0x3F);
    14fa:	8522                	mv	a0,s0
    14fc:	03f00593          	li	a1,63
    1500:	52a000ef          	jal	ra,1a2a <TFT_Write_Data8>
d:\CH573FEVT\LaserRangeFinder\obj/../src/TFTc/TFT_init.c:135
	TFT_Write_Data8(htft, 0x00);
    1504:	8522                	mv	a0,s0
    1506:	4581                	li	a1,0
    1508:	522000ef          	jal	ra,1a2a <TFT_Write_Data8>
d:\CH573FEVT\LaserRangeFinder\obj/../src/TFTc/TFT_init.c:136
	TFT_Write_Data8(htft, 0x07);
    150c:	8522                	mv	a0,s0
    150e:	459d                	li	a1,7
    1510:	51a000ef          	jal	ra,1a2a <TFT_Write_Data8>
d:\CH573FEVT\LaserRangeFinder\obj/../src/TFTc/TFT_init.c:137
	TFT_Write_Data8(htft, 0x03);
    1514:	8522                	mv	a0,s0
    1516:	458d                	li	a1,3
    1518:	512000ef          	jal	ra,1a2a <TFT_Write_Data8>
d:\CH573FEVT\LaserRangeFinder\obj/../src/TFTc/TFT_init.c:138
	TFT_Write_Data8(htft, 0x10);
    151c:	8522                	mv	a0,s0
    151e:	45c1                	li	a1,16
    1520:	50a000ef          	jal	ra,1a2a <TFT_Write_Data8>
d:\CH573FEVT\LaserRangeFinder\obj/../src/TFTc/TFT_init.c:141
	TFT_Write_Command(htft, 0x13); // NORON
    1524:	45cd                	li	a1,19
    1526:	8522                	mv	a0,s0
    1528:	578000ef          	jal	ra,1aa0 <TFT_Write_Command>
d:\CH573FEVT\LaserRangeFinder\obj/../src/TFTc/TFT_init.c:142
	HAL_Delay(10);
    152c:	4529                	li	a0,10
    152e:	20002097          	auipc	ra,0x20002
    1532:	536080e7          	jalr	1334(ra) # 20003a64 <mDelaymS>
d:\CH573FEVT\LaserRangeFinder\obj/../src/TFTc/TFT_init.c:145
	TFT_Write_Command(htft, 0x29); // Display ON
    1536:	8522                	mv	a0,s0
    1538:	02900593          	li	a1,41
    153c:	564000ef          	jal	ra,1aa0 <TFT_Write_Command>
d:\CH573FEVT\LaserRangeFinder\obj/../src/TFTc/TFT_init.c:147
}
    1540:	4422                	lw	s0,8(sp)
    1542:	40b2                	lw	ra,12(sp)
d:\CH573FEVT\LaserRangeFinder\obj/../src/TFTc/TFT_init.c:146
	HAL_Delay(20);
    1544:	4551                	li	a0,20
d:\CH573FEVT\LaserRangeFinder\obj/../src/TFTc/TFT_init.c:147
}
    1546:	0141                	addi	sp,sp,16
d:\CH573FEVT\LaserRangeFinder\obj/../src/TFTc/TFT_init.c:146
	HAL_Delay(20);
    1548:	20002317          	auipc	t1,0x20002
    154c:	51c30067          	jr	1308(t1) # 20003a64 <mDelaymS>

00001550 <TFT_Init_ST7789v3>:
TFT_Init_ST7789v3():
d:\CH573FEVT\LaserRangeFinder\obj/../src/TFTc/TFT_init.c:200
 * @param  htft TFTユ
 * @retval 
 * @note   ㄤST7789v3椹卞ㄧTFT灞骞锛240x240杈ㄧ
 */
void TFT_Init_ST7789v3(TFT_HandleTypeDef *htft)
{
    1550:	1141                	addi	sp,sp,-16
    1552:	c606                	sw	ra,12(sp)
    1554:	c422                	sw	s0,8(sp)
    1556:	842a                	mv	s0,a0
d:\CH573FEVT\LaserRangeFinder\obj/../src/TFTc/TFT_init.c:202
	// 1. 濮搴灞IO锛GPIO/SPI绛锛
	TFT_IO_Init(htft);
    1558:	29b5                	jal	19d4 <TFT_IO_Init>
d:\CH573FEVT\LaserRangeFinder\obj/../src/TFTc/TFT_init.c:205

	// 2. 纭浠跺浣娴绋
	TFT_Pin_RES_Set(htft, 0); // 浣澶浣寮
    155a:	4581                	li	a1,0
    155c:	8522                	mv	a0,s0
    155e:	2ca5                	jal	17d6 <TFT_Pin_RES_Set>
d:\CH573FEVT\LaserRangeFinder\obj/../src/TFTc/TFT_init.c:206
	HAL_Delay(100);			  // 淇100ms浣靛钩
    1560:	06400513          	li	a0,100
    1564:	20002097          	auipc	ra,0x20002
    1568:	500080e7          	jalr	1280(ra) # 20003a64 <mDelaymS>
d:\CH573FEVT\LaserRangeFinder\obj/../src/TFTc/TFT_init.c:207
	TFT_Pin_RES_Set(htft, 1); // 惧浣寮
    156c:	4585                	li	a1,1
    156e:	8522                	mv	a0,s0
    1570:	249d                	jal	17d6 <TFT_Pin_RES_Set>
d:\CH573FEVT\LaserRangeFinder\obj/../src/TFTc/TFT_init.c:208
	HAL_Delay(100);			  // 绛寰澶浣瀹
    1572:	06400513          	li	a0,100
    1576:	20002097          	auipc	ra,0x20002
    157a:	4ee080e7          	jalr	1262(ra) # 20003a64 <mDelaymS>
d:\CH573FEVT\LaserRangeFinder\obj/../src/TFTc/TFT_init.c:210

	TFT_Pin_BLK_Set(htft, 1); // 寮
    157e:	4585                	li	a1,1
    1580:	8522                	mv	a0,s0
    1582:	2e11                	jal	1896 <TFT_Pin_BLK_Set>
d:\CH573FEVT\LaserRangeFinder\obj/../src/TFTc/TFT_init.c:211
	HAL_Delay(100);			  // 绋冲堕
    1584:	06400513          	li	a0,100
    1588:	20002097          	auipc	ra,0x20002
    158c:	4dc080e7          	jalr	1244(ra) # 20003a64 <mDelaymS>
d:\CH573FEVT\LaserRangeFinder\obj/../src/TFTc/TFT_init.c:214

	// 3. 杞浠跺浣戒护
	TFT_Write_Command(htft, 0x01); // 杞浠跺浣
    1590:	4585                	li	a1,1
    1592:	8522                	mv	a0,s0
    1594:	2331                	jal	1aa0 <TFT_Write_Command>
d:\CH573FEVT\LaserRangeFinder\obj/../src/TFTc/TFT_init.c:215
	HAL_Delay(120);				   // 绛寰澶浣瀹
    1596:	07800513          	li	a0,120
    159a:	20002097          	auipc	ra,0x20002
    159e:	4ca080e7          	jalr	1226(ra) # 20003a64 <mDelaymS>
d:\CH573FEVT\LaserRangeFinder\obj/../src/TFTc/TFT_init.c:218

	// 4. 虹＄妯″
	TFT_Write_Command(htft, 0x11); // 虹＄妯″(Sleep OUT)
    15a2:	45c5                	li	a1,17
    15a4:	8522                	mv	a0,s0
    15a6:	29ed                	jal	1aa0 <TFT_Write_Command>
d:\CH573FEVT\LaserRangeFinder\obj/../src/TFTc/TFT_init.c:219
	HAL_Delay(120);				   // 绛寰ら瀹
    15a8:	07800513          	li	a0,120
    15ac:	20002097          	auipc	ra,0x20002
    15b0:	4b8080e7          	jalr	1208(ra) # 20003a64 <mDelaymS>
d:\CH573FEVT\LaserRangeFinder\obj/../src/TFTc/TFT_init.c:222

	// 5. 璁剧疆灞骞剧ず瑰
	TFT_Set_Direction(htft, htft->display_direction);
    15b4:	02e44583          	lbu	a1,46(s0)
    15b8:	8522                	mv	a0,s0
    15ba:	3125                	jal	11e2 <TFT_Set_Direction>
d:\CH573FEVT\LaserRangeFinder\obj/../src/TFTc/TFT_init.c:225

	// 6. 璁剧疆绱煎涓16浣RGB565
	TFT_Write_Command(htft, 0x3A); // 绱煎璁剧疆戒护
    15bc:	8522                	mv	a0,s0
    15be:	03a00593          	li	a1,58
    15c2:	29f9                	jal	1aa0 <TFT_Write_Command>
d:\CH573FEVT\LaserRangeFinder\obj/../src/TFTc/TFT_init.c:226
	TFT_Write_Data8(htft, 0x05);   // 0x05琛ㄧず16浣/pixel
    15c4:	8522                	mv	a0,s0
    15c6:	4595                	li	a1,5
    15c8:	218d                	jal	1a2a <TFT_Write_Data8>
d:\CH573FEVT\LaserRangeFinder\obj/../src/TFTc/TFT_init.c:229

	// 7. 璁剧疆Porchу讹甯у姝ヤ俊凤
	TFT_Write_Command(htft, 0xB2); // Porch璁剧疆戒护
    15ca:	8522                	mv	a0,s0
    15cc:	0b200593          	li	a1,178
    15d0:	29c1                	jal	1aa0 <TFT_Write_Command>
d:\CH573FEVT\LaserRangeFinder\obj/../src/TFTc/TFT_init.c:230
	TFT_Write_Data8(htft, 0x0C);   // 寤
    15d2:	8522                	mv	a0,s0
    15d4:	45b1                	li	a1,12
    15d6:	2991                	jal	1a2a <TFT_Write_Data8>
d:\CH573FEVT\LaserRangeFinder\obj/../src/TFTc/TFT_init.c:231
	TFT_Write_Data8(htft, 0x0C);   // 寤
    15d8:	8522                	mv	a0,s0
    15da:	45b1                	li	a1,12
    15dc:	21b9                	jal	1a2a <TFT_Write_Data8>
d:\CH573FEVT\LaserRangeFinder\obj/../src/TFTc/TFT_init.c:232
	TFT_Write_Data8(htft, 0x00);   // 绌洪叉ā寮
    15de:	8522                	mv	a0,s0
    15e0:	4581                	li	a1,0
    15e2:	21a1                	jal	1a2a <TFT_Write_Data8>
d:\CH573FEVT\LaserRangeFinder\obj/../src/TFTc/TFT_init.c:233
	TFT_Write_Data8(htft, 0x33);   // 琛姝
    15e4:	8522                	mv	a0,s0
    15e6:	03300593          	li	a1,51
    15ea:	2181                	jal	1a2a <TFT_Write_Data8>
d:\CH573FEVT\LaserRangeFinder\obj/../src/TFTc/TFT_init.c:234
	TFT_Write_Data8(htft, 0x33);   // 甯у姝
    15ec:	8522                	mv	a0,s0
    15ee:	03300593          	li	a1,51
    15f2:	2925                	jal	1a2a <TFT_Write_Data8>
d:\CH573FEVT\LaserRangeFinder\obj/../src/TFTc/TFT_init.c:237

	// 8. 璁剧疆Gateу
	TFT_Write_Command(htft, 0xB7); // Gateу跺戒护
    15f4:	8522                	mv	a0,s0
    15f6:	0b700593          	li	a1,183
    15fa:	215d                	jal	1aa0 <TFT_Write_Command>
d:\CH573FEVT\LaserRangeFinder\obj/../src/TFTc/TFT_init.c:238
	TFT_Write_Data8(htft, 0x72);   // 蜂拌版
    15fc:	8522                	mv	a0,s0
    15fe:	07200593          	li	a1,114
    1602:	2125                	jal	1a2a <TFT_Write_Data8>
d:\CH573FEVT\LaserRangeFinder\obj/../src/TFTc/TFT_init.c:241

	// 9. 璁剧疆VCOM靛
	TFT_Write_Command(htft, 0xBB); // VCOM璁剧疆
    1604:	8522                	mv	a0,s0
    1606:	0bb00593          	li	a1,187
    160a:	2959                	jal	1aa0 <TFT_Write_Command>
d:\CH573FEVT\LaserRangeFinder\obj/../src/TFTc/TFT_init.c:242
	TFT_Write_Data8(htft, 0x3D);   // VCOM靛
    160c:	8522                	mv	a0,s0
    160e:	03d00593          	li	a1,61
    1612:	2921                	jal	1a2a <TFT_Write_Data8>
d:\CH573FEVT\LaserRangeFinder\obj/../src/TFTc/TFT_init.c:245

	// 10. 璁剧疆LCMу
	TFT_Write_Command(htft, 0xC0); // LCMу跺戒护
    1614:	8522                	mv	a0,s0
    1616:	0c000593          	li	a1,192
    161a:	2159                	jal	1aa0 <TFT_Write_Command>
d:\CH573FEVT\LaserRangeFinder\obj/../src/TFTc/TFT_init.c:246
	TFT_Write_Data8(htft, 0x2C);   // 蜂
    161c:	8522                	mv	a0,s0
    161e:	02c00593          	li	a1,44
    1622:	2121                	jal	1a2a <TFT_Write_Data8>
d:\CH573FEVT\LaserRangeFinder\obj/../src/TFTc/TFT_init.c:249

	// 11. 璁剧疆VDVVRH戒护浣胯
	TFT_Write_Command(htft, 0xC2); // VDV/VRHу
    1624:	8522                	mv	a0,s0
    1626:	0c200593          	li	a1,194
    162a:	299d                	jal	1aa0 <TFT_Write_Command>
d:\CH573FEVT\LaserRangeFinder\obj/../src/TFTc/TFT_init.c:250
	TFT_Write_Data8(htft, 0x01);   // 浣胯
    162c:	8522                	mv	a0,s0
    162e:	4585                	li	a1,1
    1630:	2eed                	jal	1a2a <TFT_Write_Data8>
d:\CH573FEVT\LaserRangeFinder\obj/../src/TFTc/TFT_init.c:253

	// 12. 璁剧疆VRH靛
	TFT_Write_Command(htft, 0xC3); // VRH璁剧疆
    1632:	8522                	mv	a0,s0
    1634:	0c300593          	li	a1,195
    1638:	21a5                	jal	1aa0 <TFT_Write_Command>
d:\CH573FEVT\LaserRangeFinder\obj/../src/TFTc/TFT_init.c:254
	TFT_Write_Data8(htft, 0x19);   // VRH靛
    163a:	8522                	mv	a0,s0
    163c:	45e5                	li	a1,25
    163e:	26f5                	jal	1a2a <TFT_Write_Data8>
d:\CH573FEVT\LaserRangeFinder\obj/../src/TFTc/TFT_init.c:257

	// 13. 璁剧疆VDV靛
	TFT_Write_Command(htft, 0xC4); // VDV璁剧疆
    1640:	8522                	mv	a0,s0
    1642:	0c400593          	li	a1,196
    1646:	29a9                	jal	1aa0 <TFT_Write_Command>
d:\CH573FEVT\LaserRangeFinder\obj/../src/TFTc/TFT_init.c:258
	TFT_Write_Data8(htft, 0x20);   // VDV靛
    1648:	8522                	mv	a0,s0
    164a:	02000593          	li	a1,32
    164e:	2ef1                	jal	1a2a <TFT_Write_Data8>
d:\CH573FEVT\LaserRangeFinder\obj/../src/TFTc/TFT_init.c:261

	// 14. 璁剧疆姝ｅ父妯″涓甯ху
	TFT_Write_Command(htft, 0xC6); // 甯ху
    1650:	8522                	mv	a0,s0
    1652:	0c600593          	li	a1,198
    1656:	21a9                	jal	1aa0 <TFT_Write_Command>
d:\CH573FEVT\LaserRangeFinder\obj/../src/TFTc/TFT_init.c:264

	// TFT_Write_Data8(htft, 0x00); // 119Hz锋扮
	TFT_Write_Data8(htft, 0x05); // 90Hz锋扮
    1658:	8522                	mv	a0,s0
    165a:	4595                	li	a1,5
    165c:	26f9                	jal	1a2a <TFT_Write_Data8>
d:\CH573FEVT\LaserRangeFinder\obj/../src/TFTc/TFT_init.c:268
	// TFT_Write_Data8(htft, 0x0F);   // 60Hz锋扮

	// 15. 璁剧疆垫у1
	TFT_Write_Command(htft, 0xD0); // 垫у1
    165e:	8522                	mv	a0,s0
    1660:	0d000593          	li	a1,208
    1664:	2935                	jal	1aa0 <TFT_Write_Command>
d:\CH573FEVT\LaserRangeFinder\obj/../src/TFTc/TFT_init.c:269
	TFT_Write_Data8(htft, 0xA4);   // 1
    1666:	8522                	mv	a0,s0
    1668:	0a400593          	li	a1,164
    166c:	2e7d                	jal	1a2a <TFT_Write_Data8>
d:\CH573FEVT\LaserRangeFinder\obj/../src/TFTc/TFT_init.c:270
	TFT_Write_Data8(htft, 0xA1);   // 2
    166e:	8522                	mv	a0,s0
    1670:	0a100593          	li	a1,161
    1674:	2e5d                	jal	1a2a <TFT_Write_Data8>
d:\CH573FEVT\LaserRangeFinder\obj/../src/TFTc/TFT_init.c:273

	// 16. 璁剧疆Gateу2
	TFT_Write_Command(htft, 0xD6); // Gateу2
    1676:	8522                	mv	a0,s0
    1678:	0d600593          	li	a1,214
    167c:	2115                	jal	1aa0 <TFT_Write_Command>
d:\CH573FEVT\LaserRangeFinder\obj/../src/TFTc/TFT_init.c:274
	TFT_Write_Data8(htft, 0xA1);   // ＄妯″涓Gate杈GND
    167e:	8522                	mv	a0,s0
    1680:	0a100593          	li	a1,161
    1684:	265d                	jal	1a2a <TFT_Write_Data8>
d:\CH573FEVT\LaserRangeFinder\obj/../src/TFTc/TFT_init.c:277

	// 17. 姝ｆт冀椹℃
	TFT_Write_Command(htft, 0xE0); // 姝ｄ冀椹℃
    1686:	8522                	mv	a0,s0
    1688:	0e000593          	li	a1,224
    168c:	2911                	jal	1aa0 <TFT_Write_Command>
d:\CH573FEVT\LaserRangeFinder\obj/../src/TFTc/TFT_init.c:278
	TFT_Write_Data8(htft, 0xD0);   // 浼介┈1
    168e:	8522                	mv	a0,s0
    1690:	0d000593          	li	a1,208
    1694:	2e59                	jal	1a2a <TFT_Write_Data8>
d:\CH573FEVT\LaserRangeFinder\obj/../src/TFTc/TFT_init.c:279
	TFT_Write_Data8(htft, 0x04);   // 浼介┈2
    1696:	8522                	mv	a0,s0
    1698:	4591                	li	a1,4
    169a:	2e41                	jal	1a2a <TFT_Write_Data8>
d:\CH573FEVT\LaserRangeFinder\obj/../src/TFTc/TFT_init.c:281
	/* 缁14涓浼介┈℃ｅ */
	TFT_Write_Data8(htft, 0x0D);
    169c:	8522                	mv	a0,s0
    169e:	45b5                	li	a1,13
    16a0:	2669                	jal	1a2a <TFT_Write_Data8>
d:\CH573FEVT\LaserRangeFinder\obj/../src/TFTc/TFT_init.c:282
	TFT_Write_Data8(htft, 0x11);
    16a2:	8522                	mv	a0,s0
    16a4:	45c5                	li	a1,17
    16a6:	2651                	jal	1a2a <TFT_Write_Data8>
d:\CH573FEVT\LaserRangeFinder\obj/../src/TFTc/TFT_init.c:283
	TFT_Write_Data8(htft, 0x13);
    16a8:	8522                	mv	a0,s0
    16aa:	45cd                	li	a1,19
    16ac:	2ebd                	jal	1a2a <TFT_Write_Data8>
d:\CH573FEVT\LaserRangeFinder\obj/../src/TFTc/TFT_init.c:284
	TFT_Write_Data8(htft, 0x2B);
    16ae:	8522                	mv	a0,s0
    16b0:	02b00593          	li	a1,43
    16b4:	2e9d                	jal	1a2a <TFT_Write_Data8>
d:\CH573FEVT\LaserRangeFinder\obj/../src/TFTc/TFT_init.c:285
	TFT_Write_Data8(htft, 0x3F);
    16b6:	8522                	mv	a0,s0
    16b8:	03f00593          	li	a1,63
    16bc:	26bd                	jal	1a2a <TFT_Write_Data8>
d:\CH573FEVT\LaserRangeFinder\obj/../src/TFTc/TFT_init.c:286
	TFT_Write_Data8(htft, 0x54);
    16be:	8522                	mv	a0,s0
    16c0:	05400593          	li	a1,84
    16c4:	269d                	jal	1a2a <TFT_Write_Data8>
d:\CH573FEVT\LaserRangeFinder\obj/../src/TFTc/TFT_init.c:287
	TFT_Write_Data8(htft, 0x4C);
    16c6:	8522                	mv	a0,s0
    16c8:	04c00593          	li	a1,76
    16cc:	2eb9                	jal	1a2a <TFT_Write_Data8>
d:\CH573FEVT\LaserRangeFinder\obj/../src/TFTc/TFT_init.c:288
	TFT_Write_Data8(htft, 0x18);
    16ce:	8522                	mv	a0,s0
    16d0:	45e1                	li	a1,24
    16d2:	2ea1                	jal	1a2a <TFT_Write_Data8>
d:\CH573FEVT\LaserRangeFinder\obj/../src/TFTc/TFT_init.c:289
	TFT_Write_Data8(htft, 0x0D);
    16d4:	8522                	mv	a0,s0
    16d6:	45b5                	li	a1,13
    16d8:	2e89                	jal	1a2a <TFT_Write_Data8>
d:\CH573FEVT\LaserRangeFinder\obj/../src/TFTc/TFT_init.c:290
	TFT_Write_Data8(htft, 0x0B);
    16da:	8522                	mv	a0,s0
    16dc:	45ad                	li	a1,11
    16de:	26b1                	jal	1a2a <TFT_Write_Data8>
d:\CH573FEVT\LaserRangeFinder\obj/../src/TFTc/TFT_init.c:291
	TFT_Write_Data8(htft, 0x1F);
    16e0:	8522                	mv	a0,s0
    16e2:	45fd                	li	a1,31
    16e4:	2699                	jal	1a2a <TFT_Write_Data8>
d:\CH573FEVT\LaserRangeFinder\obj/../src/TFTc/TFT_init.c:292
	TFT_Write_Data8(htft, 0x23);
    16e6:	8522                	mv	a0,s0
    16e8:	02300593          	li	a1,35
    16ec:	2e3d                	jal	1a2a <TFT_Write_Data8>
d:\CH573FEVT\LaserRangeFinder\obj/../src/TFTc/TFT_init.c:295

	// 18. 璐т冀椹℃
	TFT_Write_Command(htft, 0xE1); // 璐浼介┈℃
    16ee:	8522                	mv	a0,s0
    16f0:	0e100593          	li	a1,225
    16f4:	2675                	jal	1aa0 <TFT_Write_Command>
d:\CH573FEVT\LaserRangeFinder\obj/../src/TFTc/TFT_init.c:296
	TFT_Write_Data8(htft, 0xD0);   // 浼介┈1
    16f6:	8522                	mv	a0,s0
    16f8:	0d000593          	li	a1,208
    16fc:	263d                	jal	1a2a <TFT_Write_Data8>
d:\CH573FEVT\LaserRangeFinder\obj/../src/TFTc/TFT_init.c:297
	TFT_Write_Data8(htft, 0x04);   // 浼介┈2
    16fe:	8522                	mv	a0,s0
    1700:	4591                	li	a1,4
    1702:	2625                	jal	1a2a <TFT_Write_Data8>
d:\CH573FEVT\LaserRangeFinder\obj/../src/TFTc/TFT_init.c:299
	/* 缁14涓浼介┈℃ｅ */
	TFT_Write_Data8(htft, 0x0C);
    1704:	8522                	mv	a0,s0
    1706:	45b1                	li	a1,12
    1708:	260d                	jal	1a2a <TFT_Write_Data8>
d:\CH573FEVT\LaserRangeFinder\obj/../src/TFTc/TFT_init.c:300
	TFT_Write_Data8(htft, 0x11);
    170a:	8522                	mv	a0,s0
    170c:	45c5                	li	a1,17
    170e:	2e31                	jal	1a2a <TFT_Write_Data8>
d:\CH573FEVT\LaserRangeFinder\obj/../src/TFTc/TFT_init.c:301
	TFT_Write_Data8(htft, 0x13);
    1710:	8522                	mv	a0,s0
    1712:	45cd                	li	a1,19
    1714:	2e19                	jal	1a2a <TFT_Write_Data8>
d:\CH573FEVT\LaserRangeFinder\obj/../src/TFTc/TFT_init.c:302
	TFT_Write_Data8(htft, 0x2C);
    1716:	8522                	mv	a0,s0
    1718:	02c00593          	li	a1,44
    171c:	2639                	jal	1a2a <TFT_Write_Data8>
d:\CH573FEVT\LaserRangeFinder\obj/../src/TFTc/TFT_init.c:303
	TFT_Write_Data8(htft, 0x3F);
    171e:	8522                	mv	a0,s0
    1720:	03f00593          	li	a1,63
    1724:	2619                	jal	1a2a <TFT_Write_Data8>
d:\CH573FEVT\LaserRangeFinder\obj/../src/TFTc/TFT_init.c:304
	TFT_Write_Data8(htft, 0x44);
    1726:	8522                	mv	a0,s0
    1728:	04400593          	li	a1,68
    172c:	2cfd                	jal	1a2a <TFT_Write_Data8>
d:\CH573FEVT\LaserRangeFinder\obj/../src/TFTc/TFT_init.c:305
	TFT_Write_Data8(htft, 0x51);
    172e:	8522                	mv	a0,s0
    1730:	05100593          	li	a1,81
    1734:	2cdd                	jal	1a2a <TFT_Write_Data8>
d:\CH573FEVT\LaserRangeFinder\obj/../src/TFTc/TFT_init.c:306
	TFT_Write_Data8(htft, 0x2F);
    1736:	8522                	mv	a0,s0
    1738:	02f00593          	li	a1,47
    173c:	24fd                	jal	1a2a <TFT_Write_Data8>
d:\CH573FEVT\LaserRangeFinder\obj/../src/TFTc/TFT_init.c:307
	TFT_Write_Data8(htft, 0x1F);
    173e:	8522                	mv	a0,s0
    1740:	45fd                	li	a1,31
    1742:	24e5                	jal	1a2a <TFT_Write_Data8>
d:\CH573FEVT\LaserRangeFinder\obj/../src/TFTc/TFT_init.c:308
	TFT_Write_Data8(htft, 0x1F);
    1744:	8522                	mv	a0,s0
    1746:	45fd                	li	a1,31
    1748:	24cd                	jal	1a2a <TFT_Write_Data8>
d:\CH573FEVT\LaserRangeFinder\obj/../src/TFTc/TFT_init.c:309
	TFT_Write_Data8(htft, 0x20);
    174a:	8522                	mv	a0,s0
    174c:	02000593          	li	a1,32
    1750:	2ce9                	jal	1a2a <TFT_Write_Data8>
d:\CH573FEVT\LaserRangeFinder\obj/../src/TFTc/TFT_init.c:310
	TFT_Write_Data8(htft, 0x23);
    1752:	8522                	mv	a0,s0
    1754:	02300593          	li	a1,35
    1758:	2cc9                	jal	1a2a <TFT_Write_Data8>
d:\CH573FEVT\LaserRangeFinder\obj/../src/TFTc/TFT_init.c:313

	// 19. 寮剧ず杞锛锛
	TFT_Write_Command(htft, 0x21); // 剧ず杞ON
    175a:	8522                	mv	a0,s0
    175c:	02100593          	li	a1,33
    1760:	2681                	jal	1aa0 <TFT_Write_Command>
d:\CH573FEVT\LaserRangeFinder\obj/../src/TFTc/TFT_init.c:316

	// 20. 寮剧ず
	TFT_Write_Command(htft, 0x29); // 剧ずON
    1762:	8522                	mv	a0,s0
    1764:	02900593          	li	a1,41
    1768:	2e25                	jal	1aa0 <TFT_Write_Command>
d:\CH573FEVT\LaserRangeFinder\obj/../src/TFTc/TFT_init.c:318
	HAL_Delay(20);				   // 绛寰剧ず绋冲
}
    176a:	4422                	lw	s0,8(sp)
    176c:	40b2                	lw	ra,12(sp)
d:\CH573FEVT\LaserRangeFinder\obj/../src/TFTc/TFT_init.c:317
	HAL_Delay(20);				   // 绛寰剧ず绋冲
    176e:	4551                	li	a0,20
d:\CH573FEVT\LaserRangeFinder\obj/../src/TFTc/TFT_init.c:318
}
    1770:	0141                	addi	sp,sp,16
d:\CH573FEVT\LaserRangeFinder\obj/../src/TFTc/TFT_init.c:317
	HAL_Delay(20);				   // 绛寰剧ず绋冲
    1772:	20002317          	auipc	t1,0x20002
    1776:	2f230067          	jr	754(t1) # 20003a64 <mDelaymS>

0000177a <TFT_Wait_DMA_Transfer_Complete>:
TFT_Wait_DMA_Transfer_Complete():
d:\CH573FEVT\LaserRangeFinder\obj/../src/TFTc/TFT_io.c:458
 * @retval 
 * @note   浠 DMA 妯″涓涓 DMA 浼杈姝ｅㄨ琛堕诲
 */
static void TFT_Wait_DMA_Transfer_Complete(TFT_HandleTypeDef *htft)
{
	if (htft == NULL)
    177a:	c909                	beqz	a0,178c <TFT_Wait_DMA_Transfer_Complete+0x12>
d:\CH573FEVT\LaserRangeFinder\obj/../src/TFTc/TFT_io.c:462
		return;

	// 浠褰 DMA 琚ㄤ褰娲诲ㄧ DMA 浼杈舵瑕绛寰
	if (htft->is_dma_enabled)
    177c:	02c54783          	lbu	a5,44(a0)
    1780:	c791                	beqz	a5,178c <TFT_Wait_DMA_Transfer_Complete+0x12>
d:\CH573FEVT\LaserRangeFinder\obj/../src/TFTc/TFT_io.c:464 (discriminator 1)
	{
		while (htft->is_dma_transfer_active)
    1782:	02d54783          	lbu	a5,45(a0)
    1786:	0ff7f793          	andi	a5,a5,255
    178a:	bfdd                	j	1780 <TFT_Wait_DMA_Transfer_Complete+0x6>
d:\CH573FEVT\LaserRangeFinder\obj/../src/TFTc/TFT_io.c:472
			// 渚濡: osSemaphoreWait(spiDmaSemaphore, osWaitForever);
			// 浣跨 __WFI() 浠よ CPU 杩ヤ妯″绛寰涓
		}
	}
	// 濡 DMA ㄦ娌℃娲诲ㄧ浼杈锛姝ゅ芥扮宠
}
    178c:	8082                	ret

0000178e <TFT_Init_Instance>:
TFT_Init_Instance():
d:\CH573FEVT\LaserRangeFinder\obj/../src/TFTc/TFT_io.c:45
	htft->buffer_size = TFT_BUFFER_SIZE;
    178e:	6785                	lui	a5,0x1
    1790:	80078793          	addi	a5,a5,-2048 # 800 <TFT_Draw_MultiPoint.part.0+0x2>
    1794:	d51c                	sw	a5,40(a0)
d:\CH573FEVT\LaserRangeFinder\obj/../src/TFTc/TFT_io.c:50
	htft->display_direction = DISPLAY_DIRECTION;
    1796:	20000793          	li	a5,512
    179a:	02f51723          	sh	a5,46(a0)
d:\CH573FEVT\LaserRangeFinder\obj/../src/TFTc/TFT_io.c:52
	htft->y_offset = TFT_Y_OFFSET;
    179e:	4785                	li	a5,1
d:\CH573FEVT\LaserRangeFinder\obj/../src/TFTc/TFT_io.c:40
	htft->spi_handle = hspi;
    17a0:	c10c                	sw	a1,0(a0)
d:\CH573FEVT\LaserRangeFinder\obj/../src/TFTc/TFT_io.c:41
	htft->cs_port = cs_port;
    17a2:	00c50223          	sb	a2,4(a0)
d:\CH573FEVT\LaserRangeFinder\obj/../src/TFTc/TFT_io.c:42
	htft->cs_pin = cs_pin;
    17a6:	c514                	sw	a3,8(a0)
d:\CH573FEVT\LaserRangeFinder\obj/../src/TFTc/TFT_io.c:47
	htft->tx_buffer = NULL; // 缁浼瀛
    17a8:	02052223          	sw	zero,36(a0)
d:\CH573FEVT\LaserRangeFinder\obj/../src/TFTc/TFT_io.c:52
	htft->y_offset = TFT_Y_OFFSET;
    17ac:	02f50823          	sb	a5,48(a0)
d:\CH573FEVT\LaserRangeFinder\obj/../src/TFTc/TFT_io.c:53
}
    17b0:	8082                	ret

000017b2 <TFT_Config_Pins>:
TFT_Config_Pins():
d:\CH573FEVT\LaserRangeFinder\obj/../src/TFTc/TFT_io.c:71
	htft->dc_port = dc_port;
    17b2:	00b50623          	sb	a1,12(a0)
d:\CH573FEVT\LaserRangeFinder\obj/../src/TFTc/TFT_io.c:72
	htft->dc_pin = dc_pin;
    17b6:	c910                	sw	a2,16(a0)
d:\CH573FEVT\LaserRangeFinder\obj/../src/TFTc/TFT_io.c:73
	htft->res_port = res_port;
    17b8:	00d50a23          	sb	a3,20(a0)
d:\CH573FEVT\LaserRangeFinder\obj/../src/TFTc/TFT_io.c:74
	htft->res_pin = res_pin;
    17bc:	cd18                	sw	a4,24(a0)
d:\CH573FEVT\LaserRangeFinder\obj/../src/TFTc/TFT_io.c:75
	htft->bl_port = bl_port;
    17be:	00f50e23          	sb	a5,28(a0)
d:\CH573FEVT\LaserRangeFinder\obj/../src/TFTc/TFT_io.c:76
	htft->bl_pin = bl_pin;
    17c2:	03052023          	sw	a6,32(a0)
d:\CH573FEVT\LaserRangeFinder\obj/../src/TFTc/TFT_io.c:77
}
    17c6:	8082                	ret

000017c8 <TFT_Config_Display>:
TFT_Config_Display():
d:\CH573FEVT\LaserRangeFinder\obj/../src/TFTc/TFT_io.c:91
	htft->display_direction = display_direction;
    17c8:	02b50723          	sb	a1,46(a0)
d:\CH573FEVT\LaserRangeFinder\obj/../src/TFTc/TFT_io.c:92
	htft->x_offset = x_offset;
    17cc:	02c507a3          	sb	a2,47(a0)
d:\CH573FEVT\LaserRangeFinder\obj/../src/TFTc/TFT_io.c:93
	htft->y_offset = y_offset;
    17d0:	02d50823          	sb	a3,48(a0)
d:\CH573FEVT\LaserRangeFinder\obj/../src/TFTc/TFT_io.c:94
}
    17d4:	8082                	ret

000017d6 <TFT_Pin_RES_Set>:
TFT_Pin_RES_Set():
d:\CH573FEVT\LaserRangeFinder\obj/../src/TFTc/TFT_io.c:128
	if (htft->res_port == 0)
    17d6:	01454703          	lbu	a4,20(a0)
    17da:	4d1c                	lw	a5,24(a0)
d:\CH573FEVT\LaserRangeFinder\obj/../src/TFTc/TFT_io.c:131
			GPIOA_SetBits(htft->res_pin);
    17dc:	400016b7          	lui	a3,0x40001
d:\CH573FEVT\LaserRangeFinder\obj/../src/TFTc/TFT_io.c:128
	if (htft->res_port == 0)
    17e0:	ef11                	bnez	a4,17fc <TFT_Pin_RES_Set+0x26>
d:\CH573FEVT\LaserRangeFinder\obj/../src/TFTc/TFT_io.c:130
		if (level)
    17e2:	c599                	beqz	a1,17f0 <TFT_Pin_RES_Set+0x1a>
d:\CH573FEVT\LaserRangeFinder\obj/../src/TFTc/TFT_io.c:131
			GPIOA_SetBits(htft->res_pin);
    17e4:	0a86a703          	lw	a4,168(a3) # 400010a8 <_eusrstack+0x1fff90a8>
    17e8:	8fd9                	or	a5,a5,a4
    17ea:	0af6a423          	sw	a5,168(a3)
    17ee:	8082                	ret
d:\CH573FEVT\LaserRangeFinder\obj/../src/TFTc/TFT_io.c:133
			GPIOA_ResetBits(htft->res_pin);
    17f0:	0ac6a703          	lw	a4,172(a3)
    17f4:	8fd9                	or	a5,a5,a4
    17f6:	0af6a623          	sw	a5,172(a3)
    17fa:	8082                	ret
d:\CH573FEVT\LaserRangeFinder\obj/../src/TFTc/TFT_io.c:137
		if (level)
    17fc:	c599                	beqz	a1,180a <TFT_Pin_RES_Set+0x34>
d:\CH573FEVT\LaserRangeFinder\obj/../src/TFTc/TFT_io.c:138
			GPIOB_SetBits(htft->res_pin);
    17fe:	0c86a703          	lw	a4,200(a3)
    1802:	8fd9                	or	a5,a5,a4
    1804:	0cf6a423          	sw	a5,200(a3)
    1808:	8082                	ret
d:\CH573FEVT\LaserRangeFinder\obj/../src/TFTc/TFT_io.c:140
			GPIOB_ResetBits(htft->res_pin);
    180a:	0cc6a703          	lw	a4,204(a3)
    180e:	8fd9                	or	a5,a5,a4
    1810:	0cf6a623          	sw	a5,204(a3)
d:\CH573FEVT\LaserRangeFinder\obj/../src/TFTc/TFT_io.c:148
}
    1814:	8082                	ret

00001816 <TFT_Pin_DC_Set>:
TFT_Pin_DC_Set():
d:\CH573FEVT\LaserRangeFinder\obj/../src/TFTc/TFT_io.c:160
	if (htft->dc_port == 0)
    1816:	00c54703          	lbu	a4,12(a0)
    181a:	491c                	lw	a5,16(a0)
d:\CH573FEVT\LaserRangeFinder\obj/../src/TFTc/TFT_io.c:163
			GPIOA_SetBits(htft->dc_pin);
    181c:	400016b7          	lui	a3,0x40001
d:\CH573FEVT\LaserRangeFinder\obj/../src/TFTc/TFT_io.c:160
	if (htft->dc_port == 0)
    1820:	ef11                	bnez	a4,183c <TFT_Pin_DC_Set+0x26>
d:\CH573FEVT\LaserRangeFinder\obj/../src/TFTc/TFT_io.c:162
		if (level)
    1822:	c599                	beqz	a1,1830 <TFT_Pin_DC_Set+0x1a>
d:\CH573FEVT\LaserRangeFinder\obj/../src/TFTc/TFT_io.c:163
			GPIOA_SetBits(htft->dc_pin);
    1824:	0a86a703          	lw	a4,168(a3) # 400010a8 <_eusrstack+0x1fff90a8>
    1828:	8fd9                	or	a5,a5,a4
    182a:	0af6a423          	sw	a5,168(a3)
    182e:	8082                	ret
d:\CH573FEVT\LaserRangeFinder\obj/../src/TFTc/TFT_io.c:165
			GPIOA_ResetBits(htft->dc_pin);
    1830:	0ac6a703          	lw	a4,172(a3)
    1834:	8fd9                	or	a5,a5,a4
    1836:	0af6a623          	sw	a5,172(a3)
    183a:	8082                	ret
d:\CH573FEVT\LaserRangeFinder\obj/../src/TFTc/TFT_io.c:169
		if (level)
    183c:	c599                	beqz	a1,184a <TFT_Pin_DC_Set+0x34>
d:\CH573FEVT\LaserRangeFinder\obj/../src/TFTc/TFT_io.c:170
			GPIOB_SetBits(htft->dc_pin);
    183e:	0c86a703          	lw	a4,200(a3)
    1842:	8fd9                	or	a5,a5,a4
    1844:	0cf6a423          	sw	a5,200(a3)
    1848:	8082                	ret
d:\CH573FEVT\LaserRangeFinder\obj/../src/TFTc/TFT_io.c:172
			GPIOB_ResetBits(htft->dc_pin);
    184a:	0cc6a703          	lw	a4,204(a3)
    184e:	8fd9                	or	a5,a5,a4
    1850:	0cf6a623          	sw	a5,204(a3)
d:\CH573FEVT\LaserRangeFinder\obj/../src/TFTc/TFT_io.c:180
}
    1854:	8082                	ret

00001856 <TFT_Pin_CS_Set>:
TFT_Pin_CS_Set():
d:\CH573FEVT\LaserRangeFinder\obj/../src/TFTc/TFT_io.c:192
	if (htft->cs_port == 0)
    1856:	00454703          	lbu	a4,4(a0)
    185a:	451c                	lw	a5,8(a0)
d:\CH573FEVT\LaserRangeFinder\obj/../src/TFTc/TFT_io.c:195
			GPIOA_SetBits(htft->cs_pin);
    185c:	400016b7          	lui	a3,0x40001
d:\CH573FEVT\LaserRangeFinder\obj/../src/TFTc/TFT_io.c:192
	if (htft->cs_port == 0)
    1860:	ef11                	bnez	a4,187c <TFT_Pin_CS_Set+0x26>
d:\CH573FEVT\LaserRangeFinder\obj/../src/TFTc/TFT_io.c:194
		if (level)
    1862:	c599                	beqz	a1,1870 <TFT_Pin_CS_Set+0x1a>
d:\CH573FEVT\LaserRangeFinder\obj/../src/TFTc/TFT_io.c:195
			GPIOA_SetBits(htft->cs_pin);
    1864:	0a86a703          	lw	a4,168(a3) # 400010a8 <_eusrstack+0x1fff90a8>
    1868:	8fd9                	or	a5,a5,a4
    186a:	0af6a423          	sw	a5,168(a3)
    186e:	8082                	ret
d:\CH573FEVT\LaserRangeFinder\obj/../src/TFTc/TFT_io.c:197
			GPIOA_ResetBits(htft->cs_pin);
    1870:	0ac6a703          	lw	a4,172(a3)
    1874:	8fd9                	or	a5,a5,a4
    1876:	0af6a623          	sw	a5,172(a3)
    187a:	8082                	ret
d:\CH573FEVT\LaserRangeFinder\obj/../src/TFTc/TFT_io.c:201
		if (level)
    187c:	c599                	beqz	a1,188a <TFT_Pin_CS_Set+0x34>
d:\CH573FEVT\LaserRangeFinder\obj/../src/TFTc/TFT_io.c:202
			GPIOB_SetBits(htft->cs_pin);
    187e:	0c86a703          	lw	a4,200(a3)
    1882:	8fd9                	or	a5,a5,a4
    1884:	0cf6a423          	sw	a5,200(a3)
    1888:	8082                	ret
d:\CH573FEVT\LaserRangeFinder\obj/../src/TFTc/TFT_io.c:204
			GPIOB_ResetBits(htft->cs_pin);
    188a:	0cc6a703          	lw	a4,204(a3)
    188e:	8fd9                	or	a5,a5,a4
    1890:	0cf6a623          	sw	a5,204(a3)
d:\CH573FEVT\LaserRangeFinder\obj/../src/TFTc/TFT_io.c:212
}
    1894:	8082                	ret

00001896 <TFT_Pin_BLK_Set>:
TFT_Pin_BLK_Set():
d:\CH573FEVT\LaserRangeFinder\obj/../src/TFTc/TFT_io.c:225
	if (htft->bl_port == 0)
    1896:	01c54703          	lbu	a4,28(a0)
    189a:	511c                	lw	a5,32(a0)
d:\CH573FEVT\LaserRangeFinder\obj/../src/TFTc/TFT_io.c:228
			GPIOA_SetBits(htft->bl_pin);
    189c:	400016b7          	lui	a3,0x40001
d:\CH573FEVT\LaserRangeFinder\obj/../src/TFTc/TFT_io.c:225
	if (htft->bl_port == 0)
    18a0:	ef11                	bnez	a4,18bc <TFT_Pin_BLK_Set+0x26>
d:\CH573FEVT\LaserRangeFinder\obj/../src/TFTc/TFT_io.c:227
		if (level)
    18a2:	c599                	beqz	a1,18b0 <TFT_Pin_BLK_Set+0x1a>
d:\CH573FEVT\LaserRangeFinder\obj/../src/TFTc/TFT_io.c:228
			GPIOA_SetBits(htft->bl_pin);
    18a4:	0a86a703          	lw	a4,168(a3) # 400010a8 <_eusrstack+0x1fff90a8>
    18a8:	8fd9                	or	a5,a5,a4
    18aa:	0af6a423          	sw	a5,168(a3)
    18ae:	8082                	ret
d:\CH573FEVT\LaserRangeFinder\obj/../src/TFTc/TFT_io.c:230
			GPIOA_ResetBits(htft->bl_pin);
    18b0:	0ac6a703          	lw	a4,172(a3)
    18b4:	8fd9                	or	a5,a5,a4
    18b6:	0af6a623          	sw	a5,172(a3)
    18ba:	8082                	ret
d:\CH573FEVT\LaserRangeFinder\obj/../src/TFTc/TFT_io.c:234
		if (level)
    18bc:	c599                	beqz	a1,18ca <TFT_Pin_BLK_Set+0x34>
d:\CH573FEVT\LaserRangeFinder\obj/../src/TFTc/TFT_io.c:235
			GPIOB_SetBits(htft->bl_pin);
    18be:	0c86a703          	lw	a4,200(a3)
    18c2:	8fd9                	or	a5,a5,a4
    18c4:	0cf6a423          	sw	a5,200(a3)
    18c8:	8082                	ret
d:\CH573FEVT\LaserRangeFinder\obj/../src/TFTc/TFT_io.c:237
			GPIOB_ResetBits(htft->bl_pin);
    18ca:	0cc6a703          	lw	a4,204(a3)
    18ce:	8fd9                	or	a5,a5,a4
    18d0:	0cf6a623          	sw	a5,204(a3)
d:\CH573FEVT\LaserRangeFinder\obj/../src/TFTc/TFT_io.c:245
}
    18d4:	8082                	ret

000018d6 <TFT_SPI_Send>:
TFT_SPI_Send():
d:\CH573FEVT\LaserRangeFinder\obj/../src/TFTc/TFT_io.c:311
	if (htft == NULL || htft->spi_handle == NULL || length == 0 || data_buffer == NULL)
    18d6:	c92d                	beqz	a0,1948 <TFT_SPI_Send+0x72>
d:\CH573FEVT\LaserRangeFinder\obj/../src/TFTc/TFT_io.c:311 (discriminator 1)
    18d8:	411c                	lw	a5,0(a0)
d:\CH573FEVT\LaserRangeFinder\obj/../src/TFTc/TFT_io.c:310 (discriminator 1)
{
    18da:	1101                	addi	sp,sp,-32
    18dc:	cc22                	sw	s0,24(sp)
    18de:	ce06                	sw	ra,28(sp)
    18e0:	ca26                	sw	s1,20(sp)
    18e2:	c84a                	sw	s2,16(sp)
    18e4:	c64e                	sw	s3,12(sp)
    18e6:	842a                	mv	s0,a0
d:\CH573FEVT\LaserRangeFinder\obj/../src/TFTc/TFT_io.c:311 (discriminator 1)
	if (htft == NULL || htft->spi_handle == NULL || length == 0 || data_buffer == NULL)
    18e8:	cba9                	beqz	a5,193a <TFT_SPI_Send+0x64>
d:\CH573FEVT\LaserRangeFinder\obj/../src/TFTc/TFT_io.c:311 (discriminator 2)
    18ea:	ca21                	beqz	a2,193a <TFT_SPI_Send+0x64>
d:\CH573FEVT\LaserRangeFinder\obj/../src/TFTc/TFT_io.c:311 (discriminator 3)
    18ec:	c5b9                	beqz	a1,193a <TFT_SPI_Send+0x64>
    18ee:	89b6                	mv	s3,a3
    18f0:	8932                	mv	s2,a2
    18f2:	84ae                	mv	s1,a1
d:\CH573FEVT\LaserRangeFinder\obj/../src/TFTc/TFT_io.c:314
	TFT_Wait_DMA_Transfer_Complete(htft); // 纭淇涓涓娆 DMA 浼杈 (濡) 宸插
    18f4:	3559                	jal	177a <TFT_Wait_DMA_Transfer_Complete>
d:\CH573FEVT\LaserRangeFinder\obj/../src/TFTc/TFT_io.c:316
	TFT_Pin_DC_Set(htft, 1); // 璁剧疆涓烘版妯″
    18f6:	4585                	li	a1,1
    18f8:	8522                	mv	a0,s0
    18fa:	3f31                	jal	1816 <TFT_Pin_DC_Set>
d:\CH573FEVT\LaserRangeFinder\obj/../src/TFTc/TFT_io.c:317
	TFT_Pin_CS_Set(htft, 0); // 浣锛寮濮浼杈
    18fc:	4581                	li	a1,0
    18fe:	8522                	mv	a0,s0
    1900:	3f99                	jal	1856 <TFT_Pin_CS_Set>
d:\CH573FEVT\LaserRangeFinder\obj/../src/TFTc/TFT_io.c:319
	if (htft->is_dma_enabled) // 濡ㄤ DMA
    1902:	02c44783          	lbu	a5,44(s0)
    1906:	c78d                	beqz	a5,1930 <TFT_SPI_Send+0x5a>
d:\CH573FEVT\LaserRangeFinder\obj/../src/TFTc/TFT_io.c:321
		htft->is_dma_transfer_active = 1; // 璁剧疆 DMA 蹇蹇
    1908:	4785                	li	a5,1
    190a:	02f406a3          	sb	a5,45(s0)
TFT_Platform_SPI_Transmit_DMA_Start():
d:\CH573FEVT\LaserRangeFinder\obj/../src/TFTc/TFT_io.c:288
	SPI0_MasterDMATrans(pData, Size); // 浣跨ㄦSPI0 DMA浼杈褰跺杩涓芥版涓STM32DMA诲寮锛瑕跺娌涓
    190e:	85ca                	mv	a1,s2
    1910:	8526                	mv	a0,s1
    1912:	041000ef          	jal	ra,2152 <SPI0_MasterDMATrans>
TFT_SPI_Send():
d:\CH573FEVT\LaserRangeFinder\obj/../src/TFTc/TFT_io.c:325
		if (wait_completion)
    1916:	02098263          	beqz	s3,193a <TFT_SPI_Send+0x64>
d:\CH573FEVT\LaserRangeFinder\obj/../src/TFTc/TFT_io.c:327
			TFT_Wait_DMA_Transfer_Complete(htft); // 绛寰 DMA 瀹
    191a:	8522                	mv	a0,s0
    191c:	3db9                	jal	177a <TFT_Wait_DMA_Transfer_Complete>
d:\CH573FEVT\LaserRangeFinder\obj/../src/TFTc/TFT_io.c:336
		TFT_Pin_CS_Set(htft, 1);														// 诲浼杈瀹绔虫楂
    191e:	8522                	mv	a0,s0
d:\CH573FEVT\LaserRangeFinder\obj/../src/TFTc/TFT_io.c:338
}
    1920:	4462                	lw	s0,24(sp)
    1922:	40f2                	lw	ra,28(sp)
    1924:	44d2                	lw	s1,20(sp)
    1926:	4942                	lw	s2,16(sp)
    1928:	49b2                	lw	s3,12(sp)
d:\CH573FEVT\LaserRangeFinder\obj/../src/TFTc/TFT_io.c:336
		TFT_Pin_CS_Set(htft, 1);														// 诲浼杈瀹绔虫楂
    192a:	4585                	li	a1,1
d:\CH573FEVT\LaserRangeFinder\obj/../src/TFTc/TFT_io.c:338
}
    192c:	6105                	addi	sp,sp,32
d:\CH573FEVT\LaserRangeFinder\obj/../src/TFTc/TFT_io.c:336
		TFT_Pin_CS_Set(htft, 1);														// 诲浼杈瀹绔虫楂
    192e:	b725                	j	1856 <TFT_Pin_CS_Set>
TFT_Platform_SPI_Transmit_Blocking():
d:\CH573FEVT\LaserRangeFinder\obj/../src/TFTc/TFT_io.c:264
	SPI0_MasterDMATrans(pData, Size); // 浣跨ㄦSPI0 DMA浼杈瀹娴璇跺版DMA诲寮锛涓ㄨ跺棰
    1930:	85ca                	mv	a1,s2
    1932:	8526                	mv	a0,s1
    1934:	01f000ef          	jal	ra,2152 <SPI0_MasterDMATrans>
    1938:	b7dd                	j	191e <TFT_SPI_Send+0x48>
TFT_SPI_Send():
d:\CH573FEVT\LaserRangeFinder\obj/../src/TFTc/TFT_io.c:338
}
    193a:	40f2                	lw	ra,28(sp)
    193c:	4462                	lw	s0,24(sp)
    193e:	44d2                	lw	s1,20(sp)
    1940:	4942                	lw	s2,16(sp)
    1942:	49b2                	lw	s3,12(sp)
    1944:	6105                	addi	sp,sp,32
    1946:	8082                	ret
    1948:	8082                	ret

0000194a <TFT_Flush_Buffer>:
TFT_Flush_Buffer():
d:\CH573FEVT\LaserRangeFinder\obj/../src/TFTc/TFT_io.c:373
	if (htft == NULL || htft->tx_buffer == NULL || htft->buffer_write_index == 0)
    194a:	c115                	beqz	a0,196e <TFT_Flush_Buffer+0x24>
    194c:	86ae                	mv	a3,a1
d:\CH573FEVT\LaserRangeFinder\obj/../src/TFTc/TFT_io.c:373 (discriminator 1)
    194e:	514c                	lw	a1,36(a0)
d:\CH573FEVT\LaserRangeFinder\obj/../src/TFTc/TFT_io.c:372 (discriminator 1)
{
    1950:	1141                	addi	sp,sp,-16
    1952:	c422                	sw	s0,8(sp)
    1954:	c606                	sw	ra,12(sp)
    1956:	842a                	mv	s0,a0
d:\CH573FEVT\LaserRangeFinder\obj/../src/TFTc/TFT_io.c:373 (discriminator 1)
	if (htft == NULL || htft->tx_buffer == NULL || htft->buffer_write_index == 0)
    1958:	c599                	beqz	a1,1966 <TFT_Flush_Buffer+0x1c>
d:\CH573FEVT\LaserRangeFinder\obj/../src/TFTc/TFT_io.c:373 (discriminator 2)
    195a:	02a55603          	lhu	a2,42(a0)
    195e:	c601                	beqz	a2,1966 <TFT_Flush_Buffer+0x1c>
d:\CH573FEVT\LaserRangeFinder\obj/../src/TFTc/TFT_io.c:377
	TFT_SPI_Send(htft, htft->tx_buffer, htft->buffer_write_index, wait_completion);
    1960:	3f9d                	jal	18d6 <TFT_SPI_Send>
d:\CH573FEVT\LaserRangeFinder\obj/../src/TFTc/TFT_io.c:379
	htft->buffer_write_index = 0; // 缃缂插虹储寮
    1962:	02041523          	sh	zero,42(s0)
d:\CH573FEVT\LaserRangeFinder\obj/../src/TFTc/TFT_io.c:380
}
    1966:	40b2                	lw	ra,12(sp)
    1968:	4422                	lw	s0,8(sp)
    196a:	0141                	addi	sp,sp,16
    196c:	8082                	ret
    196e:	8082                	ret

00001970 <TFT_Buffer_Write16>:
TFT_Buffer_Write16():
d:\CH573FEVT\LaserRangeFinder\obj/../src/TFTc/TFT_io.c:351
	if (htft == NULL || htft->tx_buffer == NULL)
    1970:	cd29                	beqz	a0,19ca <TFT_Buffer_Write16+0x5a>
d:\CH573FEVT\LaserRangeFinder\obj/../src/TFTc/TFT_io.c:351 (discriminator 1)
    1972:	515c                	lw	a5,36(a0)
d:\CH573FEVT\LaserRangeFinder\obj/../src/TFTc/TFT_io.c:349 (discriminator 1)
{
    1974:	1141                	addi	sp,sp,-16
    1976:	c422                	sw	s0,8(sp)
    1978:	c606                	sw	ra,12(sp)
    197a:	c226                	sw	s1,4(sp)
    197c:	842a                	mv	s0,a0
d:\CH573FEVT\LaserRangeFinder\obj/../src/TFTc/TFT_io.c:351 (discriminator 1)
	if (htft == NULL || htft->tx_buffer == NULL)
    197e:	c3a9                	beqz	a5,19c0 <TFT_Buffer_Write16+0x50>
d:\CH573FEVT\LaserRangeFinder\obj/../src/TFTc/TFT_io.c:355
	if (htft->buffer_write_index >= htft->buffer_size - 1)
    1980:	02855783          	lhu	a5,40(a0)
    1984:	02a55703          	lhu	a4,42(a0)
    1988:	84ae                	mv	s1,a1
    198a:	17fd                	addi	a5,a5,-1
    198c:	00f74463          	blt	a4,a5,1994 <TFT_Buffer_Write16+0x24>
d:\CH573FEVT\LaserRangeFinder\obj/../src/TFTc/TFT_io.c:357
		TFT_Flush_Buffer(htft, 0); // 缂插烘弧锛锋扮插猴涓绛寰瀹
    1990:	4581                	li	a1,0
    1992:	3f65                	jal	194a <TFT_Flush_Buffer>
d:\CH573FEVT\LaserRangeFinder\obj/../src/TFTc/TFT_io.c:361
	htft->tx_buffer[htft->buffer_write_index++] = (data >> 8) & 0xFF; // 楂瀛
    1994:	02a45703          	lhu	a4,42(s0)
    1998:	505c                	lw	a5,36(s0)
    199a:	00170693          	addi	a3,a4,1
    199e:	02d41523          	sh	a3,42(s0)
    19a2:	97ba                	add	a5,a5,a4
    19a4:	0084d713          	srli	a4,s1,0x8
    19a8:	00e78023          	sb	a4,0(a5)
d:\CH573FEVT\LaserRangeFinder\obj/../src/TFTc/TFT_io.c:362
	htft->tx_buffer[htft->buffer_write_index++] = data & 0xFF;		  // 浣瀛
    19ac:	02a45703          	lhu	a4,42(s0)
    19b0:	505c                	lw	a5,36(s0)
    19b2:	00170693          	addi	a3,a4,1
    19b6:	02d41523          	sh	a3,42(s0)
    19ba:	97ba                	add	a5,a5,a4
    19bc:	00978023          	sb	s1,0(a5)
d:\CH573FEVT\LaserRangeFinder\obj/../src/TFTc/TFT_io.c:363
}
    19c0:	40b2                	lw	ra,12(sp)
    19c2:	4422                	lw	s0,8(sp)
    19c4:	4492                	lw	s1,4(sp)
    19c6:	0141                	addi	sp,sp,16
    19c8:	8082                	ret
    19ca:	8082                	ret

000019cc <TFT_Reset_Buffer>:
TFT_Reset_Buffer():
d:\CH573FEVT\LaserRangeFinder\obj/../src/TFTc/TFT_io.c:389
	if (htft == NULL)
    19cc:	c119                	beqz	a0,19d2 <TFT_Reset_Buffer+0x6>
d:\CH573FEVT\LaserRangeFinder\obj/../src/TFTc/TFT_io.c:392
	htft->buffer_write_index = 0;
    19ce:	02051523          	sh	zero,42(a0)
d:\CH573FEVT\LaserRangeFinder\obj/../src/TFTc/TFT_io.c:393
}
    19d2:	8082                	ret

000019d4 <TFT_IO_Init>:
TFT_IO_Init():
d:\CH573FEVT\LaserRangeFinder\obj/../src/TFTc/TFT_io.c:402
	if (htft == NULL || htft->spi_handle == NULL)
    19d4:	c931                	beqz	a0,1a28 <TFT_IO_Init+0x54>
d:\CH573FEVT\LaserRangeFinder\obj/../src/TFTc/TFT_io.c:402 (discriminator 1)
    19d6:	411c                	lw	a5,0(a0)
    19d8:	cba1                	beqz	a5,1a28 <TFT_IO_Init+0x54>
d:\CH573FEVT\LaserRangeFinder\obj/../src/TFTc/TFT_io.c:409
	if (htft->tx_buffer == NULL)
    19da:	515c                	lw	a5,36(a0)
d:\CH573FEVT\LaserRangeFinder\obj/../src/TFTc/TFT_io.c:401
{
    19dc:	1141                	addi	sp,sp,-16
    19de:	c422                	sw	s0,8(sp)
    19e0:	c606                	sw	ra,12(sp)
    19e2:	842a                	mv	s0,a0
d:\CH573FEVT\LaserRangeFinder\obj/../src/TFTc/TFT_io.c:409
	if (htft->tx_buffer == NULL)
    19e4:	c39d                	beqz	a5,1a0a <TFT_IO_Init+0x36>
d:\CH573FEVT\LaserRangeFinder\obj/../src/TFTc/TFT_io.c:432
	GPIOA_ModeCfg(GPIO_Pin_12 | GPIO_Pin_13 | GPIO_Pin_14, GPIO_ModeOut_PP_5mA); // 濮SPI0瀵瑰GPIO
    19e6:	458d                	li	a1,3
    19e8:	651d                	lui	a0,0x7
d:\CH573FEVT\LaserRangeFinder\obj/../src/TFTc/TFT_io.c:419
	htft->buffer_write_index = 0; // 濮缂插虹储寮
    19ea:	02041523          	sh	zero,42(s0)
d:\CH573FEVT\LaserRangeFinder\obj/../src/TFTc/TFT_io.c:432
	GPIOA_ModeCfg(GPIO_Pin_12 | GPIO_Pin_13 | GPIO_Pin_14, GPIO_ModeOut_PP_5mA); // 濮SPI0瀵瑰GPIO
    19ee:	23dd                	jal	1fd4 <GPIOA_ModeCfg>
d:\CH573FEVT\LaserRangeFinder\obj/../src/TFTc/TFT_io.c:433
	SPI0_MasterDefInit();														 // 濮SPI0涓轰富妯″
    19f0:	730000ef          	jal	ra,2120 <SPI0_MasterDefInit>
TFT_Register_Device():
d:\CH573FEVT\LaserRangeFinder\obj/../src/TFTc/TFT_io.c:106
		if (g_tft_handles[i] == NULL || g_tft_handles[i]->spi_handle == htft->spi_handle)
    19f4:	80818793          	addi	a5,gp,-2040 # 20004068 <_edata>
    19f8:	439c                	lw	a5,0(a5)
TFT_IO_Init():
d:\CH573FEVT\LaserRangeFinder\obj/../src/TFTc/TFT_io.c:435
	htft->is_dma_enabled = 0; // 璇蜂瑕淇逛负1娌DMA诲寮锛宸茬TFT_Platform_SPI_Transmit_Blocking挎涓DMA浼杈
    19fa:	02040623          	sb	zero,44(s0)
d:\CH573FEVT\LaserRangeFinder\obj/../src/TFTc/TFT_io.c:444
	htft->is_dma_transfer_active = 0; // 濮 DMA 浼杈舵蹇
    19fe:	020406a3          	sb	zero,45(s0)
TFT_Register_Device():
d:\CH573FEVT\LaserRangeFinder\obj/../src/TFTc/TFT_io.c:106
		if (g_tft_handles[i] == NULL || g_tft_handles[i]->spi_handle == htft->spi_handle)
    1a02:	ef91                	bnez	a5,1a1e <TFT_IO_Init+0x4a>
d:\CH573FEVT\LaserRangeFinder\obj/../src/TFTc/TFT_io.c:108
			g_tft_handles[i] = htft;
    1a04:	8081a423          	sw	s0,-2040(gp) # 20004068 <_edata>
d:\CH573FEVT\LaserRangeFinder\obj/../src/TFTc/TFT_io.c:109
			break;
    1a08:	a039                	j	1a16 <TFT_IO_Init+0x42>
TFT_IO_Init():
d:\CH573FEVT\LaserRangeFinder\obj/../src/TFTc/TFT_io.c:411
		htft->tx_buffer = (uint8_t *)malloc(htft->buffer_size);
    1a0a:	02855503          	lhu	a0,40(a0) # 7028 <_data_lma+0x2e6c>
    1a0e:	091000ef          	jal	ra,229e <malloc>
    1a12:	d048                	sw	a0,36(s0)
d:\CH573FEVT\LaserRangeFinder\obj/../src/TFTc/TFT_io.c:412
		if (htft->tx_buffer == NULL)
    1a14:	f969                	bnez	a0,19e6 <TFT_IO_Init+0x12>
d:\CH573FEVT\LaserRangeFinder\obj/../src/TFTc/TFT_io.c:448
}
    1a16:	40b2                	lw	ra,12(sp)
    1a18:	4422                	lw	s0,8(sp)
    1a1a:	0141                	addi	sp,sp,16
    1a1c:	8082                	ret
TFT_Register_Device():
d:\CH573FEVT\LaserRangeFinder\obj/../src/TFTc/TFT_io.c:106
		if (g_tft_handles[i] == NULL || g_tft_handles[i]->spi_handle == htft->spi_handle)
    1a1e:	4398                	lw	a4,0(a5)
    1a20:	401c                	lw	a5,0(s0)
    1a22:	fef71ae3          	bne	a4,a5,1a16 <TFT_IO_Init+0x42>
    1a26:	bff9                	j	1a04 <TFT_IO_Init+0x30>
    1a28:	8082                	ret

00001a2a <TFT_Write_Data8>:
TFT_Write_Data8():
d:\CH573FEVT\LaserRangeFinder\obj/../src/TFTc/TFT_io.c:483
 * @retval 
 * @note   姝ゅ芥版绘浣跨ㄩ诲寮 SPI 浼杈锛骞跺瀹ㄥ DC 寮宸茶句负版妯″
 *         甯稿ㄥ戒护璋锛ㄤ戒护般
 */
void TFT_Write_Data8(TFT_HandleTypeDef *htft, uint8_t data)
{
    1a2a:	1101                	addi	sp,sp,-32
    1a2c:	ce06                	sw	ra,28(sp)
    1a2e:	cc22                	sw	s0,24(sp)
    1a30:	00b107a3          	sb	a1,15(sp)
d:\CH573FEVT\LaserRangeFinder\obj/../src/TFTc/TFT_io.c:484
	if (htft == NULL || htft->spi_handle == NULL)
    1a34:	c11d                	beqz	a0,1a5a <TFT_Write_Data8+0x30>
d:\CH573FEVT\LaserRangeFinder\obj/../src/TFTc/TFT_io.c:484 (discriminator 1)
    1a36:	411c                	lw	a5,0(a0)
    1a38:	842a                	mv	s0,a0
    1a3a:	c385                	beqz	a5,1a5a <TFT_Write_Data8+0x30>
d:\CH573FEVT\LaserRangeFinder\obj/../src/TFTc/TFT_io.c:487
		return;

	TFT_Wait_DMA_Transfer_Complete(htft); // 纭淇涔 DMA 浣瀹
    1a3c:	3b3d                	jal	177a <TFT_Wait_DMA_Transfer_Complete>
d:\CH573FEVT\LaserRangeFinder\obj/../src/TFTc/TFT_io.c:488
	TFT_Pin_DC_Set(htft, 1);			  // 纭淇版妯″
    1a3e:	4585                	li	a1,1
    1a40:	8522                	mv	a0,s0
    1a42:	3bd1                	jal	1816 <TFT_Pin_DC_Set>
d:\CH573FEVT\LaserRangeFinder\obj/../src/TFTc/TFT_io.c:489
	TFT_Pin_CS_Set(htft, 0);			  // 涓
    1a44:	4581                	li	a1,0
    1a46:	8522                	mv	a0,s0
    1a48:	3539                	jal	1856 <TFT_Pin_CS_Set>
TFT_Platform_SPI_Transmit_Blocking():
d:\CH573FEVT\LaserRangeFinder\obj/../src/TFTc/TFT_io.c:264
	SPI0_MasterDMATrans(pData, Size); // 浣跨ㄦSPI0 DMA浼杈瀹娴璇跺版DMA诲寮锛涓ㄨ跺棰
    1a4a:	4585                	li	a1,1
    1a4c:	00f10513          	addi	a0,sp,15
    1a50:	702000ef          	jal	ra,2152 <SPI0_MasterDMATrans>
TFT_Write_Data8():
d:\CH573FEVT\LaserRangeFinder\obj/../src/TFTc/TFT_io.c:494

	// 浣跨ㄥ钩版借薄诲寮涓瀛
	TFT_Platform_SPI_Transmit_Blocking(htft->spi_handle, &data, 1, 100);

	TFT_Pin_CS_Set(htft, 1); // 浼杈瀹楂 CS
    1a54:	4585                	li	a1,1
    1a56:	8522                	mv	a0,s0
    1a58:	3bfd                	jal	1856 <TFT_Pin_CS_Set>
d:\CH573FEVT\LaserRangeFinder\obj/../src/TFTc/TFT_io.c:495
}
    1a5a:	40f2                	lw	ra,28(sp)
    1a5c:	4462                	lw	s0,24(sp)
    1a5e:	6105                	addi	sp,sp,32
    1a60:	8082                	ret

00001a62 <TFT_Write_Data16>:
TFT_Write_Data16():
d:\CH573FEVT\LaserRangeFinder\obj/../src/TFTc/TFT_io.c:507
 * @note   姝ゅ芥版绘浣跨ㄩ诲寮 SPI 浼杈
 *         涓昏ㄤ缁跺涓规灏版锛涓缁杩缂插恒
 */
void TFT_Write_Data16(TFT_HandleTypeDef *htft, uint16_t data)
{
	if (htft == NULL || htft->spi_handle == NULL)
    1a62:	cd15                	beqz	a0,1a9e <TFT_Write_Data16+0x3c>
d:\CH573FEVT\LaserRangeFinder\obj/../src/TFTc/TFT_io.c:507 (discriminator 1)
    1a64:	411c                	lw	a5,0(a0)
d:\CH573FEVT\LaserRangeFinder\obj/../src/TFTc/TFT_io.c:506 (discriminator 1)
{
    1a66:	1101                	addi	sp,sp,-32
    1a68:	cc22                	sw	s0,24(sp)
    1a6a:	ce06                	sw	ra,28(sp)
    1a6c:	842a                	mv	s0,a0
d:\CH573FEVT\LaserRangeFinder\obj/../src/TFTc/TFT_io.c:507 (discriminator 1)
	if (htft == NULL || htft->spi_handle == NULL)
    1a6e:	c785                	beqz	a5,1a96 <TFT_Write_Data16+0x34>
d:\CH573FEVT\LaserRangeFinder\obj/../src/TFTc/TFT_io.c:511
		return;

	uint8_t spi_data[2];
	spi_data[0] = (data >> 8) & 0xFF; // 楂瀛 (澶х)
    1a70:	00859793          	slli	a5,a1,0x8
    1a74:	81a1                	srli	a1,a1,0x8
    1a76:	8ddd                	or	a1,a1,a5
    1a78:	00b11623          	sh	a1,12(sp)
d:\CH573FEVT\LaserRangeFinder\obj/../src/TFTc/TFT_io.c:514
	spi_data[1] = data & 0xFF;		  // 浣瀛

	TFT_Wait_DMA_Transfer_Complete(htft); // 纭淇涔 DMA 浣瀹
    1a7c:	39fd                	jal	177a <TFT_Wait_DMA_Transfer_Complete>
d:\CH573FEVT\LaserRangeFinder\obj/../src/TFTc/TFT_io.c:515
	TFT_Pin_DC_Set(htft, 1);			  // 版妯″
    1a7e:	4585                	li	a1,1
    1a80:	8522                	mv	a0,s0
    1a82:	3b51                	jal	1816 <TFT_Pin_DC_Set>
d:\CH573FEVT\LaserRangeFinder\obj/../src/TFTc/TFT_io.c:516
	TFT_Pin_CS_Set(htft, 0);			  // 涓
    1a84:	4581                	li	a1,0
    1a86:	8522                	mv	a0,s0
    1a88:	33f9                	jal	1856 <TFT_Pin_CS_Set>
TFT_Platform_SPI_Transmit_Blocking():
d:\CH573FEVT\LaserRangeFinder\obj/../src/TFTc/TFT_io.c:264
	SPI0_MasterDMATrans(pData, Size); // 浣跨ㄦSPI0 DMA浼杈瀹娴璇跺版DMA诲寮锛涓ㄨ跺棰
    1a8a:	4589                	li	a1,2
    1a8c:	0068                	addi	a0,sp,12
    1a8e:	25d1                	jal	2152 <SPI0_MasterDMATrans>
TFT_Write_Data16():
d:\CH573FEVT\LaserRangeFinder\obj/../src/TFTc/TFT_io.c:521

	// 浣跨ㄥ钩版借薄诲寮 2 涓瀛
	TFT_Platform_SPI_Transmit_Blocking(htft->spi_handle, spi_data, 2, 100);

	TFT_Pin_CS_Set(htft, 1); // 浼杈瀹楂 CS
    1a90:	4585                	li	a1,1
    1a92:	8522                	mv	a0,s0
    1a94:	33c9                	jal	1856 <TFT_Pin_CS_Set>
d:\CH573FEVT\LaserRangeFinder\obj/../src/TFTc/TFT_io.c:522
}
    1a96:	40f2                	lw	ra,28(sp)
    1a98:	4462                	lw	s0,24(sp)
    1a9a:	6105                	addi	sp,sp,32
    1a9c:	8082                	ret
    1a9e:	8082                	ret

00001aa0 <TFT_Write_Command>:
TFT_Write_Command():
d:\CH573FEVT\LaserRangeFinder\obj/../src/TFTc/TFT_io.c:533
 * @retval 
 * @note   戒护浼锋扮插 (诲绛寰)
 *         戒护韬浣跨ㄩ诲寮 SPI 浼杈
 */
void TFT_Write_Command(TFT_HandleTypeDef *htft, uint8_t command)
{
    1aa0:	1101                	addi	sp,sp,-32
    1aa2:	ce06                	sw	ra,28(sp)
    1aa4:	cc22                	sw	s0,24(sp)
    1aa6:	00b107a3          	sb	a1,15(sp)
d:\CH573FEVT\LaserRangeFinder\obj/../src/TFTc/TFT_io.c:534
	if (htft == NULL || htft->spi_handle == NULL)
    1aaa:	c11d                	beqz	a0,1ad0 <TFT_Write_Command+0x30>
d:\CH573FEVT\LaserRangeFinder\obj/../src/TFTc/TFT_io.c:534 (discriminator 1)
    1aac:	411c                	lw	a5,0(a0)
    1aae:	842a                	mv	s0,a0
    1ab0:	c385                	beqz	a5,1ad0 <TFT_Write_Command+0x30>
d:\CH573FEVT\LaserRangeFinder\obj/../src/TFTc/TFT_io.c:538
		return;

	// 戒护锛纭淇缂插轰腑版宸插瀹
	TFT_Flush_Buffer(htft, 1); // 绛寰缂插哄锋板
    1ab2:	4585                	li	a1,1
    1ab4:	3d59                	jal	194a <TFT_Flush_Buffer>
d:\CH573FEVT\LaserRangeFinder\obj/../src/TFTc/TFT_io.c:542

	// 涓瑕娆¤ TFT_Wait_DMA_Transfer_Complete()锛涓 Flush_Buffer(1) 宸茬绛寰浜

	TFT_Pin_DC_Set(htft, 0); // 璁剧疆涓哄戒护妯″
    1ab6:	4581                	li	a1,0
    1ab8:	8522                	mv	a0,s0
    1aba:	3bb1                	jal	1816 <TFT_Pin_DC_Set>
d:\CH573FEVT\LaserRangeFinder\obj/../src/TFTc/TFT_io.c:543
	TFT_Pin_CS_Set(htft, 0); // 涓
    1abc:	4581                	li	a1,0
    1abe:	8522                	mv	a0,s0
    1ac0:	3b59                	jal	1856 <TFT_Pin_CS_Set>
TFT_Platform_SPI_Transmit_Blocking():
d:\CH573FEVT\LaserRangeFinder\obj/../src/TFTc/TFT_io.c:264
	SPI0_MasterDMATrans(pData, Size); // 浣跨ㄦSPI0 DMA浼杈瀹娴璇跺版DMA诲寮锛涓ㄨ跺棰
    1ac2:	4585                	li	a1,1
    1ac4:	00f10513          	addi	a0,sp,15
    1ac8:	2569                	jal	2152 <SPI0_MasterDMATrans>
TFT_Write_Command():
d:\CH573FEVT\LaserRangeFinder\obj/../src/TFTc/TFT_io.c:548

	// 浣跨ㄥ钩版借薄诲寮戒护瀛
	TFT_Platform_SPI_Transmit_Blocking(htft->spi_handle, &command, 1, 100);

	TFT_Pin_CS_Set(htft, 1); // 戒护瀹绔虫楂 CS
    1aca:	4585                	li	a1,1
    1acc:	8522                	mv	a0,s0
    1ace:	3361                	jal	1856 <TFT_Pin_CS_Set>
d:\CH573FEVT\LaserRangeFinder\obj/../src/TFTc/TFT_io.c:549
}
    1ad0:	40f2                	lw	ra,28(sp)
    1ad2:	4462                	lw	s0,24(sp)
    1ad4:	6105                	addi	sp,sp,32
    1ad6:	8082                	ret

00001ad8 <TFT_Set_Address>:
TFT_Set_Address():
d:\CH573FEVT\LaserRangeFinder\obj/../src/TFTc/TFT_io.c:563
 * @retval 
 * @note   璁剧疆锛缁版浼杈戒ユゅ哄锛绐ｅㄤ灞骞瑰涓浼ㄩ
 */
void TFT_Set_Address(TFT_HandleTypeDef *htft, uint16_t x_start, uint16_t y_start, uint16_t x_end, uint16_t y_end)
{
	if (htft == NULL)
    1ad8:	cd45                	beqz	a0,1b90 <TFT_Set_Address+0xb8>
d:\CH573FEVT\LaserRangeFinder\obj/../src/TFTc/TFT_io.c:562
{
    1ada:	1101                	addi	sp,sp,-32
    1adc:	ca26                	sw	s1,20(sp)
    1ade:	84ae                	mv	s1,a1
d:\CH573FEVT\LaserRangeFinder\obj/../src/TFTc/TFT_io.c:567
		return;

	// 璁剧疆板锛纭淇缂插轰腑版宸插瀹
	TFT_Flush_Buffer(htft, 1); // 绛寰缂插哄锋板
    1ae0:	4585                	li	a1,1
d:\CH573FEVT\LaserRangeFinder\obj/../src/TFTc/TFT_io.c:562
{
    1ae2:	ce06                	sw	ra,28(sp)
    1ae4:	cc22                	sw	s0,24(sp)
    1ae6:	c84a                	sw	s2,16(sp)
    1ae8:	842a                	mv	s0,a0
    1aea:	c64e                	sw	s3,12(sp)
    1aec:	c452                	sw	s4,8(sp)
    1aee:	893a                	mv	s2,a4
    1af0:	8a36                	mv	s4,a3
    1af2:	89b2                	mv	s3,a2
d:\CH573FEVT\LaserRangeFinder\obj/../src/TFTc/TFT_io.c:567
	TFT_Flush_Buffer(htft, 1); // 绛寰缂插哄锋板
    1af4:	3d99                	jal	194a <TFT_Flush_Buffer>
d:\CH573FEVT\LaserRangeFinder\obj/../src/TFTc/TFT_io.c:570

	// --- 璁剧疆板 (Column Address Set, CASET, 0x2A) ---
	TFT_Write_Command(htft, 0x2A);
    1af6:	02a00593          	li	a1,42
    1afa:	8522                	mv	a0,s0
    1afc:	3755                	jal	1aa0 <TFT_Write_Command>
d:\CH573FEVT\LaserRangeFinder\obj/../src/TFTc/TFT_io.c:573

	// 规灞骞瑰疯剧疆板
	if (htft->display_direction == 0 || htft->display_direction == 2) // 0掳180掳
    1afe:	02e44783          	lbu	a5,46(s0)
    1b02:	0fd7f793          	andi	a5,a5,253
    1b06:	e3ad                	bnez	a5,1b68 <TFT_Set_Address+0x90>
d:\CH573FEVT\LaserRangeFinder\obj/../src/TFTc/TFT_io.c:575
	{
		TFT_Write_Data16(htft, x_start + htft->x_offset);
    1b08:	02f44583          	lbu	a1,47(s0)
    1b0c:	8522                	mv	a0,s0
    1b0e:	95a6                	add	a1,a1,s1
    1b10:	05c2                	slli	a1,a1,0x10
    1b12:	81c1                	srli	a1,a1,0x10
    1b14:	37b9                	jal	1a62 <TFT_Write_Data16>
d:\CH573FEVT\LaserRangeFinder\obj/../src/TFTc/TFT_io.c:576
		TFT_Write_Data16(htft, x_end + htft->x_offset);
    1b16:	02f44583          	lbu	a1,47(s0)
d:\CH573FEVT\LaserRangeFinder\obj/../src/TFTc/TFT_io.c:581
	}
	else // 90掳270掳
	{
		TFT_Write_Data16(htft, x_start + htft->y_offset);
		TFT_Write_Data16(htft, x_end + htft->y_offset);
    1b1a:	95d2                	add	a1,a1,s4
    1b1c:	05c2                	slli	a1,a1,0x10
    1b1e:	81c1                	srli	a1,a1,0x10
    1b20:	8522                	mv	a0,s0
    1b22:	3781                	jal	1a62 <TFT_Write_Data16>
d:\CH573FEVT\LaserRangeFinder\obj/../src/TFTc/TFT_io.c:585
	}

	// --- 璁剧疆琛板 (Set Row Address, 0x2B) ---
	TFT_Write_Command(htft, 0x2B);
    1b24:	02b00593          	li	a1,43
    1b28:	8522                	mv	a0,s0
    1b2a:	3f9d                	jal	1aa0 <TFT_Write_Command>
d:\CH573FEVT\LaserRangeFinder\obj/../src/TFTc/TFT_io.c:588

	// 规灞骞瑰疯剧疆琛板
	if (htft->display_direction == 0 || htft->display_direction == 2) // 0掳180掳
    1b2c:	02e44783          	lbu	a5,46(s0)
    1b30:	0fd7f793          	andi	a5,a5,253
    1b34:	e7a1                	bnez	a5,1b7c <TFT_Set_Address+0xa4>
d:\CH573FEVT\LaserRangeFinder\obj/../src/TFTc/TFT_io.c:590
	{
		TFT_Write_Data16(htft, y_start + htft->y_offset);
    1b36:	03044583          	lbu	a1,48(s0)
    1b3a:	8522                	mv	a0,s0
    1b3c:	95ce                	add	a1,a1,s3
    1b3e:	05c2                	slli	a1,a1,0x10
    1b40:	81c1                	srli	a1,a1,0x10
    1b42:	3705                	jal	1a62 <TFT_Write_Data16>
d:\CH573FEVT\LaserRangeFinder\obj/../src/TFTc/TFT_io.c:591
		TFT_Write_Data16(htft, y_end + htft->y_offset);
    1b44:	03044583          	lbu	a1,48(s0)
d:\CH573FEVT\LaserRangeFinder\obj/../src/TFTc/TFT_io.c:596
	}
	else // 90掳270掳
	{
		TFT_Write_Data16(htft, y_start + htft->x_offset);
		TFT_Write_Data16(htft, y_end + htft->x_offset);
    1b48:	95ca                	add	a1,a1,s2
    1b4a:	05c2                	slli	a1,a1,0x10
    1b4c:	8522                	mv	a0,s0
    1b4e:	81c1                	srli	a1,a1,0x10
    1b50:	3f09                	jal	1a62 <TFT_Write_Data16>
d:\CH573FEVT\LaserRangeFinder\obj/../src/TFTc/TFT_io.c:601
	}

	// ---  GRAM 戒护 (Memory Write, 0x2C) ---
	// 缁版灏琚ョ辨ょｅ涔 GRAM 哄
	TFT_Write_Command(htft, 0x2C);
    1b52:	8522                	mv	a0,s0
d:\CH573FEVT\LaserRangeFinder\obj/../src/TFTc/TFT_io.c:602
}
    1b54:	4462                	lw	s0,24(sp)
    1b56:	40f2                	lw	ra,28(sp)
    1b58:	44d2                	lw	s1,20(sp)
    1b5a:	4942                	lw	s2,16(sp)
    1b5c:	49b2                	lw	s3,12(sp)
    1b5e:	4a22                	lw	s4,8(sp)
d:\CH573FEVT\LaserRangeFinder\obj/../src/TFTc/TFT_io.c:601
	TFT_Write_Command(htft, 0x2C);
    1b60:	02c00593          	li	a1,44
d:\CH573FEVT\LaserRangeFinder\obj/../src/TFTc/TFT_io.c:602
}
    1b64:	6105                	addi	sp,sp,32
d:\CH573FEVT\LaserRangeFinder\obj/../src/TFTc/TFT_io.c:601
	TFT_Write_Command(htft, 0x2C);
    1b66:	bf2d                	j	1aa0 <TFT_Write_Command>
d:\CH573FEVT\LaserRangeFinder\obj/../src/TFTc/TFT_io.c:580
		TFT_Write_Data16(htft, x_start + htft->y_offset);
    1b68:	03044583          	lbu	a1,48(s0)
    1b6c:	8522                	mv	a0,s0
    1b6e:	95a6                	add	a1,a1,s1
    1b70:	05c2                	slli	a1,a1,0x10
    1b72:	81c1                	srli	a1,a1,0x10
    1b74:	35fd                	jal	1a62 <TFT_Write_Data16>
d:\CH573FEVT\LaserRangeFinder\obj/../src/TFTc/TFT_io.c:581
		TFT_Write_Data16(htft, x_end + htft->y_offset);
    1b76:	03044583          	lbu	a1,48(s0)
    1b7a:	b745                	j	1b1a <TFT_Set_Address+0x42>
d:\CH573FEVT\LaserRangeFinder\obj/../src/TFTc/TFT_io.c:595
		TFT_Write_Data16(htft, y_start + htft->x_offset);
    1b7c:	02f44583          	lbu	a1,47(s0)
    1b80:	8522                	mv	a0,s0
    1b82:	95ce                	add	a1,a1,s3
    1b84:	05c2                	slli	a1,a1,0x10
    1b86:	81c1                	srli	a1,a1,0x10
    1b88:	3de9                	jal	1a62 <TFT_Write_Data16>
d:\CH573FEVT\LaserRangeFinder\obj/../src/TFTc/TFT_io.c:596
		TFT_Write_Data16(htft, y_end + htft->x_offset);
    1b8a:	02f44583          	lbu	a1,47(s0)
    1b8e:	bf6d                	j	1b48 <TFT_Set_Address+0x70>
    1b90:	8082                	ret

00001b92 <TFT_RGB>:
TFT_RGB():
d:\CH573FEVT\LaserRangeFinder\obj/../src/TFTc/TFT_io.c:617
 */
uint16_t TFT_RGB(uint8_t r, uint8_t g, uint8_t b)
{
	// 杞RGB888RGB565煎
	// R(5浣) G(6浣) B(5浣)
	return ((r & 0xF8) << 8) | ((g & 0xFC) << 3) | (b >> 3);
    1b92:	058e                	slli	a1,a1,0x3
    1b94:	820d                	srli	a2,a2,0x3
    1b96:	7e05f593          	andi	a1,a1,2016
    1b9a:	0522                	slli	a0,a0,0x8
    1b9c:	8dd1                	or	a1,a1,a2
    1b9e:	80057513          	andi	a0,a0,-2048
d:\CH573FEVT\LaserRangeFinder\obj/../src/TFTc/TFT_io.c:618
}
    1ba2:	8d4d                	or	a0,a0,a1
    1ba4:	8082                	ret

00001ba6 <TFT_Show_Char>:
TFT_Show_Char():
d:\CH573FEVT\LaserRangeFinder\obj/../src/TFTc/TFT_text.c:112
 * @param  back_color 棰
 * @param  size       瀛浣澶у ( 8, 12, 16)
 * @param  mode       妯″ (0: 涓, 1: )
 */
void TFT_Show_Char(TFT_HandleTypeDef *htft, uint16_t x, uint16_t y, uint8_t chr, uint16_t color, uint16_t back_color, uint8_t size, uint8_t mode)
{
    1ba6:	715d                	addi	sp,sp,-80
    1ba8:	c4a2                	sw	s0,72(sp)
    1baa:	c2a6                	sw	s1,68(sp)
    1bac:	d65e                	sw	s7,44(sp)
    1bae:	d462                	sw	s8,40(sp)
    1bb0:	8bbe                	mv	s7,a5
    1bb2:	c686                	sw	ra,76(sp)
    1bb4:	c0ca                	sw	s2,64(sp)
    1bb6:	de4e                	sw	s3,60(sp)
    1bb8:	dc52                	sw	s4,56(sp)
    1bba:	da56                	sw	s5,52(sp)
    1bbc:	d85a                	sw	s6,48(sp)
    1bbe:	d266                	sw	s9,36(sp)
    1bc0:	d06a                	sw	s10,32(sp)
    1bc2:	ce6e                	sw	s11,28(sp)
    1bc4:	c63a                	sw	a4,12(sp)
d:\CH573FEVT\LaserRangeFinder\obj/../src/TFTc/TFT_text.c:120
    uint8_t char_width, char_height;
    uint16_t char_index;
    uint16_t bytes_per_char;

    // 规瀛浣澶у╁瑰瀛搴
    if (size == 16)
    1bc6:	47c1                	li	a5,16
d:\CH573FEVT\LaserRangeFinder\obj/../src/TFTc/TFT_text.c:112
{
    1bc8:	84aa                	mv	s1,a0
    1bca:	8436                	mv	s0,a3
    1bcc:	8c46                	mv	s8,a7
d:\CH573FEVT\LaserRangeFinder\obj/../src/TFTc/TFT_text.c:120
    if (size == 16)
    1bce:	0af80063          	beq	a6,a5,1c6e <TFT_Show_Char+0xc8>
d:\CH573FEVT\LaserRangeFinder\obj/../src/TFTc/TFT_text.c:125
    {
        ascii_font = &afont16x8;
        bytes_per_char = 16; // 816琛锛姣2瀛锛16瀛
    }
    else if (size == 12)
    1bd2:	47b1                	li	a5,12
    1bd4:	0af80363          	beq	a6,a5,1c7a <TFT_Show_Char+0xd4>
d:\CH573FEVT\LaserRangeFinder\obj/../src/TFTc/TFT_text.c:134
    }
    else
    {
        ascii_font = &afont8x6;
        size = 8;
        bytes_per_char = 6; // 68琛锛姣1瀛锛6瀛
    1bd8:	4d19                	li	s10,6
d:\CH573FEVT\LaserRangeFinder\obj/../src/TFTc/TFT_text.c:132
        ascii_font = &afont8x6;
    1bda:	00002797          	auipc	a5,0x2
    1bde:	5d678793          	addi	a5,a5,1494 # 41b0 <afont8x6>
d:\CH573FEVT\LaserRangeFinder\obj/../src/TFTc/TFT_text.c:141

    char_width = ascii_font->w;
    char_height = ascii_font->h;

    // 妫ュ绗ㄥ剧ず村
    if (chr < ' ' || chr > '~')
    1be2:	fe040713          	addi	a4,s0,-32
    1be6:	0ff77713          	andi	a4,a4,255
    1bea:	05e00693          	li	a3,94
d:\CH573FEVT\LaserRangeFinder\obj/../src/TFTc/TFT_text.c:137
    char_width = ascii_font->w;
    1bee:	0017c983          	lbu	s3,1(a5)
d:\CH573FEVT\LaserRangeFinder\obj/../src/TFTc/TFT_text.c:138
    char_height = ascii_font->h;
    1bf2:	0007c903          	lbu	s2,0(a5)
d:\CH573FEVT\LaserRangeFinder\obj/../src/TFTc/TFT_text.c:141
    if (chr < ' ' || chr > '~')
    1bf6:	00e6f463          	bgeu	a3,a4,1bfe <TFT_Show_Char+0x58>
d:\CH573FEVT\LaserRangeFinder\obj/../src/TFTc/TFT_text.c:143
    {
        chr = ' '; // 涓剧ず瀛绗剧ず涓虹┖
    1bfa:	02000413          	li	s0,32
d:\CH573FEVT\LaserRangeFinder\obj/../src/TFTc/TFT_text.c:146
    }

    char_index = chr - ' ';                                       // 璁＄瀛绗ㄥ搴涓绱㈠浣缃
    1bfe:	1401                	addi	s0,s0,-32
d:\CH573FEVT\LaserRangeFinder\obj/../src/TFTc/TFT_text.c:147
    glyph_data = ascii_font->chars + char_index * bytes_per_char; // 瀵瑰瀛妯℃版
    1c00:	0442                	slli	s0,s0,0x10
    1c02:	8041                	srli	s0,s0,0x10
    1c04:	03a40433          	mul	s0,s0,s10
_TFT_Draw_Glyph():
d:\CH573FEVT\LaserRangeFinder\obj/../src/TFTc/TFT_text.c:25
    uint8_t bytes_per_column = (height + 7) / 8; // 姣瀛帮8琛=1, 12琛=2锛
    1c08:	00790a13          	addi	s4,s2,7
d:\CH573FEVT\LaserRangeFinder\obj/../src/TFTc/TFT_text.c:27
    TFT_Set_Address(htft, x, y, x + width - 1, y + height - 1);
    1c0c:	09c2                	slli	s3,s3,0x10
    1c0e:	0942                	slli	s2,s2,0x10
    1c10:	fff60713          	addi	a4,a2,-1
    1c14:	fff58693          	addi	a3,a1,-1
    1c18:	0109d993          	srli	s3,s3,0x10
    1c1c:	01095913          	srli	s2,s2,0x10
    1c20:	974a                	add	a4,a4,s2
    1c22:	96ce                	add	a3,a3,s3
d:\CH573FEVT\LaserRangeFinder\obj/../src/TFTc/TFT_text.c:25
    uint8_t bytes_per_column = (height + 7) / 8; // 姣瀛帮8琛=1, 12琛=2锛
    1c24:	403a5a13          	srai	s4,s4,0x3
d:\CH573FEVT\LaserRangeFinder\obj/../src/TFTc/TFT_text.c:27
    TFT_Set_Address(htft, x, y, x + width - 1, y + height - 1);
    1c28:	0742                	slli	a4,a4,0x10
    1c2a:	06c2                	slli	a3,a3,0x10
TFT_Show_Char():
d:\CH573FEVT\LaserRangeFinder\obj/../src/TFTc/TFT_text.c:147
    glyph_data = ascii_font->chars + char_index * bytes_per_char; // 瀵瑰瀛妯℃版
    1c2c:	0047ac83          	lw	s9,4(a5)
_TFT_Draw_Glyph():
d:\CH573FEVT\LaserRangeFinder\obj/../src/TFTc/TFT_text.c:27
    TFT_Set_Address(htft, x, y, x + width - 1, y + height - 1);
    1c30:	8341                	srli	a4,a4,0x10
d:\CH573FEVT\LaserRangeFinder\obj/../src/TFTc/TFT_text.c:25
    uint8_t bytes_per_column = (height + 7) / 8; // 姣瀛帮8琛=1, 12琛=2锛
    1c32:	0ffa7793          	andi	a5,s4,255
d:\CH573FEVT\LaserRangeFinder\obj/../src/TFTc/TFT_text.c:27
    TFT_Set_Address(htft, x, y, x + width - 1, y + height - 1);
    1c36:	82c1                	srli	a3,a3,0x10
    1c38:	8526                	mv	a0,s1
d:\CH573FEVT\LaserRangeFinder\obj/../src/TFTc/TFT_text.c:25
    uint8_t bytes_per_column = (height + 7) / 8; // 姣瀛帮8琛=1, 12琛=2锛
    1c3a:	c23e                	sw	a5,4(sp)
d:\CH573FEVT\LaserRangeFinder\obj/../src/TFTc/TFT_text.c:27
    TFT_Set_Address(htft, x, y, x + width - 1, y + height - 1);
    1c3c:	3d71                	jal	1ad8 <TFT_Set_Address>
d:\CH573FEVT\LaserRangeFinder\obj/../src/TFTc/TFT_text.c:28
    TFT_Reset_Buffer(htft);
    1c3e:	8526                	mv	a0,s1
    1c40:	9466                	add	s0,s0,s9
    1c42:	3369                	jal	19cc <TFT_Reset_Buffer>
d:\CH573FEVT\LaserRangeFinder\obj/../src/TFTc/TFT_text.c:31
    for (col = 0; col < width; col++)
    1c44:	4c81                	li	s9,0
d:\CH573FEVT\LaserRangeFinder\obj/../src/TFTc/TFT_text.c:36
            for (row = 0; row < 8; row++)
    1c46:	4da1                	li	s11,8
d:\CH573FEVT\LaserRangeFinder\obj/../src/TFTc/TFT_text.c:31
    for (col = 0; col < width; col++)
    1c48:	093ceb63          	bltu	s9,s3,1cde <TFT_Show_Char+0x138>
TFT_Show_Char():
d:\CH573FEVT\LaserRangeFinder\obj/../src/TFTc/TFT_text.c:151

    // 璋ㄧ跺芥
    _TFT_Draw_Glyph(htft, x, y, glyph_data, char_width, char_height, color, back_color, mode);
}
    1c4c:	4426                	lw	s0,72(sp)
    1c4e:	40b6                	lw	ra,76(sp)
    1c50:	4906                	lw	s2,64(sp)
    1c52:	59f2                	lw	s3,60(sp)
    1c54:	5a62                	lw	s4,56(sp)
    1c56:	5ad2                	lw	s5,52(sp)
    1c58:	5b42                	lw	s6,48(sp)
    1c5a:	5bb2                	lw	s7,44(sp)
    1c5c:	5c22                	lw	s8,40(sp)
    1c5e:	5c92                	lw	s9,36(sp)
    1c60:	5d02                	lw	s10,32(sp)
    1c62:	4df2                	lw	s11,28(sp)
_TFT_Draw_Glyph():
d:\CH573FEVT\LaserRangeFinder\obj/../src/TFTc/TFT_text.c:61
    TFT_Flush_Buffer(htft, 1);
    1c64:	8526                	mv	a0,s1
TFT_Show_Char():
d:\CH573FEVT\LaserRangeFinder\obj/../src/TFTc/TFT_text.c:151
}
    1c66:	4496                	lw	s1,68(sp)
_TFT_Draw_Glyph():
d:\CH573FEVT\LaserRangeFinder\obj/../src/TFTc/TFT_text.c:61
    TFT_Flush_Buffer(htft, 1);
    1c68:	4585                	li	a1,1
TFT_Show_Char():
d:\CH573FEVT\LaserRangeFinder\obj/../src/TFTc/TFT_text.c:151
}
    1c6a:	6161                	addi	sp,sp,80
_TFT_Draw_Glyph():
d:\CH573FEVT\LaserRangeFinder\obj/../src/TFTc/TFT_text.c:61
    TFT_Flush_Buffer(htft, 1);
    1c6c:	b9f9                	j	194a <TFT_Flush_Buffer>
TFT_Show_Char():
d:\CH573FEVT\LaserRangeFinder\obj/../src/TFTc/TFT_text.c:123
        bytes_per_char = 16; // 816琛锛姣2瀛锛16瀛
    1c6e:	4d41                	li	s10,16
d:\CH573FEVT\LaserRangeFinder\obj/../src/TFTc/TFT_text.c:122
        ascii_font = &afont16x8;
    1c70:	00002797          	auipc	a5,0x2
    1c74:	53878793          	addi	a5,a5,1336 # 41a8 <afont16x8>
    1c78:	b7ad                	j	1be2 <TFT_Show_Char+0x3c>
d:\CH573FEVT\LaserRangeFinder\obj/../src/TFTc/TFT_text.c:128
        bytes_per_char = 12; // 612琛锛姣2瀛锛12瀛
    1c7a:	4d31                	li	s10,12
d:\CH573FEVT\LaserRangeFinder\obj/../src/TFTc/TFT_text.c:127
        ascii_font = &afont12x6;
    1c7c:	00002797          	auipc	a5,0x2
    1c80:	52478793          	addi	a5,a5,1316 # 41a0 <afont12x6>
    1c84:	bfb9                	j	1be2 <TFT_Show_Char+0x3c>
_TFT_Draw_Glyph():
d:\CH573FEVT\LaserRangeFinder\obj/../src/TFTc/TFT_text.c:35
            byte = glyph_data[col * bytes_per_column + byte_idx];
    1c86:	015406b3          	add	a3,s0,s5
    1c8a:	0006c783          	lbu	a5,0(a3)
    1c8e:	003a9d13          	slli	s10,s5,0x3
    1c92:	0d42                	slli	s10,s10,0x10
    1c94:	c43e                	sw	a5,8(sp)
d:\CH573FEVT\LaserRangeFinder\obj/../src/TFTc/TFT_text.c:36
            for (row = 0; row < 8; row++)
    1c96:	010d5d13          	srli	s10,s10,0x10
d:\CH573FEVT\LaserRangeFinder\obj/../src/TFTc/TFT_text.c:35
            byte = glyph_data[col * bytes_per_column + byte_idx];
    1c9a:	4b01                	li	s6,0
d:\CH573FEVT\LaserRangeFinder\obj/../src/TFTc/TFT_text.c:39
                if (pixel_row >= height)
    1c9c:	016d0633          	add	a2,s10,s6
    1ca0:	0642                	slli	a2,a2,0x10
    1ca2:	8241                	srli	a2,a2,0x10
    1ca4:	01267d63          	bgeu	a2,s2,1cbe <TFT_Show_Char+0x118>
d:\CH573FEVT\LaserRangeFinder\obj/../src/TFTc/TFT_text.c:44
                bit = (byte >> row) & 0x01; // 瑰2锛LSBㄤ
    1ca8:	47a2                	lw	a5,8(sp)
    1caa:	4167d633          	sra	a2,a5,s6
d:\CH573FEVT\LaserRangeFinder\obj/../src/TFTc/TFT_text.c:46
                if (bit)
    1cae:	8a05                	andi	a2,a2,1
    1cb0:	c21d                	beqz	a2,1cd6 <TFT_Show_Char+0x130>
d:\CH573FEVT\LaserRangeFinder\obj/../src/TFTc/TFT_text.c:48
                    TFT_Buffer_Write16(htft, color); // 
    1cb2:	45b2                	lw	a1,12(sp)
d:\CH573FEVT\LaserRangeFinder\obj/../src/TFTc/TFT_text.c:52
                    TFT_Buffer_Write16(htft, back_color); // 
    1cb4:	8526                	mv	a0,s1
    1cb6:	396d                	jal	1970 <TFT_Buffer_Write16>
d:\CH573FEVT\LaserRangeFinder\obj/../src/TFTc/TFT_text.c:57
                }
    1cb8:	0b05                	addi	s6,s6,1
d:\CH573FEVT\LaserRangeFinder\obj/../src/TFTc/TFT_text.c:36
            for (row = 0; row < 8; row++)
    1cba:	ffbb11e3          	bne	s6,s11,1c9c <TFT_Show_Char+0xf6>
    1cbe:	0a85                	addi	s5,s5,1
d:\CH573FEVT\LaserRangeFinder\obj/../src/TFTc/TFT_text.c:33
        for (uint8_t byte_idx = 0; byte_idx < bytes_per_column; byte_idx++)
    1cc0:	4792                	lw	a5,4(sp)
    1cc2:	0ffaf693          	andi	a3,s5,255
    1cc6:	fcf6e0e3          	bltu	a3,a5,1c86 <TFT_Show_Char+0xe0>
d:\CH573FEVT\LaserRangeFinder\obj/../src/TFTc/TFT_text.c:31
    for (col = 0; col < width; col++)
    1cca:	0c85                	addi	s9,s9,1
    1ccc:	0cc2                	slli	s9,s9,0x10
    1cce:	010cdc93          	srli	s9,s9,0x10
    1cd2:	9452                	add	s0,s0,s4
    1cd4:	bf95                	j	1c48 <TFT_Show_Char+0xa2>
d:\CH573FEVT\LaserRangeFinder\obj/../src/TFTc/TFT_text.c:50
                else if (mode == 0)
    1cd6:	fe0c11e3          	bnez	s8,1cb8 <TFT_Show_Char+0x112>
d:\CH573FEVT\LaserRangeFinder\obj/../src/TFTc/TFT_text.c:52
                    TFT_Buffer_Write16(htft, back_color); // 
    1cda:	85de                	mv	a1,s7
    1cdc:	bfe1                	j	1cb4 <TFT_Show_Char+0x10e>
d:\CH573FEVT\LaserRangeFinder\obj/../src/TFTc/TFT_text.c:31
    for (col = 0; col < width; col++)
    1cde:	4a81                	li	s5,0
    1ce0:	b7c5                	j	1cc0 <TFT_Show_Char+0x11a>

00001ce2 <TFT_Show_String>:
TFT_Show_String():
d:\CH573FEVT\LaserRangeFinder\obj/../src/TFTc/TFT_text.c:78
{
    1ce2:	715d                	addi	sp,sp,-80
    1ce4:	c4a2                	sw	s0,72(sp)
    1ce6:	c2a6                	sw	s1,68(sp)
    1ce8:	c0ca                	sw	s2,64(sp)
    1cea:	de4e                	sw	s3,60(sp)
    1cec:	dc52                	sw	s4,56(sp)
    1cee:	da56                	sw	s5,52(sp)
    1cf0:	d85a                	sw	s6,48(sp)
    1cf2:	d65e                	sw	s7,44(sp)
    1cf4:	d462                	sw	s8,40(sp)
    1cf6:	d266                	sw	s9,36(sp)
    1cf8:	d06a                	sw	s10,32(sp)
    1cfa:	ce6e                	sw	s11,28(sp)
    1cfc:	c686                	sw	ra,76(sp)
    1cfe:	89aa                	mv	s3,a0
    1d00:	842e                	mv	s0,a1
    1d02:	8a32                	mv	s4,a2
    1d04:	84b6                	mv	s1,a3
    1d06:	8aba                	mv	s5,a4
    1d08:	8b3e                	mv	s6,a5
    1d0a:	8942                	mv	s2,a6
    1d0c:	8bc6                	mv	s7,a7
d:\CH573FEVT\LaserRangeFinder\obj/../src/TFTc/TFT_text.c:88
        if (size == 16)
    1d0e:	4c41                	li	s8,16
d:\CH573FEVT\LaserRangeFinder\obj/../src/TFTc/TFT_text.c:90
        else if (size == 12)
    1d10:	4cb1                	li	s9,12
d:\CH573FEVT\LaserRangeFinder\obj/../src/TFTc/TFT_text.c:93
            char_width = afont8x6.w;
    1d12:	00002d17          	auipc	s10,0x2
    1d16:	49fd4d03          	lbu	s10,1183(s10) # 41b1 <afont8x6+0x1>
d:\CH573FEVT\LaserRangeFinder\obj/../src/TFTc/TFT_text.c:91
            char_width = afont12x6.w;
    1d1a:	00002d97          	auipc	s11,0x2
    1d1e:	487dcd83          	lbu	s11,1159(s11) # 41a1 <afont12x6+0x1>
d:\CH573FEVT\LaserRangeFinder\obj/../src/TFTc/TFT_text.c:89
            char_width = afont16x8.w;
    1d22:	00002317          	auipc	t1,0x2
    1d26:	48734303          	lbu	t1,1159(t1) # 41a9 <afont16x8+0x1>
d:\CH573FEVT\LaserRangeFinder\obj/../src/TFTc/TFT_text.c:82
    while (*str) // 瀛绗涓茬村伴 null 缁姝㈢
    1d2a:	0004c683          	lbu	a3,0(s1)
    1d2e:	e285                	bnez	a3,1d4e <TFT_Show_String+0x6c>
d:\CH573FEVT\LaserRangeFinder\obj/../src/TFTc/TFT_text.c:98
}
    1d30:	40b6                	lw	ra,76(sp)
    1d32:	4426                	lw	s0,72(sp)
    1d34:	4496                	lw	s1,68(sp)
    1d36:	4906                	lw	s2,64(sp)
    1d38:	59f2                	lw	s3,60(sp)
    1d3a:	5a62                	lw	s4,56(sp)
    1d3c:	5ad2                	lw	s5,52(sp)
    1d3e:	5b42                	lw	s6,48(sp)
    1d40:	5bb2                	lw	s7,44(sp)
    1d42:	5c22                	lw	s8,40(sp)
    1d44:	5c92                	lw	s9,36(sp)
    1d46:	5d02                	lw	s10,32(sp)
    1d48:	4df2                	lw	s11,28(sp)
    1d4a:	6161                	addi	sp,sp,80
    1d4c:	8082                	ret
d:\CH573FEVT\LaserRangeFinder\obj/../src/TFTc/TFT_text.c:85
        TFT_Show_Char(htft, current_x, y, *str, color, back_color, size, mode);
    1d4e:	87da                	mv	a5,s6
    1d50:	88de                	mv	a7,s7
    1d52:	884a                	mv	a6,s2
    1d54:	8756                	mv	a4,s5
    1d56:	8652                	mv	a2,s4
    1d58:	85a2                	mv	a1,s0
    1d5a:	854e                	mv	a0,s3
    1d5c:	c61a                	sw	t1,12(sp)
    1d5e:	35a1                	jal	1ba6 <TFT_Show_Char>
d:\CH573FEVT\LaserRangeFinder\obj/../src/TFTc/TFT_text.c:88
        if (size == 16)
    1d60:	4332                	lw	t1,12(sp)
d:\CH573FEVT\LaserRangeFinder\obj/../src/TFTc/TFT_text.c:89
            char_width = afont16x8.w;
    1d62:	879a                	mv	a5,t1
d:\CH573FEVT\LaserRangeFinder\obj/../src/TFTc/TFT_text.c:88
        if (size == 16)
    1d64:	01890663          	beq	s2,s8,1d70 <TFT_Show_String+0x8e>
d:\CH573FEVT\LaserRangeFinder\obj/../src/TFTc/TFT_text.c:93
            char_width = afont8x6.w;
    1d68:	87ea                	mv	a5,s10
d:\CH573FEVT\LaserRangeFinder\obj/../src/TFTc/TFT_text.c:90
        else if (size == 12)
    1d6a:	01991363          	bne	s2,s9,1d70 <TFT_Show_String+0x8e>
d:\CH573FEVT\LaserRangeFinder\obj/../src/TFTc/TFT_text.c:91
            char_width = afont12x6.w;
    1d6e:	87ee                	mv	a5,s11
d:\CH573FEVT\LaserRangeFinder\obj/../src/TFTc/TFT_text.c:95
        current_x += char_width; // 绉诲ㄥ颁涓涓瀛绗浣缃
    1d70:	943e                	add	s0,s0,a5
    1d72:	0442                	slli	s0,s0,0x10
    1d74:	8041                	srli	s0,s0,0x10
d:\CH573FEVT\LaserRangeFinder\obj/../src/TFTc/TFT_text.c:96
        str++;                   // 涓涓涓瀛绗
    1d76:	0485                	addi	s1,s1,1
    1d78:	bf4d                	j	1d2a <TFT_Show_String+0x48>

00001d7a <main>:
main():
d:\CH573FEVT\LaserRangeFinder\obj/../src/Main.c:44
 * @fn     main
 * @brief   主函数
 * @return  none
 */
int main()
{
    1d7a:	7179                	addi	sp,sp,-48
d:\CH573FEVT\LaserRangeFinder\obj/../src/Main.c:45
    SetSysClock(CLK_SOURCE_PLL_60MHz);
    1d7c:	04800513          	li	a0,72
d:\CH573FEVT\LaserRangeFinder\obj/../src/Main.c:44
{
    1d80:	d606                	sw	ra,44(sp)
    1d82:	d422                	sw	s0,40(sp)
    1d84:	d226                	sw	s1,36(sp)
d:\CH573FEVT\LaserRangeFinder\obj/../src/Main.c:49
    int i = 0; // 计数器

    /* 配置串口调试 */
    GPIOA_SetBits(GPIO_Pin_9);
    1d86:	40001437          	lui	s0,0x40001
d:\CH573FEVT\LaserRangeFinder\obj/../src/Main.c:44
{
    1d8a:	d04a                	sw	s2,32(sp)
    1d8c:	ce4e                	sw	s3,28(sp)
    1d8e:	cc52                	sw	s4,24(sp)
    1d90:	ca56                	sw	s5,20(sp)
    1d92:	c85a                	sw	s6,16(sp)
    1d94:	c65e                	sw	s7,12(sp)
    1d96:	c462                	sw	s8,8(sp)
d:\CH573FEVT\LaserRangeFinder\obj/../src/Main.c:45
    SetSysClock(CLK_SOURCE_PLL_60MHz);
    1d98:	20002097          	auipc	ra,0x20002
    1d9c:	b24080e7          	jalr	-1244(ra) # 200038bc <SetSysClock>
d:\CH573FEVT\LaserRangeFinder\obj/../src/Main.c:49
    GPIOA_SetBits(GPIO_Pin_9);
    1da0:	0a842783          	lw	a5,168(s0) # 400010a8 <_eusrstack+0x1fff90a8>
d:\CH573FEVT\LaserRangeFinder\obj/../src/Main.c:50
    GPIOA_ModeCfg(GPIO_Pin_8, GPIO_ModeIN_PU);
    1da4:	4585                	li	a1,1
    1da6:	10000513          	li	a0,256
d:\CH573FEVT\LaserRangeFinder\obj/../src/Main.c:49
    GPIOA_SetBits(GPIO_Pin_9);
    1daa:	2007e793          	ori	a5,a5,512
    1dae:	0af42423          	sw	a5,168(s0)
d:\CH573FEVT\LaserRangeFinder\obj/../src/Main.c:50
    GPIOA_ModeCfg(GPIO_Pin_8, GPIO_ModeIN_PU);
    1db2:	240d                	jal	1fd4 <GPIOA_ModeCfg>
d:\CH573FEVT\LaserRangeFinder\obj/../src/Main.c:51
    GPIOA_ModeCfg(GPIO_Pin_9, GPIO_ModeOut_PP_5mA);
    1db4:	458d                	li	a1,3
    1db6:	20000513          	li	a0,512
    1dba:	2c29                	jal	1fd4 <GPIOA_ModeCfg>
d:\CH573FEVT\LaserRangeFinder\obj/../src/Main.c:52
    UART1_DefInit();
    1dbc:	2945                	jal	226c <UART1_DefInit>
d:\CH573FEVT\LaserRangeFinder\obj/../src/Main.c:53
    PRINT("Start @ChipID=%02X\n", R8_CHIP_ID);
    1dbe:	04144583          	lbu	a1,65(s0)
    1dc2:	00002517          	auipc	a0,0x2
    1dc6:	2ca50513          	addi	a0,a0,714 # 408c <ascii_8x6+0x228>
d:\CH573FEVT\LaserRangeFinder\obj/../src/Main.c:56
    /* 配置屏幕引脚，沁恒的单片机GPIOA和GPIOB操作函数是分开的。必须设置不然屏幕无法显示 */
    GPIOA_ModeCfg(TFT_CS_Pin, GPIO_ModeOut_PP_5mA);
    GPIOA_ModeCfg(TFT_RES_Pin, GPIO_ModeOut_PP_5mA);
    1dca:	6405                	lui	s0,0x1
d:\CH573FEVT\LaserRangeFinder\obj/../src/Main.c:53
    PRINT("Start @ChipID=%02X\n", R8_CHIP_ID);
    1dcc:	2d89                	jal	241e <iprintf>
d:\CH573FEVT\LaserRangeFinder\obj/../src/Main.c:55
    GPIOA_ModeCfg(TFT_CS_Pin, GPIO_ModeOut_PP_5mA);
    1dce:	458d                	li	a1,3
    1dd0:	6505                	lui	a0,0x1
    1dd2:	2409                	jal	1fd4 <GPIOA_ModeCfg>
d:\CH573FEVT\LaserRangeFinder\obj/../src/Main.c:56
    GPIOA_ModeCfg(TFT_RES_Pin, GPIO_ModeOut_PP_5mA);
    1dd4:	80040513          	addi	a0,s0,-2048 # 800 <TFT_Draw_MultiPoint.part.0+0x2>
    1dd8:	458d                	li	a1,3
    1dda:	2aed                	jal	1fd4 <GPIOA_ModeCfg>
d:\CH573FEVT\LaserRangeFinder\obj/../src/Main.c:57
    GPIOA_ModeCfg(TFT_DC_Pin, GPIO_ModeOut_PP_5mA);
    1ddc:	458d                	li	a1,3
    1dde:	40000513          	li	a0,1024
    1de2:	2acd                	jal	1fd4 <GPIOA_ModeCfg>
d:\CH573FEVT\LaserRangeFinder\obj/../src/Main.c:58
    GPIOB_ModeCfg(TFT_BLK_Pin, GPIO_ModeOut_PP_5mA);
    1de4:	458d                	li	a1,3
    1de6:	00400537          	lui	a0,0x400
    1dea:	2c41                	jal	207a <GPIOB_ModeCfg>
d:\CH573FEVT\LaserRangeFinder\obj/../src/Main.c:60
    /* 屏幕设置 */
    TFT_Init_Instance(&htft1, &SPI0, TFT_CS_GPIO_Port, TFT_CS_Pin);
    1dec:	6685                	lui	a3,0x1
    1dee:	4601                	li	a2,0
    1df0:	80c18593          	addi	a1,gp,-2036 # 2000406c <SPI0>
    1df4:	81818513          	addi	a0,gp,-2024 # 20004078 <htft1>
    1df8:	997ff0ef          	jal	ra,178e <TFT_Init_Instance>
d:\CH573FEVT\LaserRangeFinder\obj/../src/Main.c:61
    TFT_Config_Pins(&htft1, TFT_DC_GPIO_Port, TFT_DC_Pin, TFT_RES_GPIO_Port, TFT_RES_Pin, TFT_BLK_GPIO_Port, TFT_BLK_Pin); // 必须手动设置引脚
    1dfc:	80040713          	addi	a4,s0,-2048
    1e00:	00400837          	lui	a6,0x400
    1e04:	4785                	li	a5,1
    1e06:	4681                	li	a3,0
    1e08:	40000613          	li	a2,1024
    1e0c:	4581                	li	a1,0
    1e0e:	81818513          	addi	a0,gp,-2024 # 20004078 <htft1>
    1e12:	9a1ff0ef          	jal	ra,17b2 <TFT_Config_Pins>
d:\CH573FEVT\LaserRangeFinder\obj/../src/Main.c:75
            TFT_Show_String(&htft1, 20, 20, "now ST7789v3", WHITE, BLACK, 16, 0);
        }
        else
        {
            TFT_Init_ST7735S(&htft1); // ST7735S屏幕初始化,右键进入tft_init.c查看更多屏幕的初始化函数
            TFT_Show_String(&htft1, 20, 20, "now ST7735S", WHITE, BLACK, 16, 0);
    1e16:	6a41                	lui	s4,0x10
d:\CH573FEVT\LaserRangeFinder\obj/../src/Main.c:62
    TFT_Config_Display(&htft1, 0, 0, 0);                                                                                   // 设置方向、X/Y偏移
    1e18:	4681                	li	a3,0
    1e1a:	4601                	li	a2,0
    1e1c:	4581                	li	a1,0
    1e1e:	81818513          	addi	a0,gp,-2024 # 20004078 <htft1>
d:\CH573FEVT\LaserRangeFinder\obj/../src/Main.c:90
        TFT_Draw_Fast_VLine(&htft1, 10, 40, HEIGHT, WHITE);
        TFT_Draw_Rectangle(&htft1, 30, 90, WIDTH - 70, HEIGHT - 70, BLUE);
        TFT_Fill_Rectangle(&htft1, 30, 160, WIDTH - 20, HEIGHT - 20, GREEN);
        TFT_Draw_Line(&htft1, 0, 40, WIDTH - 1, HEIGHT - 1, TFT_RGB(20, 60, 200));
        TFT_Draw_Circle(&htft1, WIDTH / 2, HEIGHT / 2, 30, BRRED);
        TFT_Fill_Circle(&htft1, WIDTH / 3, HEIGHT / 3, 20, CYAN);
    1e22:	69a1                	lui	s3,0x8
d:\CH573FEVT\LaserRangeFinder\obj/../src/Main.c:62
    TFT_Config_Display(&htft1, 0, 0, 0);                                                                                   // 设置方向、X/Y偏移
    1e24:	9a5ff0ef          	jal	ra,17c8 <TFT_Config_Display>
d:\CH573FEVT\LaserRangeFinder\obj/../src/Main.c:46
    int i = 0; // 计数器
    1e28:	4901                	li	s2,0
d:\CH573FEVT\LaserRangeFinder\obj/../src/Main.c:74
            TFT_Init_ST7735S(&htft1); // ST7735S屏幕初始化,右键进入tft_init.c查看更多屏幕的初始化函数
    1e2a:	81818413          	addi	s0,gp,-2024 # 20004078 <htft1>
d:\CH573FEVT\LaserRangeFinder\obj/../src/Main.c:75
            TFT_Show_String(&htft1, 20, 20, "now ST7735S", WHITE, BLACK, 16, 0);
    1e2e:	fffa0493          	addi	s1,s4,-1 # ffff <_data_lma+0xbe43>
    1e32:	00002b97          	auipc	s7,0x2
    1e36:	27eb8b93          	addi	s7,s7,638 # 40b0 <ascii_8x6+0x24c>
d:\CH573FEVT\LaserRangeFinder\obj/../src/Main.c:70
            TFT_Show_String(&htft1, 20, 20, "now ST7789v3", WHITE, BLACK, 16, 0);
    1e3a:	00002c17          	auipc	s8,0x2
    1e3e:	266c0c13          	addi	s8,s8,614 # 40a0 <ascii_8x6+0x23c>
d:\CH573FEVT\LaserRangeFinder\obj/../src/Main.c:78
        TFT_Fill_Area(&htft1, 0, 40, WIDTH, HEIGHT, RED);
    1e42:	800a0b13          	addi	s6,s4,-2048
d:\CH573FEVT\LaserRangeFinder\obj/../src/Main.c:82
        TFT_Show_String(&htft1, 20, 40, "Hello World!font 16", WHITE, BLACK, 16, 0);
    1e46:	00002a97          	auipc	s5,0x2
    1e4a:	276a8a93          	addi	s5,s5,630 # 40bc <ascii_8x6+0x258>
d:\CH573FEVT\LaserRangeFinder\obj/../src/Main.c:90
        TFT_Fill_Circle(&htft1, WIDTH / 3, HEIGHT / 3, 20, CYAN);
    1e4e:	19fd                	addi	s3,s3,-1
d:\CH573FEVT\LaserRangeFinder\obj/../src/Main.c:66
        i = i + 1;
    1e50:	0905                	addi	s2,s2,1
d:\CH573FEVT\LaserRangeFinder\obj/../src/Main.c:67
        if (i % 2 == 0)
    1e52:	00197793          	andi	a5,s2,1
d:\CH573FEVT\LaserRangeFinder\obj/../src/Main.c:69
            TFT_Init_ST7789v3(&htft1); // ST7789v3屏幕初始化,右键进入tft_init.c查看更多屏幕的初始化函数
    1e56:	8522                	mv	a0,s0
d:\CH573FEVT\LaserRangeFinder\obj/../src/Main.c:67
        if (i % 2 == 0)
    1e58:	16079663          	bnez	a5,1fc4 <main+0x24a>
d:\CH573FEVT\LaserRangeFinder\obj/../src/Main.c:69
            TFT_Init_ST7789v3(&htft1); // ST7789v3屏幕初始化,右键进入tft_init.c查看更多屏幕的初始化函数
    1e5c:	ef4ff0ef          	jal	ra,1550 <TFT_Init_ST7789v3>
d:\CH573FEVT\LaserRangeFinder\obj/../src/Main.c:70
            TFT_Show_String(&htft1, 20, 20, "now ST7789v3", WHITE, BLACK, 16, 0);
    1e60:	4881                	li	a7,0
    1e62:	4841                	li	a6,16
    1e64:	4781                	li	a5,0
    1e66:	8726                	mv	a4,s1
    1e68:	86e2                	mv	a3,s8
d:\CH573FEVT\LaserRangeFinder\obj/../src/Main.c:75
            TFT_Show_String(&htft1, 20, 20, "now ST7735S", WHITE, BLACK, 16, 0);
    1e6a:	8522                	mv	a0,s0
    1e6c:	4651                	li	a2,20
    1e6e:	45d1                	li	a1,20
    1e70:	3d8d                	jal	1ce2 <TFT_Show_String>
d:\CH573FEVT\LaserRangeFinder\obj/../src/Main.c:78
        TFT_Fill_Area(&htft1, 0, 40, WIDTH, HEIGHT, RED);
    1e72:	87da                	mv	a5,s6
    1e74:	8522                	mv	a0,s0
    1e76:	14000713          	li	a4,320
    1e7a:	0f000693          	li	a3,240
    1e7e:	02800613          	li	a2,40
    1e82:	4581                	li	a1,0
    1e84:	9f9fe0ef          	jal	ra,87c <TFT_Fill_Area>
d:\CH573FEVT\LaserRangeFinder\obj/../src/Main.c:79
        TFT_Fill_Area(&htft1, 0, 40, WIDTH, HEIGHT, GREEN);
    1e88:	8522                	mv	a0,s0
    1e8a:	7e000793          	li	a5,2016
    1e8e:	14000713          	li	a4,320
    1e92:	0f000693          	li	a3,240
    1e96:	02800613          	li	a2,40
    1e9a:	4581                	li	a1,0
    1e9c:	9e1fe0ef          	jal	ra,87c <TFT_Fill_Area>
d:\CH573FEVT\LaserRangeFinder\obj/../src/Main.c:80
        TFT_Fill_Area(&htft1, 0, 40, WIDTH, HEIGHT, BLUE);
    1ea0:	8522                	mv	a0,s0
    1ea2:	47fd                	li	a5,31
    1ea4:	14000713          	li	a4,320
    1ea8:	0f000693          	li	a3,240
    1eac:	02800613          	li	a2,40
    1eb0:	4581                	li	a1,0
    1eb2:	9cbfe0ef          	jal	ra,87c <TFT_Fill_Area>
d:\CH573FEVT\LaserRangeFinder\obj/../src/Main.c:82
        TFT_Show_String(&htft1, 20, 40, "Hello World!font 16", WHITE, BLACK, 16, 0);
    1eb6:	8726                	mv	a4,s1
    1eb8:	86d6                	mv	a3,s5
    1eba:	8522                	mv	a0,s0
    1ebc:	4881                	li	a7,0
    1ebe:	4841                	li	a6,16
    1ec0:	4781                	li	a5,0
    1ec2:	02800613          	li	a2,40
    1ec6:	45d1                	li	a1,20
    1ec8:	3d29                	jal	1ce2 <TFT_Show_String>
d:\CH573FEVT\LaserRangeFinder\obj/../src/Main.c:83
        TFT_Show_String(&htft1, 20, 60, "Hello World!font 16", BLACK, WHITE, 16, 0);
    1eca:	4881                	li	a7,0
    1ecc:	4841                	li	a6,16
    1ece:	87a6                	mv	a5,s1
    1ed0:	86d6                	mv	a3,s5
    1ed2:	8522                	mv	a0,s0
    1ed4:	4701                	li	a4,0
    1ed6:	03c00613          	li	a2,60
    1eda:	45d1                	li	a1,20
    1edc:	3519                	jal	1ce2 <TFT_Show_String>
d:\CH573FEVT\LaserRangeFinder\obj/../src/Main.c:85
        TFT_Draw_Fast_VLine(&htft1, 10, 40, HEIGHT, WHITE);
    1ede:	8726                	mv	a4,s1
    1ee0:	8522                	mv	a0,s0
    1ee2:	14000693          	li	a3,320
    1ee6:	02800613          	li	a2,40
    1eea:	45a9                	li	a1,10
    1eec:	a57fe0ef          	jal	ra,942 <TFT_Draw_Fast_VLine>
d:\CH573FEVT\LaserRangeFinder\obj/../src/Main.c:86
        TFT_Draw_Rectangle(&htft1, 30, 90, WIDTH - 70, HEIGHT - 70, BLUE);
    1ef0:	8522                	mv	a0,s0
    1ef2:	47fd                	li	a5,31
    1ef4:	0fa00713          	li	a4,250
    1ef8:	0aa00693          	li	a3,170
    1efc:	05a00613          	li	a2,90
    1f00:	45f9                	li	a1,30
    1f02:	c65fe0ef          	jal	ra,b66 <TFT_Draw_Rectangle>
d:\CH573FEVT\LaserRangeFinder\obj/../src/Main.c:87
        TFT_Fill_Rectangle(&htft1, 30, 160, WIDTH - 20, HEIGHT - 20, GREEN);
    1f06:	7e000793          	li	a5,2016
    1f0a:	12c00713          	li	a4,300
    1f0e:	0dc00693          	li	a3,220
    1f12:	8522                	mv	a0,s0
    1f14:	0a000613          	li	a2,160
    1f18:	45f9                	li	a1,30
    1f1a:	cbbfe0ef          	jal	ra,bd4 <TFT_Fill_Rectangle>
d:\CH573FEVT\LaserRangeFinder\obj/../src/Main.c:88
        TFT_Draw_Line(&htft1, 0, 40, WIDTH - 1, HEIGHT - 1, TFT_RGB(20, 60, 200));
    1f1e:	0c800613          	li	a2,200
    1f22:	03c00593          	li	a1,60
    1f26:	4551                	li	a0,20
    1f28:	c6bff0ef          	jal	ra,1b92 <TFT_RGB>
    1f2c:	87aa                	mv	a5,a0
    1f2e:	13f00713          	li	a4,319
    1f32:	8522                	mv	a0,s0
    1f34:	0ef00693          	li	a3,239
    1f38:	02800613          	li	a2,40
    1f3c:	4581                	li	a1,0
    1f3e:	a5bfe0ef          	jal	ra,998 <TFT_Draw_Line>
d:\CH573FEVT\LaserRangeFinder\obj/../src/Main.c:89
        TFT_Draw_Circle(&htft1, WIDTH / 2, HEIGHT / 2, 30, BRRED);
    1f42:	c07a0713          	addi	a4,s4,-1017
    1f46:	8522                	mv	a0,s0
    1f48:	46f9                	li	a3,30
    1f4a:	0a000613          	li	a2,160
    1f4e:	07800593          	li	a1,120
    1f52:	ca5fe0ef          	jal	ra,bf6 <TFT_Draw_Circle>
d:\CH573FEVT\LaserRangeFinder\obj/../src/Main.c:90
        TFT_Fill_Circle(&htft1, WIDTH / 3, HEIGHT / 3, 20, CYAN);
    1f56:	874e                	mv	a4,s3
    1f58:	8522                	mv	a0,s0
    1f5a:	46d1                	li	a3,20
    1f5c:	06a00613          	li	a2,106
    1f60:	05000593          	li	a1,80
    1f64:	e0ffe0ef          	jal	ra,d72 <TFT_Fill_Circle>
d:\CH573FEVT\LaserRangeFinder\obj/../src/Main.c:91
        TFT_Draw_Ellipse(&htft1, WIDTH / 4, HEIGHT / 4, 60, 30, WHITE);
    1f68:	87a6                	mv	a5,s1
    1f6a:	8522                	mv	a0,s0
    1f6c:	4779                	li	a4,30
    1f6e:	03c00693          	li	a3,60
    1f72:	05000613          	li	a2,80
    1f76:	03c00593          	li	a1,60
    1f7a:	f41fe0ef          	jal	ra,eba <TFT_Draw_Ellipse>
d:\CH573FEVT\LaserRangeFinder\obj/../src/Main.c:92
        TFT_Fill_Ellipse(&htft1, WIDTH-50 , HEIGHT-50 , 50, 20, GBLUE);
    1f7e:	7ff00793          	li	a5,2047
    1f82:	4751                	li	a4,20
    1f84:	03200693          	li	a3,50
    1f88:	10e00613          	li	a2,270
    1f8c:	8522                	mv	a0,s0
    1f8e:	0be00593          	li	a1,190
    1f92:	8e6ff0ef          	jal	ra,1078 <TFT_Fill_Ellipse>
d:\CH573FEVT\LaserRangeFinder\obj/../src/Main.c:93
        PRINT("loop %d\n", i); // 你可以使用串口助手的时间戳功能，测量每次循环的时间
    1f96:	85ca                	mv	a1,s2
    1f98:	00002517          	auipc	a0,0x2
    1f9c:	13850513          	addi	a0,a0,312 # 40d0 <ascii_8x6+0x26c>
    1fa0:	29bd                	jal	241e <iprintf>
d:\CH573FEVT\LaserRangeFinder\obj/../src/Main.c:94
        DelayMs(2000);
    1fa2:	7d000513          	li	a0,2000
    1fa6:	20002097          	auipc	ra,0x20002
    1faa:	abe080e7          	jalr	-1346(ra) # 20003a64 <mDelaymS>
d:\CH573FEVT\LaserRangeFinder\obj/../src/Main.c:95
        TFT_Fill_Area(&htft1, 0, 00, WIDTH, HEIGHT, BLACK); // 清屏
    1fae:	4781                	li	a5,0
    1fb0:	14000713          	li	a4,320
    1fb4:	0f000693          	li	a3,240
    1fb8:	4601                	li	a2,0
    1fba:	4581                	li	a1,0
    1fbc:	8522                	mv	a0,s0
    1fbe:	8bffe0ef          	jal	ra,87c <TFT_Fill_Area>
d:\CH573FEVT\LaserRangeFinder\obj/../src/Main.c:66
        i = i + 1;
    1fc2:	b579                	j	1e50 <main+0xd6>
d:\CH573FEVT\LaserRangeFinder\obj/../src/Main.c:74
            TFT_Init_ST7735S(&htft1); // ST7735S屏幕初始化,右键进入tft_init.c查看更多屏幕的初始化函数
    1fc4:	a64ff0ef          	jal	ra,1228 <TFT_Init_ST7735S>
d:\CH573FEVT\LaserRangeFinder\obj/../src/Main.c:75
            TFT_Show_String(&htft1, 20, 20, "now ST7735S", WHITE, BLACK, 16, 0);
    1fc8:	4881                	li	a7,0
    1fca:	4841                	li	a6,16
    1fcc:	4781                	li	a5,0
    1fce:	8726                	mv	a4,s1
    1fd0:	86de                	mv	a3,s7
    1fd2:	bd61                	j	1e6a <main+0xf0>

00001fd4 <GPIOA_ModeCfg>:
GPIOA_ModeCfg():
d:\CH573FEVT\LaserRangeFinder\obj/../StdPeriphDriver/CH57x_gpio.c:27
 *
 * @return  none
 */
void GPIOA_ModeCfg(uint32_t pin, GPIOModeTypeDef mode)
{
    switch(mode)
    1fd4:	4791                	li	a5,4
    1fd6:	02b7ee63          	bltu	a5,a1,2012 <GPIOA_ModeCfg+0x3e>
    1fda:	00002717          	auipc	a4,0x2
    1fde:	10270713          	addi	a4,a4,258 # 40dc <ascii_8x6+0x278>
    1fe2:	058a                	slli	a1,a1,0x2
    1fe4:	95ba                	add	a1,a1,a4
    1fe6:	419c                	lw	a5,0(a1)
    1fe8:	97ba                	add	a5,a5,a4
    1fea:	8782                	jr	a5
d:\CH573FEVT\LaserRangeFinder\obj/../StdPeriphDriver/CH57x_gpio.c:30
    {
        case GPIO_ModeIN_Floating:
            R32_PA_PD_DRV &= ~pin;
    1fec:	400017b7          	lui	a5,0x40001
    1ff0:	0b47a703          	lw	a4,180(a5) # 400010b4 <_eusrstack+0x1fff90b4>
    1ff4:	fff54513          	not	a0,a0
    1ff8:	8f69                	and	a4,a4,a0
    1ffa:	0ae7aa23          	sw	a4,180(a5)
d:\CH573FEVT\LaserRangeFinder\obj/../StdPeriphDriver/CH57x_gpio.c:31
            R32_PA_PU &= ~pin;
    1ffe:	0b07a703          	lw	a4,176(a5)
d:\CH573FEVT\LaserRangeFinder\obj/../StdPeriphDriver/CH57x_gpio.c:43
            R32_PA_DIR &= ~pin;
            break;

        case GPIO_ModeIN_PD:
            R32_PA_PD_DRV |= pin;
            R32_PA_PU &= ~pin;
    2002:	8f69                	and	a4,a4,a0
    2004:	0ae7a823          	sw	a4,176(a5)
d:\CH573FEVT\LaserRangeFinder\obj/../StdPeriphDriver/CH57x_gpio.c:44
            R32_PA_DIR &= ~pin;
    2008:	0a07a703          	lw	a4,160(a5)
    200c:	8d79                	and	a0,a0,a4
d:\CH573FEVT\LaserRangeFinder\obj/../StdPeriphDriver/CH57x_gpio.c:54
            R32_PA_DIR |= pin;
            break;

        case GPIO_ModeOut_PP_20mA:
            R32_PA_PD_DRV |= pin;
            R32_PA_DIR |= pin;
    200e:	0aa7a023          	sw	a0,160(a5)
d:\CH573FEVT\LaserRangeFinder\obj/../StdPeriphDriver/CH57x_gpio.c:60
            break;

        default:
            break;
    }
}
    2012:	8082                	ret
d:\CH573FEVT\LaserRangeFinder\obj/../StdPeriphDriver/CH57x_gpio.c:36
            R32_PA_PD_DRV &= ~pin;
    2014:	400017b7          	lui	a5,0x40001
    2018:	0b47a683          	lw	a3,180(a5) # 400010b4 <_eusrstack+0x1fff90b4>
    201c:	fff54713          	not	a4,a0
    2020:	8ef9                	and	a3,a3,a4
    2022:	0ad7aa23          	sw	a3,180(a5)
d:\CH573FEVT\LaserRangeFinder\obj/../StdPeriphDriver/CH57x_gpio.c:37
            R32_PA_PU |= pin;
    2026:	0b07a683          	lw	a3,176(a5)
    202a:	8d55                	or	a0,a0,a3
    202c:	0aa7a823          	sw	a0,176(a5)
d:\CH573FEVT\LaserRangeFinder\obj/../StdPeriphDriver/CH57x_gpio.c:38
            R32_PA_DIR &= ~pin;
    2030:	0a07a683          	lw	a3,160(a5)
    2034:	8f75                	and	a4,a4,a3
    2036:	0ae7a023          	sw	a4,160(a5)
d:\CH573FEVT\LaserRangeFinder\obj/../StdPeriphDriver/CH57x_gpio.c:39
            break;
    203a:	8082                	ret
d:\CH573FEVT\LaserRangeFinder\obj/../StdPeriphDriver/CH57x_gpio.c:42
            R32_PA_PD_DRV |= pin;
    203c:	400017b7          	lui	a5,0x40001
    2040:	0b47a703          	lw	a4,180(a5) # 400010b4 <_eusrstack+0x1fff90b4>
    2044:	8f49                	or	a4,a4,a0
    2046:	0ae7aa23          	sw	a4,180(a5)
d:\CH573FEVT\LaserRangeFinder\obj/../StdPeriphDriver/CH57x_gpio.c:43
            R32_PA_PU &= ~pin;
    204a:	0b07a703          	lw	a4,176(a5)
    204e:	fff54513          	not	a0,a0
    2052:	bf45                	j	2002 <GPIOA_ModeCfg+0x2e>
d:\CH573FEVT\LaserRangeFinder\obj/../StdPeriphDriver/CH57x_gpio.c:48
            R32_PA_PD_DRV &= ~pin;
    2054:	400017b7          	lui	a5,0x40001
    2058:	0b47a683          	lw	a3,180(a5) # 400010b4 <_eusrstack+0x1fff90b4>
    205c:	fff54713          	not	a4,a0
    2060:	8f75                	and	a4,a4,a3
d:\CH573FEVT\LaserRangeFinder\obj/../StdPeriphDriver/CH57x_gpio.c:53
            R32_PA_PD_DRV |= pin;
    2062:	0ae7aa23          	sw	a4,180(a5)
d:\CH573FEVT\LaserRangeFinder\obj/../StdPeriphDriver/CH57x_gpio.c:54
            R32_PA_DIR |= pin;
    2066:	0a07a703          	lw	a4,160(a5)
    206a:	8d59                	or	a0,a0,a4
    206c:	b74d                	j	200e <GPIOA_ModeCfg+0x3a>
d:\CH573FEVT\LaserRangeFinder\obj/../StdPeriphDriver/CH57x_gpio.c:53
            R32_PA_PD_DRV |= pin;
    206e:	400017b7          	lui	a5,0x40001
    2072:	0b47a703          	lw	a4,180(a5) # 400010b4 <_eusrstack+0x1fff90b4>
    2076:	8f49                	or	a4,a4,a0
    2078:	b7ed                	j	2062 <GPIOA_ModeCfg+0x8e>

0000207a <GPIOB_ModeCfg>:
GPIOB_ModeCfg():
d:\CH573FEVT\LaserRangeFinder\obj/../StdPeriphDriver/CH57x_gpio.c:74
 *
 * @return  none
 */
void GPIOB_ModeCfg(uint32_t pin, GPIOModeTypeDef mode)
{
    switch(mode)
    207a:	4791                	li	a5,4
    207c:	02b7ee63          	bltu	a5,a1,20b8 <GPIOB_ModeCfg+0x3e>
    2080:	00002717          	auipc	a4,0x2
    2084:	07070713          	addi	a4,a4,112 # 40f0 <ascii_8x6+0x28c>
    2088:	058a                	slli	a1,a1,0x2
    208a:	95ba                	add	a1,a1,a4
    208c:	419c                	lw	a5,0(a1)
    208e:	97ba                	add	a5,a5,a4
    2090:	8782                	jr	a5
d:\CH573FEVT\LaserRangeFinder\obj/../StdPeriphDriver/CH57x_gpio.c:77
    {
        case GPIO_ModeIN_Floating:
            R32_PB_PD_DRV &= ~pin;
    2092:	400017b7          	lui	a5,0x40001
    2096:	0d47a703          	lw	a4,212(a5) # 400010d4 <_eusrstack+0x1fff90d4>
    209a:	fff54513          	not	a0,a0
    209e:	8f69                	and	a4,a4,a0
    20a0:	0ce7aa23          	sw	a4,212(a5)
d:\CH573FEVT\LaserRangeFinder\obj/../StdPeriphDriver/CH57x_gpio.c:78
            R32_PB_PU &= ~pin;
    20a4:	0d07a703          	lw	a4,208(a5)
d:\CH573FEVT\LaserRangeFinder\obj/../StdPeriphDriver/CH57x_gpio.c:90
            R32_PB_DIR &= ~pin;
            break;

        case GPIO_ModeIN_PD:
            R32_PB_PD_DRV |= pin;
            R32_PB_PU &= ~pin;
    20a8:	8f69                	and	a4,a4,a0
    20aa:	0ce7a823          	sw	a4,208(a5)
d:\CH573FEVT\LaserRangeFinder\obj/../StdPeriphDriver/CH57x_gpio.c:91
            R32_PB_DIR &= ~pin;
    20ae:	0c07a703          	lw	a4,192(a5)
    20b2:	8d79                	and	a0,a0,a4
d:\CH573FEVT\LaserRangeFinder\obj/../StdPeriphDriver/CH57x_gpio.c:101
            R32_PB_DIR |= pin;
            break;

        case GPIO_ModeOut_PP_20mA:
            R32_PB_PD_DRV |= pin;
            R32_PB_DIR |= pin;
    20b4:	0ca7a023          	sw	a0,192(a5)
d:\CH573FEVT\LaserRangeFinder\obj/../StdPeriphDriver/CH57x_gpio.c:107
            break;

        default:
            break;
    }
}
    20b8:	8082                	ret
d:\CH573FEVT\LaserRangeFinder\obj/../StdPeriphDriver/CH57x_gpio.c:83
            R32_PB_PD_DRV &= ~pin;
    20ba:	400017b7          	lui	a5,0x40001
    20be:	0d47a683          	lw	a3,212(a5) # 400010d4 <_eusrstack+0x1fff90d4>
    20c2:	fff54713          	not	a4,a0
    20c6:	8ef9                	and	a3,a3,a4
    20c8:	0cd7aa23          	sw	a3,212(a5)
d:\CH573FEVT\LaserRangeFinder\obj/../StdPeriphDriver/CH57x_gpio.c:84
            R32_PB_PU |= pin;
    20cc:	0d07a683          	lw	a3,208(a5)
    20d0:	8d55                	or	a0,a0,a3
    20d2:	0ca7a823          	sw	a0,208(a5)
d:\CH573FEVT\LaserRangeFinder\obj/../StdPeriphDriver/CH57x_gpio.c:85
            R32_PB_DIR &= ~pin;
    20d6:	0c07a683          	lw	a3,192(a5)
    20da:	8f75                	and	a4,a4,a3
    20dc:	0ce7a023          	sw	a4,192(a5)
d:\CH573FEVT\LaserRangeFinder\obj/../StdPeriphDriver/CH57x_gpio.c:86
            break;
    20e0:	8082                	ret
d:\CH573FEVT\LaserRangeFinder\obj/../StdPeriphDriver/CH57x_gpio.c:89
            R32_PB_PD_DRV |= pin;
    20e2:	400017b7          	lui	a5,0x40001
    20e6:	0d47a703          	lw	a4,212(a5) # 400010d4 <_eusrstack+0x1fff90d4>
    20ea:	8f49                	or	a4,a4,a0
    20ec:	0ce7aa23          	sw	a4,212(a5)
d:\CH573FEVT\LaserRangeFinder\obj/../StdPeriphDriver/CH57x_gpio.c:90
            R32_PB_PU &= ~pin;
    20f0:	0d07a703          	lw	a4,208(a5)
    20f4:	fff54513          	not	a0,a0
    20f8:	bf45                	j	20a8 <GPIOB_ModeCfg+0x2e>
d:\CH573FEVT\LaserRangeFinder\obj/../StdPeriphDriver/CH57x_gpio.c:95
            R32_PB_PD_DRV &= ~pin;
    20fa:	400017b7          	lui	a5,0x40001
    20fe:	0d47a683          	lw	a3,212(a5) # 400010d4 <_eusrstack+0x1fff90d4>
    2102:	fff54713          	not	a4,a0
    2106:	8f75                	and	a4,a4,a3
d:\CH573FEVT\LaserRangeFinder\obj/../StdPeriphDriver/CH57x_gpio.c:100
            R32_PB_PD_DRV |= pin;
    2108:	0ce7aa23          	sw	a4,212(a5)
d:\CH573FEVT\LaserRangeFinder\obj/../StdPeriphDriver/CH57x_gpio.c:101
            R32_PB_DIR |= pin;
    210c:	0c07a703          	lw	a4,192(a5)
    2110:	8d59                	or	a0,a0,a4
    2112:	b74d                	j	20b4 <GPIOB_ModeCfg+0x3a>
d:\CH573FEVT\LaserRangeFinder\obj/../StdPeriphDriver/CH57x_gpio.c:100
            R32_PB_PD_DRV |= pin;
    2114:	400017b7          	lui	a5,0x40001
    2118:	0d47a703          	lw	a4,212(a5) # 400010d4 <_eusrstack+0x1fff90d4>
    211c:	8f49                	or	a4,a4,a0
    211e:	b7ed                	j	2108 <GPIOB_ModeCfg+0x8e>

00002120 <SPI0_MasterDefInit>:
SPI0_MasterDefInit():
d:\CH573FEVT\LaserRangeFinder\obj/../StdPeriphDriver/CH57x_spi0.c:26
 *
 * @return  none
 */
void SPI0_MasterDefInit(void)
{
    R8_SPI0_CLOCK_DIV = 4; // 主频时钟4分频
    2120:	400047b7          	lui	a5,0x40004
    2124:	4711                	li	a4,4
    2126:	00e781a3          	sb	a4,3(a5) # 40004003 <_eusrstack+0x1fffc003>
d:\CH573FEVT\LaserRangeFinder\obj/../StdPeriphDriver/CH57x_spi0.c:27
    R8_SPI0_CTRL_MOD = RB_SPI_ALL_CLEAR;
    212a:	4709                	li	a4,2
    212c:	00e78023          	sb	a4,0(a5)
d:\CH573FEVT\LaserRangeFinder\obj/../StdPeriphDriver/CH57x_spi0.c:28
    R8_SPI0_CTRL_MOD = RB_SPI_MOSI_OE | RB_SPI_SCK_OE;
    2130:	06000713          	li	a4,96
    2134:	00e78023          	sb	a4,0(a5)
d:\CH573FEVT\LaserRangeFinder\obj/../StdPeriphDriver/CH57x_spi0.c:29
    R8_SPI0_CTRL_CFG |= RB_SPI_AUTO_IF;     // 访问BUFFER/FIFO自动清除IF_BYTE_END标志
    2138:	0017c703          	lbu	a4,1(a5)
    213c:	01076713          	ori	a4,a4,16
    2140:	00e780a3          	sb	a4,1(a5)
d:\CH573FEVT\LaserRangeFinder\obj/../StdPeriphDriver/CH57x_spi0.c:30
    R8_SPI0_CTRL_CFG &= ~RB_SPI_DMA_ENABLE; // 不启动DMA方式
    2144:	0017c703          	lbu	a4,1(a5)
    2148:	0fe77713          	andi	a4,a4,254
    214c:	00e780a3          	sb	a4,1(a5)
d:\CH573FEVT\LaserRangeFinder\obj/../StdPeriphDriver/CH57x_spi0.c:31
}
    2150:	8082                	ret

00002152 <SPI0_MasterDMATrans>:
SPI0_MasterDMATrans():
d:\CH573FEVT\LaserRangeFinder\obj/../StdPeriphDriver/CH57x_spi0.c:193
 *
 * @return  none
 */
void SPI0_MasterDMATrans(uint8_t *pbuf, uint16_t len)
{
    R8_SPI0_CTRL_MOD &= ~RB_SPI_FIFO_DIR;
    2152:	400047b7          	lui	a5,0x40004
    2156:	0007c703          	lbu	a4,0(a5) # 40004000 <_eusrstack+0x1fffc000>
    215a:	0ef77713          	andi	a4,a4,239
    215e:	00e78023          	sb	a4,0(a5)
d:\CH573FEVT\LaserRangeFinder\obj/../StdPeriphDriver/CH57x_spi0.c:194
    R16_SPI0_DMA_BEG = (uint32_t)pbuf;
    2162:	01051713          	slli	a4,a0,0x10
d:\CH573FEVT\LaserRangeFinder\obj/../StdPeriphDriver/CH57x_spi0.c:195
    R16_SPI0_DMA_END = (uint32_t)(pbuf + len);
    2166:	952e                	add	a0,a0,a1
d:\CH573FEVT\LaserRangeFinder\obj/../StdPeriphDriver/CH57x_spi0.c:194
    R16_SPI0_DMA_BEG = (uint32_t)pbuf;
    2168:	8341                	srli	a4,a4,0x10
d:\CH573FEVT\LaserRangeFinder\obj/../StdPeriphDriver/CH57x_spi0.c:195
    R16_SPI0_DMA_END = (uint32_t)(pbuf + len);
    216a:	0542                	slli	a0,a0,0x10
d:\CH573FEVT\LaserRangeFinder\obj/../StdPeriphDriver/CH57x_spi0.c:194
    R16_SPI0_DMA_BEG = (uint32_t)pbuf;
    216c:	00e79c23          	sh	a4,24(a5)
d:\CH573FEVT\LaserRangeFinder\obj/../StdPeriphDriver/CH57x_spi0.c:195
    R16_SPI0_DMA_END = (uint32_t)(pbuf + len);
    2170:	8141                	srli	a0,a0,0x10
    2172:	00a79e23          	sh	a0,28(a5)
d:\CH573FEVT\LaserRangeFinder\obj/../StdPeriphDriver/CH57x_spi0.c:196
    R16_SPI0_TOTAL_CNT = len;
    2176:	00b79623          	sh	a1,12(a5)
d:\CH573FEVT\LaserRangeFinder\obj/../StdPeriphDriver/CH57x_spi0.c:197
    R8_SPI0_INT_FLAG = RB_SPI_IF_CNT_END | RB_SPI_IF_DMA_END;
    217a:	4725                	li	a4,9
    217c:	00e78323          	sb	a4,6(a5)
d:\CH573FEVT\LaserRangeFinder\obj/../StdPeriphDriver/CH57x_spi0.c:198
    R8_SPI0_CTRL_CFG |= RB_SPI_DMA_ENABLE;
    2180:	0017c703          	lbu	a4,1(a5)
    2184:	00176713          	ori	a4,a4,1
    2188:	00e780a3          	sb	a4,1(a5)
d:\CH573FEVT\LaserRangeFinder\obj/../StdPeriphDriver/CH57x_spi0.c:199 (discriminator 1)
    while(!(R8_SPI0_INT_FLAG & RB_SPI_IF_CNT_END));
    218c:	0067c703          	lbu	a4,6(a5)
    2190:	8b05                	andi	a4,a4,1
    2192:	df6d                	beqz	a4,218c <SPI0_MasterDMATrans+0x3a>
d:\CH573FEVT\LaserRangeFinder\obj/../StdPeriphDriver/CH57x_spi0.c:200
    R8_SPI0_CTRL_CFG &= ~RB_SPI_DMA_ENABLE;
    2194:	0017c703          	lbu	a4,1(a5)
    2198:	0fe77713          	andi	a4,a4,254
    219c:	00e780a3          	sb	a4,1(a5)
d:\CH573FEVT\LaserRangeFinder\obj/../StdPeriphDriver/CH57x_spi0.c:201
}
    21a0:	8082                	ret

000021a2 <GetSysClock>:
GetSysClock():
d:\CH573FEVT\LaserRangeFinder\obj/../StdPeriphDriver/CH57x_sys.c:94
    rev = R16_CLK_SYS_CFG & 0xff;
    21a2:	400017b7          	lui	a5,0x40001
    21a6:	0087d503          	lhu	a0,8(a5) # 40001008 <_eusrstack+0x1fff9008>
    21aa:	0542                	slli	a0,a0,0x10
    21ac:	8141                	srli	a0,a0,0x10
d:\CH573FEVT\LaserRangeFinder\obj/../StdPeriphDriver/CH57x_sys.c:95
    if((rev & 0x40) == (0 << 6))
    21ae:	04057793          	andi	a5,a0,64
    21b2:	eb91                	bnez	a5,21c6 <GetSysClock+0x24>
d:\CH573FEVT\LaserRangeFinder\obj/../StdPeriphDriver/CH57x_sys.c:97
        return (32000000 / (rev & 0x1f));
    21b4:	01f57793          	andi	a5,a0,31
    21b8:	01e85537          	lui	a0,0x1e85
d:\CH573FEVT\LaserRangeFinder\obj/../StdPeriphDriver/CH57x_sys.c:101
        return (480000000 / (rev & 0x1f));
    21bc:	80050513          	addi	a0,a0,-2048 # 1e84800 <_data_lma+0x1e80644>
    21c0:	02f54533          	div	a0,a0,a5
    21c4:	8082                	ret
d:\CH573FEVT\LaserRangeFinder\obj/../StdPeriphDriver/CH57x_sys.c:99
    else if((rev & RB_CLK_SYS_MOD) == (1 << 6))
    21c6:	0c057793          	andi	a5,a0,192
    21ca:	04000713          	li	a4,64
    21ce:	00e79763          	bne	a5,a4,21dc <GetSysClock+0x3a>
d:\CH573FEVT\LaserRangeFinder\obj/../StdPeriphDriver/CH57x_sys.c:101
        return (480000000 / (rev & 0x1f));
    21d2:	01f57793          	andi	a5,a0,31
    21d6:	1c9c4537          	lui	a0,0x1c9c4
    21da:	b7cd                	j	21bc <GetSysClock+0x1a>
d:\CH573FEVT\LaserRangeFinder\obj/../StdPeriphDriver/CH57x_sys.c:105
        return (32000);
    21dc:	6521                	lui	a0,0x8
    21de:	d0050513          	addi	a0,a0,-768 # 7d00 <_data_lma+0x3b44>
d:\CH573FEVT\LaserRangeFinder\obj/../StdPeriphDriver/CH57x_sys.c:107
}
    21e2:	8082                	ret

000021e4 <_write>:
_write():
d:\CH573FEVT\LaserRangeFinder\obj/../StdPeriphDriver/CH57x_sys.c:354

#ifdef DEBUG
int _write(int fd, char *buf, int size)
{
    int i;
    for(i = 0; i < size; i++)
    21e4:	4781                	li	a5,0
d:\CH573FEVT\LaserRangeFinder\obj/../StdPeriphDriver/CH57x_sys.c:360
    {
#if DEBUG == Debug_UART0
        while(R8_UART0_TFC == UART_FIFO_SIZE);                  /* 等待数据发送 */
        R8_UART0_THR = *buf++; /* 发送数据 */
#elif DEBUG == Debug_UART1
        while(R8_UART1_TFC == UART_FIFO_SIZE);                  /* 等待数据发送 */
    21e6:	40003737          	lui	a4,0x40003
    21ea:	46a1                	li	a3,8
d:\CH573FEVT\LaserRangeFinder\obj/../StdPeriphDriver/CH57x_sys.c:354 (discriminator 1)
    for(i = 0; i < size; i++)
    21ec:	00c7c463          	blt	a5,a2,21f4 <_write+0x10>
d:\CH573FEVT\LaserRangeFinder\obj/../StdPeriphDriver/CH57x_sys.c:371
        while(R8_UART3_TFC == UART_FIFO_SIZE);                  /* 等待数据发送 */
        R8_UART3_THR = *buf++; /* 发送数据 */
#endif
    }
    return size;
}
    21f0:	8532                	mv	a0,a2
    21f2:	8082                	ret
d:\CH573FEVT\LaserRangeFinder\obj/../StdPeriphDriver/CH57x_sys.c:360 (discriminator 1)
        while(R8_UART1_TFC == UART_FIFO_SIZE);                  /* 等待数据发送 */
    21f4:	40b74503          	lbu	a0,1035(a4) # 4000340b <_eusrstack+0x1fffb40b>
    21f8:	fea68ee3          	beq	a3,a0,21f4 <_write+0x10>
d:\CH573FEVT\LaserRangeFinder\obj/../StdPeriphDriver/CH57x_sys.c:361 (discriminator 2)
        R8_UART1_THR = *buf++; /* 发送数据 */
    21fc:	00f58533          	add	a0,a1,a5
    2200:	00054503          	lbu	a0,0(a0)
d:\CH573FEVT\LaserRangeFinder\obj/../StdPeriphDriver/CH57x_sys.c:354 (discriminator 2)
    for(i = 0; i < size; i++)
    2204:	0785                	addi	a5,a5,1
d:\CH573FEVT\LaserRangeFinder\obj/../StdPeriphDriver/CH57x_sys.c:361 (discriminator 2)
        R8_UART1_THR = *buf++; /* 发送数据 */
    2206:	40a70423          	sb	a0,1032(a4)
    220a:	b7cd                	j	21ec <_write+0x8>

0000220c <_sbrk>:
_sbrk():
d:\CH573FEVT\LaserRangeFinder\obj/../StdPeriphDriver/CH57x_sys.c:389
{
    extern char _end[];
    extern char _heap_end[];
    static char *curbrk = _end;

    if ((curbrk + incr < _end) || (curbrk + incr > _heap_end))
    220c:	20002797          	auipc	a5,0x20002
    2210:	e5478793          	addi	a5,a5,-428 # 20004060 <curbrk.3772>
    2214:	439c                	lw	a5,0(a5)
    2216:	85018713          	addi	a4,gp,-1968 # 200040b0 <_ebss>
    221a:	953e                	add	a0,a0,a5
    221c:	00e56e63          	bltu	a0,a4,2238 <_sbrk+0x2c>
d:\CH573FEVT\LaserRangeFinder\obj/../StdPeriphDriver/CH57x_sys.c:389 (discriminator 1)
    2220:	20006717          	auipc	a4,0x20006
    2224:	be070713          	addi	a4,a4,-1056 # 20007e00 <_heap_end>
    2228:	00a76863          	bltu	a4,a0,2238 <_sbrk+0x2c>
d:\CH573FEVT\LaserRangeFinder\obj/../StdPeriphDriver/CH57x_sys.c:392
    return NULL - 1;

    curbrk += incr;
    222c:	20002717          	auipc	a4,0x20002
    2230:	e2a72a23          	sw	a0,-460(a4) # 20004060 <curbrk.3772>
d:\CH573FEVT\LaserRangeFinder\obj/../StdPeriphDriver/CH57x_sys.c:394
    return curbrk - incr;
}
    2234:	853e                	mv	a0,a5
    2236:	8082                	ret
d:\CH573FEVT\LaserRangeFinder\obj/../StdPeriphDriver/CH57x_sys.c:390
    return NULL - 1;
    2238:	57fd                	li	a5,-1
    223a:	bfed                	j	2234 <_sbrk+0x28>

0000223c <UART1_BaudRateCfg>:
UART1_BaudRateCfg():
d:\CH573FEVT\LaserRangeFinder\obj/../StdPeriphDriver/CH57x_uart1.c:43
 * @param   baudrate    - 波特率
 *
 * @return  none
 */
void UART1_BaudRateCfg(uint32_t baudrate)
{
    223c:	1141                	addi	sp,sp,-16
    223e:	c422                	sw	s0,8(sp)
    2240:	c606                	sw	ra,12(sp)
    2242:	842a                	mv	s0,a0
d:\CH573FEVT\LaserRangeFinder\obj/../StdPeriphDriver/CH57x_uart1.c:46
    uint32_t x;

    x = 10 * GetSysClock() / 8 / baudrate;
    2244:	3fb9                	jal	21a2 <GetSysClock>
    2246:	4729                	li	a4,10
    2248:	02e507b3          	mul	a5,a0,a4
d:\CH573FEVT\LaserRangeFinder\obj/../StdPeriphDriver/CH57x_uart1.c:49
    x = (x + 5) / 10;
    R16_UART1_DL = (uint16_t)x;
}
    224c:	40b2                	lw	ra,12(sp)
d:\CH573FEVT\LaserRangeFinder\obj/../StdPeriphDriver/CH57x_uart1.c:46
    x = 10 * GetSysClock() / 8 / baudrate;
    224e:	838d                	srli	a5,a5,0x3
    2250:	0287d7b3          	divu	a5,a5,s0
d:\CH573FEVT\LaserRangeFinder\obj/../StdPeriphDriver/CH57x_uart1.c:49
}
    2254:	4422                	lw	s0,8(sp)
d:\CH573FEVT\LaserRangeFinder\obj/../StdPeriphDriver/CH57x_uart1.c:47
    x = (x + 5) / 10;
    2256:	0795                	addi	a5,a5,5
    2258:	02e7d7b3          	divu	a5,a5,a4
d:\CH573FEVT\LaserRangeFinder\obj/../StdPeriphDriver/CH57x_uart1.c:48
    R16_UART1_DL = (uint16_t)x;
    225c:	40003737          	lui	a4,0x40003
    2260:	07c2                	slli	a5,a5,0x10
    2262:	83c1                	srli	a5,a5,0x10
    2264:	40f71623          	sh	a5,1036(a4) # 4000340c <_eusrstack+0x1fffb40c>
d:\CH573FEVT\LaserRangeFinder\obj/../StdPeriphDriver/CH57x_uart1.c:49
}
    2268:	0141                	addi	sp,sp,16
    226a:	8082                	ret

0000226c <UART1_DefInit>:
UART1_DefInit():
d:\CH573FEVT\LaserRangeFinder\obj/../StdPeriphDriver/CH57x_uart1.c:26
    UART1_BaudRateCfg(115200);
    226c:	6571                	lui	a0,0x1c
d:\CH573FEVT\LaserRangeFinder\obj/../StdPeriphDriver/CH57x_uart1.c:25
{
    226e:	1141                	addi	sp,sp,-16
d:\CH573FEVT\LaserRangeFinder\obj/../StdPeriphDriver/CH57x_uart1.c:26
    UART1_BaudRateCfg(115200);
    2270:	20050513          	addi	a0,a0,512 # 1c200 <_data_lma+0x18044>
d:\CH573FEVT\LaserRangeFinder\obj/../StdPeriphDriver/CH57x_uart1.c:25
{
    2274:	c606                	sw	ra,12(sp)
d:\CH573FEVT\LaserRangeFinder\obj/../StdPeriphDriver/CH57x_uart1.c:26
    UART1_BaudRateCfg(115200);
    2276:	37d9                	jal	223c <UART1_BaudRateCfg>
d:\CH573FEVT\LaserRangeFinder\obj/../StdPeriphDriver/CH57x_uart1.c:27
    R8_UART1_FCR = (2 << 6) | RB_FCR_TX_FIFO_CLR | RB_FCR_RX_FIFO_CLR | RB_FCR_FIFO_EN; // FIFO打开，触发点4字节
    2278:	400037b7          	lui	a5,0x40003
    227c:	f8700713          	li	a4,-121
    2280:	40e78123          	sb	a4,1026(a5) # 40003402 <_eusrstack+0x1fffb402>
d:\CH573FEVT\LaserRangeFinder\obj/../StdPeriphDriver/CH57x_uart1.c:28
    R8_UART1_LCR = RB_LCR_WORD_SZ;
    2284:	470d                	li	a4,3
    2286:	40e781a3          	sb	a4,1027(a5)
d:\CH573FEVT\LaserRangeFinder\obj/../StdPeriphDriver/CH57x_uart1.c:29
    R8_UART1_IER = RB_IER_TXD_EN;
    228a:	04000713          	li	a4,64
    228e:	40e780a3          	sb	a4,1025(a5)
d:\CH573FEVT\LaserRangeFinder\obj/../StdPeriphDriver/CH57x_uart1.c:30
    R8_UART1_DIV = 1;
    2292:	4705                	li	a4,1
    2294:	40e78723          	sb	a4,1038(a5)
d:\CH573FEVT\LaserRangeFinder\obj/../StdPeriphDriver/CH57x_uart1.c:31
}
    2298:	40b2                	lw	ra,12(sp)
    229a:	0141                	addi	sp,sp,16
    229c:	8082                	ret

0000229e <malloc>:
malloc():
    229e:	20002797          	auipc	a5,0x20002
    22a2:	dc678793          	addi	a5,a5,-570 # 20004064 <_impure_ptr>
    22a6:	85aa                	mv	a1,a0
    22a8:	4388                	lw	a0,0(a5)
    22aa:	a05d                	j	2350 <_malloc_r>

000022ac <_free_r>:
_free_r():
    22ac:	c1cd                	beqz	a1,234e <_free_r+0xa2>
    22ae:	ffc5a783          	lw	a5,-4(a1)
    22b2:	1141                	addi	sp,sp,-16
    22b4:	c422                	sw	s0,8(sp)
    22b6:	c606                	sw	ra,12(sp)
    22b8:	c226                	sw	s1,4(sp)
    22ba:	ffc58413          	addi	s0,a1,-4
    22be:	0007d363          	bgez	a5,22c4 <_free_r+0x18>
    22c2:	943e                	add	s0,s0,a5
    22c4:	84aa                	mv	s1,a0
    22c6:	2ed5                	jal	26ba <__malloc_lock>
    22c8:	81018793          	addi	a5,gp,-2032 # 20004070 <__malloc_free_list>
    22cc:	439c                	lw	a5,0(a5)
    22ce:	eb99                	bnez	a5,22e4 <_free_r+0x38>
    22d0:	00042223          	sw	zero,4(s0)
    22d4:	8081a823          	sw	s0,-2032(gp) # 20004070 <__malloc_free_list>
    22d8:	4422                	lw	s0,8(sp)
    22da:	40b2                	lw	ra,12(sp)
    22dc:	8526                	mv	a0,s1
    22de:	4492                	lw	s1,4(sp)
    22e0:	0141                	addi	sp,sp,16
    22e2:	aee9                	j	26bc <__malloc_unlock>
    22e4:	00f47e63          	bgeu	s0,a5,2300 <_free_r+0x54>
    22e8:	4014                	lw	a3,0(s0)
    22ea:	00d40733          	add	a4,s0,a3
    22ee:	00e79663          	bne	a5,a4,22fa <_free_r+0x4e>
    22f2:	4398                	lw	a4,0(a5)
    22f4:	43dc                	lw	a5,4(a5)
    22f6:	9736                	add	a4,a4,a3
    22f8:	c018                	sw	a4,0(s0)
    22fa:	c05c                	sw	a5,4(s0)
    22fc:	bfe1                	j	22d4 <_free_r+0x28>
    22fe:	87ba                	mv	a5,a4
    2300:	43d8                	lw	a4,4(a5)
    2302:	c319                	beqz	a4,2308 <_free_r+0x5c>
    2304:	fee47de3          	bgeu	s0,a4,22fe <_free_r+0x52>
    2308:	4394                	lw	a3,0(a5)
    230a:	00d78633          	add	a2,a5,a3
    230e:	00861f63          	bne	a2,s0,232c <_free_r+0x80>
    2312:	4010                	lw	a2,0(s0)
    2314:	96b2                	add	a3,a3,a2
    2316:	c394                	sw	a3,0(a5)
    2318:	00d78633          	add	a2,a5,a3
    231c:	fac71ee3          	bne	a4,a2,22d8 <_free_r+0x2c>
    2320:	4310                	lw	a2,0(a4)
    2322:	4358                	lw	a4,4(a4)
    2324:	96b2                	add	a3,a3,a2
    2326:	c394                	sw	a3,0(a5)
    2328:	c3d8                	sw	a4,4(a5)
    232a:	b77d                	j	22d8 <_free_r+0x2c>
    232c:	00c47563          	bgeu	s0,a2,2336 <_free_r+0x8a>
    2330:	47b1                	li	a5,12
    2332:	c09c                	sw	a5,0(s1)
    2334:	b755                	j	22d8 <_free_r+0x2c>
    2336:	4010                	lw	a2,0(s0)
    2338:	00c406b3          	add	a3,s0,a2
    233c:	00d71663          	bne	a4,a3,2348 <_free_r+0x9c>
    2340:	4314                	lw	a3,0(a4)
    2342:	4358                	lw	a4,4(a4)
    2344:	96b2                	add	a3,a3,a2
    2346:	c014                	sw	a3,0(s0)
    2348:	c058                	sw	a4,4(s0)
    234a:	c3c0                	sw	s0,4(a5)
    234c:	b771                	j	22d8 <_free_r+0x2c>
    234e:	8082                	ret

00002350 <_malloc_r>:
_malloc_r():
    2350:	1101                	addi	sp,sp,-32
    2352:	ca26                	sw	s1,20(sp)
    2354:	00358493          	addi	s1,a1,3
    2358:	98f1                	andi	s1,s1,-4
    235a:	ce06                	sw	ra,28(sp)
    235c:	cc22                	sw	s0,24(sp)
    235e:	c84a                	sw	s2,16(sp)
    2360:	c64e                	sw	s3,12(sp)
    2362:	04a1                	addi	s1,s1,8
    2364:	47b1                	li	a5,12
    2366:	04f4f163          	bgeu	s1,a5,23a8 <_malloc_r+0x58>
    236a:	44b1                	li	s1,12
    236c:	04b4e063          	bltu	s1,a1,23ac <_malloc_r+0x5c>
    2370:	892a                	mv	s2,a0
    2372:	26a1                	jal	26ba <__malloc_lock>
    2374:	81018793          	addi	a5,gp,-2032 # 20004070 <__malloc_free_list>
    2378:	4398                	lw	a4,0(a5)
    237a:	843a                	mv	s0,a4
    237c:	e031                	bnez	s0,23c0 <_malloc_r+0x70>
    237e:	81418793          	addi	a5,gp,-2028 # 20004074 <__malloc_sbrk_start>
    2382:	439c                	lw	a5,0(a5)
    2384:	e791                	bnez	a5,2390 <_malloc_r+0x40>
    2386:	4581                	li	a1,0
    2388:	854a                	mv	a0,s2
    238a:	28d9                	jal	2460 <_sbrk_r>
    238c:	80a1aa23          	sw	a0,-2028(gp) # 20004074 <__malloc_sbrk_start>
    2390:	85a6                	mv	a1,s1
    2392:	854a                	mv	a0,s2
    2394:	20f1                	jal	2460 <_sbrk_r>
    2396:	59fd                	li	s3,-1
    2398:	07351763          	bne	a0,s3,2406 <_malloc_r+0xb6>
    239c:	47b1                	li	a5,12
    239e:	00f92023          	sw	a5,0(s2)
    23a2:	854a                	mv	a0,s2
    23a4:	2e21                	jal	26bc <__malloc_unlock>
    23a6:	a029                	j	23b0 <_malloc_r+0x60>
    23a8:	fc04d2e3          	bgez	s1,236c <_malloc_r+0x1c>
    23ac:	47b1                	li	a5,12
    23ae:	c11c                	sw	a5,0(a0)
    23b0:	4501                	li	a0,0
    23b2:	40f2                	lw	ra,28(sp)
    23b4:	4462                	lw	s0,24(sp)
    23b6:	44d2                	lw	s1,20(sp)
    23b8:	4942                	lw	s2,16(sp)
    23ba:	49b2                	lw	s3,12(sp)
    23bc:	6105                	addi	sp,sp,32
    23be:	8082                	ret
    23c0:	401c                	lw	a5,0(s0)
    23c2:	8f85                	sub	a5,a5,s1
    23c4:	0207ce63          	bltz	a5,2400 <_malloc_r+0xb0>
    23c8:	46ad                	li	a3,11
    23ca:	00f6f663          	bgeu	a3,a5,23d6 <_malloc_r+0x86>
    23ce:	c01c                	sw	a5,0(s0)
    23d0:	943e                	add	s0,s0,a5
    23d2:	c004                	sw	s1,0(s0)
    23d4:	a031                	j	23e0 <_malloc_r+0x90>
    23d6:	405c                	lw	a5,4(s0)
    23d8:	02871263          	bne	a4,s0,23fc <_malloc_r+0xac>
    23dc:	80f1a823          	sw	a5,-2032(gp) # 20004070 <__malloc_free_list>
    23e0:	854a                	mv	a0,s2
    23e2:	2ce9                	jal	26bc <__malloc_unlock>
    23e4:	00b40513          	addi	a0,s0,11
    23e8:	00440793          	addi	a5,s0,4
    23ec:	9961                	andi	a0,a0,-8
    23ee:	40f50733          	sub	a4,a0,a5
    23f2:	d361                	beqz	a4,23b2 <_malloc_r+0x62>
    23f4:	943a                	add	s0,s0,a4
    23f6:	8f89                	sub	a5,a5,a0
    23f8:	c01c                	sw	a5,0(s0)
    23fa:	bf65                	j	23b2 <_malloc_r+0x62>
    23fc:	c35c                	sw	a5,4(a4)
    23fe:	b7cd                	j	23e0 <_malloc_r+0x90>
    2400:	8722                	mv	a4,s0
    2402:	4040                	lw	s0,4(s0)
    2404:	bfa5                	j	237c <_malloc_r+0x2c>
    2406:	00350413          	addi	s0,a0,3
    240a:	9871                	andi	s0,s0,-4
    240c:	fc8503e3          	beq	a0,s0,23d2 <_malloc_r+0x82>
    2410:	40a405b3          	sub	a1,s0,a0
    2414:	854a                	mv	a0,s2
    2416:	20a9                	jal	2460 <_sbrk_r>
    2418:	fb351de3          	bne	a0,s3,23d2 <_malloc_r+0x82>
    241c:	b741                	j	239c <_malloc_r+0x4c>

0000241e <iprintf>:
printf():
    241e:	7139                	addi	sp,sp,-64
    2420:	da3e                	sw	a5,52(sp)
    2422:	d22e                	sw	a1,36(sp)
    2424:	d432                	sw	a2,40(sp)
    2426:	d636                	sw	a3,44(sp)
    2428:	d83a                	sw	a4,48(sp)
    242a:	dc42                	sw	a6,56(sp)
    242c:	de46                	sw	a7,60(sp)
    242e:	20002797          	auipc	a5,0x20002
    2432:	c3678793          	addi	a5,a5,-970 # 20004064 <_impure_ptr>
    2436:	cc22                	sw	s0,24(sp)
    2438:	4380                	lw	s0,0(a5)
    243a:	ca26                	sw	s1,20(sp)
    243c:	ce06                	sw	ra,28(sp)
    243e:	84aa                	mv	s1,a0
    2440:	c409                	beqz	s0,244a <iprintf+0x2c>
    2442:	4c1c                	lw	a5,24(s0)
    2444:	e399                	bnez	a5,244a <iprintf+0x2c>
    2446:	8522                	mv	a0,s0
    2448:	28f5                	jal	2544 <__sinit>
    244a:	440c                	lw	a1,8(s0)
    244c:	1054                	addi	a3,sp,36
    244e:	8626                	mv	a2,s1
    2450:	8522                	mv	a0,s0
    2452:	c636                	sw	a3,12(sp)
    2454:	2cd1                	jal	2728 <_vfiprintf_r>
    2456:	40f2                	lw	ra,28(sp)
    2458:	4462                	lw	s0,24(sp)
    245a:	44d2                	lw	s1,20(sp)
    245c:	6121                	addi	sp,sp,64
    245e:	8082                	ret

00002460 <_sbrk_r>:
_sbrk_r():
    2460:	1141                	addi	sp,sp,-16
    2462:	c422                	sw	s0,8(sp)
    2464:	842a                	mv	s0,a0
    2466:	852e                	mv	a0,a1
    2468:	8401a623          	sw	zero,-1972(gp) # 200040ac <errno>
    246c:	c606                	sw	ra,12(sp)
    246e:	d9fff0ef          	jal	ra,220c <_sbrk>
    2472:	57fd                	li	a5,-1
    2474:	00f51763          	bne	a0,a5,2482 <_sbrk_r+0x22>
    2478:	84c18793          	addi	a5,gp,-1972 # 200040ac <errno>
    247c:	439c                	lw	a5,0(a5)
    247e:	c391                	beqz	a5,2482 <_sbrk_r+0x22>
    2480:	c01c                	sw	a5,0(s0)
    2482:	40b2                	lw	ra,12(sp)
    2484:	4422                	lw	s0,8(sp)
    2486:	0141                	addi	sp,sp,16
    2488:	8082                	ret

0000248a <std>:
std():
    248a:	1141                	addi	sp,sp,-16
    248c:	c422                	sw	s0,8(sp)
    248e:	c606                	sw	ra,12(sp)
    2490:	842a                	mv	s0,a0
    2492:	00b51623          	sh	a1,12(a0)
    2496:	00c51723          	sh	a2,14(a0)
    249a:	00052023          	sw	zero,0(a0)
    249e:	00052223          	sw	zero,4(a0)
    24a2:	00052423          	sw	zero,8(a0)
    24a6:	06052223          	sw	zero,100(a0)
    24aa:	00052823          	sw	zero,16(a0)
    24ae:	00052a23          	sw	zero,20(a0)
    24b2:	00052c23          	sw	zero,24(a0)
    24b6:	4621                	li	a2,8
    24b8:	4581                	li	a1,0
    24ba:	05c50513          	addi	a0,a0,92
    24be:	a98fe0ef          	jal	ra,756 <memset>
    24c2:	00001797          	auipc	a5,0x1
    24c6:	8bc78793          	addi	a5,a5,-1860 # 2d7e <__sread>
    24ca:	d05c                	sw	a5,36(s0)
    24cc:	00001797          	auipc	a5,0x1
    24d0:	8e278793          	addi	a5,a5,-1822 # 2dae <__swrite>
    24d4:	d41c                	sw	a5,40(s0)
    24d6:	00001797          	auipc	a5,0x1
    24da:	92678793          	addi	a5,a5,-1754 # 2dfc <__sseek>
    24de:	d45c                	sw	a5,44(s0)
    24e0:	00001797          	auipc	a5,0x1
    24e4:	95278793          	addi	a5,a5,-1710 # 2e32 <__sclose>
    24e8:	d000                	sw	s0,32(s0)
    24ea:	d81c                	sw	a5,48(s0)
    24ec:	40b2                	lw	ra,12(sp)
    24ee:	4422                	lw	s0,8(sp)
    24f0:	0141                	addi	sp,sp,16
    24f2:	8082                	ret

000024f4 <_cleanup_r>:
_cleanup_r():
    24f4:	00001597          	auipc	a1,0x1
    24f8:	cae58593          	addi	a1,a1,-850 # 31a2 <_fflush_r>
    24fc:	aa89                	j	264e <_fwalk_reent>

000024fe <__sfmoreglue>:
__sfmoreglue():
    24fe:	1141                	addi	sp,sp,-16
    2500:	c226                	sw	s1,4(sp)
    2502:	06800613          	li	a2,104
    2506:	fff58493          	addi	s1,a1,-1
    250a:	02c484b3          	mul	s1,s1,a2
    250e:	c04a                	sw	s2,0(sp)
    2510:	892e                	mv	s2,a1
    2512:	c422                	sw	s0,8(sp)
    2514:	c606                	sw	ra,12(sp)
    2516:	07448593          	addi	a1,s1,116
    251a:	3d1d                	jal	2350 <_malloc_r>
    251c:	842a                	mv	s0,a0
    251e:	cd01                	beqz	a0,2536 <__sfmoreglue+0x38>
    2520:	00052023          	sw	zero,0(a0)
    2524:	01252223          	sw	s2,4(a0)
    2528:	0531                	addi	a0,a0,12
    252a:	c408                	sw	a0,8(s0)
    252c:	06848613          	addi	a2,s1,104
    2530:	4581                	li	a1,0
    2532:	a24fe0ef          	jal	ra,756 <memset>
    2536:	8522                	mv	a0,s0
    2538:	40b2                	lw	ra,12(sp)
    253a:	4422                	lw	s0,8(sp)
    253c:	4492                	lw	s1,4(sp)
    253e:	4902                	lw	s2,0(sp)
    2540:	0141                	addi	sp,sp,16
    2542:	8082                	ret

00002544 <__sinit>:
__sinit():
    2544:	4d1c                	lw	a5,24(a0)
    2546:	e3bd                	bnez	a5,25ac <__sinit+0x68>
    2548:	1141                	addi	sp,sp,-16
    254a:	c606                	sw	ra,12(sp)
    254c:	c422                	sw	s0,8(sp)
    254e:	00000797          	auipc	a5,0x0
    2552:	fa678793          	addi	a5,a5,-90 # 24f4 <_cleanup_r>
    2556:	d51c                	sw	a5,40(a0)
    2558:	00002797          	auipc	a5,0x2
    255c:	c6078793          	addi	a5,a5,-928 # 41b8 <_global_impure_ptr>
    2560:	439c                	lw	a5,0(a5)
    2562:	04052423          	sw	zero,72(a0)
    2566:	04052623          	sw	zero,76(a0)
    256a:	04052823          	sw	zero,80(a0)
    256e:	00f51463          	bne	a0,a5,2576 <__sinit+0x32>
    2572:	4785                	li	a5,1
    2574:	cd1c                	sw	a5,24(a0)
    2576:	842a                	mv	s0,a0
    2578:	281d                	jal	25ae <__sfp>
    257a:	c048                	sw	a0,4(s0)
    257c:	8522                	mv	a0,s0
    257e:	2805                	jal	25ae <__sfp>
    2580:	c408                	sw	a0,8(s0)
    2582:	8522                	mv	a0,s0
    2584:	202d                	jal	25ae <__sfp>
    2586:	c448                	sw	a0,12(s0)
    2588:	4048                	lw	a0,4(s0)
    258a:	4601                	li	a2,0
    258c:	4591                	li	a1,4
    258e:	3df5                	jal	248a <std>
    2590:	4408                	lw	a0,8(s0)
    2592:	4605                	li	a2,1
    2594:	45a5                	li	a1,9
    2596:	3dd5                	jal	248a <std>
    2598:	4448                	lw	a0,12(s0)
    259a:	4609                	li	a2,2
    259c:	45c9                	li	a1,18
    259e:	35f5                	jal	248a <std>
    25a0:	4785                	li	a5,1
    25a2:	cc1c                	sw	a5,24(s0)
    25a4:	40b2                	lw	ra,12(sp)
    25a6:	4422                	lw	s0,8(sp)
    25a8:	0141                	addi	sp,sp,16
    25aa:	8082                	ret
    25ac:	8082                	ret

000025ae <__sfp>:
__sfp():
    25ae:	1141                	addi	sp,sp,-16
    25b0:	00002797          	auipc	a5,0x2
    25b4:	c0878793          	addi	a5,a5,-1016 # 41b8 <_global_impure_ptr>
    25b8:	c226                	sw	s1,4(sp)
    25ba:	4384                	lw	s1,0(a5)
    25bc:	c04a                	sw	s2,0(sp)
    25be:	c606                	sw	ra,12(sp)
    25c0:	4c9c                	lw	a5,24(s1)
    25c2:	c422                	sw	s0,8(sp)
    25c4:	892a                	mv	s2,a0
    25c6:	e399                	bnez	a5,25cc <__sfp+0x1e>
    25c8:	8526                	mv	a0,s1
    25ca:	3fad                	jal	2544 <__sinit>
    25cc:	04848493          	addi	s1,s1,72
    25d0:	4480                	lw	s0,8(s1)
    25d2:	40dc                	lw	a5,4(s1)
    25d4:	17fd                	addi	a5,a5,-1
    25d6:	0007d663          	bgez	a5,25e2 <__sfp+0x34>
    25da:	409c                	lw	a5,0(s1)
    25dc:	cfb9                	beqz	a5,263a <__sfp+0x8c>
    25de:	4084                	lw	s1,0(s1)
    25e0:	bfc5                	j	25d0 <__sfp+0x22>
    25e2:	00c41703          	lh	a4,12(s0)
    25e6:	e739                	bnez	a4,2634 <__sfp+0x86>
    25e8:	77c1                	lui	a5,0xffff0
    25ea:	0785                	addi	a5,a5,1
    25ec:	06042223          	sw	zero,100(s0)
    25f0:	00042023          	sw	zero,0(s0)
    25f4:	00042223          	sw	zero,4(s0)
    25f8:	00042423          	sw	zero,8(s0)
    25fc:	c45c                	sw	a5,12(s0)
    25fe:	00042823          	sw	zero,16(s0)
    2602:	00042a23          	sw	zero,20(s0)
    2606:	00042c23          	sw	zero,24(s0)
    260a:	4621                	li	a2,8
    260c:	4581                	li	a1,0
    260e:	05c40513          	addi	a0,s0,92
    2612:	944fe0ef          	jal	ra,756 <memset>
    2616:	02042a23          	sw	zero,52(s0)
    261a:	02042c23          	sw	zero,56(s0)
    261e:	04042423          	sw	zero,72(s0)
    2622:	04042623          	sw	zero,76(s0)
    2626:	8522                	mv	a0,s0
    2628:	40b2                	lw	ra,12(sp)
    262a:	4422                	lw	s0,8(sp)
    262c:	4492                	lw	s1,4(sp)
    262e:	4902                	lw	s2,0(sp)
    2630:	0141                	addi	sp,sp,16
    2632:	8082                	ret
    2634:	06840413          	addi	s0,s0,104
    2638:	bf71                	j	25d4 <__sfp+0x26>
    263a:	4591                	li	a1,4
    263c:	854a                	mv	a0,s2
    263e:	35c1                	jal	24fe <__sfmoreglue>
    2640:	c088                	sw	a0,0(s1)
    2642:	fd51                	bnez	a0,25de <__sfp+0x30>
    2644:	47b1                	li	a5,12
    2646:	00f92023          	sw	a5,0(s2)
    264a:	4401                	li	s0,0
    264c:	bfe9                	j	2626 <__sfp+0x78>

0000264e <_fwalk_reent>:
_fwalk_reent():
    264e:	7179                	addi	sp,sp,-48
    2650:	d422                	sw	s0,40(sp)
    2652:	d04a                	sw	s2,32(sp)
    2654:	cc52                	sw	s4,24(sp)
    2656:	ca56                	sw	s5,20(sp)
    2658:	c85a                	sw	s6,16(sp)
    265a:	c65e                	sw	s7,12(sp)
    265c:	d606                	sw	ra,44(sp)
    265e:	d226                	sw	s1,36(sp)
    2660:	ce4e                	sw	s3,28(sp)
    2662:	8a2a                	mv	s4,a0
    2664:	8aae                	mv	s5,a1
    2666:	04850413          	addi	s0,a0,72
    266a:	4901                	li	s2,0
    266c:	4b05                	li	s6,1
    266e:	5bfd                	li	s7,-1
    2670:	ec09                	bnez	s0,268a <_fwalk_reent+0x3c>
    2672:	50b2                	lw	ra,44(sp)
    2674:	5422                	lw	s0,40(sp)
    2676:	854a                	mv	a0,s2
    2678:	5492                	lw	s1,36(sp)
    267a:	5902                	lw	s2,32(sp)
    267c:	49f2                	lw	s3,28(sp)
    267e:	4a62                	lw	s4,24(sp)
    2680:	4ad2                	lw	s5,20(sp)
    2682:	4b42                	lw	s6,16(sp)
    2684:	4bb2                	lw	s7,12(sp)
    2686:	6145                	addi	sp,sp,48
    2688:	8082                	ret
    268a:	4404                	lw	s1,8(s0)
    268c:	00442983          	lw	s3,4(s0)
    2690:	19fd                	addi	s3,s3,-1
    2692:	0009d463          	bgez	s3,269a <_fwalk_reent+0x4c>
    2696:	4000                	lw	s0,0(s0)
    2698:	bfe1                	j	2670 <_fwalk_reent+0x22>
    269a:	00c4d783          	lhu	a5,12(s1)
    269e:	00fb7b63          	bgeu	s6,a5,26b4 <_fwalk_reent+0x66>
    26a2:	00e49783          	lh	a5,14(s1)
    26a6:	01778763          	beq	a5,s7,26b4 <_fwalk_reent+0x66>
    26aa:	85a6                	mv	a1,s1
    26ac:	8552                	mv	a0,s4
    26ae:	9a82                	jalr	s5
    26b0:	00a96933          	or	s2,s2,a0
    26b4:	06848493          	addi	s1,s1,104
    26b8:	bfe1                	j	2690 <_fwalk_reent+0x42>

000026ba <__malloc_lock>:
__malloc_lock():
    26ba:	8082                	ret

000026bc <__malloc_unlock>:
__malloc_unlock():
    26bc:	8082                	ret

000026be <__sfputc_r>:
__sfputc_r():
    26be:	461c                	lw	a5,8(a2)
    26c0:	17fd                	addi	a5,a5,-1
    26c2:	c61c                	sw	a5,8(a2)
    26c4:	0007d963          	bgez	a5,26d6 <__sfputc_r+0x18>
    26c8:	4e18                	lw	a4,24(a2)
    26ca:	00e7c563          	blt	a5,a4,26d4 <__sfputc_r+0x16>
    26ce:	47a9                	li	a5,10
    26d0:	00f59363          	bne	a1,a5,26d6 <__sfputc_r+0x18>
    26d4:	a795                	j	2e38 <__swbuf_r>
    26d6:	421c                	lw	a5,0(a2)
    26d8:	852e                	mv	a0,a1
    26da:	00178713          	addi	a4,a5,1 # ffff0001 <_eusrstack+0xdffe8001>
    26de:	c218                	sw	a4,0(a2)
    26e0:	00b78023          	sb	a1,0(a5)
    26e4:	8082                	ret

000026e6 <__sfputs_r>:
__sfputs_r():
    26e6:	1101                	addi	sp,sp,-32
    26e8:	cc22                	sw	s0,24(sp)
    26ea:	ca26                	sw	s1,20(sp)
    26ec:	c84a                	sw	s2,16(sp)
    26ee:	c64e                	sw	s3,12(sp)
    26f0:	c452                	sw	s4,8(sp)
    26f2:	ce06                	sw	ra,28(sp)
    26f4:	892a                	mv	s2,a0
    26f6:	89ae                	mv	s3,a1
    26f8:	8432                	mv	s0,a2
    26fa:	00d604b3          	add	s1,a2,a3
    26fe:	5a7d                	li	s4,-1
    2700:	00941463          	bne	s0,s1,2708 <__sfputs_r+0x22>
    2704:	4501                	li	a0,0
    2706:	a809                	j	2718 <__sfputs_r+0x32>
    2708:	00044583          	lbu	a1,0(s0)
    270c:	864e                	mv	a2,s3
    270e:	854a                	mv	a0,s2
    2710:	377d                	jal	26be <__sfputc_r>
    2712:	0405                	addi	s0,s0,1
    2714:	ff4516e3          	bne	a0,s4,2700 <__sfputs_r+0x1a>
    2718:	40f2                	lw	ra,28(sp)
    271a:	4462                	lw	s0,24(sp)
    271c:	44d2                	lw	s1,20(sp)
    271e:	4942                	lw	s2,16(sp)
    2720:	49b2                	lw	s3,12(sp)
    2722:	4a22                	lw	s4,8(sp)
    2724:	6105                	addi	sp,sp,32
    2726:	8082                	ret

00002728 <_vfiprintf_r>:
_vfiprintf_r():
    2728:	7135                	addi	sp,sp,-160
    272a:	cd22                	sw	s0,152(sp)
    272c:	cb26                	sw	s1,148(sp)
    272e:	c94a                	sw	s2,144(sp)
    2730:	c74e                	sw	s3,140(sp)
    2732:	cf06                	sw	ra,156(sp)
    2734:	c552                	sw	s4,136(sp)
    2736:	c356                	sw	s5,132(sp)
    2738:	c15a                	sw	s6,128(sp)
    273a:	dede                	sw	s7,124(sp)
    273c:	dce2                	sw	s8,120(sp)
    273e:	dae6                	sw	s9,116(sp)
    2740:	89aa                	mv	s3,a0
    2742:	84ae                	mv	s1,a1
    2744:	8932                	mv	s2,a2
    2746:	8436                	mv	s0,a3
    2748:	c509                	beqz	a0,2752 <_vfiprintf_r+0x2a>
    274a:	4d1c                	lw	a5,24(a0)
    274c:	e399                	bnez	a5,2752 <_vfiprintf_r+0x2a>
    274e:	df7ff0ef          	jal	ra,2544 <__sinit>
    2752:	00002797          	auipc	a5,0x2
    2756:	9d278793          	addi	a5,a5,-1582 # 4124 <__sf_fake_stdin>
    275a:	0cf49c63          	bne	s1,a5,2832 <_vfiprintf_r+0x10a>
    275e:	0049a483          	lw	s1,4(s3) # 8004 <_data_lma+0x3e48>
    2762:	00c4d783          	lhu	a5,12(s1)
    2766:	8ba1                	andi	a5,a5,8
    2768:	c7fd                	beqz	a5,2856 <_vfiprintf_r+0x12e>
    276a:	489c                	lw	a5,16(s1)
    276c:	c7ed                	beqz	a5,2856 <_vfiprintf_r+0x12e>
    276e:	02000793          	li	a5,32
    2772:	02f104a3          	sb	a5,41(sp)
    2776:	03000793          	li	a5,48
    277a:	d202                	sw	zero,36(sp)
    277c:	02f10523          	sb	a5,42(sp)
    2780:	c622                	sw	s0,12(sp)
    2782:	02500b93          	li	s7,37
    2786:	00002a97          	auipc	s5,0x2
    278a:	9dea8a93          	addi	s5,s5,-1570 # 4164 <__sf_fake_stdout+0x20>
    278e:	4c05                	li	s8,1
    2790:	4b29                	li	s6,10
    2792:	844a                	mv	s0,s2
    2794:	00044783          	lbu	a5,0(s0)
    2798:	c399                	beqz	a5,279e <_vfiprintf_r+0x76>
    279a:	0f779063          	bne	a5,s7,287a <_vfiprintf_r+0x152>
    279e:	41240cb3          	sub	s9,s0,s2
    27a2:	000c8d63          	beqz	s9,27bc <_vfiprintf_r+0x94>
    27a6:	86e6                	mv	a3,s9
    27a8:	864a                	mv	a2,s2
    27aa:	85a6                	mv	a1,s1
    27ac:	854e                	mv	a0,s3
    27ae:	3f25                	jal	26e6 <__sfputs_r>
    27b0:	57fd                	li	a5,-1
    27b2:	1ef50863          	beq	a0,a5,29a2 <_vfiprintf_r+0x27a>
    27b6:	5692                	lw	a3,36(sp)
    27b8:	96e6                	add	a3,a3,s9
    27ba:	d236                	sw	a3,36(sp)
    27bc:	00044783          	lbu	a5,0(s0)
    27c0:	1e078163          	beqz	a5,29a2 <_vfiprintf_r+0x27a>
    27c4:	57fd                	li	a5,-1
    27c6:	00140913          	addi	s2,s0,1
    27ca:	c802                	sw	zero,16(sp)
    27cc:	ce02                	sw	zero,28(sp)
    27ce:	ca3e                	sw	a5,20(sp)
    27d0:	cc02                	sw	zero,24(sp)
    27d2:	040109a3          	sb	zero,83(sp)
    27d6:	d482                	sw	zero,104(sp)
    27d8:	00094583          	lbu	a1,0(s2)
    27dc:	4615                	li	a2,5
    27de:	8556                	mv	a0,s5
    27e0:	34b000ef          	jal	ra,332a <memchr>
    27e4:	00190413          	addi	s0,s2,1
    27e8:	47c2                	lw	a5,16(sp)
    27ea:	e951                	bnez	a0,287e <_vfiprintf_r+0x156>
    27ec:	0107f713          	andi	a4,a5,16
    27f0:	c709                	beqz	a4,27fa <_vfiprintf_r+0xd2>
    27f2:	02000713          	li	a4,32
    27f6:	04e109a3          	sb	a4,83(sp)
    27fa:	0087f713          	andi	a4,a5,8
    27fe:	c709                	beqz	a4,2808 <_vfiprintf_r+0xe0>
    2800:	02b00713          	li	a4,43
    2804:	04e109a3          	sb	a4,83(sp)
    2808:	00094683          	lbu	a3,0(s2)
    280c:	02a00713          	li	a4,42
    2810:	06e68f63          	beq	a3,a4,288e <_vfiprintf_r+0x166>
    2814:	47f2                	lw	a5,28(sp)
    2816:	844a                	mv	s0,s2
    2818:	4681                	li	a3,0
    281a:	4625                	li	a2,9
    281c:	00044703          	lbu	a4,0(s0)
    2820:	00140593          	addi	a1,s0,1
    2824:	fd070713          	addi	a4,a4,-48
    2828:	0ae67863          	bgeu	a2,a4,28d8 <_vfiprintf_r+0x1b0>
    282c:	caad                	beqz	a3,289e <_vfiprintf_r+0x176>
    282e:	ce3e                	sw	a5,28(sp)
    2830:	a0bd                	j	289e <_vfiprintf_r+0x176>
    2832:	00002797          	auipc	a5,0x2
    2836:	91278793          	addi	a5,a5,-1774 # 4144 <__sf_fake_stdout>
    283a:	00f49563          	bne	s1,a5,2844 <_vfiprintf_r+0x11c>
    283e:	0089a483          	lw	s1,8(s3)
    2842:	b705                	j	2762 <_vfiprintf_r+0x3a>
    2844:	00002797          	auipc	a5,0x2
    2848:	8c078793          	addi	a5,a5,-1856 # 4104 <__sf_fake_stderr>
    284c:	f0f49be3          	bne	s1,a5,2762 <_vfiprintf_r+0x3a>
    2850:	00c9a483          	lw	s1,12(s3)
    2854:	b739                	j	2762 <_vfiprintf_r+0x3a>
    2856:	85a6                	mv	a1,s1
    2858:	854e                	mv	a0,s3
    285a:	25f9                	jal	2f28 <__swsetup_r>
    285c:	d909                	beqz	a0,276e <_vfiprintf_r+0x46>
    285e:	557d                	li	a0,-1
    2860:	40fa                	lw	ra,156(sp)
    2862:	446a                	lw	s0,152(sp)
    2864:	44da                	lw	s1,148(sp)
    2866:	494a                	lw	s2,144(sp)
    2868:	49ba                	lw	s3,140(sp)
    286a:	4a2a                	lw	s4,136(sp)
    286c:	4a9a                	lw	s5,132(sp)
    286e:	4b0a                	lw	s6,128(sp)
    2870:	5bf6                	lw	s7,124(sp)
    2872:	5c66                	lw	s8,120(sp)
    2874:	5cd6                	lw	s9,116(sp)
    2876:	610d                	addi	sp,sp,160
    2878:	8082                	ret
    287a:	0405                	addi	s0,s0,1
    287c:	bf21                	j	2794 <_vfiprintf_r+0x6c>
    287e:	41550533          	sub	a0,a0,s5
    2882:	00ac1533          	sll	a0,s8,a0
    2886:	8fc9                	or	a5,a5,a0
    2888:	c83e                	sw	a5,16(sp)
    288a:	8922                	mv	s2,s0
    288c:	b7b1                	j	27d8 <_vfiprintf_r+0xb0>
    288e:	4732                	lw	a4,12(sp)
    2890:	00470693          	addi	a3,a4,4
    2894:	4318                	lw	a4,0(a4)
    2896:	c636                	sw	a3,12(sp)
    2898:	02074963          	bltz	a4,28ca <_vfiprintf_r+0x1a2>
    289c:	ce3a                	sw	a4,28(sp)
    289e:	00044703          	lbu	a4,0(s0)
    28a2:	02e00793          	li	a5,46
    28a6:	04f71f63          	bne	a4,a5,2904 <_vfiprintf_r+0x1dc>
    28aa:	00144703          	lbu	a4,1(s0)
    28ae:	02a00793          	li	a5,42
    28b2:	02f71b63          	bne	a4,a5,28e8 <_vfiprintf_r+0x1c0>
    28b6:	47b2                	lw	a5,12(sp)
    28b8:	0409                	addi	s0,s0,2
    28ba:	00478713          	addi	a4,a5,4
    28be:	439c                	lw	a5,0(a5)
    28c0:	c63a                	sw	a4,12(sp)
    28c2:	0207c163          	bltz	a5,28e4 <_vfiprintf_r+0x1bc>
    28c6:	ca3e                	sw	a5,20(sp)
    28c8:	a835                	j	2904 <_vfiprintf_r+0x1dc>
    28ca:	40e00733          	neg	a4,a4
    28ce:	0027e793          	ori	a5,a5,2
    28d2:	ce3a                	sw	a4,28(sp)
    28d4:	c83e                	sw	a5,16(sp)
    28d6:	b7e1                	j	289e <_vfiprintf_r+0x176>
    28d8:	036787b3          	mul	a5,a5,s6
    28dc:	4685                	li	a3,1
    28de:	842e                	mv	s0,a1
    28e0:	97ba                	add	a5,a5,a4
    28e2:	bf2d                	j	281c <_vfiprintf_r+0xf4>
    28e4:	57fd                	li	a5,-1
    28e6:	b7c5                	j	28c6 <_vfiprintf_r+0x19e>
    28e8:	0405                	addi	s0,s0,1
    28ea:	ca02                	sw	zero,20(sp)
    28ec:	4681                	li	a3,0
    28ee:	4781                	li	a5,0
    28f0:	4625                	li	a2,9
    28f2:	00044703          	lbu	a4,0(s0)
    28f6:	00140593          	addi	a1,s0,1
    28fa:	fd070713          	addi	a4,a4,-48
    28fe:	06e67863          	bgeu	a2,a4,296e <_vfiprintf_r+0x246>
    2902:	f2f1                	bnez	a3,28c6 <_vfiprintf_r+0x19e>
    2904:	00044583          	lbu	a1,0(s0)
    2908:	460d                	li	a2,3
    290a:	00002517          	auipc	a0,0x2
    290e:	86250513          	addi	a0,a0,-1950 # 416c <__sf_fake_stdout+0x28>
    2912:	219000ef          	jal	ra,332a <memchr>
    2916:	cd11                	beqz	a0,2932 <_vfiprintf_r+0x20a>
    2918:	00002797          	auipc	a5,0x2
    291c:	85478793          	addi	a5,a5,-1964 # 416c <__sf_fake_stdout+0x28>
    2920:	8d1d                	sub	a0,a0,a5
    2922:	04000793          	li	a5,64
    2926:	00a797b3          	sll	a5,a5,a0
    292a:	4542                	lw	a0,16(sp)
    292c:	0405                	addi	s0,s0,1
    292e:	8d5d                	or	a0,a0,a5
    2930:	c82a                	sw	a0,16(sp)
    2932:	00044583          	lbu	a1,0(s0)
    2936:	4619                	li	a2,6
    2938:	00002517          	auipc	a0,0x2
    293c:	83850513          	addi	a0,a0,-1992 # 4170 <__sf_fake_stdout+0x2c>
    2940:	00140913          	addi	s2,s0,1
    2944:	02b10423          	sb	a1,40(sp)
    2948:	1e3000ef          	jal	ra,332a <memchr>
    294c:	c13d                	beqz	a0,29b2 <_vfiprintf_r+0x28a>
    294e:	ffffd797          	auipc	a5,0xffffd
    2952:	6b278793          	addi	a5,a5,1714 # 0 <_sinit>
    2956:	e795                	bnez	a5,2982 <_vfiprintf_r+0x25a>
    2958:	4742                	lw	a4,16(sp)
    295a:	47b2                	lw	a5,12(sp)
    295c:	10077713          	andi	a4,a4,256
    2960:	cf09                	beqz	a4,297a <_vfiprintf_r+0x252>
    2962:	0791                	addi	a5,a5,4
    2964:	c63e                	sw	a5,12(sp)
    2966:	5792                	lw	a5,36(sp)
    2968:	97d2                	add	a5,a5,s4
    296a:	d23e                	sw	a5,36(sp)
    296c:	b51d                	j	2792 <_vfiprintf_r+0x6a>
    296e:	036787b3          	mul	a5,a5,s6
    2972:	4685                	li	a3,1
    2974:	842e                	mv	s0,a1
    2976:	97ba                	add	a5,a5,a4
    2978:	bfad                	j	28f2 <_vfiprintf_r+0x1ca>
    297a:	079d                	addi	a5,a5,7
    297c:	9be1                	andi	a5,a5,-8
    297e:	07a1                	addi	a5,a5,8
    2980:	b7d5                	j	2964 <_vfiprintf_r+0x23c>
    2982:	0078                	addi	a4,sp,12
    2984:	00000697          	auipc	a3,0x0
    2988:	d6268693          	addi	a3,a3,-670 # 26e6 <__sfputs_r>
    298c:	8626                	mv	a2,s1
    298e:	080c                	addi	a1,sp,16
    2990:	854e                	mv	a0,s3
    2992:	00000097          	auipc	ra,0x0
    2996:	000000e7          	jalr	zero # 0 <_sinit>
    299a:	57fd                	li	a5,-1
    299c:	8a2a                	mv	s4,a0
    299e:	fcf514e3          	bne	a0,a5,2966 <_vfiprintf_r+0x23e>
    29a2:	00c4d783          	lhu	a5,12(s1)
    29a6:	0407f793          	andi	a5,a5,64
    29aa:	ea079ae3          	bnez	a5,285e <_vfiprintf_r+0x136>
    29ae:	5512                	lw	a0,36(sp)
    29b0:	bd45                	j	2860 <_vfiprintf_r+0x138>
    29b2:	0078                	addi	a4,sp,12
    29b4:	00000697          	auipc	a3,0x0
    29b8:	d3268693          	addi	a3,a3,-718 # 26e6 <__sfputs_r>
    29bc:	8626                	mv	a2,s1
    29be:	080c                	addi	a1,sp,16
    29c0:	854e                	mv	a0,s3
    29c2:	2a01                	jal	2ad2 <_printf_i>
    29c4:	bfd9                	j	299a <_vfiprintf_r+0x272>

000029c6 <_printf_common>:
_printf_common():
    29c6:	7179                	addi	sp,sp,-48
    29c8:	ca56                	sw	s5,20(sp)
    29ca:	499c                	lw	a5,16(a1)
    29cc:	8aba                	mv	s5,a4
    29ce:	4598                	lw	a4,8(a1)
    29d0:	d422                	sw	s0,40(sp)
    29d2:	d226                	sw	s1,36(sp)
    29d4:	ce4e                	sw	s3,28(sp)
    29d6:	cc52                	sw	s4,24(sp)
    29d8:	d606                	sw	ra,44(sp)
    29da:	d04a                	sw	s2,32(sp)
    29dc:	c85a                	sw	s6,16(sp)
    29de:	c65e                	sw	s7,12(sp)
    29e0:	89aa                	mv	s3,a0
    29e2:	842e                	mv	s0,a1
    29e4:	84b2                	mv	s1,a2
    29e6:	8a36                	mv	s4,a3
    29e8:	00e7d363          	bge	a5,a4,29ee <_printf_common+0x28>
    29ec:	87ba                	mv	a5,a4
    29ee:	c09c                	sw	a5,0(s1)
    29f0:	04344703          	lbu	a4,67(s0)
    29f4:	c319                	beqz	a4,29fa <_printf_common+0x34>
    29f6:	0785                	addi	a5,a5,1
    29f8:	c09c                	sw	a5,0(s1)
    29fa:	401c                	lw	a5,0(s0)
    29fc:	0207f793          	andi	a5,a5,32
    2a00:	c781                	beqz	a5,2a08 <_printf_common+0x42>
    2a02:	409c                	lw	a5,0(s1)
    2a04:	0789                	addi	a5,a5,2
    2a06:	c09c                	sw	a5,0(s1)
    2a08:	00042903          	lw	s2,0(s0)
    2a0c:	00697913          	andi	s2,s2,6
    2a10:	00091a63          	bnez	s2,2a24 <_printf_common+0x5e>
    2a14:	01940b13          	addi	s6,s0,25
    2a18:	5bfd                	li	s7,-1
    2a1a:	445c                	lw	a5,12(s0)
    2a1c:	4098                	lw	a4,0(s1)
    2a1e:	8f99                	sub	a5,a5,a4
    2a20:	04f94c63          	blt	s2,a5,2a78 <_printf_common+0xb2>
    2a24:	401c                	lw	a5,0(s0)
    2a26:	04344683          	lbu	a3,67(s0)
    2a2a:	0207f793          	andi	a5,a5,32
    2a2e:	00d036b3          	snez	a3,a3
    2a32:	eba5                	bnez	a5,2aa2 <_printf_common+0xdc>
    2a34:	04340613          	addi	a2,s0,67
    2a38:	85d2                	mv	a1,s4
    2a3a:	854e                	mv	a0,s3
    2a3c:	9a82                	jalr	s5
    2a3e:	57fd                	li	a5,-1
    2a40:	04f50363          	beq	a0,a5,2a86 <_printf_common+0xc0>
    2a44:	401c                	lw	a5,0(s0)
    2a46:	4611                	li	a2,4
    2a48:	4098                	lw	a4,0(s1)
    2a4a:	8b99                	andi	a5,a5,6
    2a4c:	4454                	lw	a3,12(s0)
    2a4e:	4481                	li	s1,0
    2a50:	00c79763          	bne	a5,a2,2a5e <_printf_common+0x98>
    2a54:	40e684b3          	sub	s1,a3,a4
    2a58:	0004d363          	bgez	s1,2a5e <_printf_common+0x98>
    2a5c:	4481                	li	s1,0
    2a5e:	441c                	lw	a5,8(s0)
    2a60:	4818                	lw	a4,16(s0)
    2a62:	00f75463          	bge	a4,a5,2a6a <_printf_common+0xa4>
    2a66:	8f99                	sub	a5,a5,a4
    2a68:	94be                	add	s1,s1,a5
    2a6a:	4901                	li	s2,0
    2a6c:	0469                	addi	s0,s0,26
    2a6e:	5b7d                	li	s6,-1
    2a70:	05249863          	bne	s1,s2,2ac0 <_printf_common+0xfa>
    2a74:	4501                	li	a0,0
    2a76:	a809                	j	2a88 <_printf_common+0xc2>
    2a78:	4685                	li	a3,1
    2a7a:	865a                	mv	a2,s6
    2a7c:	85d2                	mv	a1,s4
    2a7e:	854e                	mv	a0,s3
    2a80:	9a82                	jalr	s5
    2a82:	01751e63          	bne	a0,s7,2a9e <_printf_common+0xd8>
    2a86:	557d                	li	a0,-1
    2a88:	50b2                	lw	ra,44(sp)
    2a8a:	5422                	lw	s0,40(sp)
    2a8c:	5492                	lw	s1,36(sp)
    2a8e:	5902                	lw	s2,32(sp)
    2a90:	49f2                	lw	s3,28(sp)
    2a92:	4a62                	lw	s4,24(sp)
    2a94:	4ad2                	lw	s5,20(sp)
    2a96:	4b42                	lw	s6,16(sp)
    2a98:	4bb2                	lw	s7,12(sp)
    2a9a:	6145                	addi	sp,sp,48
    2a9c:	8082                	ret
    2a9e:	0905                	addi	s2,s2,1
    2aa0:	bfad                	j	2a1a <_printf_common+0x54>
    2aa2:	00d40733          	add	a4,s0,a3
    2aa6:	03000613          	li	a2,48
    2aaa:	04c701a3          	sb	a2,67(a4)
    2aae:	04544703          	lbu	a4,69(s0)
    2ab2:	00168793          	addi	a5,a3,1
    2ab6:	97a2                	add	a5,a5,s0
    2ab8:	0689                	addi	a3,a3,2
    2aba:	04e781a3          	sb	a4,67(a5)
    2abe:	bf9d                	j	2a34 <_printf_common+0x6e>
    2ac0:	4685                	li	a3,1
    2ac2:	8622                	mv	a2,s0
    2ac4:	85d2                	mv	a1,s4
    2ac6:	854e                	mv	a0,s3
    2ac8:	9a82                	jalr	s5
    2aca:	fb650ee3          	beq	a0,s6,2a86 <_printf_common+0xc0>
    2ace:	0905                	addi	s2,s2,1
    2ad0:	b745                	j	2a70 <_printf_common+0xaa>

00002ad2 <_printf_i>:
_printf_i():
    2ad2:	7179                	addi	sp,sp,-48
    2ad4:	d422                	sw	s0,40(sp)
    2ad6:	d226                	sw	s1,36(sp)
    2ad8:	d04a                	sw	s2,32(sp)
    2ada:	ce4e                	sw	s3,28(sp)
    2adc:	d606                	sw	ra,44(sp)
    2ade:	cc52                	sw	s4,24(sp)
    2ae0:	ca56                	sw	s5,20(sp)
    2ae2:	c85a                	sw	s6,16(sp)
    2ae4:	89b6                	mv	s3,a3
    2ae6:	0185c683          	lbu	a3,24(a1)
    2aea:	06900793          	li	a5,105
    2aee:	8932                	mv	s2,a2
    2af0:	84aa                	mv	s1,a0
    2af2:	842e                	mv	s0,a1
    2af4:	04358613          	addi	a2,a1,67
    2af8:	02f68d63          	beq	a3,a5,2b32 <_printf_i+0x60>
    2afc:	06d7e263          	bltu	a5,a3,2b60 <_printf_i+0x8e>
    2b00:	05800793          	li	a5,88
    2b04:	18f68963          	beq	a3,a5,2c96 <_printf_i+0x1c4>
    2b08:	00d7ed63          	bltu	a5,a3,2b22 <_printf_i+0x50>
    2b0c:	22068263          	beqz	a3,2d30 <_printf_i+0x25e>
    2b10:	04300793          	li	a5,67
    2b14:	0af68f63          	beq	a3,a5,2bd2 <_printf_i+0x100>
    2b18:	04240a93          	addi	s5,s0,66
    2b1c:	04d40123          	sb	a3,66(s0)
    2b20:	a0d1                	j	2be4 <_printf_i+0x112>
    2b22:	06300793          	li	a5,99
    2b26:	0af68663          	beq	a3,a5,2bd2 <_printf_i+0x100>
    2b2a:	06400793          	li	a5,100
    2b2e:	fef695e3          	bne	a3,a5,2b18 <_printf_i+0x46>
    2b32:	401c                	lw	a5,0(s0)
    2b34:	4308                	lw	a0,0(a4)
    2b36:	0807f693          	andi	a3,a5,128
    2b3a:	00450593          	addi	a1,a0,4
    2b3e:	c6cd                	beqz	a3,2be8 <_printf_i+0x116>
    2b40:	411c                	lw	a5,0(a0)
    2b42:	c30c                	sw	a1,0(a4)
    2b44:	0007d863          	bgez	a5,2b54 <_printf_i+0x82>
    2b48:	02d00713          	li	a4,45
    2b4c:	40f007b3          	neg	a5,a5
    2b50:	04e401a3          	sb	a4,67(s0)
    2b54:	00001697          	auipc	a3,0x1
    2b58:	62468693          	addi	a3,a3,1572 # 4178 <__sf_fake_stdout+0x34>
    2b5c:	4729                	li	a4,10
    2b5e:	a875                	j	2c1a <_printf_i+0x148>
    2b60:	07000793          	li	a5,112
    2b64:	16f68563          	beq	a3,a5,2cce <_printf_i+0x1fc>
    2b68:	02d7e563          	bltu	a5,a3,2b92 <_printf_i+0xc0>
    2b6c:	06e00793          	li	a5,110
    2b70:	18f68c63          	beq	a3,a5,2d08 <_printf_i+0x236>
    2b74:	06f00793          	li	a5,111
    2b78:	faf690e3          	bne	a3,a5,2b18 <_printf_i+0x46>
    2b7c:	400c                	lw	a1,0(s0)
    2b7e:	431c                	lw	a5,0(a4)
    2b80:	0805f813          	andi	a6,a1,128
    2b84:	00478513          	addi	a0,a5,4
    2b88:	06080863          	beqz	a6,2bf8 <_printf_i+0x126>
    2b8c:	c308                	sw	a0,0(a4)
    2b8e:	439c                	lw	a5,0(a5)
    2b90:	a895                	j	2c04 <_printf_i+0x132>
    2b92:	07500793          	li	a5,117
    2b96:	fef683e3          	beq	a3,a5,2b7c <_printf_i+0xaa>
    2b9a:	07800793          	li	a5,120
    2b9e:	12f68c63          	beq	a3,a5,2cd6 <_printf_i+0x204>
    2ba2:	07300793          	li	a5,115
    2ba6:	f6f699e3          	bne	a3,a5,2b18 <_printf_i+0x46>
    2baa:	431c                	lw	a5,0(a4)
    2bac:	41d0                	lw	a2,4(a1)
    2bae:	4581                	li	a1,0
    2bb0:	00478693          	addi	a3,a5,4
    2bb4:	c314                	sw	a3,0(a4)
    2bb6:	0007aa83          	lw	s5,0(a5)
    2bba:	8556                	mv	a0,s5
    2bbc:	76e000ef          	jal	ra,332a <memchr>
    2bc0:	c501                	beqz	a0,2bc8 <_printf_i+0xf6>
    2bc2:	41550533          	sub	a0,a0,s5
    2bc6:	c048                	sw	a0,4(s0)
    2bc8:	405c                	lw	a5,4(s0)
    2bca:	c81c                	sw	a5,16(s0)
    2bcc:	040401a3          	sb	zero,67(s0)
    2bd0:	a871                	j	2c6c <_printf_i+0x19a>
    2bd2:	431c                	lw	a5,0(a4)
    2bd4:	04240a93          	addi	s5,s0,66
    2bd8:	00478693          	addi	a3,a5,4
    2bdc:	439c                	lw	a5,0(a5)
    2bde:	c314                	sw	a3,0(a4)
    2be0:	04f40123          	sb	a5,66(s0)
    2be4:	4785                	li	a5,1
    2be6:	b7d5                	j	2bca <_printf_i+0xf8>
    2be8:	0407f693          	andi	a3,a5,64
    2bec:	411c                	lw	a5,0(a0)
    2bee:	c30c                	sw	a1,0(a4)
    2bf0:	dab1                	beqz	a3,2b44 <_printf_i+0x72>
    2bf2:	07c2                	slli	a5,a5,0x10
    2bf4:	87c1                	srai	a5,a5,0x10
    2bf6:	b7b9                	j	2b44 <_printf_i+0x72>
    2bf8:	0405f593          	andi	a1,a1,64
    2bfc:	c308                	sw	a0,0(a4)
    2bfe:	d9c1                	beqz	a1,2b8e <_printf_i+0xbc>
    2c00:	0007d783          	lhu	a5,0(a5)
    2c04:	06f00713          	li	a4,111
    2c08:	0ee68863          	beq	a3,a4,2cf8 <_printf_i+0x226>
    2c0c:	00001697          	auipc	a3,0x1
    2c10:	56c68693          	addi	a3,a3,1388 # 4178 <__sf_fake_stdout+0x34>
    2c14:	4729                	li	a4,10
    2c16:	040401a3          	sb	zero,67(s0)
    2c1a:	404c                	lw	a1,4(s0)
    2c1c:	c40c                	sw	a1,8(s0)
    2c1e:	0005c563          	bltz	a1,2c28 <_printf_i+0x156>
    2c22:	4008                	lw	a0,0(s0)
    2c24:	996d                	andi	a0,a0,-5
    2c26:	c008                	sw	a0,0(s0)
    2c28:	e399                	bnez	a5,2c2e <_printf_i+0x15c>
    2c2a:	8ab2                	mv	s5,a2
    2c2c:	cd91                	beqz	a1,2c48 <_printf_i+0x176>
    2c2e:	8ab2                	mv	s5,a2
    2c30:	02e7f5b3          	remu	a1,a5,a4
    2c34:	1afd                	addi	s5,s5,-1
    2c36:	95b6                	add	a1,a1,a3
    2c38:	0005c583          	lbu	a1,0(a1)
    2c3c:	00ba8023          	sb	a1,0(s5)
    2c40:	02e7d5b3          	divu	a1,a5,a4
    2c44:	0ce7f063          	bgeu	a5,a4,2d04 <_printf_i+0x232>
    2c48:	47a1                	li	a5,8
    2c4a:	00f71e63          	bne	a4,a5,2c66 <_printf_i+0x194>
    2c4e:	401c                	lw	a5,0(s0)
    2c50:	8b85                	andi	a5,a5,1
    2c52:	cb91                	beqz	a5,2c66 <_printf_i+0x194>
    2c54:	4058                	lw	a4,4(s0)
    2c56:	481c                	lw	a5,16(s0)
    2c58:	00e7c763          	blt	a5,a4,2c66 <_printf_i+0x194>
    2c5c:	03000793          	li	a5,48
    2c60:	fefa8fa3          	sb	a5,-1(s5)
    2c64:	1afd                	addi	s5,s5,-1
    2c66:	41560633          	sub	a2,a2,s5
    2c6a:	c810                	sw	a2,16(s0)
    2c6c:	874e                	mv	a4,s3
    2c6e:	86ca                	mv	a3,s2
    2c70:	0070                	addi	a2,sp,12
    2c72:	85a2                	mv	a1,s0
    2c74:	8526                	mv	a0,s1
    2c76:	d51ff0ef          	jal	ra,29c6 <_printf_common>
    2c7a:	5a7d                	li	s4,-1
    2c7c:	0b451e63          	bne	a0,s4,2d38 <_printf_i+0x266>
    2c80:	557d                	li	a0,-1
    2c82:	50b2                	lw	ra,44(sp)
    2c84:	5422                	lw	s0,40(sp)
    2c86:	5492                	lw	s1,36(sp)
    2c88:	5902                	lw	s2,32(sp)
    2c8a:	49f2                	lw	s3,28(sp)
    2c8c:	4a62                	lw	s4,24(sp)
    2c8e:	4ad2                	lw	s5,20(sp)
    2c90:	4b42                	lw	s6,16(sp)
    2c92:	6145                	addi	sp,sp,48
    2c94:	8082                	ret
    2c96:	04d582a3          	sb	a3,69(a1)
    2c9a:	00001697          	auipc	a3,0x1
    2c9e:	4de68693          	addi	a3,a3,1246 # 4178 <__sf_fake_stdout+0x34>
    2ca2:	400c                	lw	a1,0(s0)
    2ca4:	4308                	lw	a0,0(a4)
    2ca6:	0805f813          	andi	a6,a1,128
    2caa:	411c                	lw	a5,0(a0)
    2cac:	0511                	addi	a0,a0,4
    2cae:	02080d63          	beqz	a6,2ce8 <_printf_i+0x216>
    2cb2:	c308                	sw	a0,0(a4)
    2cb4:	0015f713          	andi	a4,a1,1
    2cb8:	c701                	beqz	a4,2cc0 <_printf_i+0x1ee>
    2cba:	0205e593          	ori	a1,a1,32
    2cbe:	c00c                	sw	a1,0(s0)
    2cc0:	4741                	li	a4,16
    2cc2:	fbb1                	bnez	a5,2c16 <_printf_i+0x144>
    2cc4:	400c                	lw	a1,0(s0)
    2cc6:	fdf5f593          	andi	a1,a1,-33
    2cca:	c00c                	sw	a1,0(s0)
    2ccc:	b7a9                	j	2c16 <_printf_i+0x144>
    2cce:	419c                	lw	a5,0(a1)
    2cd0:	0207e793          	ori	a5,a5,32
    2cd4:	c19c                	sw	a5,0(a1)
    2cd6:	07800793          	li	a5,120
    2cda:	04f402a3          	sb	a5,69(s0)
    2cde:	00001697          	auipc	a3,0x1
    2ce2:	4ae68693          	addi	a3,a3,1198 # 418c <__sf_fake_stdout+0x48>
    2ce6:	bf75                	j	2ca2 <_printf_i+0x1d0>
    2ce8:	0405f813          	andi	a6,a1,64
    2cec:	c308                	sw	a0,0(a4)
    2cee:	fc0803e3          	beqz	a6,2cb4 <_printf_i+0x1e2>
    2cf2:	07c2                	slli	a5,a5,0x10
    2cf4:	83c1                	srli	a5,a5,0x10
    2cf6:	bf7d                	j	2cb4 <_printf_i+0x1e2>
    2cf8:	00001697          	auipc	a3,0x1
    2cfc:	48068693          	addi	a3,a3,1152 # 4178 <__sf_fake_stdout+0x34>
    2d00:	4721                	li	a4,8
    2d02:	bf11                	j	2c16 <_printf_i+0x144>
    2d04:	87ae                	mv	a5,a1
    2d06:	b72d                	j	2c30 <_printf_i+0x15e>
    2d08:	4194                	lw	a3,0(a1)
    2d0a:	431c                	lw	a5,0(a4)
    2d0c:	49cc                	lw	a1,20(a1)
    2d0e:	0806f813          	andi	a6,a3,128
    2d12:	00478513          	addi	a0,a5,4
    2d16:	00080663          	beqz	a6,2d22 <_printf_i+0x250>
    2d1a:	c308                	sw	a0,0(a4)
    2d1c:	439c                	lw	a5,0(a5)
    2d1e:	c38c                	sw	a1,0(a5)
    2d20:	a801                	j	2d30 <_printf_i+0x25e>
    2d22:	c308                	sw	a0,0(a4)
    2d24:	0406f693          	andi	a3,a3,64
    2d28:	439c                	lw	a5,0(a5)
    2d2a:	daf5                	beqz	a3,2d1e <_printf_i+0x24c>
    2d2c:	00b79023          	sh	a1,0(a5)
    2d30:	00042823          	sw	zero,16(s0)
    2d34:	8ab2                	mv	s5,a2
    2d36:	bf1d                	j	2c6c <_printf_i+0x19a>
    2d38:	4814                	lw	a3,16(s0)
    2d3a:	8656                	mv	a2,s5
    2d3c:	85ca                	mv	a1,s2
    2d3e:	8526                	mv	a0,s1
    2d40:	9982                	jalr	s3
    2d42:	f3450fe3          	beq	a0,s4,2c80 <_printf_i+0x1ae>
    2d46:	401c                	lw	a5,0(s0)
    2d48:	8b89                	andi	a5,a5,2
    2d4a:	e78d                	bnez	a5,2d74 <_printf_i+0x2a2>
    2d4c:	47b2                	lw	a5,12(sp)
    2d4e:	4448                	lw	a0,12(s0)
    2d50:	f2f559e3          	bge	a0,a5,2c82 <_printf_i+0x1b0>
    2d54:	853e                	mv	a0,a5
    2d56:	b735                	j	2c82 <_printf_i+0x1b0>
    2d58:	4685                	li	a3,1
    2d5a:	8656                	mv	a2,s5
    2d5c:	85ca                	mv	a1,s2
    2d5e:	8526                	mv	a0,s1
    2d60:	9982                	jalr	s3
    2d62:	f1650fe3          	beq	a0,s6,2c80 <_printf_i+0x1ae>
    2d66:	0a05                	addi	s4,s4,1
    2d68:	445c                	lw	a5,12(s0)
    2d6a:	4732                	lw	a4,12(sp)
    2d6c:	8f99                	sub	a5,a5,a4
    2d6e:	fefa45e3          	blt	s4,a5,2d58 <_printf_i+0x286>
    2d72:	bfe9                	j	2d4c <_printf_i+0x27a>
    2d74:	4a01                	li	s4,0
    2d76:	01940a93          	addi	s5,s0,25
    2d7a:	5b7d                	li	s6,-1
    2d7c:	b7f5                	j	2d68 <_printf_i+0x296>

00002d7e <__sread>:
__sread():
    2d7e:	1141                	addi	sp,sp,-16
    2d80:	c422                	sw	s0,8(sp)
    2d82:	842e                	mv	s0,a1
    2d84:	00e59583          	lh	a1,14(a1)
    2d88:	c606                	sw	ra,12(sp)
    2d8a:	2b6d                	jal	3344 <_read_r>
    2d8c:	00054963          	bltz	a0,2d9e <__sread+0x20>
    2d90:	487c                	lw	a5,84(s0)
    2d92:	97aa                	add	a5,a5,a0
    2d94:	c87c                	sw	a5,84(s0)
    2d96:	40b2                	lw	ra,12(sp)
    2d98:	4422                	lw	s0,8(sp)
    2d9a:	0141                	addi	sp,sp,16
    2d9c:	8082                	ret
    2d9e:	00c45783          	lhu	a5,12(s0)
    2da2:	777d                	lui	a4,0xfffff
    2da4:	177d                	addi	a4,a4,-1
    2da6:	8ff9                	and	a5,a5,a4
    2da8:	00f41623          	sh	a5,12(s0)
    2dac:	b7ed                	j	2d96 <__sread+0x18>

00002dae <__swrite>:
__swrite():
    2dae:	00c5d783          	lhu	a5,12(a1)
    2db2:	1101                	addi	sp,sp,-32
    2db4:	cc22                	sw	s0,24(sp)
    2db6:	ca26                	sw	s1,20(sp)
    2db8:	c84a                	sw	s2,16(sp)
    2dba:	c64e                	sw	s3,12(sp)
    2dbc:	ce06                	sw	ra,28(sp)
    2dbe:	1007f793          	andi	a5,a5,256
    2dc2:	84aa                	mv	s1,a0
    2dc4:	842e                	mv	s0,a1
    2dc6:	8932                	mv	s2,a2
    2dc8:	89b6                	mv	s3,a3
    2dca:	c791                	beqz	a5,2dd6 <__swrite+0x28>
    2dcc:	00e59583          	lh	a1,14(a1)
    2dd0:	4689                	li	a3,2
    2dd2:	4601                	li	a2,0
    2dd4:	2915                	jal	3208 <_lseek_r>
    2dd6:	00c45783          	lhu	a5,12(s0)
    2dda:	777d                	lui	a4,0xfffff
    2ddc:	177d                	addi	a4,a4,-1
    2dde:	8ff9                	and	a5,a5,a4
    2de0:	00f41623          	sh	a5,12(s0)
    2de4:	00e41583          	lh	a1,14(s0)
    2de8:	4462                	lw	s0,24(sp)
    2dea:	40f2                	lw	ra,28(sp)
    2dec:	86ce                	mv	a3,s3
    2dee:	864a                	mv	a2,s2
    2df0:	49b2                	lw	s3,12(sp)
    2df2:	4942                	lw	s2,16(sp)
    2df4:	8526                	mv	a0,s1
    2df6:	44d2                	lw	s1,20(sp)
    2df8:	6105                	addi	sp,sp,32
    2dfa:	a201                	j	2efa <_write_r>

00002dfc <__sseek>:
__sseek():
    2dfc:	1141                	addi	sp,sp,-16
    2dfe:	c422                	sw	s0,8(sp)
    2e00:	842e                	mv	s0,a1
    2e02:	00e59583          	lh	a1,14(a1)
    2e06:	c606                	sw	ra,12(sp)
    2e08:	2101                	jal	3208 <_lseek_r>
    2e0a:	57fd                	li	a5,-1
    2e0c:	00c45703          	lhu	a4,12(s0)
    2e10:	00f51b63          	bne	a0,a5,2e26 <__sseek+0x2a>
    2e14:	77fd                	lui	a5,0xfffff
    2e16:	17fd                	addi	a5,a5,-1
    2e18:	8ff9                	and	a5,a5,a4
    2e1a:	00f41623          	sh	a5,12(s0)
    2e1e:	40b2                	lw	ra,12(sp)
    2e20:	4422                	lw	s0,8(sp)
    2e22:	0141                	addi	sp,sp,16
    2e24:	8082                	ret
    2e26:	6785                	lui	a5,0x1
    2e28:	8fd9                	or	a5,a5,a4
    2e2a:	00f41623          	sh	a5,12(s0)
    2e2e:	c868                	sw	a0,84(s0)
    2e30:	b7fd                	j	2e1e <__sseek+0x22>

00002e32 <__sclose>:
__sclose():
    2e32:	00e59583          	lh	a1,14(a1)
    2e36:	a419                	j	303c <_close_r>

00002e38 <__swbuf_r>:
__swbuf_r():
    2e38:	1101                	addi	sp,sp,-32
    2e3a:	cc22                	sw	s0,24(sp)
    2e3c:	ca26                	sw	s1,20(sp)
    2e3e:	c84a                	sw	s2,16(sp)
    2e40:	ce06                	sw	ra,28(sp)
    2e42:	c64e                	sw	s3,12(sp)
    2e44:	84aa                	mv	s1,a0
    2e46:	892e                	mv	s2,a1
    2e48:	8432                	mv	s0,a2
    2e4a:	c509                	beqz	a0,2e54 <__swbuf_r+0x1c>
    2e4c:	4d1c                	lw	a5,24(a0)
    2e4e:	e399                	bnez	a5,2e54 <__swbuf_r+0x1c>
    2e50:	ef4ff0ef          	jal	ra,2544 <__sinit>
    2e54:	00001797          	auipc	a5,0x1
    2e58:	2d078793          	addi	a5,a5,720 # 4124 <__sf_fake_stdin>
    2e5c:	06f41963          	bne	s0,a5,2ece <__swbuf_r+0x96>
    2e60:	40c0                	lw	s0,4(s1)
    2e62:	4c1c                	lw	a5,24(s0)
    2e64:	c41c                	sw	a5,8(s0)
    2e66:	00c45783          	lhu	a5,12(s0)
    2e6a:	8ba1                	andi	a5,a5,8
    2e6c:	c3c9                	beqz	a5,2eee <__swbuf_r+0xb6>
    2e6e:	481c                	lw	a5,16(s0)
    2e70:	cfbd                	beqz	a5,2eee <__swbuf_r+0xb6>
    2e72:	481c                	lw	a5,16(s0)
    2e74:	4008                	lw	a0,0(s0)
    2e76:	0ff97993          	andi	s3,s2,255
    2e7a:	0ff97913          	andi	s2,s2,255
    2e7e:	8d1d                	sub	a0,a0,a5
    2e80:	485c                	lw	a5,20(s0)
    2e82:	00f54663          	blt	a0,a5,2e8e <__swbuf_r+0x56>
    2e86:	85a2                	mv	a1,s0
    2e88:	8526                	mv	a0,s1
    2e8a:	2e21                	jal	31a2 <_fflush_r>
    2e8c:	e52d                	bnez	a0,2ef6 <__swbuf_r+0xbe>
    2e8e:	441c                	lw	a5,8(s0)
    2e90:	0505                	addi	a0,a0,1
    2e92:	17fd                	addi	a5,a5,-1
    2e94:	c41c                	sw	a5,8(s0)
    2e96:	401c                	lw	a5,0(s0)
    2e98:	00178713          	addi	a4,a5,1
    2e9c:	c018                	sw	a4,0(s0)
    2e9e:	01378023          	sb	s3,0(a5)
    2ea2:	485c                	lw	a5,20(s0)
    2ea4:	00a78963          	beq	a5,a0,2eb6 <__swbuf_r+0x7e>
    2ea8:	00c45783          	lhu	a5,12(s0)
    2eac:	8b85                	andi	a5,a5,1
    2eae:	cb81                	beqz	a5,2ebe <__swbuf_r+0x86>
    2eb0:	47a9                	li	a5,10
    2eb2:	00f91663          	bne	s2,a5,2ebe <__swbuf_r+0x86>
    2eb6:	85a2                	mv	a1,s0
    2eb8:	8526                	mv	a0,s1
    2eba:	24e5                	jal	31a2 <_fflush_r>
    2ebc:	ed0d                	bnez	a0,2ef6 <__swbuf_r+0xbe>
    2ebe:	40f2                	lw	ra,28(sp)
    2ec0:	4462                	lw	s0,24(sp)
    2ec2:	854a                	mv	a0,s2
    2ec4:	44d2                	lw	s1,20(sp)
    2ec6:	4942                	lw	s2,16(sp)
    2ec8:	49b2                	lw	s3,12(sp)
    2eca:	6105                	addi	sp,sp,32
    2ecc:	8082                	ret
    2ece:	00001797          	auipc	a5,0x1
    2ed2:	27678793          	addi	a5,a5,630 # 4144 <__sf_fake_stdout>
    2ed6:	00f41463          	bne	s0,a5,2ede <__swbuf_r+0xa6>
    2eda:	4480                	lw	s0,8(s1)
    2edc:	b759                	j	2e62 <__swbuf_r+0x2a>
    2ede:	00001797          	auipc	a5,0x1
    2ee2:	22678793          	addi	a5,a5,550 # 4104 <__sf_fake_stderr>
    2ee6:	f6f41ee3          	bne	s0,a5,2e62 <__swbuf_r+0x2a>
    2eea:	44c0                	lw	s0,12(s1)
    2eec:	bf9d                	j	2e62 <__swbuf_r+0x2a>
    2eee:	85a2                	mv	a1,s0
    2ef0:	8526                	mv	a0,s1
    2ef2:	281d                	jal	2f28 <__swsetup_r>
    2ef4:	dd3d                	beqz	a0,2e72 <__swbuf_r+0x3a>
    2ef6:	597d                	li	s2,-1
    2ef8:	b7d9                	j	2ebe <__swbuf_r+0x86>

00002efa <_write_r>:
_write_r():
    2efa:	1141                	addi	sp,sp,-16
    2efc:	c422                	sw	s0,8(sp)
    2efe:	842a                	mv	s0,a0
    2f00:	852e                	mv	a0,a1
    2f02:	85b2                	mv	a1,a2
    2f04:	8636                	mv	a2,a3
    2f06:	8401a623          	sw	zero,-1972(gp) # 200040ac <errno>
    2f0a:	c606                	sw	ra,12(sp)
    2f0c:	ad8ff0ef          	jal	ra,21e4 <_write>
    2f10:	57fd                	li	a5,-1
    2f12:	00f51763          	bne	a0,a5,2f20 <_write_r+0x26>
    2f16:	84c18793          	addi	a5,gp,-1972 # 200040ac <errno>
    2f1a:	439c                	lw	a5,0(a5)
    2f1c:	c391                	beqz	a5,2f20 <_write_r+0x26>
    2f1e:	c01c                	sw	a5,0(s0)
    2f20:	40b2                	lw	ra,12(sp)
    2f22:	4422                	lw	s0,8(sp)
    2f24:	0141                	addi	sp,sp,16
    2f26:	8082                	ret

00002f28 <__swsetup_r>:
__swsetup_r():
    2f28:	1141                	addi	sp,sp,-16
    2f2a:	20001797          	auipc	a5,0x20001
    2f2e:	13a78793          	addi	a5,a5,314 # 20004064 <_impure_ptr>
    2f32:	c226                	sw	s1,4(sp)
    2f34:	4384                	lw	s1,0(a5)
    2f36:	c422                	sw	s0,8(sp)
    2f38:	c04a                	sw	s2,0(sp)
    2f3a:	c606                	sw	ra,12(sp)
    2f3c:	892a                	mv	s2,a0
    2f3e:	842e                	mv	s0,a1
    2f40:	c491                	beqz	s1,2f4c <__swsetup_r+0x24>
    2f42:	4c9c                	lw	a5,24(s1)
    2f44:	e781                	bnez	a5,2f4c <__swsetup_r+0x24>
    2f46:	8526                	mv	a0,s1
    2f48:	dfcff0ef          	jal	ra,2544 <__sinit>
    2f4c:	00001797          	auipc	a5,0x1
    2f50:	1d878793          	addi	a5,a5,472 # 4124 <__sf_fake_stdin>
    2f54:	02f41c63          	bne	s0,a5,2f8c <__swsetup_r+0x64>
    2f58:	40c0                	lw	s0,4(s1)
    2f5a:	00c41703          	lh	a4,12(s0)
    2f5e:	01071793          	slli	a5,a4,0x10
    2f62:	83c1                	srli	a5,a5,0x10
    2f64:	0087f693          	andi	a3,a5,8
    2f68:	eebd                	bnez	a3,2fe6 <__swsetup_r+0xbe>
    2f6a:	0107f693          	andi	a3,a5,16
    2f6e:	ee9d                	bnez	a3,2fac <__swsetup_r+0x84>
    2f70:	47a5                	li	a5,9
    2f72:	00f92023          	sw	a5,0(s2)
    2f76:	04076713          	ori	a4,a4,64
    2f7a:	00e41623          	sh	a4,12(s0)
    2f7e:	557d                	li	a0,-1
    2f80:	40b2                	lw	ra,12(sp)
    2f82:	4422                	lw	s0,8(sp)
    2f84:	4492                	lw	s1,4(sp)
    2f86:	4902                	lw	s2,0(sp)
    2f88:	0141                	addi	sp,sp,16
    2f8a:	8082                	ret
    2f8c:	00001797          	auipc	a5,0x1
    2f90:	1b878793          	addi	a5,a5,440 # 4144 <__sf_fake_stdout>
    2f94:	00f41463          	bne	s0,a5,2f9c <__swsetup_r+0x74>
    2f98:	4480                	lw	s0,8(s1)
    2f9a:	b7c1                	j	2f5a <__swsetup_r+0x32>
    2f9c:	00001797          	auipc	a5,0x1
    2fa0:	16878793          	addi	a5,a5,360 # 4104 <__sf_fake_stderr>
    2fa4:	faf41be3          	bne	s0,a5,2f5a <__swsetup_r+0x32>
    2fa8:	44c0                	lw	s0,12(s1)
    2faa:	bf45                	j	2f5a <__swsetup_r+0x32>
    2fac:	8b91                	andi	a5,a5,4
    2fae:	c795                	beqz	a5,2fda <__swsetup_r+0xb2>
    2fb0:	584c                	lw	a1,52(s0)
    2fb2:	c991                	beqz	a1,2fc6 <__swsetup_r+0x9e>
    2fb4:	04440793          	addi	a5,s0,68
    2fb8:	00f58563          	beq	a1,a5,2fc2 <__swsetup_r+0x9a>
    2fbc:	854a                	mv	a0,s2
    2fbe:	aeeff0ef          	jal	ra,22ac <_free_r>
    2fc2:	02042a23          	sw	zero,52(s0)
    2fc6:	00c45783          	lhu	a5,12(s0)
    2fca:	00042223          	sw	zero,4(s0)
    2fce:	fdb7f793          	andi	a5,a5,-37
    2fd2:	00f41623          	sh	a5,12(s0)
    2fd6:	481c                	lw	a5,16(s0)
    2fd8:	c01c                	sw	a5,0(s0)
    2fda:	00c45783          	lhu	a5,12(s0)
    2fde:	0087e793          	ori	a5,a5,8
    2fe2:	00f41623          	sh	a5,12(s0)
    2fe6:	481c                	lw	a5,16(s0)
    2fe8:	ef81                	bnez	a5,3000 <__swsetup_r+0xd8>
    2fea:	00c45783          	lhu	a5,12(s0)
    2fee:	20000713          	li	a4,512
    2ff2:	2807f793          	andi	a5,a5,640
    2ff6:	00e78563          	beq	a5,a4,3000 <__swsetup_r+0xd8>
    2ffa:	85a2                	mv	a1,s0
    2ffc:	854a                	mv	a0,s2
    2ffe:	2479                	jal	328c <__smakebuf_r>
    3000:	00c45783          	lhu	a5,12(s0)
    3004:	0017f713          	andi	a4,a5,1
    3008:	c705                	beqz	a4,3030 <__swsetup_r+0x108>
    300a:	485c                	lw	a5,20(s0)
    300c:	00042423          	sw	zero,8(s0)
    3010:	40f007b3          	neg	a5,a5
    3014:	cc1c                	sw	a5,24(s0)
    3016:	481c                	lw	a5,16(s0)
    3018:	4501                	li	a0,0
    301a:	f3bd                	bnez	a5,2f80 <__swsetup_r+0x58>
    301c:	00c41783          	lh	a5,12(s0)
    3020:	0807f713          	andi	a4,a5,128
    3024:	df31                	beqz	a4,2f80 <__swsetup_r+0x58>
    3026:	0407e793          	ori	a5,a5,64
    302a:	00f41623          	sh	a5,12(s0)
    302e:	bf81                	j	2f7e <__swsetup_r+0x56>
    3030:	8b89                	andi	a5,a5,2
    3032:	4701                	li	a4,0
    3034:	e391                	bnez	a5,3038 <__swsetup_r+0x110>
    3036:	4858                	lw	a4,20(s0)
    3038:	c418                	sw	a4,8(s0)
    303a:	bff1                	j	3016 <__swsetup_r+0xee>

0000303c <_close_r>:
_close_r():
    303c:	1141                	addi	sp,sp,-16
    303e:	c422                	sw	s0,8(sp)
    3040:	842a                	mv	s0,a0
    3042:	852e                	mv	a0,a1
    3044:	8401a623          	sw	zero,-1972(gp) # 200040ac <errno>
    3048:	c606                	sw	ra,12(sp)
    304a:	2ea5                	jal	33c2 <_close>
    304c:	57fd                	li	a5,-1
    304e:	00f51763          	bne	a0,a5,305c <_close_r+0x20>
    3052:	84c18793          	addi	a5,gp,-1972 # 200040ac <errno>
    3056:	439c                	lw	a5,0(a5)
    3058:	c391                	beqz	a5,305c <_close_r+0x20>
    305a:	c01c                	sw	a5,0(s0)
    305c:	40b2                	lw	ra,12(sp)
    305e:	4422                	lw	s0,8(sp)
    3060:	0141                	addi	sp,sp,16
    3062:	8082                	ret

00003064 <__sflush_r>:
__sflush_r():
    3064:	00c5d783          	lhu	a5,12(a1)
    3068:	1101                	addi	sp,sp,-32
    306a:	cc22                	sw	s0,24(sp)
    306c:	ca26                	sw	s1,20(sp)
    306e:	ce06                	sw	ra,28(sp)
    3070:	c84a                	sw	s2,16(sp)
    3072:	c64e                	sw	s3,12(sp)
    3074:	0087f713          	andi	a4,a5,8
    3078:	84aa                	mv	s1,a0
    307a:	842e                	mv	s0,a1
    307c:	ef79                	bnez	a4,315a <__sflush_r+0xf6>
    307e:	41d8                	lw	a4,4(a1)
    3080:	00e04d63          	bgtz	a4,309a <__sflush_r+0x36>
    3084:	41b8                	lw	a4,64(a1)
    3086:	00e04a63          	bgtz	a4,309a <__sflush_r+0x36>
    308a:	4501                	li	a0,0
    308c:	40f2                	lw	ra,28(sp)
    308e:	4462                	lw	s0,24(sp)
    3090:	44d2                	lw	s1,20(sp)
    3092:	4942                	lw	s2,16(sp)
    3094:	49b2                	lw	s3,12(sp)
    3096:	6105                	addi	sp,sp,32
    3098:	8082                	ret
    309a:	5458                	lw	a4,44(s0)
    309c:	d77d                	beqz	a4,308a <__sflush_r+0x26>
    309e:	0004a903          	lw	s2,0(s1)
    30a2:	01379693          	slli	a3,a5,0x13
    30a6:	0004a023          	sw	zero,0(s1)
    30aa:	0606de63          	bgez	a3,3126 <__sflush_r+0xc2>
    30ae:	4870                	lw	a2,84(s0)
    30b0:	00c45783          	lhu	a5,12(s0)
    30b4:	8b91                	andi	a5,a5,4
    30b6:	c799                	beqz	a5,30c4 <__sflush_r+0x60>
    30b8:	405c                	lw	a5,4(s0)
    30ba:	8e1d                	sub	a2,a2,a5
    30bc:	585c                	lw	a5,52(s0)
    30be:	c399                	beqz	a5,30c4 <__sflush_r+0x60>
    30c0:	403c                	lw	a5,64(s0)
    30c2:	8e1d                	sub	a2,a2,a5
    30c4:	545c                	lw	a5,44(s0)
    30c6:	500c                	lw	a1,32(s0)
    30c8:	4681                	li	a3,0
    30ca:	8526                	mv	a0,s1
    30cc:	9782                	jalr	a5
    30ce:	57fd                	li	a5,-1
    30d0:	00c45703          	lhu	a4,12(s0)
    30d4:	00f51d63          	bne	a0,a5,30ee <__sflush_r+0x8a>
    30d8:	4094                	lw	a3,0(s1)
    30da:	47f5                	li	a5,29
    30dc:	06d7e963          	bltu	a5,a3,314e <__sflush_r+0xea>
    30e0:	204007b7          	lui	a5,0x20400
    30e4:	0785                	addi	a5,a5,1
    30e6:	00d7d7b3          	srl	a5,a5,a3
    30ea:	8b85                	andi	a5,a5,1
    30ec:	c3ad                	beqz	a5,314e <__sflush_r+0xea>
    30ee:	481c                	lw	a5,16(s0)
    30f0:	00042223          	sw	zero,4(s0)
    30f4:	c01c                	sw	a5,0(s0)
    30f6:	01371793          	slli	a5,a4,0x13
    30fa:	0007d863          	bgez	a5,310a <__sflush_r+0xa6>
    30fe:	57fd                	li	a5,-1
    3100:	00f51463          	bne	a0,a5,3108 <__sflush_r+0xa4>
    3104:	409c                	lw	a5,0(s1)
    3106:	e391                	bnez	a5,310a <__sflush_r+0xa6>
    3108:	c868                	sw	a0,84(s0)
    310a:	584c                	lw	a1,52(s0)
    310c:	0124a023          	sw	s2,0(s1)
    3110:	ddad                	beqz	a1,308a <__sflush_r+0x26>
    3112:	04440793          	addi	a5,s0,68
    3116:	00f58563          	beq	a1,a5,3120 <__sflush_r+0xbc>
    311a:	8526                	mv	a0,s1
    311c:	990ff0ef          	jal	ra,22ac <_free_r>
    3120:	02042a23          	sw	zero,52(s0)
    3124:	b79d                	j	308a <__sflush_r+0x26>
    3126:	500c                	lw	a1,32(s0)
    3128:	4601                	li	a2,0
    312a:	4685                	li	a3,1
    312c:	8526                	mv	a0,s1
    312e:	9702                	jalr	a4
    3130:	57fd                	li	a5,-1
    3132:	862a                	mv	a2,a0
    3134:	f6f51ee3          	bne	a0,a5,30b0 <__sflush_r+0x4c>
    3138:	409c                	lw	a5,0(s1)
    313a:	dbbd                	beqz	a5,30b0 <__sflush_r+0x4c>
    313c:	4775                	li	a4,29
    313e:	00e78563          	beq	a5,a4,3148 <__sflush_r+0xe4>
    3142:	4759                	li	a4,22
    3144:	04e79463          	bne	a5,a4,318c <__sflush_r+0x128>
    3148:	0124a023          	sw	s2,0(s1)
    314c:	bf3d                	j	308a <__sflush_r+0x26>
    314e:	04076713          	ori	a4,a4,64
    3152:	00e41623          	sh	a4,12(s0)
    3156:	557d                	li	a0,-1
    3158:	bf15                	j	308c <__sflush_r+0x28>
    315a:	0105a983          	lw	s3,16(a1)
    315e:	f20986e3          	beqz	s3,308a <__sflush_r+0x26>
    3162:	0005a903          	lw	s2,0(a1)
    3166:	8b8d                	andi	a5,a5,3
    3168:	0135a023          	sw	s3,0(a1)
    316c:	41390933          	sub	s2,s2,s3
    3170:	4701                	li	a4,0
    3172:	e391                	bnez	a5,3176 <__sflush_r+0x112>
    3174:	49d8                	lw	a4,20(a1)
    3176:	c418                	sw	a4,8(s0)
    3178:	f12059e3          	blez	s2,308a <__sflush_r+0x26>
    317c:	541c                	lw	a5,40(s0)
    317e:	500c                	lw	a1,32(s0)
    3180:	86ca                	mv	a3,s2
    3182:	864e                	mv	a2,s3
    3184:	8526                	mv	a0,s1
    3186:	9782                	jalr	a5
    3188:	00a04963          	bgtz	a0,319a <__sflush_r+0x136>
    318c:	00c45783          	lhu	a5,12(s0)
    3190:	0407e793          	ori	a5,a5,64
    3194:	00f41623          	sh	a5,12(s0)
    3198:	bf7d                	j	3156 <__sflush_r+0xf2>
    319a:	99aa                	add	s3,s3,a0
    319c:	40a90933          	sub	s2,s2,a0
    31a0:	bfe1                	j	3178 <__sflush_r+0x114>

000031a2 <_fflush_r>:
_fflush_r():
    31a2:	499c                	lw	a5,16(a1)
    31a4:	c3a5                	beqz	a5,3204 <_fflush_r+0x62>
    31a6:	1101                	addi	sp,sp,-32
    31a8:	cc22                	sw	s0,24(sp)
    31aa:	ce06                	sw	ra,28(sp)
    31ac:	842a                	mv	s0,a0
    31ae:	c519                	beqz	a0,31bc <_fflush_r+0x1a>
    31b0:	4d1c                	lw	a5,24(a0)
    31b2:	e789                	bnez	a5,31bc <_fflush_r+0x1a>
    31b4:	c62e                	sw	a1,12(sp)
    31b6:	b8eff0ef          	jal	ra,2544 <__sinit>
    31ba:	45b2                	lw	a1,12(sp)
    31bc:	00001797          	auipc	a5,0x1
    31c0:	f6878793          	addi	a5,a5,-152 # 4124 <__sf_fake_stdin>
    31c4:	00f59b63          	bne	a1,a5,31da <_fflush_r+0x38>
    31c8:	404c                	lw	a1,4(s0)
    31ca:	00c59783          	lh	a5,12(a1)
    31ce:	c795                	beqz	a5,31fa <_fflush_r+0x58>
    31d0:	8522                	mv	a0,s0
    31d2:	4462                	lw	s0,24(sp)
    31d4:	40f2                	lw	ra,28(sp)
    31d6:	6105                	addi	sp,sp,32
    31d8:	b571                	j	3064 <__sflush_r>
    31da:	00001797          	auipc	a5,0x1
    31de:	f6a78793          	addi	a5,a5,-150 # 4144 <__sf_fake_stdout>
    31e2:	00f59463          	bne	a1,a5,31ea <_fflush_r+0x48>
    31e6:	440c                	lw	a1,8(s0)
    31e8:	b7cd                	j	31ca <_fflush_r+0x28>
    31ea:	00001797          	auipc	a5,0x1
    31ee:	f1a78793          	addi	a5,a5,-230 # 4104 <__sf_fake_stderr>
    31f2:	fcf59ce3          	bne	a1,a5,31ca <_fflush_r+0x28>
    31f6:	444c                	lw	a1,12(s0)
    31f8:	bfc9                	j	31ca <_fflush_r+0x28>
    31fa:	40f2                	lw	ra,28(sp)
    31fc:	4462                	lw	s0,24(sp)
    31fe:	4501                	li	a0,0
    3200:	6105                	addi	sp,sp,32
    3202:	8082                	ret
    3204:	4501                	li	a0,0
    3206:	8082                	ret

00003208 <_lseek_r>:
_lseek_r():
    3208:	1141                	addi	sp,sp,-16
    320a:	c422                	sw	s0,8(sp)
    320c:	842a                	mv	s0,a0
    320e:	852e                	mv	a0,a1
    3210:	85b2                	mv	a1,a2
    3212:	8636                	mv	a2,a3
    3214:	8401a623          	sw	zero,-1972(gp) # 200040ac <errno>
    3218:	c606                	sw	ra,12(sp)
    321a:	22f1                	jal	33e6 <_lseek>
    321c:	57fd                	li	a5,-1
    321e:	00f51763          	bne	a0,a5,322c <_lseek_r+0x24>
    3222:	84c18793          	addi	a5,gp,-1972 # 200040ac <errno>
    3226:	439c                	lw	a5,0(a5)
    3228:	c391                	beqz	a5,322c <_lseek_r+0x24>
    322a:	c01c                	sw	a5,0(s0)
    322c:	40b2                	lw	ra,12(sp)
    322e:	4422                	lw	s0,8(sp)
    3230:	0141                	addi	sp,sp,16
    3232:	8082                	ret

00003234 <__swhatbuf_r>:
__swhatbuf_r():
    3234:	7119                	addi	sp,sp,-128
    3236:	daa6                	sw	s1,116(sp)
    3238:	84ae                	mv	s1,a1
    323a:	00e59583          	lh	a1,14(a1)
    323e:	dca2                	sw	s0,120(sp)
    3240:	de86                	sw	ra,124(sp)
    3242:	8432                	mv	s0,a2
    3244:	0005dc63          	bgez	a1,325c <__swhatbuf_r+0x28>
    3248:	00c4d783          	lhu	a5,12(s1)
    324c:	0006a023          	sw	zero,0(a3)
    3250:	0807f793          	andi	a5,a5,128
    3254:	e39d                	bnez	a5,327a <__swhatbuf_r+0x46>
    3256:	40000793          	li	a5,1024
    325a:	a015                	j	327e <__swhatbuf_r+0x4a>
    325c:	0830                	addi	a2,sp,24
    325e:	c636                	sw	a3,12(sp)
    3260:	2a01                	jal	3370 <_fstat_r>
    3262:	46b2                	lw	a3,12(sp)
    3264:	fe0542e3          	bltz	a0,3248 <__swhatbuf_r+0x14>
    3268:	4772                	lw	a4,28(sp)
    326a:	67bd                	lui	a5,0xf
    326c:	8ff9                	and	a5,a5,a4
    326e:	7779                	lui	a4,0xffffe
    3270:	97ba                	add	a5,a5,a4
    3272:	0017b793          	seqz	a5,a5
    3276:	c29c                	sw	a5,0(a3)
    3278:	bff9                	j	3256 <__swhatbuf_r+0x22>
    327a:	04000793          	li	a5,64
    327e:	c01c                	sw	a5,0(s0)
    3280:	50f6                	lw	ra,124(sp)
    3282:	5466                	lw	s0,120(sp)
    3284:	54d6                	lw	s1,116(sp)
    3286:	4501                	li	a0,0
    3288:	6109                	addi	sp,sp,128
    328a:	8082                	ret

0000328c <__smakebuf_r>:
__smakebuf_r():
    328c:	00c5d783          	lhu	a5,12(a1)
    3290:	1101                	addi	sp,sp,-32
    3292:	cc22                	sw	s0,24(sp)
    3294:	ce06                	sw	ra,28(sp)
    3296:	ca26                	sw	s1,20(sp)
    3298:	c84a                	sw	s2,16(sp)
    329a:	8b89                	andi	a5,a5,2
    329c:	842e                	mv	s0,a1
    329e:	cf89                	beqz	a5,32b8 <__smakebuf_r+0x2c>
    32a0:	04740793          	addi	a5,s0,71
    32a4:	c01c                	sw	a5,0(s0)
    32a6:	c81c                	sw	a5,16(s0)
    32a8:	4785                	li	a5,1
    32aa:	c85c                	sw	a5,20(s0)
    32ac:	40f2                	lw	ra,28(sp)
    32ae:	4462                	lw	s0,24(sp)
    32b0:	44d2                	lw	s1,20(sp)
    32b2:	4942                	lw	s2,16(sp)
    32b4:	6105                	addi	sp,sp,32
    32b6:	8082                	ret
    32b8:	0074                	addi	a3,sp,12
    32ba:	0030                	addi	a2,sp,8
    32bc:	84aa                	mv	s1,a0
    32be:	3f9d                	jal	3234 <__swhatbuf_r>
    32c0:	45a2                	lw	a1,8(sp)
    32c2:	892a                	mv	s2,a0
    32c4:	8526                	mv	a0,s1
    32c6:	88aff0ef          	jal	ra,2350 <_malloc_r>
    32ca:	ed01                	bnez	a0,32e2 <__smakebuf_r+0x56>
    32cc:	00c41783          	lh	a5,12(s0)
    32d0:	2007f713          	andi	a4,a5,512
    32d4:	ff61                	bnez	a4,32ac <__smakebuf_r+0x20>
    32d6:	9bf1                	andi	a5,a5,-4
    32d8:	0027e793          	ori	a5,a5,2
    32dc:	00f41623          	sh	a5,12(s0)
    32e0:	b7c1                	j	32a0 <__smakebuf_r+0x14>
    32e2:	fffff797          	auipc	a5,0xfffff
    32e6:	21278793          	addi	a5,a5,530 # 24f4 <_cleanup_r>
    32ea:	d49c                	sw	a5,40(s1)
    32ec:	00c45783          	lhu	a5,12(s0)
    32f0:	c008                	sw	a0,0(s0)
    32f2:	c808                	sw	a0,16(s0)
    32f4:	0807e793          	ori	a5,a5,128
    32f8:	00f41623          	sh	a5,12(s0)
    32fc:	47a2                	lw	a5,8(sp)
    32fe:	c85c                	sw	a5,20(s0)
    3300:	47b2                	lw	a5,12(sp)
    3302:	cf89                	beqz	a5,331c <__smakebuf_r+0x90>
    3304:	00e41583          	lh	a1,14(s0)
    3308:	8526                	mv	a0,s1
    330a:	2841                	jal	339a <_isatty_r>
    330c:	c901                	beqz	a0,331c <__smakebuf_r+0x90>
    330e:	00c45783          	lhu	a5,12(s0)
    3312:	9bf1                	andi	a5,a5,-4
    3314:	0017e793          	ori	a5,a5,1
    3318:	00f41623          	sh	a5,12(s0)
    331c:	00c45783          	lhu	a5,12(s0)
    3320:	00f96933          	or	s2,s2,a5
    3324:	01241623          	sh	s2,12(s0)
    3328:	b751                	j	32ac <__smakebuf_r+0x20>

0000332a <memchr>:
memchr():
    332a:	0ff5f593          	andi	a1,a1,255
    332e:	962a                	add	a2,a2,a0
    3330:	00c51463          	bne	a0,a2,3338 <memchr+0xe>
    3334:	4501                	li	a0,0
    3336:	8082                	ret
    3338:	00054783          	lbu	a5,0(a0)
    333c:	feb78de3          	beq	a5,a1,3336 <memchr+0xc>
    3340:	0505                	addi	a0,a0,1
    3342:	b7fd                	j	3330 <memchr+0x6>

00003344 <_read_r>:
_read_r():
    3344:	1141                	addi	sp,sp,-16
    3346:	c422                	sw	s0,8(sp)
    3348:	842a                	mv	s0,a0
    334a:	852e                	mv	a0,a1
    334c:	85b2                	mv	a1,a2
    334e:	8636                	mv	a2,a3
    3350:	8401a623          	sw	zero,-1972(gp) # 200040ac <errno>
    3354:	c606                	sw	ra,12(sp)
    3356:	2871                	jal	33f2 <_read>
    3358:	57fd                	li	a5,-1
    335a:	00f51763          	bne	a0,a5,3368 <_read_r+0x24>
    335e:	84c18793          	addi	a5,gp,-1972 # 200040ac <errno>
    3362:	439c                	lw	a5,0(a5)
    3364:	c391                	beqz	a5,3368 <_read_r+0x24>
    3366:	c01c                	sw	a5,0(s0)
    3368:	40b2                	lw	ra,12(sp)
    336a:	4422                	lw	s0,8(sp)
    336c:	0141                	addi	sp,sp,16
    336e:	8082                	ret

00003370 <_fstat_r>:
_fstat_r():
    3370:	1141                	addi	sp,sp,-16
    3372:	c422                	sw	s0,8(sp)
    3374:	842a                	mv	s0,a0
    3376:	852e                	mv	a0,a1
    3378:	85b2                	mv	a1,a2
    337a:	8401a623          	sw	zero,-1972(gp) # 200040ac <errno>
    337e:	c606                	sw	ra,12(sp)
    3380:	20b9                	jal	33ce <_fstat>
    3382:	57fd                	li	a5,-1
    3384:	00f51763          	bne	a0,a5,3392 <_fstat_r+0x22>
    3388:	84c18793          	addi	a5,gp,-1972 # 200040ac <errno>
    338c:	439c                	lw	a5,0(a5)
    338e:	c391                	beqz	a5,3392 <_fstat_r+0x22>
    3390:	c01c                	sw	a5,0(s0)
    3392:	40b2                	lw	ra,12(sp)
    3394:	4422                	lw	s0,8(sp)
    3396:	0141                	addi	sp,sp,16
    3398:	8082                	ret

0000339a <_isatty_r>:
_isatty_r():
    339a:	1141                	addi	sp,sp,-16
    339c:	c422                	sw	s0,8(sp)
    339e:	842a                	mv	s0,a0
    33a0:	852e                	mv	a0,a1
    33a2:	8401a623          	sw	zero,-1972(gp) # 200040ac <errno>
    33a6:	c606                	sw	ra,12(sp)
    33a8:	280d                	jal	33da <_isatty>
    33aa:	57fd                	li	a5,-1
    33ac:	00f51763          	bne	a0,a5,33ba <_isatty_r+0x20>
    33b0:	84c18793          	addi	a5,gp,-1972 # 200040ac <errno>
    33b4:	439c                	lw	a5,0(a5)
    33b6:	c391                	beqz	a5,33ba <_isatty_r+0x20>
    33b8:	c01c                	sw	a5,0(s0)
    33ba:	40b2                	lw	ra,12(sp)
    33bc:	4422                	lw	s0,8(sp)
    33be:	0141                	addi	sp,sp,16
    33c0:	8082                	ret

000033c2 <_close>:
_close():
    33c2:	05800793          	li	a5,88
    33c6:	84f1a623          	sw	a5,-1972(gp) # 200040ac <errno>
    33ca:	557d                	li	a0,-1
    33cc:	8082                	ret

000033ce <_fstat>:
_fstat():
    33ce:	05800793          	li	a5,88
    33d2:	84f1a623          	sw	a5,-1972(gp) # 200040ac <errno>
    33d6:	557d                	li	a0,-1
    33d8:	8082                	ret

000033da <_isatty>:
_isatty():
    33da:	05800793          	li	a5,88
    33de:	84f1a623          	sw	a5,-1972(gp) # 200040ac <errno>
    33e2:	4501                	li	a0,0
    33e4:	8082                	ret

000033e6 <_lseek>:
_lseek():
    33e6:	05800793          	li	a5,88
    33ea:	84f1a623          	sw	a5,-1972(gp) # 200040ac <errno>
    33ee:	557d                	li	a0,-1
    33f0:	8082                	ret

000033f2 <_read>:
_read():
    33f2:	05800793          	li	a5,88
    33f6:	84f1a623          	sw	a5,-1972(gp) # 200040ac <errno>
    33fa:	557d                	li	a0,-1
    33fc:	8082                	ret
	...

00003400 <ascii_12x6>:
	...
    340c:	0000 00fc 0000 0000 0002 0000 0c00 0c02     ................
    341c:	0002 0000 0000 0000 d090 d0bc 90bc 0300     ................
    342c:	0300 0000 2418 44fe 008c 0203 0207 0001     .....$.D........
    343c:	2418 b0d8 804c 0300 0100 0102 38c0 38e4     .$..L........8.8
    344c:	00e0 0201 0102 0202 0608 0000 0000 0000     ................
    345c:	0000 0000 0000 f800 0204 0000 0100 0402     ................
    346c:	0200 f804 0000 0400 0102 0000 6090 60f8     .............`.`
    347c:	0090 0000 0001 0000 2020 20fc 0020 0000     ........  .  ...
    348c:	0001 0000 0000 0000 0000 0608 0000 0000     ................
    349c:	2020 2020 0020 0000 0000 0000 0000 0000          ...........
    34ac:	0000 0200 0000 0000 8000 1c60 0002 0304     ..........`.....
    34bc:	0000 0000 04f8 0404 00f8 0201 0202 0001     ................
    34cc:	0800 00fc 0000 0200 0203 0000 8418 2444     ..............D$
    34dc:	0018 0203 0202 0002 0408 2424 00d8 0201     ..........$$....
    34ec:	0202 0001 b040 fc88 0080 0000 0300 0002     ....@...........
    34fc:	243c 2424 00c4 0201 0202 0001 24f8 2c24     <$$$.........$$,
    350c:	00c0 0201 0202 0001 040c 1ce4 0004 0000     ................
    351c:	0003 0000 24d8 2424 00d8 0201 0202 0001     .....$$$........
    352c:	4438 4444 00f8 0300 0202 0001 0000 0010     8DDD............
    353c:	0000 0000 0002 0000 0000 0020 0000 0000     .......... .....
    354c:	0006 0000 2000 8850 0204 0000 0000 0201     ..... P.........
    355c:	9090 9090 0090 0000 0000 0000 0200 8804     ................
    356c:	2050 0200 0001 0000 0418 24c4 0018 0000     P .........$....
    357c:	0002 0000 04f8 94e4 00f8 0201 0202 0002     ................
    358c:	e000 f09c 0080 0302 0000 0203 fc04 2424     ..............$$
    359c:	00d8 0302 0202 0001 04f8 0404 000c 0201     ................
    35ac:	0202 0001 fc04 0404 00f8 0302 0202 0001     ................
    35bc:	fc04 7424 000c 0302 0202 0003 fc04 7424     ..$t..........$t
    35cc:	000c 0302 0002 0000 08f0 4404 40cc 0100     ...........D.@..
    35dc:	0202 0001 fc04 2020 04fc 0302 0000 0203     ......  ........
    35ec:	0404 04fc 0004 0202 0203 0002 0400 fc04     ................
    35fc:	0404 0406 0304 0000 fc04 d024 040c 0302     ..........$.....
    360c:	0002 0203 fc04 0004 0000 0302 0202 0302     ................
    361c:	3cfc 3cc0 00fc 0003 0003 0003 fc04 c430     .<.<..........0.
    362c:	04fc 0302 0002 0003 04f8 0404 00f8 0201     ................
    363c:	0202 0001 fc04 2424 0018 0302 0002 0000     ......$$........
    364c:	84f8 0484 00f8 0201 0702 0005 fc04 6424     ..............$d
    365c:	0098 0302 0002 0203 2418 4424 008c 0203     .........$$D....
    366c:	0202 0001 040c 04fc 000c 0200 0203 0000     ................
    367c:	fc04 0000 04fc 0100 0202 0001 7c04 e080     .............|..
    368c:	041c 0000 0003 0000 e01c e03c 001c 0300     ..........<.....
    369c:	0300 0000 9c04 9c60 0004 0302 0300 0002     ......`.........
    36ac:	1c04 1ce0 0004 0200 0203 0000 840c 1c64     ..............d.
    36bc:	0004 0302 0202 0003 0000 02fe 0002 0000     ................
    36cc:	0407 0004 0e00 c030 0000 0000 0100 0002     ......0.........
    36dc:	0200 fe02 0000 0400 0704 0000 0400 0402     ................
	...
    36f8:	0000 0808 0808 0808 0000 0002 0000 0000     ................
    3708:	0000 0000 4000 a0a0 00c0 0100 0202 0203     .....@..........
    3718:	fc04 2020 00c0 0300 0202 0001 c000 2020     ..  ..........  
    3728:	0060 0100 0202 0002 c000 2420 00fc 0100     `......... $....
    3738:	0202 0203 c000 a0a0 00c0 0100 0202 0002     ................
    3748:	2000 24f8 0424 0200 0203 0002 4000 a0a0     . .$$........@..
    3758:	2060 0700 0a0a 040a fc04 2020 00c0 0302     ` ........  ....
    3768:	0002 0203 2000 00e4 0000 0200 0203 0000     ..... ..........
    3778:	0000 e420 0000 0808 0708 0000 fc04 e080     .. .............
    3788:	2020 0302 0002 0203 0404 00fc 0000 0202       ..............
    3798:	0203 0002 20e0 20e0 00c0 0003 0003 0003     ..... . ........
    37a8:	e020 2020 00c0 0302 0002 0203 c000 2020      .  ..........  
    37b8:	00c0 0100 0202 0001 e020 2020 00c0 0f08     ........ .  ....
    37c8:	020a 0001 c000 2020 00e0 0100 0a02 080f     ......  ........
    37d8:	e020 2040 0020 0302 0002 0000 6000 a0a0      .@  ........`..
    37e8:	0020 0200 0202 0003 2000 20f8 0000 0000      ........ . ....
    37f8:	0201 0002 e020 2000 00e0 0100 0202 0203     .... .. ........
    3808:	e020 8020 2060 0000 0103 0000 8060 80e0      . .` ......`...
    3818:	0060 0300 0300 0000 6020 6080 0020 0302     `....... `.` ...
    3828:	0300 0002 e020 8020 2060 0808 0107 0000     .... . .` ......
    3838:	2000 60a0 0020 0200 0203 0002 0000 de20     . .` ......... .
    3848:	0002 0000 0700 0004 0000 ff00 0000 0000     ................
    3858:	0f00 0000 0200 20de 0000 0400 0007 0000     ....... ........
    3868:	0102 0402 0204 0000 0000 0000               ............

00003874 <ascii_16x8>:
	...
    3884:	0000 0800 0808 0808 0808 0000 1818 0000     ................
    3894:	4800 246c 0012 0000 0000 0000 0000 0000     .Hl$............
    38a4:	0000 2400 2424 127f 1212 127f 1212 0000     ...$$$..........
    38b4:	0000 1c08 2a2a 0c0a 2818 2a28 1c2a 0808     ....**...((**...
    38c4:	0000 2200 1525 1515 582a 5454 2254 0000     ..."%...*XTTT"..
    38d4:	0000 0c00 1212 0a12 2576 1129 6e91 0000     ........v%)..n..
    38e4:	0600 0406 0003 0000 0000 0000 0000 0000     ................
    38f4:	4000 1020 0810 0808 0808 1008 2010 0040     .@ .......... @.
    3904:	0200 0804 1008 1010 1010 0810 0408 0002     ................
    3914:	0000 0000 0808 1c6b 6b1c 0808 0000 0000     ......k..k......
    3924:	0000 0000 0808 0808 087f 0808 0008 0000     ................
	...
    3940:	0606 0304 0000 0000 0000 0000 00fe 0000     ................
	...
    3960:	0606 0000 0000 4080 2040 1020 0810 0408     .......@@  .....
    3970:	0204 0002 0000 1800 4224 4242 4242 4242     ........$BBBBBBB
    3980:	1824 0000 0000 0800 080e 0808 0808 0808     $...............
    3990:	3e08 0000 0000 3c00 4242 2042 1020 0408     .>.....<BBB  ...
    39a0:	7e42 0000 0000 3c00 4242 1820 4020 4240     B~.....<BB . @@B
    39b0:	1c22 0000 0000 2000 2830 2424 2222 207e     "...... 0($$""~ 
    39c0:	7820 0000 0000 7e00 0202 1a02 4026 4240      x.....~....&@@B
    39d0:	1c22 0000 0000 3800 0224 1a02 4226 4242     "......8$...&BBB
    39e0:	1824 0000 0000 7e00 2222 1010 0808 0808     $......~""......
    39f0:	0808 0000 0000 3c00 4242 2442 2418 4242     .......<BBB$.$BB
    3a00:	3c42 0000 0000 1800 4224 4242 5864 4040     B<......$BBBdX@@
    3a10:	1c24 0000 0000 0000 0000 1818 0000 0000     $...............
    3a20:	1818 0000 0000 0000 0000 0800 0000 0000     ................
    3a30:	0800 0408 0000 4000 1020 0408 0402 1008     .......@ .......
    3a40:	4020 0000 0000 0000 0000 007f 0000 007f      @..............
    3a50:	0000 0000 0000 0200 0804 2010 2040 0810     ........... @ ..
    3a60:	0204 0000 0000 3c00 4242 4046 1020 0010     .......<BBF@ ...
    3a70:	1818 0000 0000 1c00 5a22 5555 5555 422d     ........"ZUUUU-B
    3a80:	1c22 0000 0000 0800 1808 1414 3c24 4222     "...........$<"B
    3a90:	e742 0000 0000 1f00 2222 1e22 4222 4242     B......."""."BBB
    3aa0:	1f22 0000 0000 7c00 4242 0101 0101 4201     "......|BB.....B
    3ab0:	1c22 0000 0000 1f00 4222 4242 4242 4242     "......."BBBBBBB
    3ac0:	1f22 0000 0000 3f00 1242 1e12 1212 4202     "......?B......B
    3ad0:	3f42 0000 0000 3f00 1242 1e12 1212 0202     B?.....?B.......
    3ae0:	0702 0000 0000 3c00 2222 0101 7101 2221     .......<""...q!"
    3af0:	1c22 0000 0000 e700 4242 4242 427e 4242     ".......BBBB~BBB
    3b00:	e742 0000 0000 3e00 0808 0808 0808 0808     B......>........
    3b10:	3e08 0000 0000 7c00 1010 1010 1010 1010     .>.....|........
    3b20:	1010 0f11 0000 7700 1222 0e0a 120a 2212     .......w"......"
    3b30:	7722 0000 0000 0700 0202 0202 0202 0202     "w..............
    3b40:	7f42 0000 0000 7700 3636 3636 2a2a 2a2a     B......w6666****
    3b50:	6b2a 0000 0000 e300 4646 4a4a 5252 6252     *k......FFJJRRRb
    3b60:	4762 0000 0000 1c00 4122 4141 4141 4141     bG......"AAAAAAA
    3b70:	1c22 0000 0000 3f00 4242 4242 023e 0202     "......?BBBB>...
    3b80:	0702 0000 0000 1c00 4122 4141 4141 534d     ........"AAAAAMS
    3b90:	1c32 0060 0000 3f00 4242 3e42 1212 2222     2.`....?BBB>..""
    3ba0:	c742 0000 0000 7c00 4242 0402 2018 4240     B......|BB... @B
    3bb0:	3e42 0000 0000 7f00 0849 0808 0808 0808     B>......I.......
    3bc0:	1c08 0000 0000 e700 4242 4242 4242 4242     ........BBBBBBBB
    3bd0:	3c42 0000 0000 e700 4242 2422 1424 1814     B<......BB"$$...
    3be0:	0808 0000 0000 6b00 4949 4949 5555 2236     .......kIIIIUU6"
    3bf0:	2222 0000 0000 e700 2442 1824 1818 2424     ""......B$$...$$
    3c00:	e742 0000 0000 7700 2222 1414 0808 0808     B......w""......
    3c10:	1c08 0000 0000 7e00 2021 1010 0408 4204     .......~! .....B
    3c20:	3f42 0000 7800 0808 0808 0808 0808 0808     B?...x..........
    3c30:	0808 0078 0000 0202 0404 0808 1008 2010     ..x............ 
    3c40:	2020 4040 1e00 1010 1010 1010 1010 1010       @@............
    3c50:	1010 001e 3800 0044 0000 0000 0000 0000     .....8D.........
	...
    3c70:	0000 ff00 0600 0008 0000 0000 0000 0000     ................
	...
    3c88:	0000 3c00 7842 4244 fc42 0000 0000 0300     ...<BxDBB.......
    3c98:	0202 1a02 4226 4242 1a26 0000 0000 0000     ....&BBB&.......
    3ca8:	0000 3800 0244 0202 3844 0000 0000 6000     ...8D...D8.....`
    3cb8:	4040 7840 4244 4242 d864 0000 0000 0000     @@@xDBBBd.......
    3cc8:	0000 3c00 7e42 0202 3c42 0000 0000 f000     ...<B~..B<......
    3cd8:	0888 7e08 0808 0808 3e08 0000 0000 0000     ...~.....>......
    3ce8:	0000 7c00 2222 021c 423c 3c42 0000 0300     ...|""..<BB<....
    3cf8:	0202 3a02 4246 4242 e742 0000 0000 0c00     ...:FBBBB.......
    3d08:	000c 0e00 0808 0808 3e08 0000 0000 3000     .........>.....0
    3d18:	0030 3800 2020 2020 2020 1e22 0000 0300     0..8      ".....
    3d28:	0202 7202 0a12 1216 7722 0000 0000 0e00     ...r...."w......
    3d38:	0808 0808 0808 0808 3e08 0000 0000 0000     .........>......
    3d48:	0000 7f00 9292 9292 b792 0000 0000 0000     ................
    3d58:	0000 3b00 4246 4242 e742 0000 0000 0000     ...;FBBBB.......
    3d68:	0000 3c00 4242 4242 3c42 0000 0000 0000     ...<BBBBB<......
    3d78:	0000 1b00 4226 4242 1e22 0702 0000 0000     ....&BBB".......
    3d88:	0000 7800 4244 4242 7844 e040 0000 0000     ...xDBBBDx@.....
    3d98:	0000 7700 044c 0404 1f04 0000 0000 0000     ...wL...........
    3da8:	0000 7c00 0242 403c 3e42 0000 0000 0000     ...|B.<@B>......
    3db8:	0800 3e08 0808 0808 3008 0000 0000 0000     ...>.....0......
    3dc8:	0000 6300 4242 4242 dc62 0000 0000 0000     ...cBBBBb.......
    3dd8:	0000 e700 2442 1424 0808 0000 0000 0000     ....B$$.........
    3de8:	0000 eb00 4949 5555 2222 0000 0000 0000     ....IIUU""......
    3df8:	0000 7600 1824 1818 6e24 0000 0000 0000     ...v$...$n......
    3e08:	0000 e700 2442 1424 0818 0708 0000 0000     ....B$$.........
    3e18:	0000 7e00 1022 0808 7e44 0000 c000 2020     ...~"...D~....  
    3e28:	2020 1020 2020 2020 2020 00c0 1010 1010        .      ......
    3e38:	1010 1010 1010 1010 1010 1010 0600 0808     ................
    3e48:	0808 1008 0808 0808 0808 0006 320c 00c2     .............2..
	...

00003e64 <ascii_8x6>:
	...
    3e6c:	2f00 0000 0000 0007 0007 1400 147f 147f     ./..............
    3e7c:	2400 7f2a 122a 6200 0864 2313 3600 5549     .$*.*..bd..#.6IU
    3e8c:	5022 0000 0305 0000 0000 221c 0041 0000     "P........."A...
    3e9c:	2241 001c 1400 3e08 1408 0800 3e08 0808     A".....>.....>..
    3eac:	0000 a000 0060 0800 0808 0808 0000 6060     ....`.........``
    3ebc:	0000 2000 0810 0204 3e00 4951 3e45 0000     ... .....>QIE>..
    3ecc:	7f42 0040 4200 5161 4649 2100 4541 314b     B.@..BaQIF.!AEK1
    3edc:	1800 1214 107f 2700 4545 3945 3c00 494a     .......'EEE9.<JI
    3eec:	3049 0100 0971 0305 3600 4949 3649 0600     I0..q....6III6..
    3efc:	4949 1e29 0000 3636 0000 0000 3656 0000     II)...66....V6..
    3f0c:	0800 2214 0041 1400 1414 1414 0000 2241     ..."A.........A"
    3f1c:	0814 0200 5101 0609 3200 5949 3e51 7c00     .....Q...2IYQ>.|
    3f2c:	1112 7c12 7f00 4949 3649 3e00 4141 2241     ...|..III6.>AAA"
    3f3c:	7f00 4141 1c22 7f00 4949 4149 7f00 0909     ..AA"...IIIA....
    3f4c:	0109 3e00 4941 7a49 7f00 0808 7f08 0000     ...>AIIz........
    3f5c:	7f41 0041 2000 4140 013f 7f00 1408 4122     A.A.. @A?....."A
    3f6c:	7f00 4040 4040 7f00 0c02 7f02 7f00 0804     ..@@@@..........
    3f7c:	7f10 3e00 4141 3e41 7f00 0909 0609 3e00     ...>AAA>.......>
    3f8c:	5141 5e21 7f00 1909 4629 4600 4949 3149     AQ!^....)F.FIII1
    3f9c:	0100 7f01 0101 3f00 4040 3f40 1f00 4020     .......?@@@?.. @
    3fac:	1f20 3f00 3840 3f40 6300 0814 6314 0700      ..?@8@?.c...c..
    3fbc:	7008 0708 6100 4951 4345 0000 417f 0041     .p...aQIEC...AA.
    3fcc:	5500 552a 552a 0000 4141 007f 0400 0102     .U*U*U..AA......
    3fdc:	0402 4000 4040 4040 0000 0201 0004 2000     ...@@@@@....... 
    3fec:	5454 7854 7f00 4448 3844 3800 4444 2044     TTTx..HDD8.8DDD 
    3ffc:	3800 4444 7f48 3800 5454 1854 0800 097e     .8DDH..8TTT...~.
    400c:	0201 1800 a4a4 7ca4 7f00 0408 7804 0000     .......|.....x..
    401c:	7d44 0040 4000 8480 007d 7f00 2810 0044     D}@..@..}....(D.
    402c:	0000 7f41 0040 7c00 1804 7804 7c00 0408     ..A.@..|...x.|..
    403c:	7804 3800 4444 3844 fc00 2424 1824 1800     .x.8DDD8..$$$...
    404c:	2424 fc18 7c00 0408 0804 4800 5454 2054     $$...|.....HTTT 
    405c:	0400 443f 2040 3c00 4040 7c20 1c00 4020     ..?D@ .<@@ |.. @
    406c:	1c20 3c00 3040 3c40 4400 1028 4428 1c00      ..<@0@<.D(.(D..
    407c:	a0a0 7ca0 4400 5464 444c 1414 1414 1414     ...|.DdTLD......
    408c:	7453 7261 2074 4340 6968 4970 3d44 3025     Start @ChipID=%0
    409c:	5832 000a 6f6e 2077 5453 3737 3938 3376     2X..now ST7789v3
    40ac:	0000 0000 6f6e 2077 5453 3737 3533 0053     ....now ST7735S.
    40bc:	6548 6c6c 206f 6f57 6c72 2164 6f66 746e     Hello World!font
    40cc:	3120 0036 6f6c 706f 2520 0a64 0000 0000      16.loop %d.....
    40dc:	df10 ffff df38 ffff df60 ffff df78 ffff     ....8...`...x...
    40ec:	df92 ffff dfa2 ffff dfca ffff dff2 ffff     ................
    40fc:	e00a ffff e024 ffff                         ....$...

00004104 <__sf_fake_stderr>:
	...

00004124 <__sf_fake_stdin>:
	...

00004144 <__sf_fake_stdout>:
	...
    4164:	2d23 2b30 0020 0000 6c68 004c 6665 4567     #-0+ ...hlL.efgE
    4174:	4746 0000 3130 3332 3534 3736 3938 4241     FG..0123456789AB
    4184:	4443 4645 0000 0000 3130 3332 3534 3736     CDEF....01234567
    4194:	3938 6261 6463 6665 0000 0000               89abcdef....

000041a0 <afont12x6>:
    41a0:	060c 0000 3400 0000                         .....4..

000041a8 <afont16x8>:
    41a8:	0810 0000 3874 0000                         ....t8..

000041b0 <afont8x6>:
    41b0:	0608 0000 3e64 0000                         ....d>..

000041b8 <_global_impure_ptr>:
    41b8:	4000 2000                                   .@. 
