
LaserRangeFinder.elf:     file format elf32-littleriscv
LaserRangeFinder.elf
architecture: riscv:rv32, flags 0x00000112:
EXEC_P, HAS_SYMS, D_PAGED
start address 0x00000000

Program Header:
    LOAD off    0x00001000 vaddr 0x00000000 paddr 0x00000000 align 2**12
         filesz 0x00000004 memsz 0x00000004 flags r-x
    LOAD off    0x00001800 vaddr 0x20003800 paddr 0x00000004 align 2**12
         filesz 0x00000718 memsz 0x00000718 flags r-x
    LOAD off    0x0000271c vaddr 0x0000071c paddr 0x0000071c align 2**12
         filesz 0x00003244 memsz 0x00003244 flags r-x
    LOAD off    0x00005f18 vaddr 0x20003f18 paddr 0x00003960 align 2**12
         filesz 0x00000000 memsz 0x000000e8 flags rw-
    LOAD off    0x00006000 vaddr 0x20004000 paddr 0x00003960 align 2**12
         filesz 0x00000068 memsz 0x000000b0 flags rw-
    LOAD off    0x00006e00 vaddr 0x20007e00 paddr 0x20007e00 align 2**12
         filesz 0x00000000 memsz 0x00000200 flags rw-

Sections:
Idx Name            Size      VMA       LMA       File off  Algn  Flags
  0 .init           00000004  00000000  00000000  00001000  2**1  CONTENTS, ALLOC, LOAD, READONLY, CODE
  1 .highcodelalign 00000000  00000004  00000004  00006068  2**0  CONTENTS
  2 .highcode       00000718  20003800  00000004  00001800  2**1  CONTENTS, ALLOC, LOAD, READONLY, CODE
  3 .text           00003244  0000071c  0000071c  0000271c  2**2  CONTENTS, ALLOC, LOAD, READONLY, CODE
  4 .fini           00000000  00003960  00003960  00006068  2**0  CONTENTS, ALLOC, LOAD, CODE
  5 .dalign         000000e8  20003f18  00003960  00005f18  2**0  ALLOC
  6 .dlalign        00000000  00003960  00003960  00006068  2**0  CONTENTS
  7 .data           00000068  20004000  00003960  00006000  2**2  CONTENTS, ALLOC, LOAD, DATA
  8 .bss            00000048  20004068  000039c8  00006068  2**2  ALLOC
  9 .stack          00000200  20007e00  20007e00  00006e00  2**0  ALLOC
 10 .debug_info     0000f93a  00000000  00000000  00006068  2**0  CONTENTS, READONLY, DEBUGGING
 11 .debug_abbrev   00002489  00000000  00000000  000159a2  2**0  CONTENTS, READONLY, DEBUGGING
 12 .debug_loc      000049c6  00000000  00000000  00017e2b  2**0  CONTENTS, READONLY, DEBUGGING
 13 .debug_aranges  000004a0  00000000  00000000  0001c7f8  2**3  CONTENTS, READONLY, DEBUGGING
 14 .debug_ranges   00000748  00000000  00000000  0001cc98  2**3  CONTENTS, READONLY, DEBUGGING
 15 .debug_line     0000883e  00000000  00000000  0001d3e0  2**0  CONTENTS, READONLY, DEBUGGING
 16 .debug_str      00001b83  00000000  00000000  00025c1e  2**0  CONTENTS, READONLY, DEBUGGING
 17 .comment        00000033  00000000  00000000  000277a1  2**0  CONTENTS, READONLY
 18 .debug_frame    00001874  00000000  00000000  000277d4  2**2  CONTENTS, READONLY, DEBUGGING
 19 .stab           00000084  00000000  00000000  00029048  2**2  CONTENTS, READONLY, DEBUGGING
 20 .stabstr        00000117  00000000  00000000  000290cc  2**0  CONTENTS, READONLY, DEBUGGING
SYMBOL TABLE:
00000000 l    d  .init	00000000 .init
00000004 l    d  .highcodelalign	00000000 .highcodelalign
20003800 l    d  .highcode	00000000 .highcode
0000071c l    d  .text	00000000 .text
00003960 l    d  .fini	00000000 .fini
20003f18 l    d  .dalign	00000000 .dalign
00003960 l    d  .dlalign	00000000 .dlalign
20004000 l    d  .data	00000000 .data
20004068 l    d  .bss	00000000 .bss
20007e00 l    d  .stack	00000000 .stack
00000000 l    d  .debug_info	00000000 .debug_info
00000000 l    d  .debug_abbrev	00000000 .debug_abbrev
00000000 l    d  .debug_loc	00000000 .debug_loc
00000000 l    d  .debug_aranges	00000000 .debug_aranges
00000000 l    d  .debug_ranges	00000000 .debug_ranges
00000000 l    d  .debug_line	00000000 .debug_line
00000000 l    d  .debug_str	00000000 .debug_str
00000000 l    d  .comment	00000000 .comment
00000000 l    d  .debug_frame	00000000 .debug_frame
00000000 l    d  .stab	00000000 .stab
00000000 l    d  .stabstr	00000000 .stabstr
00000000 l    df *ABS*	00000000 ./Startup/startup_CH573.o
20003800 l       .highcode	00000000 _vector_base
00000000 l    df *ABS*	00000000 Main.c
00000000 l    df *ABS*	00000000 CH57x_sys.c
20004060 l     O .data	00000004 curbrk.3772
00000000 l    df *ABS*	00000000 ISP573.c
20003b2c l       .highcode	00000000 .loop17
20003b3a l       .highcode	00000000 .loop28
20003b48 l       .highcode	00000000 .loop39
20003dd6 l       .highcode	00000000 .loop406
00000000 l    df *ABS*	00000000 TFT_CAD.c
00000000 l    df *ABS*	00000000 TFT_init.c
000008f8 l     F .text	00000042 TFT_Set_Direction
00000000 l    df *ABS*	00000000 TFT_io.c
00000b64 l     F .text	00000014 TFT_Wait_DMA_Transfer_Complete
20004068 l     O .bss	00000004 g_tft_handles
00000000 l    df *ABS*	00000000 TFT_text.c
00000000 l    df *ABS*	00000000 M01LaserRangeFinder.c
000037b8 l     O .text	00000009 DISABLE_LASER
000037c4 l     O .text	00000009 ENABLE_LASER
00003954 l     O .text	00000005 ReadModuleStatus
00000000 l    df *ABS*	00000000 CH57x_gpio.c
00000000 l    df *ABS*	00000000 CH57x_spi0.c
00000000 l    df *ABS*	00000000 CH57x_uart0.c
00000000 l    df *ABS*	00000000 CH57x_uart1.c
00000000 l    df *ABS*	00000000 malloc.c
00000000 l    df *ABS*	00000000 nano-mallocr.c
00000000 l    df *ABS*	00000000 nano-mallocr.c
00000000 l    df *ABS*	00000000 printf.c
00000000 l    df *ABS*	00000000 putchar.c
00000000 l    df *ABS*	00000000 puts.c
00000000 l    df *ABS*	00000000 sbrkr.c
00000000 l    df *ABS*	00000000 wbuf.c
00000000 l    df *ABS*	00000000 wsetup.c
00000000 l    df *ABS*	00000000 fflush.c
00000000 l    df *ABS*	00000000 findfp.c
00001eac l     F .text	0000006a std
00000000 l    df *ABS*	00000000 fwalk.c
00000000 l    df *ABS*	00000000 makebuf.c
00000000 l    df *ABS*	00000000 mlock.c
00000000 l    df *ABS*	00000000 nano-vfprintf.c
000021dc l     F .text	0000002a __sfputc_r
00000000 l    df *ABS*	00000000 nano-vfprintf_i.c
00000000 l    df *ABS*	00000000 putc.c
00000000 l    df *ABS*	00000000 stdio.c
00000000 l    df *ABS*	00000000 writer.c
00000000 l    df *ABS*	00000000 closer.c
00000000 l    df *ABS*	00000000 fstatr.c
00000000 l    df *ABS*	00000000 isattyr.c
00000000 l    df *ABS*	00000000 lseekr.c
00000000 l    df *ABS*	00000000 memchr.c
00000000 l    df *ABS*	00000000 readr.c
00000000 l    df *ABS*	00000000 close.c
00000000 l    df *ABS*	00000000 fstat.c
00000000 l    df *ABS*	00000000 isatty.c
00000000 l    df *ABS*	00000000 lseek.c
00000000 l    df *ABS*	00000000 read.c
00000000 l    df *ABS*	00000000 font.c
00000000 l    df *ABS*	00000000 impure.c
20004000 l     O .data	00000060 impure_data
00000000 l    df *ABS*	00000000 reent.c
000011b0 g     F .text	00000038 M01LRF_ReadModuleStatus
000019f8 g     F .text	0000002e putchar
00002a56 g     F .text	00000028 _isatty_r
00001a26 g     F .text	000000da _puts_r
00002a7e g     F .text	0000002c _lseek_r
20003b48 g     F .highcode	0000000e FLASH_ROM_OUT
00000bb2 g     F .text	0000000e TFT_Config_Display
000019b4 g     F .text	00000044 printf
20004860 g       .data	00000000 __global_pointer$
0000179e g     F .text	0000002a UART0_RecvString
00000b9c g     F .text	00000016 TFT_Config_Pins
0000299a g     F .text	00000036 __sseek
00001f68 g     F .text	0000006a __sinit
00001b38 g     F .text	000000c0 __swbuf_r
20003ae6 g     F .highcode	0000000e mDelayuS
20003aa0  w    F .highcode	00000046 HardFault_Handler
00001f20 g     F .text	00000048 __sfmoreglue
200038bc g     F .highcode	00000090 GPIOB_IRQHandler
000021da g     F .text	00000002 __malloc_unlock
00001714 g     F .text	00000030 UART0_BaudRateCfg
00001776 g     F .text	00000028 UART0_SendString
2000389a  w      .highcode	00000000 GPIOA_IRQHandler
20003894  w      .highcode	00000000 SysTick_Handler
20003890  w      .highcode	00000000 NMI_Handler
200038ac  w      .highcode	00000000 UART1_IRQHandler
00002a2c g     F .text	0000002a _fstat_r
200040ac g     O .bss	00000004 errno
20004068 g       .bss	00000000 _sbss
00000200 g       *ABS*	00000000 __stack_size
00000e8e g     F .text	0000003a TFT_Write_Command
20003b3a g     F .highcode	0000000e FLASH_ROM_IN
200038aa  w      .highcode	00000000 UART0_IRQHandler
00000d5a g     F .text	0000005c TFT_Buffer_Write16
00001f16 g     F .text	0000000a _cleanup_r
00001b00 g     F .text	0000000e puts
0000182a g     F .text	0000000e malloc
00002afc g     F .text	0000000c _fstat
00000004 g       .init	00000000 _einit
00001156 g     F .text	0000005a M01LRF_ReceiveRawdata
200038a0  w      .highcode	00000000 BB_IRQHandler
20003bd6 g     F .highcode	00000340 FLASH_EEPROM_CMD
000014c8 g     F .text	000000a6 GPIOB_ModeCfg
00001b0e g     F .text	0000002a _sbrk_r
0000162a g     F .text	00000050 SPI0_MasterDMATrans
20003898  w      .highcode	00000000 TMR0_IRQHandler
00002ac4 g     F .text	0000002c _read_r
00000b78 g     F .text	00000024 TFT_Init_Instance
0000393c g     O .text	00000008 afont12x6
20003b1c g     F .highcode	00000010 FLASH_ROM_BEG
0000156e g     F .text	0000008a GPIOB_ITModeCfg
000011f4 g     F .text	0000000c M01LRF_SendDisableCommand
20003af4 g     F .highcode	00000028 mDelaymS
20007e00 g       .stack	00000000 _heap_end
000015f8 g     F .text	00000032 SPI0_MasterDefInit
00002b08 g     F .text	0000000c _isatty
0000395c g     O .text	00000004 _global_impure_ptr
20003b56 g     F .highcode	00000048 FLASH_ROM_ADDR
000016e4 g     F .text	00000030 _sbrk
2000406c g     O .bss	00000004 SPI0
20004078 g     O .bss	00000034 htft1
0000088e g     F .text	0000006a TFT_Fill_Area
200038ae  w      .highcode	00000000 RTC_IRQHandler
200040b0 g       .bss	00000000 _ebss
000017f8 g     F .text	00000032 UART1_DefInit
20003b9e g     F .highcode	00000038 FLASH_ROM_WAIT
00002896 g     F .text	00000086 _putc_r
000038a0 g     O .text	00000020 __sf_fake_stderr
200038b6  w      .highcode	00000000 UART2_IRQHandler
00003944 g     O .text	00000008 afont16x8
200038b2  w      .highcode	00000000 PWMX_IRQHandler
00002206 g     F .text	00000042 __sfputs_r
00002aaa g     F .text	0000001a memchr
00001838 g     F .text	000000a8 _free_r
0000394c g     O .text	00000008 afont8x6
00000000 g       .init	00000000 _start
00002b14 g     F .text	0000000c _lseek
00000f82 g     F .text	0000013c TFT_Show_Char
00000c40 g     F .text	00000040 TFT_Pin_CS_Set
200038b0  w      .highcode	00000000 ADC_IRQHandler
20003800 g       .highcode	00000000 _highcode_vma_start
00000db6 g     F .text	00000008 TFT_Reset_Buffer
200038a8  w      .highcode	00000000 TMR2_IRQHandler
00003590 g     O .text	00000228 ascii_8x6
00001744 g     F .text	00000032 UART0_DefInit
00002a04 g     F .text	00000028 _close_r
20004000 g       .data	00000000 _data_vma
00000d34 g     F .text	00000026 TFT_Flush_Buffer
2000394c g     F .highcode	00000118 SetSysClock
200038a4  w      .highcode	00000000 USB_IRQHandler
00001bf8 g     F .text	00000112 __swsetup_r
000011e8 g     F .text	0000000c M01LRF_SendEnableCommand
00001fd2 g     F .text	000000a0 __sfp
0000291c g     F .text	00000030 __sread
00000e16 g     F .text	00000038 TFT_Write_Data8
000021d8 g     F .text	00000002 __malloc_lock
00001e48 g     F .text	00000064 _fflush_r
000038c0 g     O .text	00000020 __sf_fake_stdin
000007e6 g     F .text	000000a8 memset
00001200 g     F .text	00000222 main
000029d0 g     F .text	00000006 __sclose
000018e0 g     F .text	000000d4 _malloc_r
000010be g     F .text	00000098 TFT_Show_String
0000093a g     F .text	0000022a TFT_Init_ST7789v3
00000004 g       .highcodelalign	00000000 _highcode_lma
00000bc0 g     F .text	00000040 TFT_Pin_RES_Set
000019b4 g     F .text	00000044 iprintf
200038a2  w      .highcode	00000000 LLE_IRQHandler
00000000 g       .init	00000000 _sinit
000029d6 g     F .text	0000002e _write_r
00002b2c g     O .text	00000474 ascii_12x6
000024e2 g     F .text	0000010c _printf_common
20004064 g     O .data	00000004 _impure_ptr
00001d0a g     F .text	0000013e __sflush_r
00000e4e g     F .text	00000040 TFT_Write_Data16
200038ba  w      .highcode	00000000 WDOG_BAT_IRQHandler
200038b4  w      .highcode	00000000 TMR3_IRQHandler
00000dbe g     F .text	00000058 TFT_IO_Init
20008000 g       .stack	00000000 _eusrstack
20003896  w      .highcode	00000000 SW_Handler
00001422 g     F .text	000000a6 GPIOA_ModeCfg
000020de g     F .text	0000005a __swhatbuf_r
0000167a g     F .text	00000042 GetSysClock
000016bc g     F .text	00000028 _write
20004068 g       .data	00000000 _edata
2000389e  w      .highcode	00000000 SPI0_IRQHandler
200040b0 g       .bss	00000000 _end
20003f18 g       .highcode	00000000 _highcode_vma_end
00003960 g       .dlalign	00000000 _data_lma
00002fa0 g     O .text	000005f0 ascii_16x8
0000294c g     F .text	0000004e __swrite
00002248 g     F .text	0000029a _vfiprintf_r
00002072 g     F .text	0000006c _fwalk_reent
00000ec8 g     F .text	000000ba TFT_Set_Address
000038e0 g     O .text	00000020 __sf_fake_stdout
00002b20 g     F .text	0000000c _read
0000071c  w      .text	00000000 handle_reset
00002138 g     F .text	000000a0 __smakebuf_r
000025ee g     F .text	000002a8 _printf_i
00000cc0 g     F .text	00000074 TFT_SPI_Send
200038b8  w      .highcode	00000000 UART3_IRQHandler
20004074 g     O .bss	00000004 __malloc_sbrk_start
20003b2c g     F .highcode	0000000e FLASH_ROM_END
20004070 g     O .bss	00000004 __malloc_free_list
00002248 g     F .text	0000029a _vfprintf_r
200038a6  w      .highcode	00000000 TMR1_IRQHandler
00000c80 g     F .text	00000040 TFT_Pin_BLK_Set
20003a64 g     F .highcode	0000003c SYS_ResetExecute
00000c00 g     F .text	00000040 TFT_Pin_DC_Set
00002af0 g     F .text	0000000c _close
000017c8 g     F .text	00000030 UART1_BaudRateCfg



Disassembly of section .init:

00000000 <_sinit>:
_start():
d:\CH573FEVT\LaserRangeFinder\obj/../Startup/startup_CH573.S:17

	.section	.init,"ax",@progbits
	.global	_start
	.align	1
_start:
	j	handle_reset
   0:	71c0006f          	j	71c <handle_reset>

Disassembly of section .highcode:

20003800 <_highcode_vma_start>:
	...
_vector_base():
d:\CH573FEVT\LaserRangeFinder\obj/../Startup/startup_CH573.S:25
    .align  1
_vector_base:
    .option norvc;
    .word   0
    .word   0
        j   NMI_Handler                 /* NMI Handler */
20003808:	0880006f          	j	20003890 <NMI_Handler>
d:\CH573FEVT\LaserRangeFinder\obj/../Startup/startup_CH573.S:26
        j   HardFault_Handler           /* Hard Fault Handler */
2000380c:	2940006f          	j	20003aa0 <HardFault_Handler>
	...
d:\CH573FEVT\LaserRangeFinder\obj/../Startup/startup_CH573.S:35
    .word   0
    .word   0
    .word   0
    .word   0
    .word   0
        j   SysTick_Handler            /* SysTick Handler */
20003830:	0640006f          	j	20003894 <SysTick_Handler>
20003834:	0000                	unimp
20003836:	0000                	unimp
d:\CH573FEVT\LaserRangeFinder\obj/../Startup/startup_CH573.S:37
    .word   0
        j   SW_Handler                 /* SW Handler */
20003838:	05e0006f          	j	20003896 <SW_Handler>
2000383c:	0000                	unimp
2000383e:	0000                	unimp
d:\CH573FEVT\LaserRangeFinder\obj/../Startup/startup_CH573.S:40
    .word   0
    /* External Interrupts */
        j   TMR0_IRQHandler            /* 0:  TMR0 */
20003840:	0580006f          	j	20003898 <TMR0_IRQHandler>
d:\CH573FEVT\LaserRangeFinder\obj/../Startup/startup_CH573.S:41
        j   GPIOA_IRQHandler           /* GPIOA */
20003844:	0560006f          	j	2000389a <GPIOA_IRQHandler>
d:\CH573FEVT\LaserRangeFinder\obj/../Startup/startup_CH573.S:42
        j   GPIOB_IRQHandler           /* GPIOB */
20003848:	0740006f          	j	200038bc <GPIOB_IRQHandler>
d:\CH573FEVT\LaserRangeFinder\obj/../Startup/startup_CH573.S:43
        j   SPI0_IRQHandler            /* SPI0 */
2000384c:	0520006f          	j	2000389e <SPI0_IRQHandler>
d:\CH573FEVT\LaserRangeFinder\obj/../Startup/startup_CH573.S:44
        j   BB_IRQHandler              /* BLEB */
20003850:	0500006f          	j	200038a0 <BB_IRQHandler>
d:\CH573FEVT\LaserRangeFinder\obj/../Startup/startup_CH573.S:45
        j   LLE_IRQHandler             /* BLEL */
20003854:	04e0006f          	j	200038a2 <LLE_IRQHandler>
d:\CH573FEVT\LaserRangeFinder\obj/../Startup/startup_CH573.S:46
        j   USB_IRQHandler             /* USB */
20003858:	04c0006f          	j	200038a4 <USB_IRQHandler>
2000385c:	0000                	unimp
2000385e:	0000                	unimp
d:\CH573FEVT\LaserRangeFinder\obj/../Startup/startup_CH573.S:48
        .word   0
        j   TMR1_IRQHandler            /* TMR1 */
20003860:	0460006f          	j	200038a6 <TMR1_IRQHandler>
d:\CH573FEVT\LaserRangeFinder\obj/../Startup/startup_CH573.S:49
        j   TMR2_IRQHandler            /* TMR2 */
20003864:	0440006f          	j	200038a8 <TMR2_IRQHandler>
d:\CH573FEVT\LaserRangeFinder\obj/../Startup/startup_CH573.S:50
        j   UART0_IRQHandler           /* UART0 */
20003868:	0420006f          	j	200038aa <UART0_IRQHandler>
d:\CH573FEVT\LaserRangeFinder\obj/../Startup/startup_CH573.S:51
        j   UART1_IRQHandler           /* UART1 */
2000386c:	0400006f          	j	200038ac <UART1_IRQHandler>
d:\CH573FEVT\LaserRangeFinder\obj/../Startup/startup_CH573.S:52
        j   RTC_IRQHandler             /* RTC */
20003870:	03e0006f          	j	200038ae <RTC_IRQHandler>
d:\CH573FEVT\LaserRangeFinder\obj/../Startup/startup_CH573.S:53
        j   ADC_IRQHandler             /* ADC */
20003874:	03c0006f          	j	200038b0 <ADC_IRQHandler>
20003878:	0000                	unimp
2000387a:	0000                	unimp
d:\CH573FEVT\LaserRangeFinder\obj/../Startup/startup_CH573.S:55
        .word   0
        j   PWMX_IRQHandler            /* PWMX */
2000387c:	0360006f          	j	200038b2 <PWMX_IRQHandler>
d:\CH573FEVT\LaserRangeFinder\obj/../Startup/startup_CH573.S:56
        j   TMR3_IRQHandler            /* TMR3 */
20003880:	0340006f          	j	200038b4 <TMR3_IRQHandler>
d:\CH573FEVT\LaserRangeFinder\obj/../Startup/startup_CH573.S:57
        j   UART2_IRQHandler           /* UART2 */
20003884:	0320006f          	j	200038b6 <UART2_IRQHandler>
d:\CH573FEVT\LaserRangeFinder\obj/../Startup/startup_CH573.S:58
        j   UART3_IRQHandler           /* UART3 */
20003888:	0300006f          	j	200038b8 <UART3_IRQHandler>
d:\CH573FEVT\LaserRangeFinder\obj/../Startup/startup_CH573.S:59
        j   WDOG_BAT_IRQHandler        /* WDOG_BAT */
2000388c:	02e0006f          	j	200038ba <WDOG_BAT_IRQHandler>

20003890 <NMI_Handler>:
NMI_Handler():
d:\CH573FEVT\LaserRangeFinder\obj/../Startup/startup_CH573.S:87
    .weak   TMR3_IRQHandler
    .weak   UART2_IRQHandler
    .weak   UART3_IRQHandler
    .weak   WDOG_BAT_IRQHandler

NMI_Handler:  1:  j 1b
20003890:	a001                	j	20003890 <NMI_Handler>
d:\CH573FEVT\LaserRangeFinder\obj/../Startup/startup_CH573.S:88
HardFault_Handler:  1:  j 1b
20003892:	a001                	j	20003892 <NMI_Handler+0x2>

20003894 <SysTick_Handler>:
SysTick_Handler():
d:\CH573FEVT\LaserRangeFinder\obj/../Startup/startup_CH573.S:89
SysTick_Handler:  1:  j 1b
20003894:	a001                	j	20003894 <SysTick_Handler>

20003896 <SW_Handler>:
SW_Handler():
d:\CH573FEVT\LaserRangeFinder\obj/../Startup/startup_CH573.S:90
SW_Handler:  1:  j 1b
20003896:	a001                	j	20003896 <SW_Handler>

20003898 <TMR0_IRQHandler>:
TMR0_IRQHandler():
d:\CH573FEVT\LaserRangeFinder\obj/../Startup/startup_CH573.S:91
TMR0_IRQHandler:  1:  j 1b
20003898:	a001                	j	20003898 <TMR0_IRQHandler>

2000389a <GPIOA_IRQHandler>:
GPIOA_IRQHandler():
d:\CH573FEVT\LaserRangeFinder\obj/../Startup/startup_CH573.S:92
GPIOA_IRQHandler:  1:  j 1b
2000389a:	a001                	j	2000389a <GPIOA_IRQHandler>
d:\CH573FEVT\LaserRangeFinder\obj/../Startup/startup_CH573.S:93
GPIOB_IRQHandler:  1:  j 1b
2000389c:	a001                	j	2000389c <GPIOA_IRQHandler+0x2>

2000389e <SPI0_IRQHandler>:
SPI0_IRQHandler():
d:\CH573FEVT\LaserRangeFinder\obj/../Startup/startup_CH573.S:94
SPI0_IRQHandler:  1:  j 1b
2000389e:	a001                	j	2000389e <SPI0_IRQHandler>

200038a0 <BB_IRQHandler>:
BB_IRQHandler():
d:\CH573FEVT\LaserRangeFinder\obj/../Startup/startup_CH573.S:95
BB_IRQHandler:  1:  j 1b
200038a0:	a001                	j	200038a0 <BB_IRQHandler>

200038a2 <LLE_IRQHandler>:
LLE_IRQHandler():
d:\CH573FEVT\LaserRangeFinder\obj/../Startup/startup_CH573.S:96
LLE_IRQHandler:  1:  j 1b
200038a2:	a001                	j	200038a2 <LLE_IRQHandler>

200038a4 <USB_IRQHandler>:
USB_IRQHandler():
d:\CH573FEVT\LaserRangeFinder\obj/../Startup/startup_CH573.S:97
USB_IRQHandler:  1:  j 1b
200038a4:	a001                	j	200038a4 <USB_IRQHandler>

200038a6 <TMR1_IRQHandler>:
TMR1_IRQHandler():
d:\CH573FEVT\LaserRangeFinder\obj/../Startup/startup_CH573.S:98
TMR1_IRQHandler:  1:  j 1b
200038a6:	a001                	j	200038a6 <TMR1_IRQHandler>

200038a8 <TMR2_IRQHandler>:
TMR2_IRQHandler():
d:\CH573FEVT\LaserRangeFinder\obj/../Startup/startup_CH573.S:99
TMR2_IRQHandler:  1:  j 1b
200038a8:	a001                	j	200038a8 <TMR2_IRQHandler>

200038aa <UART0_IRQHandler>:
UART0_IRQHandler():
d:\CH573FEVT\LaserRangeFinder\obj/../Startup/startup_CH573.S:100
UART0_IRQHandler:  1:  j 1b
200038aa:	a001                	j	200038aa <UART0_IRQHandler>

200038ac <UART1_IRQHandler>:
UART1_IRQHandler():
d:\CH573FEVT\LaserRangeFinder\obj/../Startup/startup_CH573.S:101
UART1_IRQHandler:  1:  j 1b
200038ac:	a001                	j	200038ac <UART1_IRQHandler>

200038ae <RTC_IRQHandler>:
RTC_IRQHandler():
d:\CH573FEVT\LaserRangeFinder\obj/../Startup/startup_CH573.S:102
RTC_IRQHandler:  1:  j 1b
200038ae:	a001                	j	200038ae <RTC_IRQHandler>

200038b0 <ADC_IRQHandler>:
ADC_IRQHandler():
d:\CH573FEVT\LaserRangeFinder\obj/../Startup/startup_CH573.S:103
ADC_IRQHandler:  1:  j 1b
200038b0:	a001                	j	200038b0 <ADC_IRQHandler>

200038b2 <PWMX_IRQHandler>:
PWMX_IRQHandler():
d:\CH573FEVT\LaserRangeFinder\obj/../Startup/startup_CH573.S:104
PWMX_IRQHandler:  1:  j 1b
200038b2:	a001                	j	200038b2 <PWMX_IRQHandler>

200038b4 <TMR3_IRQHandler>:
TMR3_IRQHandler():
d:\CH573FEVT\LaserRangeFinder\obj/../Startup/startup_CH573.S:105
TMR3_IRQHandler:  1:  j 1b
200038b4:	a001                	j	200038b4 <TMR3_IRQHandler>

200038b6 <UART2_IRQHandler>:
UART2_IRQHandler():
d:\CH573FEVT\LaserRangeFinder\obj/../Startup/startup_CH573.S:106
UART2_IRQHandler:  1:  j 1b
200038b6:	a001                	j	200038b6 <UART2_IRQHandler>

200038b8 <UART3_IRQHandler>:
UART3_IRQHandler():
d:\CH573FEVT\LaserRangeFinder\obj/../Startup/startup_CH573.S:107
UART3_IRQHandler:  1:  j 1b
200038b8:	a001                	j	200038b8 <UART3_IRQHandler>

200038ba <WDOG_BAT_IRQHandler>:
WDOG_BAT_IRQHandler():
d:\CH573FEVT\LaserRangeFinder\obj/../Startup/startup_CH573.S:108
WDOG_BAT_IRQHandler:  1:  j 1b
200038ba:	a001                	j	200038ba <WDOG_BAT_IRQHandler>

200038bc <GPIOB_IRQHandler>:
GPIOB_IRQHandler():
d:\CH573FEVT\LaserRangeFinder\obj/../src/Main.c:163
 * @note ËÆ∞ÂæóÊ∏ÖÈô§‰∏≠Êñ≠Ê†áÂøó‰Ωç„ÄÇÈîêÂàª5 RISC-VËäØÁâáÂØπÂ∫îÁöÑ‰∏≠Êñ≠ÂáΩÊï∞ÂêçÂú®Startup\startup_CH573.SÊñá‰ª∂ÈáåÊü•Áúã
 */
void
GPIOB_IRQHandler(void)
{
    if (GPIOB_ReadITFlagBit(KEY1_PIN))
200038bc:	400017b7          	lui	a5,0x40001
200038c0:	09e7d783          	lhu	a5,158(a5) # 4000109e <_eusrstack+0x1fff909e>
200038c4:	4007f793          	andi	a5,a5,1024
200038c8:	cb89                	beqz	a5,200038da <GPIOB_IRQHandler+0x1e>
d:\CH573FEVT\LaserRangeFinder\obj/../src/Main.c:165
    {
        PRINT("key1 Êåâ‰∏ã\n");
200038ca:	e0000517          	auipc	a0,0xe0000
200038ce:	f7e50513          	addi	a0,a0,-130 # 3848 <ENABLE_LASER+0x84>
200038d2:	dfffe097          	auipc	ra,0xdfffe
200038d6:	22e080e7          	jalr	558(ra) # 1b00 <puts>
d:\CH573FEVT\LaserRangeFinder\obj/../src/Main.c:167
    }
    if (GPIOB_ReadITFlagBit(KEY2_PIN))
200038da:	400017b7          	lui	a5,0x40001
200038de:	09e7d783          	lhu	a5,158(a5) # 4000109e <_eusrstack+0x1fff909e>
200038e2:	01479713          	slli	a4,a5,0x14
200038e6:	00075a63          	bgez	a4,200038fa <GPIOB_IRQHandler+0x3e>
d:\CH573FEVT\LaserRangeFinder\obj/../src/Main.c:169
    {
        PRINT("key2 Êåâ‰∏ã\n");
200038ea:	e0000517          	auipc	a0,0xe0000
200038ee:	f6a50513          	addi	a0,a0,-150 # 3854 <ENABLE_LASER+0x90>
200038f2:	dfffe097          	auipc	ra,0xdfffe
200038f6:	20e080e7          	jalr	526(ra) # 1b00 <puts>
d:\CH573FEVT\LaserRangeFinder\obj/../src/Main.c:171
    }
    if (GPIOB_ReadITFlagBit(KEY3_PIN))
200038fa:	400017b7          	lui	a5,0x40001
200038fe:	09e7d783          	lhu	a5,158(a5) # 4000109e <_eusrstack+0x1fff909e>
20003902:	01379713          	slli	a4,a5,0x13
20003906:	00075a63          	bgez	a4,2000391a <GPIOB_IRQHandler+0x5e>
d:\CH573FEVT\LaserRangeFinder\obj/../src/Main.c:173
    {
        PRINT("key3 Êåâ‰∏ã\n");
2000390a:	e0000517          	auipc	a0,0xe0000
2000390e:	f5650513          	addi	a0,a0,-170 # 3860 <ENABLE_LASER+0x9c>
20003912:	dfffe097          	auipc	ra,0xdfffe
20003916:	1ee080e7          	jalr	494(ra) # 1b00 <puts>
d:\CH573FEVT\LaserRangeFinder\obj/../src/Main.c:175
    }
    if (GPIOB_ReadITFlagBit(KEY4_PIN))
2000391a:	400017b7          	lui	a5,0x40001
2000391e:	09e7d783          	lhu	a5,158(a5) # 4000109e <_eusrstack+0x1fff909e>
20003922:	01279713          	slli	a4,a5,0x12
20003926:	00075a63          	bgez	a4,2000393a <GPIOB_IRQHandler+0x7e>
d:\CH573FEVT\LaserRangeFinder\obj/../src/Main.c:177
    {
        PRINT("key4 Êåâ‰∏ã\n");
2000392a:	e0000517          	auipc	a0,0xe0000
2000392e:	f4250513          	addi	a0,a0,-190 # 386c <ENABLE_LASER+0xa8>
20003932:	dfffe097          	auipc	ra,0xdfffe
20003936:	1ce080e7          	jalr	462(ra) # 1b00 <puts>
d:\CH573FEVT\LaserRangeFinder\obj/../src/Main.c:179
    }
    GPIOB_ClearITFlagBit(KEY1_PIN | KEY2_PIN | KEY3_PIN | KEY4_PIN); // Ê∏ÖÈô§ÊâÄÊúâÊåâÈîÆÁöÑ‰∏≠Êñ≠Ê†áÂøó‰Ωç
2000393a:	6791                	lui	a5,0x4
2000393c:	40001737          	lui	a4,0x40001
20003940:	c0078793          	addi	a5,a5,-1024 # 3c00 <_data_lma+0x2a0>
20003944:	08f71f23          	sh	a5,158(a4) # 4000109e <_eusrstack+0x1fff909e>
d:\CH573FEVT\LaserRangeFinder\obj/../src/Main.c:180
20003948:	30200073          	mret

2000394c <SetSysClock>:
sys_safe_access_enable():
d:/CH573FEVT/LaserRangeFinder/StdPeriphDriver/inc/CH57x_sys.h:178
 * @NOTE: Ω¯»Î∞≤»´∑√Œ ƒ£ Ω∫Û‘º16∏ˆœµÕ≥÷˜∆µ÷‹∆⁄∂º¥¶”⁄∞≤»´ƒ£ Ωœ¬£¨
 * ∏√”––ß∆⁄ƒ⁄ø…“‘∏ƒ–¥“ª∏ˆªÚ∂‡∏ˆ∞≤»´¿‡ºƒ¥Ê∆˜£¨≥¨≥ˆ…œ ˆ”––ß∆⁄∫ÛΩ´◊‘∂Ø÷’÷π∞≤»´ƒ£ Ω°£
 */
 __attribute__((always_inline)) static inline void sys_safe_access_enable(void)
{
    R8_SAFE_ACCESS_SIG = SAFE_ACCESS_SIG1;
2000394c:	400017b7          	lui	a5,0x40001
20003950:	05700693          	li	a3,87
20003954:	04d78023          	sb	a3,64(a5) # 40001040 <_eusrstack+0x1fff9040>
d:/CH573FEVT/LaserRangeFinder/StdPeriphDriver/inc/CH57x_sys.h:179
    R8_SAFE_ACCESS_SIG = SAFE_ACCESS_SIG2;
20003958:	fa800713          	li	a4,-88
2000395c:	04e78023          	sb	a4,64(a5)
d:/CH573FEVT/LaserRangeFinder/StdPeriphDriver/inc/CH57x_sys.h:180
    asm volatile("fence.i");
20003960:	0000100f          	fence.i
SetSysClock():
d:\CH573FEVT\LaserRangeFinder\obj/../StdPeriphDriver/CH57x_sys.c:29
__attribute__((section(".highcode")))
void SetSysClock(SYS_CLKTypeDef sc)
{
    uint32_t i;
    sys_safe_access_enable();
    R8_PLL_CONFIG &= ~(1 << 5); //
20003964:	04b7c603          	lbu	a2,75(a5)
20003968:	0df67613          	andi	a2,a2,223
2000396c:	04c785a3          	sb	a2,75(a5)
sys_safe_access_disable():
d:/CH573FEVT/LaserRangeFinder/StdPeriphDriver/inc/CH57x_sys.h:185
}

__attribute__((always_inline)) static inline void sys_safe_access_disable(void)
{
    R8_SAFE_ACCESS_SIG = 0;
20003970:	04078023          	sb	zero,64(a5)
SetSysClock():
d:\CH573FEVT\LaserRangeFinder\obj/../StdPeriphDriver/CH57x_sys.c:31
    sys_safe_access_disable();
    if(sc & 0x20)
20003974:	02057613          	andi	a2,a0,32
20003978:	ca3d                	beqz	a2,200039ee <SetSysClock+0xa2>
d:\CH573FEVT\LaserRangeFinder\obj/../StdPeriphDriver/CH57x_sys.c:33
    { // HSE div
        if(!(R8_HFCK_PWR_CTRL & RB_CLK_XT32M_PON))
2000397a:	00a7c603          	lbu	a2,10(a5)
2000397e:	8a11                	andi	a2,a2,4
20003980:	e21d                	bnez	a2,200039a6 <SetSysClock+0x5a>
sys_safe_access_enable():
d:/CH573FEVT/LaserRangeFinder/StdPeriphDriver/inc/CH57x_sys.h:178
    R8_SAFE_ACCESS_SIG = SAFE_ACCESS_SIG1;
20003982:	04d78023          	sb	a3,64(a5)
d:/CH573FEVT/LaserRangeFinder/StdPeriphDriver/inc/CH57x_sys.h:179
    R8_SAFE_ACCESS_SIG = SAFE_ACCESS_SIG2;
20003986:	04e78023          	sb	a4,64(a5)
d:/CH573FEVT/LaserRangeFinder/StdPeriphDriver/inc/CH57x_sys.h:180
    asm volatile("fence.i");
2000398a:	0000100f          	fence.i
SetSysClock():
d:\CH573FEVT\LaserRangeFinder\obj/../StdPeriphDriver/CH57x_sys.c:36
        {
            sys_safe_access_enable();
            R8_HFCK_PWR_CTRL |= RB_CLK_XT32M_PON; // HSE power on
2000398e:	00a7c703          	lbu	a4,10(a5)
20003992:	00476713          	ori	a4,a4,4
20003996:	00e78523          	sb	a4,10(a5)
2000399a:	4b000793          	li	a5,1200
d:\CH573FEVT\LaserRangeFinder\obj/../StdPeriphDriver/CH57x_sys.c:39 (discriminator 3)
            for(i = 0; i < 1200; i++)
            {
                __nop();
2000399e:	0001                	nop
d:\CH573FEVT\LaserRangeFinder\obj/../StdPeriphDriver/CH57x_sys.c:40 (discriminator 3)
                __nop();
200039a0:	0001                	nop
200039a2:	17fd                	addi	a5,a5,-1
d:\CH573FEVT\LaserRangeFinder\obj/../StdPeriphDriver/CH57x_sys.c:37 (discriminator 3)
            for(i = 0; i < 1200; i++)
200039a4:	ffed                	bnez	a5,2000399e <SetSysClock+0x52>
sys_safe_access_enable():
d:/CH573FEVT/LaserRangeFinder/StdPeriphDriver/inc/CH57x_sys.h:178
    R8_SAFE_ACCESS_SIG = SAFE_ACCESS_SIG1;
200039a6:	400017b7          	lui	a5,0x40001
200039aa:	05700693          	li	a3,87
200039ae:	04d78023          	sb	a3,64(a5) # 40001040 <_eusrstack+0x1fff9040>
d:/CH573FEVT/LaserRangeFinder/StdPeriphDriver/inc/CH57x_sys.h:179
    R8_SAFE_ACCESS_SIG = SAFE_ACCESS_SIG2;
200039b2:	fa800713          	li	a4,-88
200039b6:	04e78023          	sb	a4,64(a5)
d:/CH573FEVT/LaserRangeFinder/StdPeriphDriver/inc/CH57x_sys.h:180
    asm volatile("fence.i");
200039ba:	0000100f          	fence.i
SetSysClock():
d:\CH573FEVT\LaserRangeFinder\obj/../StdPeriphDriver/CH57x_sys.c:45
            }
        }

        sys_safe_access_enable();
        R16_CLK_SYS_CFG = (0 << 6) | (sc & 0x1f);
200039be:	897d                	andi	a0,a0,31
200039c0:	00a79423          	sh	a0,8(a5)
d:\CH573FEVT\LaserRangeFinder\obj/../StdPeriphDriver/CH57x_sys.c:46
        __nop();
200039c4:	0001                	nop
d:\CH573FEVT\LaserRangeFinder\obj/../StdPeriphDriver/CH57x_sys.c:47
        __nop();
200039c6:	0001                	nop
d:\CH573FEVT\LaserRangeFinder\obj/../StdPeriphDriver/CH57x_sys.c:48
        __nop();
200039c8:	0001                	nop
d:\CH573FEVT\LaserRangeFinder\obj/../StdPeriphDriver/CH57x_sys.c:49
        __nop();
200039ca:	0001                	nop
sys_safe_access_disable():
d:/CH573FEVT/LaserRangeFinder/StdPeriphDriver/inc/CH57x_sys.h:185
    R8_SAFE_ACCESS_SIG = 0;
200039cc:	04078023          	sb	zero,64(a5)
sys_safe_access_enable():
d:/CH573FEVT/LaserRangeFinder/StdPeriphDriver/inc/CH57x_sys.h:178
    R8_SAFE_ACCESS_SIG = SAFE_ACCESS_SIG1;
200039d0:	04d78023          	sb	a3,64(a5)
d:/CH573FEVT/LaserRangeFinder/StdPeriphDriver/inc/CH57x_sys.h:179
    R8_SAFE_ACCESS_SIG = SAFE_ACCESS_SIG2;
200039d4:	04e78023          	sb	a4,64(a5)
d:/CH573FEVT/LaserRangeFinder/StdPeriphDriver/inc/CH57x_sys.h:180
    asm volatile("fence.i");
200039d8:	0000100f          	fence.i
SetSysClock():
d:\CH573FEVT\LaserRangeFinder\obj/../StdPeriphDriver/CH57x_sys.c:52
        sys_safe_access_disable();
        sys_safe_access_enable();
        R8_FLASH_CFG = 0X51;
200039dc:	40002737          	lui	a4,0x40002
200039e0:	05100693          	li	a3,81
d:\CH573FEVT\LaserRangeFinder\obj/../StdPeriphDriver/CH57x_sys.c:76
        __nop();
        __nop();
        __nop();
        sys_safe_access_disable();
        sys_safe_access_enable();
        R8_FLASH_CFG = 0X53;
200039e4:	80d703a3          	sb	a3,-2041(a4) # 40001807 <_eusrstack+0x1fff9807>
sys_safe_access_disable():
d:/CH573FEVT/LaserRangeFinder/StdPeriphDriver/inc/CH57x_sys.h:185
    R8_SAFE_ACCESS_SIG = 0;
200039e8:	04078023          	sb	zero,64(a5)
SetSysClock():
d:\CH573FEVT\LaserRangeFinder\obj/../StdPeriphDriver/CH57x_sys.c:79
        sys_safe_access_disable();
    }
}
200039ec:	8082                	ret
d:\CH573FEVT\LaserRangeFinder\obj/../StdPeriphDriver/CH57x_sys.c:56
    else if(sc & 0x40)
200039ee:	04057613          	andi	a2,a0,64
200039f2:	de6d                	beqz	a2,200039ec <SetSysClock+0xa0>
d:\CH573FEVT\LaserRangeFinder\obj/../StdPeriphDriver/CH57x_sys.c:58
        if(!(R8_HFCK_PWR_CTRL & RB_CLK_PLL_PON))
200039f4:	00a7c603          	lbu	a2,10(a5)
200039f8:	8a41                	andi	a2,a2,16
200039fa:	e21d                	bnez	a2,20003a20 <SetSysClock+0xd4>
sys_safe_access_enable():
d:/CH573FEVT/LaserRangeFinder/StdPeriphDriver/inc/CH57x_sys.h:178
    R8_SAFE_ACCESS_SIG = SAFE_ACCESS_SIG1;
200039fc:	04d78023          	sb	a3,64(a5)
d:/CH573FEVT/LaserRangeFinder/StdPeriphDriver/inc/CH57x_sys.h:179
    R8_SAFE_ACCESS_SIG = SAFE_ACCESS_SIG2;
20003a00:	04e78023          	sb	a4,64(a5)
d:/CH573FEVT/LaserRangeFinder/StdPeriphDriver/inc/CH57x_sys.h:180
    asm volatile("fence.i");
20003a04:	0000100f          	fence.i
SetSysClock():
d:\CH573FEVT\LaserRangeFinder\obj/../StdPeriphDriver/CH57x_sys.c:61
            R8_HFCK_PWR_CTRL |= RB_CLK_PLL_PON; // PLL power on
20003a08:	00a7c703          	lbu	a4,10(a5)
20003a0c:	01076713          	ori	a4,a4,16
20003a10:	00e78523          	sb	a4,10(a5)
20003a14:	7d000793          	li	a5,2000
d:\CH573FEVT\LaserRangeFinder\obj/../StdPeriphDriver/CH57x_sys.c:64 (discriminator 3)
                __nop();
20003a18:	0001                	nop
d:\CH573FEVT\LaserRangeFinder\obj/../StdPeriphDriver/CH57x_sys.c:65 (discriminator 3)
                __nop();
20003a1a:	0001                	nop
20003a1c:	17fd                	addi	a5,a5,-1
d:\CH573FEVT\LaserRangeFinder\obj/../StdPeriphDriver/CH57x_sys.c:62 (discriminator 3)
            for(i = 0; i < 2000; i++)
20003a1e:	ffed                	bnez	a5,20003a18 <SetSysClock+0xcc>
sys_safe_access_enable():
d:/CH573FEVT/LaserRangeFinder/StdPeriphDriver/inc/CH57x_sys.h:178
    R8_SAFE_ACCESS_SIG = SAFE_ACCESS_SIG1;
20003a20:	400017b7          	lui	a5,0x40001
20003a24:	05700693          	li	a3,87
20003a28:	04d78023          	sb	a3,64(a5) # 40001040 <_eusrstack+0x1fff9040>
d:/CH573FEVT/LaserRangeFinder/StdPeriphDriver/inc/CH57x_sys.h:179
    R8_SAFE_ACCESS_SIG = SAFE_ACCESS_SIG2;
20003a2c:	fa800713          	li	a4,-88
20003a30:	04e78023          	sb	a4,64(a5)
d:/CH573FEVT/LaserRangeFinder/StdPeriphDriver/inc/CH57x_sys.h:180
    asm volatile("fence.i");
20003a34:	0000100f          	fence.i
SetSysClock():
d:\CH573FEVT\LaserRangeFinder\obj/../StdPeriphDriver/CH57x_sys.c:69
        R16_CLK_SYS_CFG = (1 << 6) | (sc & 0x1f);
20003a38:	897d                	andi	a0,a0,31
20003a3a:	04056513          	ori	a0,a0,64
20003a3e:	00a79423          	sh	a0,8(a5)
d:\CH573FEVT\LaserRangeFinder\obj/../StdPeriphDriver/CH57x_sys.c:70
        __nop();
20003a42:	0001                	nop
d:\CH573FEVT\LaserRangeFinder\obj/../StdPeriphDriver/CH57x_sys.c:71
        __nop();
20003a44:	0001                	nop
d:\CH573FEVT\LaserRangeFinder\obj/../StdPeriphDriver/CH57x_sys.c:72
        __nop();
20003a46:	0001                	nop
d:\CH573FEVT\LaserRangeFinder\obj/../StdPeriphDriver/CH57x_sys.c:73
        __nop();
20003a48:	0001                	nop
sys_safe_access_disable():
d:/CH573FEVT/LaserRangeFinder/StdPeriphDriver/inc/CH57x_sys.h:185
    R8_SAFE_ACCESS_SIG = 0;
20003a4a:	04078023          	sb	zero,64(a5)
sys_safe_access_enable():
d:/CH573FEVT/LaserRangeFinder/StdPeriphDriver/inc/CH57x_sys.h:178
    R8_SAFE_ACCESS_SIG = SAFE_ACCESS_SIG1;
20003a4e:	04d78023          	sb	a3,64(a5)
d:/CH573FEVT/LaserRangeFinder/StdPeriphDriver/inc/CH57x_sys.h:179
    R8_SAFE_ACCESS_SIG = SAFE_ACCESS_SIG2;
20003a52:	04e78023          	sb	a4,64(a5)
d:/CH573FEVT/LaserRangeFinder/StdPeriphDriver/inc/CH57x_sys.h:180
    asm volatile("fence.i");
20003a56:	0000100f          	fence.i
SetSysClock():
d:\CH573FEVT\LaserRangeFinder\obj/../StdPeriphDriver/CH57x_sys.c:76
        R8_FLASH_CFG = 0X53;
20003a5a:	40002737          	lui	a4,0x40002
20003a5e:	05300693          	li	a3,83
20003a62:	b749                	j	200039e4 <SetSysClock+0x98>

20003a64 <SYS_ResetExecute>:
SYS_ResetExecute():
d:\CH573FEVT\LaserRangeFinder\obj/../StdPeriphDriver/CH57x_sys.c:141
 *
 * @return  none
 */
__attribute__((section(".highcode")))
void SYS_ResetExecute(void)
{
20003a64:	1141                	addi	sp,sp,-16
d:\CH573FEVT\LaserRangeFinder\obj/../StdPeriphDriver/CH57x_sys.c:142
    FLASH_ROM_SW_RESET();
20003a66:	4681                	li	a3,0
20003a68:	4601                	li	a2,0
20003a6a:	4581                	li	a1,0
20003a6c:	4511                	li	a0,4
d:\CH573FEVT\LaserRangeFinder\obj/../StdPeriphDriver/CH57x_sys.c:141
{
20003a6e:	c606                	sw	ra,12(sp)
d:\CH573FEVT\LaserRangeFinder\obj/../StdPeriphDriver/CH57x_sys.c:142
    FLASH_ROM_SW_RESET();
20003a70:	229d                	jal	20003bd6 <FLASH_EEPROM_CMD>
sys_safe_access_enable():
d:/CH573FEVT/LaserRangeFinder/StdPeriphDriver/inc/CH57x_sys.h:178
    R8_SAFE_ACCESS_SIG = SAFE_ACCESS_SIG1;
20003a72:	400017b7          	lui	a5,0x40001
20003a76:	05700713          	li	a4,87
20003a7a:	04e78023          	sb	a4,64(a5) # 40001040 <_eusrstack+0x1fff9040>
d:/CH573FEVT/LaserRangeFinder/StdPeriphDriver/inc/CH57x_sys.h:179
    R8_SAFE_ACCESS_SIG = SAFE_ACCESS_SIG2;
20003a7e:	fa800713          	li	a4,-88
20003a82:	04e78023          	sb	a4,64(a5)
d:/CH573FEVT/LaserRangeFinder/StdPeriphDriver/inc/CH57x_sys.h:180
    asm volatile("fence.i");
20003a86:	0000100f          	fence.i
SYS_ResetExecute():
d:\CH573FEVT\LaserRangeFinder\obj/../StdPeriphDriver/CH57x_sys.c:144
    sys_safe_access_enable();
    R8_RST_WDOG_CTRL |= RB_SOFTWARE_RESET;
20003a8a:	0467c703          	lbu	a4,70(a5)
20003a8e:	00176713          	ori	a4,a4,1
20003a92:	04e78323          	sb	a4,70(a5)
sys_safe_access_disable():
d:/CH573FEVT/LaserRangeFinder/StdPeriphDriver/inc/CH57x_sys.h:185
    R8_SAFE_ACCESS_SIG = 0;
20003a96:	04078023          	sb	zero,64(a5)
SYS_ResetExecute():
d:\CH573FEVT\LaserRangeFinder\obj/../StdPeriphDriver/CH57x_sys.c:146
    sys_safe_access_disable();
}
20003a9a:	40b2                	lw	ra,12(sp)
20003a9c:	0141                	addi	sp,sp,16
20003a9e:	8082                	ret

20003aa0 <HardFault_Handler>:
HardFault_Handler():
d:\CH573FEVT\LaserRangeFinder\obj/../StdPeriphDriver/CH57x_sys.c:281
__attribute__((interrupt("WCH-Interrupt-fast")))
__attribute__((section(".highcode")))
__attribute__((weak))
void HardFault_Handler(void)
{
    FLASH_ROM_SW_RESET();
20003aa0:	4681                	li	a3,0
20003aa2:	4601                	li	a2,0
20003aa4:	4581                	li	a1,0
20003aa6:	4511                	li	a0,4
20003aa8:	223d                	jal	20003bd6 <FLASH_EEPROM_CMD>
sys_safe_access_enable():
d:/CH573FEVT/LaserRangeFinder/StdPeriphDriver/inc/CH57x_sys.h:178
    R8_SAFE_ACCESS_SIG = SAFE_ACCESS_SIG1;
20003aaa:	400017b7          	lui	a5,0x40001
20003aae:	05700693          	li	a3,87
20003ab2:	04d78023          	sb	a3,64(a5) # 40001040 <_eusrstack+0x1fff9040>
d:/CH573FEVT/LaserRangeFinder/StdPeriphDriver/inc/CH57x_sys.h:179
    R8_SAFE_ACCESS_SIG = SAFE_ACCESS_SIG2;
20003ab6:	fa800713          	li	a4,-88
20003aba:	04e78023          	sb	a4,64(a5)
d:/CH573FEVT/LaserRangeFinder/StdPeriphDriver/inc/CH57x_sys.h:180
    asm volatile("fence.i");
20003abe:	0000100f          	fence.i
HardFault_Handler():
d:\CH573FEVT\LaserRangeFinder\obj/../StdPeriphDriver/CH57x_sys.c:283
    sys_safe_access_enable();
    R16_INT32K_TUNE = 0xFFFF;
20003ac2:	567d                	li	a2,-1
20003ac4:	02c79623          	sh	a2,44(a5)
sys_safe_access_enable():
d:/CH573FEVT/LaserRangeFinder/StdPeriphDriver/inc/CH57x_sys.h:178
    R8_SAFE_ACCESS_SIG = SAFE_ACCESS_SIG1;
20003ac8:	04d78023          	sb	a3,64(a5)
d:/CH573FEVT/LaserRangeFinder/StdPeriphDriver/inc/CH57x_sys.h:179
    R8_SAFE_ACCESS_SIG = SAFE_ACCESS_SIG2;
20003acc:	04e78023          	sb	a4,64(a5)
d:/CH573FEVT/LaserRangeFinder/StdPeriphDriver/inc/CH57x_sys.h:180
    asm volatile("fence.i");
20003ad0:	0000100f          	fence.i
HardFault_Handler():
d:\CH573FEVT\LaserRangeFinder\obj/../StdPeriphDriver/CH57x_sys.c:285
    sys_safe_access_enable();
    R8_RST_WDOG_CTRL |= RB_SOFTWARE_RESET;
20003ad4:	0467c703          	lbu	a4,70(a5)
20003ad8:	00176713          	ori	a4,a4,1
20003adc:	04e78323          	sb	a4,70(a5)
sys_safe_access_disable():
d:/CH573FEVT/LaserRangeFinder/StdPeriphDriver/inc/CH57x_sys.h:185
    R8_SAFE_ACCESS_SIG = 0;
20003ae0:	04078023          	sb	zero,64(a5)
HardFault_Handler():
d:\CH573FEVT\LaserRangeFinder\obj/../StdPeriphDriver/CH57x_sys.c:287 (discriminator 1)
    sys_safe_access_disable();
    while(1);
20003ae4:	a001                	j	20003ae4 <HardFault_Handler+0x44>

20003ae6 <mDelayuS>:
mDelayuS():
d:\CH573FEVT\LaserRangeFinder\obj/../StdPeriphDriver/CH57x_sys.c:304
__attribute__((section(".highcode")))
void mDelayuS(uint16_t t)
{
    uint32_t i;
#if(FREQ_SYS == 60000000)
    i = t * 15;
20003ae6:	47bd                	li	a5,15
20003ae8:	02f50533          	mul	a0,a0,a5
d:\CH573FEVT\LaserRangeFinder\obj/../StdPeriphDriver/CH57x_sys.c:326 (discriminator 1)
#elif(FREQ_SYS == 1000000)
    i = t >> 2;
#endif
    do
    {
        __nop();
20003aec:	0001                	nop
d:\CH573FEVT\LaserRangeFinder\obj/../StdPeriphDriver/CH57x_sys.c:327 (discriminator 1)
    } while(--i);
20003aee:	157d                	addi	a0,a0,-1
20003af0:	fd75                	bnez	a0,20003aec <mDelayuS+0x6>
d:\CH573FEVT\LaserRangeFinder\obj/../StdPeriphDriver/CH57x_sys.c:328
}
20003af2:	8082                	ret

20003af4 <mDelaymS>:
mDelaymS():
d:\CH573FEVT\LaserRangeFinder\obj/../StdPeriphDriver/CH57x_sys.c:341
 *
 * @return  none
 */
__attribute__((section(".highcode")))
void mDelaymS(uint16_t t)
{
20003af4:	1141                	addi	sp,sp,-16
20003af6:	c422                	sw	s0,8(sp)
20003af8:	c226                	sw	s1,4(sp)
20003afa:	c606                	sw	ra,12(sp)
20003afc:	84aa                	mv	s1,a0
d:\CH573FEVT\LaserRangeFinder\obj/../StdPeriphDriver/CH57x_sys.c:344
    uint16_t i;

    for(i = 0; i < t; i++)
20003afe:	4401                	li	s0,0
d:\CH573FEVT\LaserRangeFinder\obj/../StdPeriphDriver/CH57x_sys.c:344 (discriminator 1)
20003b00:	00941763          	bne	s0,s1,20003b0e <mDelaymS+0x1a>
d:\CH573FEVT\LaserRangeFinder\obj/../StdPeriphDriver/CH57x_sys.c:348
    {
        mDelayuS(1000);
    }
}
20003b04:	40b2                	lw	ra,12(sp)
20003b06:	4422                	lw	s0,8(sp)
20003b08:	4492                	lw	s1,4(sp)
20003b0a:	0141                	addi	sp,sp,16
20003b0c:	8082                	ret
d:\CH573FEVT\LaserRangeFinder\obj/../StdPeriphDriver/CH57x_sys.c:344 (discriminator 3)
    for(i = 0; i < t; i++)
20003b0e:	0405                	addi	s0,s0,1
d:\CH573FEVT\LaserRangeFinder\obj/../StdPeriphDriver/CH57x_sys.c:346 (discriminator 3)
        mDelayuS(1000);
20003b10:	3e800513          	li	a0,1000
d:\CH573FEVT\LaserRangeFinder\obj/../StdPeriphDriver/CH57x_sys.c:344 (discriminator 3)
    for(i = 0; i < t; i++)
20003b14:	0442                	slli	s0,s0,0x10
d:\CH573FEVT\LaserRangeFinder\obj/../StdPeriphDriver/CH57x_sys.c:346 (discriminator 3)
        mDelayuS(1000);
20003b16:	3fc1                	jal	20003ae6 <mDelayuS>
d:\CH573FEVT\LaserRangeFinder\obj/../StdPeriphDriver/CH57x_sys.c:344 (discriminator 3)
    for(i = 0; i < t; i++)
20003b18:	8041                	srli	s0,s0,0x10
20003b1a:	b7dd                	j	20003b00 <mDelaymS+0xc>

20003b1c <FLASH_ROM_BEG>:
FLASH_ROM_BEG():
20003b1c:	80040323          	sb	zero,-2042(s0)
20003b20:	4795                	li	a5,5
20003b22:	80f40323          	sb	a5,-2042(s0)
20003b26:	80a40223          	sb	a0,-2044(s0)
20003b2a:	8082                	ret

20003b2c <FLASH_ROM_END>:
FLASH_ROM_END():
20003b2c:	80640783          	lb	a5,-2042(s0)
20003b30:	fe07cee3          	bltz	a5,20003b2c <FLASH_ROM_END>
20003b34:	80040323          	sb	zero,-2042(s0)
20003b38:	8082                	ret

20003b3a <FLASH_ROM_IN>:
FLASH_ROM_IN():
20003b3a:	80640783          	lb	a5,-2042(s0)
20003b3e:	fe07cee3          	bltz	a5,20003b3a <FLASH_ROM_IN>
20003b42:	80444503          	lbu	a0,-2044(s0)
20003b46:	8082                	ret

20003b48 <FLASH_ROM_OUT>:
FLASH_ROM_OUT():
20003b48:	80640783          	lb	a5,-2042(s0)
20003b4c:	fe07cee3          	bltz	a5,20003b48 <FLASH_ROM_OUT>
20003b50:	80a40223          	sb	a0,-2044(s0)
20003b54:	8082                	ret

20003b56 <FLASH_ROM_ADDR>:
FLASH_ROM_ADDR():
20003b56:	1141                	addi	sp,sp,-16
20003b58:	c426                	sw	s1,8(sp)
20003b5a:	c24a                	sw	s2,4(sp)
20003b5c:	c04e                	sw	s3,0(sp)
20003b5e:	c606                	sw	ra,12(sp)
20003b60:	0bf57713          	andi	a4,a0,191
20003b64:	47ad                	li	a5,11
20003b66:	89aa                	mv	s3,a0
20003b68:	892e                	mv	s2,a1
20003b6a:	4495                	li	s1,5
20003b6c:	00f70663          	beq	a4,a5,20003b78 <FLASH_ROM_ADDR+0x22>
20003b70:	4519                	li	a0,6
20003b72:	376d                	jal	20003b1c <FLASH_ROM_BEG>
20003b74:	3f65                	jal	20003b2c <FLASH_ROM_END>
20003b76:	448d                	li	s1,3
20003b78:	854e                	mv	a0,s3
20003b7a:	374d                	jal	20003b1c <FLASH_ROM_BEG>
20003b7c:	59fd                	li	s3,-1
20003b7e:	14fd                	addi	s1,s1,-1
20003b80:	01349863          	bne	s1,s3,20003b90 <FLASH_ROM_ADDR+0x3a>
20003b84:	40b2                	lw	ra,12(sp)
20003b86:	44a2                	lw	s1,8(sp)
20003b88:	4912                	lw	s2,4(sp)
20003b8a:	4982                	lw	s3,0(sp)
20003b8c:	0141                	addi	sp,sp,16
20003b8e:	8082                	ret
20003b90:	01095513          	srli	a0,s2,0x10
20003b94:	0ff57513          	andi	a0,a0,255
20003b98:	3f45                	jal	20003b48 <FLASH_ROM_OUT>
20003b9a:	0922                	slli	s2,s2,0x8
20003b9c:	b7cd                	j	20003b7e <FLASH_ROM_ADDR+0x28>

20003b9e <FLASH_ROM_WAIT>:
FLASH_ROM_WAIT():
20003b9e:	1101                	addi	sp,sp,-32
20003ba0:	cc26                	sw	s1,24(sp)
20003ba2:	ce06                	sw	ra,28(sp)
20003ba4:	000804b7          	lui	s1,0x80
20003ba8:	3751                	jal	20003b2c <FLASH_ROM_END>
20003baa:	4515                	li	a0,5
20003bac:	3f85                	jal	20003b1c <FLASH_ROM_BEG>
20003bae:	3771                	jal	20003b3a <FLASH_ROM_IN>
20003bb0:	3769                	jal	20003b3a <FLASH_ROM_IN>
20003bb2:	c62a                	sw	a0,12(sp)
20003bb4:	3fa5                	jal	20003b2c <FLASH_ROM_END>
20003bb6:	4532                	lw	a0,12(sp)
20003bb8:	00157793          	andi	a5,a0,1
20003bbc:	eb89                	bnez	a5,20003bce <FLASH_ROM_WAIT+0x30>
20003bbe:	00156513          	ori	a0,a0,1
20003bc2:	0ff57513          	andi	a0,a0,255
20003bc6:	40f2                	lw	ra,28(sp)
20003bc8:	44e2                	lw	s1,24(sp)
20003bca:	6105                	addi	sp,sp,32
20003bcc:	8082                	ret
20003bce:	14fd                	addi	s1,s1,-1
20003bd0:	fce9                	bnez	s1,20003baa <FLASH_ROM_WAIT+0xc>
20003bd2:	4501                	li	a0,0
20003bd4:	bfcd                	j	20003bc6 <FLASH_ROM_WAIT+0x28>

20003bd6 <FLASH_EEPROM_CMD>:
FLASH_EEPROM_CMD():
20003bd6:	7139                	addi	sp,sp,-64
20003bd8:	dc26                	sw	s1,56(sp)
20003bda:	da4a                	sw	s2,52(sp)
20003bdc:	d84e                	sw	s3,48(sp)
20003bde:	d652                	sw	s4,44(sp)
20003be0:	d456                	sw	s5,40(sp)
20003be2:	d25a                	sw	s6,36(sp)
20003be4:	d05e                	sw	s7,32(sp)
20003be6:	ce62                	sw	s8,28(sp)
20003be8:	e000e7b7          	lui	a5,0xe000e
20003bec:	de06                	sw	ra,60(sp)
20003bee:	cc66                	sw	s9,24(sp)
20003bf0:	ca6a                	sw	s10,20(sp)
20003bf2:	4741                	li	a4,16
20003bf4:	0407ab83          	lw	s7,64(a5) # e000e040 <_eusrstack+0xc0006040>
20003bf8:	c622                	sw	s0,12(sp)
20003bfa:	c3b8                	sw	a4,64(a5)
20003bfc:	577d                	li	a4,-1
20003bfe:	0007ab03          	lw	s6,0(a5)
20003c02:	0047aa83          	lw	s5,4(a5)
20003c06:	18e7a023          	sw	a4,384(a5)
20003c0a:	18e7a223          	sw	a4,388(a5)
20003c0e:	400017b7          	lui	a5,0x40001
20003c12:	05700713          	li	a4,87
20003c16:	04e78023          	sb	a4,64(a5) # 40001040 <_eusrstack+0x1fff9040>
20003c1a:	fa800713          	li	a4,-88
20003c1e:	04e78023          	sb	a4,64(a5)
20003c22:	0447c783          	lbu	a5,68(a5)
20003c26:	ff750c13          	addi	s8,a0,-9
20003c2a:	84b6                	mv	s1,a3
20003c2c:	07e2                	slli	a5,a5,0x18
20003c2e:	0ffc7c13          	andi	s8,s8,255
20003c32:	4685                	li	a3,1
20003c34:	8a2a                	mv	s4,a0
20003c36:	892e                	mv	s2,a1
20003c38:	89b2                	mv	s3,a2
20003c3a:	40002437          	lui	s0,0x40002
20003c3e:	87e1                	srai	a5,a5,0x18
20003c40:	5701                	li	a4,-32
20003c42:	0186fa63          	bgeu	a3,s8,20003c56 <FLASH_EEPROM_CMD+0x80>
20003c46:	00d50863          	beq	a0,a3,20003c56 <FLASH_EEPROM_CMD+0x80>
20003c4a:	4689                	li	a3,2
20003c4c:	02000713          	li	a4,32
20003c50:	00d51363          	bne	a0,a3,20003c56 <FLASH_EEPROM_CMD+0x80>
20003c54:	5701                	li	a4,-32
20003c56:	8fd9                	or	a5,a5,a4
20003c58:	0ff7f793          	andi	a5,a5,255
20003c5c:	40001d37          	lui	s10,0x40001
20003c60:	04fd0223          	sb	a5,68(s10) # 40001044 <_eusrstack+0x1fff9044>
20003c64:	4711                	li	a4,4
20003c66:	80e40323          	sb	a4,-2042(s0) # 40001806 <_eusrstack+0x1fff9806>
20003c6a:	0ff00513          	li	a0,255
20003c6e:	357d                	jal	20003b1c <FLASH_ROM_BEG>
20003c70:	4c89                	li	s9,2
20003c72:	3d6d                	jal	20003b2c <FLASH_ROM_END>
20003c74:	118ceb63          	bltu	s9,s8,20003d8a <FLASH_EEPROM_CMD+0x1b4>
20003c78:	000707b7          	lui	a5,0x70
20003c7c:	993e                	add	s2,s2,a5
20003c7e:	00078737          	lui	a4,0x78
20003c82:	5579                	li	a0,-2
20003c84:	02e97e63          	bgeu	s2,a4,20003cc0 <FLASH_EEPROM_CMD+0xea>
20003c88:	009907b3          	add	a5,s2,s1
20003c8c:	02f76a63          	bltu	a4,a5,20003cc0 <FLASH_EEPROM_CMD+0xea>
20003c90:	47a9                	li	a5,10
20003c92:	06fa1c63          	bne	s4,a5,20003d0a <FLASH_EEPROM_CMD+0x134>
20003c96:	e489                	bnez	s1,20003ca0 <FLASH_EEPROM_CMD+0xca>
20003c98:	4481                	li	s1,0
20003c9a:	3d49                	jal	20003b2c <FLASH_ROM_END>
20003c9c:	8526                	mv	a0,s1
20003c9e:	a00d                	j	20003cc0 <FLASH_EEPROM_CMD+0xea>
20003ca0:	85ca                	mv	a1,s2
20003ca2:	4509                	li	a0,2
20003ca4:	3d4d                	jal	20003b56 <FLASH_ROM_ADDR>
20003ca6:	0985                	addi	s3,s3,1
20003ca8:	fff9c503          	lbu	a0,-1(s3)
20003cac:	14fd                	addi	s1,s1,-1
20003cae:	0905                	addi	s2,s2,1
20003cb0:	3d61                	jal	20003b48 <FLASH_ROM_OUT>
20003cb2:	c481                	beqz	s1,20003cba <FLASH_EEPROM_CMD+0xe4>
20003cb4:	0ff97793          	andi	a5,s2,255
20003cb8:	f7fd                	bnez	a5,20003ca6 <FLASH_EEPROM_CMD+0xd0>
20003cba:	35d5                	jal	20003b9e <FLASH_ROM_WAIT>
20003cbc:	fd69                	bnez	a0,20003c96 <FLASH_EEPROM_CMD+0xc0>
20003cbe:	557d                	li	a0,-1
20003cc0:	400017b7          	lui	a5,0x40001
20003cc4:	05700713          	li	a4,87
20003cc8:	04e78023          	sb	a4,64(a5) # 40001040 <_eusrstack+0x1fff9040>
20003ccc:	fa800713          	li	a4,-88
20003cd0:	04e78023          	sb	a4,64(a5)
20003cd4:	0447c703          	lbu	a4,68(a5)
20003cd8:	8b41                	andi	a4,a4,16
20003cda:	04e78223          	sb	a4,68(a5)
20003cde:	e000e7b7          	lui	a5,0xe000e
20003ce2:	0577a023          	sw	s7,64(a5) # e000e040 <_eusrstack+0xc0006040>
20003ce6:	50f2                	lw	ra,60(sp)
20003ce8:	1167a023          	sw	s6,256(a5)
20003cec:	1157a223          	sw	s5,260(a5)
20003cf0:	54e2                	lw	s1,56(sp)
20003cf2:	4432                	lw	s0,12(sp)
20003cf4:	5952                	lw	s2,52(sp)
20003cf6:	59c2                	lw	s3,48(sp)
20003cf8:	5a32                	lw	s4,44(sp)
20003cfa:	5aa2                	lw	s5,40(sp)
20003cfc:	5b12                	lw	s6,36(sp)
20003cfe:	5b82                	lw	s7,32(sp)
20003d00:	4c72                	lw	s8,28(sp)
20003d02:	4ce2                	lw	s9,24(sp)
20003d04:	4d52                	lw	s10,20(sp)
20003d06:	6121                	addi	sp,sp,64
20003d08:	8082                	ret
20003d0a:	47a5                	li	a5,9
20003d0c:	06fa1463          	bne	s4,a5,20003d74 <FLASH_EEPROM_CMD+0x19e>
20003d10:	6985                	lui	s3,0x1
20003d12:	0ff00793          	li	a5,255
20003d16:	009786b3          	add	a3,a5,s1
20003d1a:	00f974b3          	and	s1,s2,a5
20003d1e:	94b6                	add	s1,s1,a3
20003d20:	fff7c793          	not	a5,a5
20003d24:	8cfd                	and	s1,s1,a5
20003d26:	0127f933          	and	s2,a5,s2
20003d2a:	6a41                	lui	s4,0x10
20003d2c:	6c05                	lui	s8,0x1
20003d2e:	fff98793          	addi	a5,s3,-1 # fff <TFT_Show_Char+0x7d>
20003d32:	0127f7b3          	and	a5,a5,s2
20003d36:	e399                	bnez	a5,20003d3c <FLASH_EEPROM_CMD+0x166>
20003d38:	0134fc63          	bgeu	s1,s3,20003d50 <FLASH_EEPROM_CMD+0x17a>
20003d3c:	0049d993          	srli	s3,s3,0x4
20003d40:	47c1                	li	a5,16
20003d42:	ff37e6e3          	bltu	a5,s3,20003d2e <FLASH_EEPROM_CMD+0x158>
20003d46:	bf89                	j	20003c98 <FLASH_EEPROM_CMD+0xc2>
20003d48:	6785                	lui	a5,0x1
20003d4a:	69c1                	lui	s3,0x10
20003d4c:	17fd                	addi	a5,a5,-1
20003d4e:	b7e1                	j	20003d16 <FLASH_EEPROM_CMD+0x140>
20003d50:	0d800513          	li	a0,216
20003d54:	01498863          	beq	s3,s4,20003d64 <FLASH_EEPROM_CMD+0x18e>
20003d58:	02000513          	li	a0,32
20003d5c:	01898463          	beq	s3,s8,20003d64 <FLASH_EEPROM_CMD+0x18e>
20003d60:	08100513          	li	a0,129
20003d64:	85ca                	mv	a1,s2
20003d66:	3bc5                	jal	20003b56 <FLASH_ROM_ADDR>
20003d68:	3d1d                	jal	20003b9e <FLASH_ROM_WAIT>
20003d6a:	d931                	beqz	a0,20003cbe <FLASH_EEPROM_CMD+0xe8>
20003d6c:	994e                	add	s2,s2,s3
20003d6e:	413484b3          	sub	s1,s1,s3
20003d72:	b7d9                	j	20003d38 <FLASH_EEPROM_CMD+0x162>
20003d74:	85ca                	mv	a1,s2
20003d76:	452d                	li	a0,11
20003d78:	3bf9                	jal	20003b56 <FLASH_ROM_ADDR>
20003d7a:	94ce                	add	s1,s1,s3
20003d7c:	f0998ee3          	beq	s3,s1,20003c98 <FLASH_EEPROM_CMD+0xc2>
20003d80:	0985                	addi	s3,s3,1
20003d82:	3b65                	jal	20003b3a <FLASH_ROM_IN>
20003d84:	fea98fa3          	sb	a0,-1(s3) # ffff <_data_lma+0xc69f>
20003d88:	bfd5                	j	20003d7c <FLASH_EEPROM_CMD+0x1a6>
20003d8a:	fffa0793          	addi	a5,s4,-1 # ffff <_data_lma+0xc69f>
20003d8e:	0ff7f793          	andi	a5,a5,255
20003d92:	08fcec63          	bltu	s9,a5,20003e2a <.loop406+0x54>
20003d96:	045d4703          	lbu	a4,69(s10)
20003d9a:	000807b7          	lui	a5,0x80
20003d9e:	02077713          	andi	a4,a4,32
20003da2:	e319                	bnez	a4,20003da8 <FLASH_EEPROM_CMD+0x1d2>
20003da4:	000787b7          	lui	a5,0x78
20003da8:	5579                	li	a0,-2
20003daa:	f0f97be3          	bgeu	s2,a5,20003cc0 <FLASH_EEPROM_CMD+0xea>
20003dae:	00990733          	add	a4,s2,s1
20003db2:	f0e7e7e3          	bltu	a5,a4,20003cc0 <FLASH_EEPROM_CMD+0xea>
20003db6:	4789                	li	a5,2
20003db8:	04fa1063          	bne	s4,a5,20003df8 <.loop406+0x22>
20003dbc:	8089                	srli	s1,s1,0x2
20003dbe:	4a55                	li	s4,21
20003dc0:	ec048ce3          	beqz	s1,20003c98 <FLASH_EEPROM_CMD+0xc2>
20003dc4:	85ca                	mv	a1,s2
20003dc6:	4509                	li	a0,2
20003dc8:	3379                	jal	20003b56 <FLASH_ROM_ADDR>
20003dca:	0991                	addi	s3,s3,4
20003dcc:	ffc9a703          	lw	a4,-4(s3)
20003dd0:	4791                	li	a5,4
20003dd2:	80e42023          	sw	a4,-2048(s0)

20003dd6 <.loop406>:
20003dd6:	80640703          	lb	a4,-2042(s0)
20003dda:	fe074ee3          	bltz	a4,20003dd6 <.loop406>
20003dde:	81440323          	sb	s4,-2042(s0)
20003de2:	17fd                	addi	a5,a5,-1
20003de4:	fbed                	bnez	a5,20003dd6 <.loop406>
20003de6:	14fd                	addi	s1,s1,-1
20003de8:	0911                	addi	s2,s2,4
20003dea:	c481                	beqz	s1,20003df2 <.loop406+0x1c>
20003dec:	0ff97793          	andi	a5,s2,255
20003df0:	ffe9                	bnez	a5,20003dca <FLASH_EEPROM_CMD+0x1f4>
20003df2:	3375                	jal	20003b9e <FLASH_ROM_WAIT>
20003df4:	f571                	bnez	a0,20003dc0 <FLASH_EEPROM_CMD+0x1ea>
20003df6:	b5e1                	j	20003cbe <FLASH_EEPROM_CMD+0xe8>
20003df8:	4785                	li	a5,1
20003dfa:	f4fa07e3          	beq	s4,a5,20003d48 <FLASH_EEPROM_CMD+0x172>
20003dfe:	85ca                	mv	a1,s2
20003e00:	452d                	li	a0,11
20003e02:	3b91                	jal	20003b56 <FLASH_ROM_ADDR>
20003e04:	fff48913          	addi	s2,s1,-1 # 7ffff <_data_lma+0x7c69f>
20003e08:	e80488e3          	beqz	s1,20003c98 <FLASH_EEPROM_CMD+0xc2>
20003e0c:	333d                	jal	20003b3a <FLASH_ROM_IN>
20003e0e:	00397793          	andi	a5,s2,3
20003e12:	eb91                	bnez	a5,20003e26 <.loop406+0x50>
20003e14:	80042683          	lw	a3,-2048(s0)
20003e18:	0009a703          	lw	a4,0(s3)
20003e1c:	00498793          	addi	a5,s3,4
20003e20:	e6e69de3          	bne	a3,a4,20003c9a <FLASH_EEPROM_CMD+0xc4>
20003e24:	89be                	mv	s3,a5
20003e26:	84ca                	mv	s1,s2
20003e28:	bff1                	j	20003e04 <.loop406+0x2e>
20003e2a:	47b5                	li	a5,13
20003e2c:	00fa1663          	bne	s4,a5,20003e38 <.loop406+0x62>
20003e30:	0b900513          	li	a0,185
20003e34:	31e5                	jal	20003b1c <FLASH_ROM_BEG>
20003e36:	b58d                	j	20003c98 <FLASH_EEPROM_CMD+0xc2>
20003e38:	47b1                	li	a5,12
20003e3a:	0ab00513          	li	a0,171
20003e3e:	fefa0be3          	beq	s4,a5,20003e34 <.loop406+0x5e>
20003e42:	4799                	li	a5,6
20003e44:	02fa1e63          	bne	s4,a5,20003e80 <.loop406+0xaa>
20003e48:	85ca                	mv	a1,s2
20003e4a:	452d                	li	a0,11
20003e4c:	3329                	jal	20003b56 <FLASH_ROM_ADDR>
20003e4e:	4481                	li	s1,0
20003e50:	4c0d                	li	s8,3
20003e52:	4a21                	li	s4,8
20003e54:	31dd                	jal	20003b3a <FLASH_ROM_IN>
20003e56:	01849663          	bne	s1,s8,20003e62 <.loop406+0x8c>
20003e5a:	80042783          	lw	a5,-2048(s0)
20003e5e:	00f9a023          	sw	a5,0(s3)
20003e62:	0485                	addi	s1,s1,1
20003e64:	ff4498e3          	bne	s1,s4,20003e54 <.loop406+0x7e>
20003e68:	80042783          	lw	a5,-2048(s0)
20003e6c:	01291713          	slli	a4,s2,0x12
20003e70:	00075563          	bgez	a4,20003e7a <.loop406+0xa4>
20003e74:	00f99223          	sh	a5,4(s3)
20003e78:	b505                	j	20003c98 <FLASH_EEPROM_CMD+0xc2>
20003e7a:	00f9a223          	sw	a5,4(s3)
20003e7e:	bd29                	j	20003c98 <FLASH_EEPROM_CMD+0xc2>
20003e80:	479d                	li	a5,7
20003e82:	02fa1963          	bne	s4,a5,20003eb4 <.loop406+0xde>
20003e86:	4581                	li	a1,0
20003e88:	04b00513          	li	a0,75
20003e8c:	31e9                	jal	20003b56 <FLASH_ROM_ADDR>
20003e8e:	44bd                	li	s1,15
20003e90:	0009a023          	sw	zero,0(s3)
20003e94:	0009a223          	sw	zero,4(s3)
20003e98:	597d                	li	s2,-1
20003e9a:	3145                	jal	20003b3a <FLASH_ROM_IN>
20003e9c:	0074f793          	andi	a5,s1,7
20003ea0:	97ce                	add	a5,a5,s3
20003ea2:	0007c703          	lbu	a4,0(a5) # 78000 <_data_lma+0x746a0>
20003ea6:	14fd                	addi	s1,s1,-1
20003ea8:	8d39                	xor	a0,a0,a4
20003eaa:	00a78023          	sb	a0,0(a5)
20003eae:	ff2496e3          	bne	s1,s2,20003e9a <.loop406+0xc4>
20003eb2:	b3dd                	j	20003c98 <FLASH_EEPROM_CMD+0xc2>
20003eb4:	47a1                	li	a5,8
20003eb6:	04fa1263          	bne	s4,a5,20003efa <.loop406+0x124>
20003eba:	31d5                	jal	20003b9e <FLASH_ROM_WAIT>
20003ebc:	4481                	li	s1,0
20003ebe:	00090d63          	beqz	s2,20003ed8 <.loop406+0x102>
20003ec2:	478d                	li	a5,3
20003ec4:	03c00493          	li	s1,60
20003ec8:	00f90863          	beq	s2,a5,20003ed8 <.loop406+0x102>
20003ecc:	05000493          	li	s1,80
20003ed0:	01990463          	beq	s2,s9,20003ed8 <.loop406+0x102>
20003ed4:	04400493          	li	s1,68
20003ed8:	07c57513          	andi	a0,a0,124
20003edc:	da950ee3          	beq	a0,s1,20003c98 <FLASH_EEPROM_CMD+0xc2>
20003ee0:	4519                	li	a0,6
20003ee2:	392d                	jal	20003b1c <FLASH_ROM_BEG>
20003ee4:	31a1                	jal	20003b2c <FLASH_ROM_END>
20003ee6:	4505                	li	a0,1
20003ee8:	3915                	jal	20003b1c <FLASH_ROM_BEG>
20003eea:	8526                	mv	a0,s1
20003eec:	39b1                	jal	20003b48 <FLASH_ROM_OUT>
20003eee:	4509                	li	a0,2
20003ef0:	39a1                	jal	20003b48 <FLASH_ROM_OUT>
20003ef2:	3175                	jal	20003b9e <FLASH_ROM_WAIT>
20003ef4:	da0512e3          	bnez	a0,20003c98 <FLASH_EEPROM_CMD+0xc2>
20003ef8:	b3d9                	j	20003cbe <FLASH_EEPROM_CMD+0xe8>
20003efa:	4791                	li	a5,4
20003efc:	00fa1963          	bne	s4,a5,20003f0e <.loop406+0x138>
20003f00:	06600513          	li	a0,102
20003f04:	3921                	jal	20003b1c <FLASH_ROM_BEG>
20003f06:	311d                	jal	20003b2c <FLASH_ROM_END>
20003f08:	09900513          	li	a0,153
20003f0c:	b725                	j	20003e34 <.loop406+0x5e>
20003f0e:	d80a05e3          	beqz	s4,20003c98 <FLASH_EEPROM_CMD+0xc2>
20003f12:	54f1                	li	s1,-4
20003f14:	b359                	j	20003c9a <FLASH_EEPROM_CMD+0xc4>
	...

Disassembly of section .text:

0000071c <handle_reset>:
handle_reset():
d:\CH573FEVT\LaserRangeFinder\obj/../Startup/startup_CH573.S:116
	.weak	handle_reset
	.align	1
handle_reset:
.option push 
.option	norelax 
	la gp, __global_pointer$
     71c:	20004197          	auipc	gp,0x20004
     720:	14418193          	addi	gp,gp,324 # 20004860 <__global_pointer$>
d:\CH573FEVT\LaserRangeFinder\obj/../Startup/startup_CH573.S:119
.option	pop 
1:
	la sp, _eusrstack 
     724:	20008117          	auipc	sp,0x20008
     728:	8dc10113          	addi	sp,sp,-1828 # 20008000 <_eusrstack>
d:\CH573FEVT\LaserRangeFinder\obj/../Startup/startup_CH573.S:123

/* Load highcode code  section from flash to RAM */
2:
    la a0, _highcode_lma
     72c:	00400513          	li	a0,4
d:\CH573FEVT\LaserRangeFinder\obj/../Startup/startup_CH573.S:124
    la a1, _highcode_vma_start
     730:	20003597          	auipc	a1,0x20003
     734:	0d058593          	addi	a1,a1,208 # 20003800 <_highcode_vma_start>
d:\CH573FEVT\LaserRangeFinder\obj/../Startup/startup_CH573.S:125
    la a2, _highcode_vma_end
     738:	20003617          	auipc	a2,0x20003
     73c:	7e060613          	addi	a2,a2,2016 # 20003f18 <_highcode_vma_end>
d:\CH573FEVT\LaserRangeFinder\obj/../Startup/startup_CH573.S:126
    bgeu a1, a2, 2f
     740:	00c5fa63          	bgeu	a1,a2,754 <handle_reset+0x38>
d:\CH573FEVT\LaserRangeFinder\obj/../Startup/startup_CH573.S:128
1:
    lw t0, (a0)
     744:	00052283          	lw	t0,0(a0)
d:\CH573FEVT\LaserRangeFinder\obj/../Startup/startup_CH573.S:129
    sw t0, (a1)
     748:	0055a023          	sw	t0,0(a1)
d:\CH573FEVT\LaserRangeFinder\obj/../Startup/startup_CH573.S:130
    addi a0, a0, 4
     74c:	0511                	addi	a0,a0,4
d:\CH573FEVT\LaserRangeFinder\obj/../Startup/startup_CH573.S:131
    addi a1, a1, 4
     74e:	0591                	addi	a1,a1,4
d:\CH573FEVT\LaserRangeFinder\obj/../Startup/startup_CH573.S:132
    bltu a1, a2, 1b
     750:	fec5eae3          	bltu	a1,a2,744 <handle_reset+0x28>
d:\CH573FEVT\LaserRangeFinder\obj/../Startup/startup_CH573.S:136

/* Load data section from flash to RAM */
2:
	la a0, _data_lma
     754:	00003517          	auipc	a0,0x3
     758:	20c50513          	addi	a0,a0,524 # 3960 <_data_lma>
d:\CH573FEVT\LaserRangeFinder\obj/../Startup/startup_CH573.S:137
	la a1, _data_vma
     75c:	20004597          	auipc	a1,0x20004
     760:	8a458593          	addi	a1,a1,-1884 # 20004000 <_data_vma>
d:\CH573FEVT\LaserRangeFinder\obj/../Startup/startup_CH573.S:138
	la a2, _edata
     764:	80818613          	addi	a2,gp,-2040 # 20004068 <_edata>
d:\CH573FEVT\LaserRangeFinder\obj/../Startup/startup_CH573.S:139
	bgeu a1, a2, 2f
     768:	00c5fa63          	bgeu	a1,a2,77c <handle_reset+0x60>
d:\CH573FEVT\LaserRangeFinder\obj/../Startup/startup_CH573.S:141
1:
	lw t0, (a0)
     76c:	00052283          	lw	t0,0(a0)
d:\CH573FEVT\LaserRangeFinder\obj/../Startup/startup_CH573.S:142
	sw t0, (a1)
     770:	0055a023          	sw	t0,0(a1)
d:\CH573FEVT\LaserRangeFinder\obj/../Startup/startup_CH573.S:143
	addi a0, a0, 4
     774:	0511                	addi	a0,a0,4
d:\CH573FEVT\LaserRangeFinder\obj/../Startup/startup_CH573.S:144
	addi a1, a1, 4
     776:	0591                	addi	a1,a1,4
d:\CH573FEVT\LaserRangeFinder\obj/../Startup/startup_CH573.S:145
	bltu a1, a2, 1b
     778:	fec5eae3          	bltu	a1,a2,76c <handle_reset+0x50>
d:\CH573FEVT\LaserRangeFinder\obj/../Startup/startup_CH573.S:148
2:
	/* clear bss section */
	la a0, _sbss
     77c:	80818513          	addi	a0,gp,-2040 # 20004068 <_edata>
d:\CH573FEVT\LaserRangeFinder\obj/../Startup/startup_CH573.S:149
	la a1, _ebss
     780:	85018593          	addi	a1,gp,-1968 # 200040b0 <_ebss>
d:\CH573FEVT\LaserRangeFinder\obj/../Startup/startup_CH573.S:150
	bgeu a0, a1, 2f
     784:	00b57763          	bgeu	a0,a1,792 <handle_reset+0x76>
d:\CH573FEVT\LaserRangeFinder\obj/../Startup/startup_CH573.S:152
1:
	sw zero, (a0)
     788:	00052023          	sw	zero,0(a0)
d:\CH573FEVT\LaserRangeFinder\obj/../Startup/startup_CH573.S:153
	addi a0, a0, 4
     78c:	0511                	addi	a0,a0,4
d:\CH573FEVT\LaserRangeFinder\obj/../Startup/startup_CH573.S:154
	bltu a0, a1, 1b
     78e:	feb56de3          	bltu	a0,a1,788 <handle_reset+0x6c>
d:\CH573FEVT\LaserRangeFinder\obj/../Startup/startup_CH573.S:156
2:
    li t0, 0x88
     792:	08800293          	li	t0,136
d:\CH573FEVT\LaserRangeFinder\obj/../Startup/startup_CH573.S:157
    csrs mstatus, t0
     796:	3002a073          	csrs	mstatus,t0
d:\CH573FEVT\LaserRangeFinder\obj/../Startup/startup_CH573.S:158
	la t0, _vector_base
     79a:	20003297          	auipc	t0,0x20003
     79e:	06628293          	addi	t0,t0,102 # 20003800 <_highcode_vma_start>
d:\CH573FEVT\LaserRangeFinder\obj/../Startup/startup_CH573.S:159
    ori t0, t0, 1
     7a2:	0012e293          	ori	t0,t0,1
d:\CH573FEVT\LaserRangeFinder\obj/../Startup/startup_CH573.S:160
	csrw mtvec, t0
     7a6:	30529073          	csrw	mtvec,t0
d:\CH573FEVT\LaserRangeFinder\obj/../Startup/startup_CH573.S:162

    lui a4,0x40001
     7aa:	40001737          	lui	a4,0x40001
d:\CH573FEVT\LaserRangeFinder\obj/../Startup/startup_CH573.S:163
    li  a5,87
     7ae:	05700793          	li	a5,87
d:\CH573FEVT\LaserRangeFinder\obj/../Startup/startup_CH573.S:164
    sb  a5,64(a4)
     7b2:	04f70023          	sb	a5,64(a4) # 40001040 <_eusrstack+0x1fff9040>
d:\CH573FEVT\LaserRangeFinder\obj/../Startup/startup_CH573.S:165
    li  a5,-88
     7b6:	fa800793          	li	a5,-88
d:\CH573FEVT\LaserRangeFinder\obj/../Startup/startup_CH573.S:166
    sb  a5,64(a4)
     7ba:	04f70023          	sb	a5,64(a4)
d:\CH573FEVT\LaserRangeFinder\obj/../Startup/startup_CH573.S:167
    fence.i
     7be:	0000100f          	fence.i
d:\CH573FEVT\LaserRangeFinder\obj/../Startup/startup_CH573.S:168
    lw  a5,72(a4)
     7c2:	473c                	lw	a5,72(a4)
d:\CH573FEVT\LaserRangeFinder\obj/../Startup/startup_CH573.S:169
    lui a3,0xfa000
     7c4:	fa0006b7          	lui	a3,0xfa000
d:\CH573FEVT\LaserRangeFinder\obj/../Startup/startup_CH573.S:170
    addi  a3,a3,-8
     7c8:	16e1                	addi	a3,a3,-8
d:\CH573FEVT\LaserRangeFinder\obj/../Startup/startup_CH573.S:171
    and a5,a5,a3
     7ca:	8ff5                	and	a5,a5,a3
d:\CH573FEVT\LaserRangeFinder\obj/../Startup/startup_CH573.S:172
    lui a3,0x6000
     7cc:	060006b7          	lui	a3,0x6000
d:\CH573FEVT\LaserRangeFinder\obj/../Startup/startup_CH573.S:173
    addi a3,a3,5
     7d0:	0695                	addi	a3,a3,5
d:\CH573FEVT\LaserRangeFinder\obj/../Startup/startup_CH573.S:174
    or  a5,a5,a3
     7d2:	8fd5                	or	a5,a5,a3
d:\CH573FEVT\LaserRangeFinder\obj/../Startup/startup_CH573.S:175
    sw  a5,72(a4)
     7d4:	c73c                	sw	a5,72(a4)
d:\CH573FEVT\LaserRangeFinder\obj/../Startup/startup_CH573.S:177

	la t0, main
     7d6:	00001297          	auipc	t0,0x1
     7da:	a2a28293          	addi	t0,t0,-1494 # 1200 <main>
d:\CH573FEVT\LaserRangeFinder\obj/../Startup/startup_CH573.S:178
	csrw mepc, t0
     7de:	34129073          	csrw	mepc,t0
d:\CH573FEVT\LaserRangeFinder\obj/../Startup/startup_CH573.S:185
	/* enable vector relocation
	li t0, 0xE000ED14
	li t1, 1
	sw t1, 0(t0)*/
	
	mret
     7e2:	30200073          	mret

000007e6 <memset>:
memset():
     7e6:	433d                	li	t1,15
     7e8:	872a                	mv	a4,a0
     7ea:	02c37363          	bgeu	t1,a2,810 <memset+0x2a>
     7ee:	00f77793          	andi	a5,a4,15
     7f2:	efbd                	bnez	a5,870 <memset+0x8a>
     7f4:	e5ad                	bnez	a1,85e <memset+0x78>
     7f6:	ff067693          	andi	a3,a2,-16
     7fa:	8a3d                	andi	a2,a2,15
     7fc:	96ba                	add	a3,a3,a4
     7fe:	c30c                	sw	a1,0(a4)
     800:	c34c                	sw	a1,4(a4)
     802:	c70c                	sw	a1,8(a4)
     804:	c74c                	sw	a1,12(a4)
     806:	0741                	addi	a4,a4,16
     808:	fed76be3          	bltu	a4,a3,7fe <memset+0x18>
     80c:	e211                	bnez	a2,810 <memset+0x2a>
     80e:	8082                	ret
     810:	40c306b3          	sub	a3,t1,a2
     814:	068a                	slli	a3,a3,0x2
     816:	00000297          	auipc	t0,0x0
     81a:	9696                	add	a3,a3,t0
     81c:	00a68067          	jr	10(a3) # 600000a <_data_lma+0x5ffc6aa>
     820:	00b70723          	sb	a1,14(a4)
     824:	00b706a3          	sb	a1,13(a4)
     828:	00b70623          	sb	a1,12(a4)
     82c:	00b705a3          	sb	a1,11(a4)
     830:	00b70523          	sb	a1,10(a4)
     834:	00b704a3          	sb	a1,9(a4)
     838:	00b70423          	sb	a1,8(a4)
     83c:	00b703a3          	sb	a1,7(a4)
     840:	00b70323          	sb	a1,6(a4)
     844:	00b702a3          	sb	a1,5(a4)
     848:	00b70223          	sb	a1,4(a4)
     84c:	00b701a3          	sb	a1,3(a4)
     850:	00b70123          	sb	a1,2(a4)
     854:	00b700a3          	sb	a1,1(a4)
     858:	00b70023          	sb	a1,0(a4)
     85c:	8082                	ret
     85e:	0ff5f593          	andi	a1,a1,255
     862:	00859693          	slli	a3,a1,0x8
     866:	8dd5                	or	a1,a1,a3
     868:	01059693          	slli	a3,a1,0x10
     86c:	8dd5                	or	a1,a1,a3
     86e:	b761                	j	7f6 <memset+0x10>
     870:	00279693          	slli	a3,a5,0x2
     874:	00000297          	auipc	t0,0x0
     878:	9696                	add	a3,a3,t0
     87a:	8286                	mv	t0,ra
     87c:	fa8680e7          	jalr	-88(a3)
     880:	8096                	mv	ra,t0
     882:	17c1                	addi	a5,a5,-16
     884:	8f1d                	sub	a4,a4,a5
     886:	963e                	add	a2,a2,a5
     888:	f8c374e3          	bgeu	t1,a2,810 <memset+0x2a>
     88c:	b7a5                	j	7f4 <memset+0xe>

0000088e <TFT_Fill_Area>:
TFT_Fill_Area():
d:\CH573FEVT\LaserRangeFinder\obj/../src/TFTc/TFT_CAD.c:75
 * @retval Êó†
 */
void TFT_Fill_Area(TFT_HandleTypeDef *htft, uint16_t x_start, uint16_t y_start, uint16_t x_end, uint16_t y_end, uint16_t color)
{
	// Ê£ÄÊü•ÂùêÊ†áÊúâÊïàÊÄßÔºåÈò≤Ê≠¢ x_end <= x_start Êàñ y_end <= y_start
	if (x_end <= x_start || y_end <= y_start)
     88e:	06d5f463          	bgeu	a1,a3,8f6 <TFT_Fill_Area+0x68>
d:\CH573FEVT\LaserRangeFinder\obj/../src/TFTc/TFT_CAD.c:75 (discriminator 1)
     892:	06e67263          	bgeu	a2,a4,8f6 <TFT_Fill_Area+0x68>
d:\CH573FEVT\LaserRangeFinder\obj/../src/TFTc/TFT_CAD.c:73
{
     896:	1101                	addi	sp,sp,-32
     898:	cc22                	sw	s0,24(sp)
d:\CH573FEVT\LaserRangeFinder\obj/../src/TFTc/TFT_CAD.c:78
		return;

	uint32_t total_pixels = (uint32_t)(x_end - x_start) * (y_end - y_start);
     89a:	40c70833          	sub	a6,a4,a2
     89e:	40b68433          	sub	s0,a3,a1
     8a2:	03040433          	mul	s0,s0,a6
d:\CH573FEVT\LaserRangeFinder\obj/../src/TFTc/TFT_CAD.c:73
{
     8a6:	ce06                	sw	ra,28(sp)
     8a8:	ca26                	sw	s1,20(sp)
     8aa:	c84a                	sw	s2,16(sp)
     8ac:	c64e                	sw	s3,12(sp)
d:\CH573FEVT\LaserRangeFinder\obj/../src/TFTc/TFT_CAD.c:79
	if (total_pixels == 0)
     8ae:	cc0d                	beqz	s0,8e8 <TFT_Fill_Area+0x5a>
d:\CH573FEVT\LaserRangeFinder\obj/../src/TFTc/TFT_CAD.c:82
		return;

	TFT_Set_Address(htft, x_start, y_start, x_end - 1, y_end - 1); // ËÆæÁΩÆÊòæÁ§∫ËåÉÂõ¥ (Set_Address ‰ΩøÁî®ÂåÖÂê´ÁöÑÂùêÊ†á)
     8b0:	177d                	addi	a4,a4,-1
     8b2:	16fd                	addi	a3,a3,-1
     8b4:	0742                	slli	a4,a4,0x10
     8b6:	06c2                	slli	a3,a3,0x10
     8b8:	8341                	srli	a4,a4,0x10
     8ba:	82c1                	srli	a3,a3,0x10
     8bc:	84aa                	mv	s1,a0
     8be:	89be                	mv	s3,a5
     8c0:	608000ef          	jal	ra,ec8 <TFT_Set_Address>
d:\CH573FEVT\LaserRangeFinder\obj/../src/TFTc/TFT_CAD.c:85

	// ÈáçÁΩÆÁºìÂÜ≤Âå∫‰ª•Á°Æ‰øù‰ªé‰∏Ä‰∏™Âπ≤ÂáÄÁöÑÁºìÂÜ≤Âå∫ÂºÄÂßã
	TFT_Reset_Buffer(htft);
     8c4:	8526                	mv	a0,s1
     8c6:	29c5                	jal	db6 <TFT_Reset_Buffer>
d:\CH573FEVT\LaserRangeFinder\obj/../src/TFTc/TFT_CAD.c:88

	// ÊâπÈáèÂ°´ÂÖÖÂÉèÁ¥†ÔºåÂà©Áî®ÁºìÂÜ≤Âå∫ÊèêÈ´òÊÄßËÉΩ
	for (uint32_t i = 0; i < total_pixels; i++)
     8c8:	4901                	li	s2,0
d:\CH573FEVT\LaserRangeFinder\obj/../src/TFTc/TFT_CAD.c:90
	{
		TFT_Buffer_Write16(htft, color); // ÂÜôÂÖ•È¢úËâ≤Êï∞ÊçÆÂà∞ÁºìÂÜ≤Âå∫ÔºåÁºìÂÜ≤Âå∫Êª°Êó∂‰ºöËá™Âä®ÂèëÈÄÅ
     8ca:	85ce                	mv	a1,s3
     8cc:	8526                	mv	a0,s1
d:\CH573FEVT\LaserRangeFinder\obj/../src/TFTc/TFT_CAD.c:88
	for (uint32_t i = 0; i < total_pixels; i++)
     8ce:	0905                	addi	s2,s2,1
d:\CH573FEVT\LaserRangeFinder\obj/../src/TFTc/TFT_CAD.c:90
		TFT_Buffer_Write16(htft, color); // ÂÜôÂÖ•È¢úËâ≤Êï∞ÊçÆÂà∞ÁºìÂÜ≤Âå∫ÔºåÁºìÂÜ≤Âå∫Êª°Êó∂‰ºöËá™Âä®ÂèëÈÄÅ
     8d0:	2169                	jal	d5a <TFT_Buffer_Write16>
d:\CH573FEVT\LaserRangeFinder\obj/../src/TFTc/TFT_CAD.c:88
	for (uint32_t i = 0; i < total_pixels; i++)
     8d2:	ff241ce3          	bne	s0,s2,8ca <TFT_Fill_Area+0x3c>
d:\CH573FEVT\LaserRangeFinder\obj/../src/TFTc/TFT_CAD.c:95
	}

	// Á°Æ‰øùÊâÄÊúâÂâ©‰ΩôÊï∞ÊçÆÈÉΩË¢´ÂèëÈÄÅ
	TFT_Flush_Buffer(htft, 1);
}
     8d6:	4462                	lw	s0,24(sp)
     8d8:	40f2                	lw	ra,28(sp)
     8da:	4942                	lw	s2,16(sp)
     8dc:	49b2                	lw	s3,12(sp)
d:\CH573FEVT\LaserRangeFinder\obj/../src/TFTc/TFT_CAD.c:94
	TFT_Flush_Buffer(htft, 1);
     8de:	8526                	mv	a0,s1
d:\CH573FEVT\LaserRangeFinder\obj/../src/TFTc/TFT_CAD.c:95
}
     8e0:	44d2                	lw	s1,20(sp)
d:\CH573FEVT\LaserRangeFinder\obj/../src/TFTc/TFT_CAD.c:94
	TFT_Flush_Buffer(htft, 1);
     8e2:	4585                	li	a1,1
d:\CH573FEVT\LaserRangeFinder\obj/../src/TFTc/TFT_CAD.c:95
}
     8e4:	6105                	addi	sp,sp,32
d:\CH573FEVT\LaserRangeFinder\obj/../src/TFTc/TFT_CAD.c:94
	TFT_Flush_Buffer(htft, 1);
     8e6:	a1b9                	j	d34 <TFT_Flush_Buffer>
d:\CH573FEVT\LaserRangeFinder\obj/../src/TFTc/TFT_CAD.c:95
}
     8e8:	40f2                	lw	ra,28(sp)
     8ea:	4462                	lw	s0,24(sp)
     8ec:	44d2                	lw	s1,20(sp)
     8ee:	4942                	lw	s2,16(sp)
     8f0:	49b2                	lw	s3,12(sp)
     8f2:	6105                	addi	sp,sp,32
     8f4:	8082                	ret
     8f6:	8082                	ret

000008f8 <TFT_Set_Direction>:
TFT_Set_Direction():
d:\CH573FEVT\LaserRangeFinder\obj/../src/TFTc/TFT_init.c:162
 * @retval Êó†
 * @note   ÂêÑÁßçTFTÂ±èÂπïÁöÑMADCTLËÆæÁΩÆÂèØËÉΩ‰∏çÂêåÔºåËØ∑Ê†πÊçÆÊï∞ÊçÆÊâãÂÜåË∞ÉÊï¥
 *         ST7735SÁ∫¢ÊùøÂíåST7735RÈªëÊùøÁöÑMADCTLËÆæÁΩÆÂíåÈ¢úËâ≤È°∫Â∫è‰∏çÂêå
 */
static void TFT_Set_Direction(TFT_HandleTypeDef *htft, uint8_t direction)
{
     8f8:	1141                	addi	sp,sp,-16
     8fa:	c226                	sw	s1,4(sp)
     8fc:	84ae                	mv	s1,a1
d:\CH573FEVT\LaserRangeFinder\obj/../src/TFTc/TFT_init.c:163
	TFT_Write_Command(htft, 0x36); // MADCTL - Memory Data Access Control
     8fe:	03600593          	li	a1,54
d:\CH573FEVT\LaserRangeFinder\obj/../src/TFTc/TFT_init.c:162
{
     902:	c422                	sw	s0,8(sp)
     904:	c606                	sw	ra,12(sp)
     906:	842a                	mv	s0,a0
d:\CH573FEVT\LaserRangeFinder\obj/../src/TFTc/TFT_init.c:163
	TFT_Write_Command(htft, 0x36); // MADCTL - Memory Data Access Control
     908:	2359                	jal	e8e <TFT_Write_Command>
d:\CH573FEVT\LaserRangeFinder\obj/../src/TFTc/TFT_init.c:173
	// MX: ÂàóÂú∞ÂùÄÈ°∫Â∫è (0=‰ªéÂ∑¶Âà∞Âè≥, 1=‰ªéÂè≥Âà∞Â∑¶)
	// MV: Ë°å/Âàó‰∫§Êç¢ (0=Ê≠£Â∏∏, 1=‰∫§Êç¢)
	// ML: ÂûÇÁõ¥Âà∑Êñ∞È°∫Â∫è (0=‰ªé‰∏äÂà∞‰∏ã, 1=‰ªé‰∏ãÂà∞‰∏ä)
	// RGB: È¢úËâ≤È°∫Â∫è (0=RGB, 1=BGR)
	// MH: Ê∞¥Âπ≥Âà∑Êñ∞È°∫Â∫è (0=‰ªéÂ∑¶Âà∞Âè≥, 1=‰ªéÂè≥Âà∞Â∑¶)
	switch (direction)
     90a:	4785                	li	a5,1
d:\CH573FEVT\LaserRangeFinder\obj/../src/TFTc/TFT_init.c:179
	{
	case 0:							 // 0Â∫¶ÊóãËΩ¨
		TFT_Write_Data8(htft, 0x00); // MY=0, MX=0, MV=0, RGB
		break;
	case 1:							 // 90Â∫¶ÊóãËΩ¨
		TFT_Write_Data8(htft, 0xA0); // MY=1, MX=0, MV=1, RGB
     90c:	0a000593          	li	a1,160
     910:	00f48f63          	beq	s1,a5,92e <TFT_Set_Direction+0x36>
d:\CH573FEVT\LaserRangeFinder\obj/../src/TFTc/TFT_init.c:176
		TFT_Write_Data8(htft, 0x00); // MY=0, MX=0, MV=0, RGB
     914:	4581                	li	a1,0
     916:	cc81                	beqz	s1,92e <TFT_Set_Direction+0x36>
     918:	4789                	li	a5,2
     91a:	00f48863          	beq	s1,a5,92a <TFT_Set_Direction+0x32>
     91e:	478d                	li	a5,3
     920:	00f49563          	bne	s1,a5,92a <TFT_Set_Direction+0x32>
d:\CH573FEVT\LaserRangeFinder\obj/../src/TFTc/TFT_init.c:185
		break;
	case 2:							 // 180Â∫¶ÊóãËΩ¨
		TFT_Write_Data8(htft, 0xC0); // MY=1, MX=1, MV=0, RGB
		break;
	case 3:							 // 270Â∫¶ÊóãËΩ¨
		TFT_Write_Data8(htft, 0x60); // MY=0, MX=1, MV=1, RGB
     924:	06000593          	li	a1,96
     928:	a019                	j	92e <TFT_Set_Direction+0x36>
d:\CH573FEVT\LaserRangeFinder\obj/../src/TFTc/TFT_init.c:182
		TFT_Write_Data8(htft, 0xC0); // MY=1, MX=1, MV=0, RGB
     92a:	0c000593          	li	a1,192
d:\CH573FEVT\LaserRangeFinder\obj/../src/TFTc/TFT_init.c:185
		TFT_Write_Data8(htft, 0x60); // MY=0, MX=1, MV=1, RGB
     92e:	8522                	mv	a0,s0
d:\CH573FEVT\LaserRangeFinder\obj/../src/TFTc/TFT_init.c:191
		break;
	default:						 // ÈªòËÆ§0Â∫¶ÊóãËΩ¨
		TFT_Write_Data8(htft, 0xC0); // MY=1, MX=1, MV=0, RGB
		break;
	}
}
     930:	4422                	lw	s0,8(sp)
     932:	40b2                	lw	ra,12(sp)
     934:	4492                	lw	s1,4(sp)
     936:	0141                	addi	sp,sp,16
d:\CH573FEVT\LaserRangeFinder\obj/../src/TFTc/TFT_init.c:185
		TFT_Write_Data8(htft, 0x60); // MY=0, MX=1, MV=1, RGB
     938:	a9f9                	j	e16 <TFT_Write_Data8>

0000093a <TFT_Init_ST7789v3>:
TFT_Init_ST7789v3():
d:\CH573FEVT\LaserRangeFinder\obj/../src/TFTc/TFT_init.c:200
 * @param  htft TFTÂè•ÊüÑÊåáÈíà
 * @retval Êó†
 * @note   ÈÄÇÁî®‰∫éST7789v3È©±Âä®ÁöÑTFTÂ±èÂπïÔºå240x240ÂàÜËæ®Áéá
 */
void TFT_Init_ST7789v3(TFT_HandleTypeDef *htft)
{
     93a:	1141                	addi	sp,sp,-16
     93c:	c606                	sw	ra,12(sp)
     93e:	c422                	sw	s0,8(sp)
     940:	842a                	mv	s0,a0
d:\CH573FEVT\LaserRangeFinder\obj/../src/TFTc/TFT_init.c:202
	// 1. ÂàùÂßãÂåñÂ∫ïÂ±ÇIOÔºàGPIO/SPIÁ≠âÔºâ
	TFT_IO_Init(htft);
     942:	29b5                	jal	dbe <TFT_IO_Init>
d:\CH573FEVT\LaserRangeFinder\obj/../src/TFTc/TFT_init.c:205

	// 2. Á°¨‰ª∂Â§ç‰ΩçÊµÅÁ®ã
	TFT_Pin_RES_Set(htft, 0); // Êãâ‰ΩéÂ§ç‰ΩçÂºïËÑö
     944:	4581                	li	a1,0
     946:	8522                	mv	a0,s0
     948:	2ca5                	jal	bc0 <TFT_Pin_RES_Set>
d:\CH573FEVT\LaserRangeFinder\obj/../src/TFTc/TFT_init.c:206
	HAL_Delay(100);			  // ‰øùÊåÅ100ms‰ΩéÁîµÂπ≥
     94a:	06400513          	li	a0,100
     94e:	20003097          	auipc	ra,0x20003
     952:	1a6080e7          	jalr	422(ra) # 20003af4 <mDelaymS>
d:\CH573FEVT\LaserRangeFinder\obj/../src/TFTc/TFT_init.c:207
	TFT_Pin_RES_Set(htft, 1); // ÈáäÊîæÂ§ç‰ΩçÂºïËÑö
     956:	4585                	li	a1,1
     958:	8522                	mv	a0,s0
     95a:	249d                	jal	bc0 <TFT_Pin_RES_Set>
d:\CH573FEVT\LaserRangeFinder\obj/../src/TFTc/TFT_init.c:208
	HAL_Delay(100);			  // Á≠âÂæÖÂ§ç‰ΩçÂÆåÊàê
     95c:	06400513          	li	a0,100
     960:	20003097          	auipc	ra,0x20003
     964:	194080e7          	jalr	404(ra) # 20003af4 <mDelaymS>
d:\CH573FEVT\LaserRangeFinder\obj/../src/TFTc/TFT_init.c:210

	TFT_Pin_BLK_Set(htft, 1); // ÂºÄÂêØËÉåÂÖâ
     968:	4585                	li	a1,1
     96a:	8522                	mv	a0,s0
     96c:	2e11                	jal	c80 <TFT_Pin_BLK_Set>
d:\CH573FEVT\LaserRangeFinder\obj/../src/TFTc/TFT_init.c:211
	HAL_Delay(100);			  // ËÉåÂÖâÁ®≥ÂÆöÊó∂Èó¥
     96e:	06400513          	li	a0,100
     972:	20003097          	auipc	ra,0x20003
     976:	182080e7          	jalr	386(ra) # 20003af4 <mDelaymS>
d:\CH573FEVT\LaserRangeFinder\obj/../src/TFTc/TFT_init.c:214

	// 3. ÂèëÈÄÅËΩØ‰ª∂Â§ç‰ΩçÂëΩ‰ª§
	TFT_Write_Command(htft, 0x01); // ËΩØ‰ª∂Â§ç‰Ωç
     97a:	4585                	li	a1,1
     97c:	8522                	mv	a0,s0
     97e:	2b01                	jal	e8e <TFT_Write_Command>
d:\CH573FEVT\LaserRangeFinder\obj/../src/TFTc/TFT_init.c:215
	HAL_Delay(120);				   // Á≠âÂæÖÂ§ç‰ΩçÂÆåÊàê
     980:	07800513          	li	a0,120
     984:	20003097          	auipc	ra,0x20003
     988:	170080e7          	jalr	368(ra) # 20003af4 <mDelaymS>
d:\CH573FEVT\LaserRangeFinder\obj/../src/TFTc/TFT_init.c:218

	// 4. ÈÄÄÂá∫Áù°Áú†Ê®°Âºè
	TFT_Write_Command(htft, 0x11); // ÈÄÄÂá∫Áù°Áú†Ê®°Âºè(Sleep OUT)
     98c:	45c5                	li	a1,17
     98e:	8522                	mv	a0,s0
     990:	29fd                	jal	e8e <TFT_Write_Command>
d:\CH573FEVT\LaserRangeFinder\obj/../src/TFTc/TFT_init.c:219
	HAL_Delay(120);				   // Á≠âÂæÖÂî§ÈÜíÂÆåÊàê
     992:	07800513          	li	a0,120
     996:	20003097          	auipc	ra,0x20003
     99a:	15e080e7          	jalr	350(ra) # 20003af4 <mDelaymS>
d:\CH573FEVT\LaserRangeFinder\obj/../src/TFTc/TFT_init.c:222

	// 5. ËÆæÁΩÆÂ±èÂπïÊòæÁ§∫ÊñπÂêë
	TFT_Set_Direction(htft, htft->display_direction);
     99e:	02e44583          	lbu	a1,46(s0)
     9a2:	8522                	mv	a0,s0
     9a4:	3f91                	jal	8f8 <TFT_Set_Direction>
d:\CH573FEVT\LaserRangeFinder\obj/../src/TFTc/TFT_init.c:225

	// 6. ËÆæÁΩÆÂÉèÁ¥†Ê†ºÂºè‰∏∫16‰ΩçRGB565
	TFT_Write_Command(htft, 0x3A); // ÂÉèÁ¥†Ê†ºÂºèËÆæÁΩÆÂëΩ‰ª§
     9a6:	8522                	mv	a0,s0
     9a8:	03a00593          	li	a1,58
     9ac:	21cd                	jal	e8e <TFT_Write_Command>
d:\CH573FEVT\LaserRangeFinder\obj/../src/TFTc/TFT_init.c:226
	TFT_Write_Data8(htft, 0x05);   // 0x05Ë°®Á§∫16‰Ωç/pixel
     9ae:	8522                	mv	a0,s0
     9b0:	4595                	li	a1,5
     9b2:	2195                	jal	e16 <TFT_Write_Data8>
d:\CH573FEVT\LaserRangeFinder\obj/../src/TFTc/TFT_init.c:229

	// 7. ËÆæÁΩÆPorchÊéßÂà∂ÔºàÂ∏ßÂêåÊ≠•‰ø°Âè∑Ôºâ
	TFT_Write_Command(htft, 0xB2); // PorchËÆæÁΩÆÂëΩ‰ª§
     9b4:	8522                	mv	a0,s0
     9b6:	0b200593          	li	a1,178
     9ba:	29d1                	jal	e8e <TFT_Write_Command>
d:\CH573FEVT\LaserRangeFinder\obj/../src/TFTc/TFT_init.c:230
	TFT_Write_Data8(htft, 0x0C);   // ÂâçÂªä
     9bc:	8522                	mv	a0,s0
     9be:	45b1                	li	a1,12
     9c0:	2999                	jal	e16 <TFT_Write_Data8>
d:\CH573FEVT\LaserRangeFinder\obj/../src/TFTc/TFT_init.c:231
	TFT_Write_Data8(htft, 0x0C);   // ÂêéÂªä
     9c2:	8522                	mv	a0,s0
     9c4:	45b1                	li	a1,12
     9c6:	2981                	jal	e16 <TFT_Write_Data8>
d:\CH573FEVT\LaserRangeFinder\obj/../src/TFTc/TFT_init.c:232
	TFT_Write_Data8(htft, 0x00);   // Á©∫Èó≤Ê®°Âºè
     9c8:	8522                	mv	a0,s0
     9ca:	4581                	li	a1,0
     9cc:	21a9                	jal	e16 <TFT_Write_Data8>
d:\CH573FEVT\LaserRangeFinder\obj/../src/TFTc/TFT_init.c:233
	TFT_Write_Data8(htft, 0x33);   // Ë°åÂêåÊ≠•
     9ce:	8522                	mv	a0,s0
     9d0:	03300593          	li	a1,51
     9d4:	2189                	jal	e16 <TFT_Write_Data8>
d:\CH573FEVT\LaserRangeFinder\obj/../src/TFTc/TFT_init.c:234
	TFT_Write_Data8(htft, 0x33);   // Â∏ßÂêåÊ≠•
     9d6:	8522                	mv	a0,s0
     9d8:	03300593          	li	a1,51
     9dc:	292d                	jal	e16 <TFT_Write_Data8>
d:\CH573FEVT\LaserRangeFinder\obj/../src/TFTc/TFT_init.c:237

	// 8. ËÆæÁΩÆGateÊéßÂà∂
	TFT_Write_Command(htft, 0xB7); // GateÊéßÂà∂ÂëΩ‰ª§
     9de:	8522                	mv	a0,s0
     9e0:	0b700593          	li	a1,183
     9e4:	216d                	jal	e8e <TFT_Write_Command>
d:\CH573FEVT\LaserRangeFinder\obj/../src/TFTc/TFT_init.c:238
	TFT_Write_Data8(htft, 0x72);   // ÂÖ∑‰ΩìÂèÇÊï∞ËßÅÊï∞ÊçÆÊâãÂÜå
     9e6:	8522                	mv	a0,s0
     9e8:	07200593          	li	a1,114
     9ec:	212d                	jal	e16 <TFT_Write_Data8>
d:\CH573FEVT\LaserRangeFinder\obj/../src/TFTc/TFT_init.c:241

	// 9. ËÆæÁΩÆVCOMÁîµÂéã
	TFT_Write_Command(htft, 0xBB); // VCOMËÆæÁΩÆ
     9ee:	8522                	mv	a0,s0
     9f0:	0bb00593          	li	a1,187
     9f4:	2969                	jal	e8e <TFT_Write_Command>
d:\CH573FEVT\LaserRangeFinder\obj/../src/TFTc/TFT_init.c:242
	TFT_Write_Data8(htft, 0x3D);   // VCOMÁîµÂéãÂÄº
     9f6:	8522                	mv	a0,s0
     9f8:	03d00593          	li	a1,61
     9fc:	2929                	jal	e16 <TFT_Write_Data8>
d:\CH573FEVT\LaserRangeFinder\obj/../src/TFTc/TFT_init.c:245

	// 10. ËÆæÁΩÆLCMÊéßÂà∂
	TFT_Write_Command(htft, 0xC0); // LCMÊéßÂà∂ÂëΩ‰ª§
     9fe:	8522                	mv	a0,s0
     a00:	0c000593          	li	a1,192
     a04:	2169                	jal	e8e <TFT_Write_Command>
d:\CH573FEVT\LaserRangeFinder\obj/../src/TFTc/TFT_init.c:246
	TFT_Write_Data8(htft, 0x2C);   // ÂÖ∑‰ΩìÂèÇÊï∞
     a06:	8522                	mv	a0,s0
     a08:	02c00593          	li	a1,44
     a0c:	2129                	jal	e16 <TFT_Write_Data8>
d:\CH573FEVT\LaserRangeFinder\obj/../src/TFTc/TFT_init.c:249

	// 11. ËÆæÁΩÆVDVÂíåVRHÂëΩ‰ª§‰ΩøËÉΩ
	TFT_Write_Command(htft, 0xC2); // VDV/VRHÊéßÂà∂
     a0e:	8522                	mv	a0,s0
     a10:	0c200593          	li	a1,194
     a14:	29ad                	jal	e8e <TFT_Write_Command>
d:\CH573FEVT\LaserRangeFinder\obj/../src/TFTc/TFT_init.c:250
	TFT_Write_Data8(htft, 0x01);   // ‰ΩøËÉΩ
     a16:	8522                	mv	a0,s0
     a18:	4585                	li	a1,1
     a1a:	2ef5                	jal	e16 <TFT_Write_Data8>
d:\CH573FEVT\LaserRangeFinder\obj/../src/TFTc/TFT_init.c:253

	// 12. ËÆæÁΩÆVRHÁîµÂéã
	TFT_Write_Command(htft, 0xC3); // VRHËÆæÁΩÆ
     a1c:	8522                	mv	a0,s0
     a1e:	0c300593          	li	a1,195
     a22:	21b5                	jal	e8e <TFT_Write_Command>
d:\CH573FEVT\LaserRangeFinder\obj/../src/TFTc/TFT_init.c:254
	TFT_Write_Data8(htft, 0x19);   // VRHÁîµÂéãÂÄº
     a24:	8522                	mv	a0,s0
     a26:	45e5                	li	a1,25
     a28:	26fd                	jal	e16 <TFT_Write_Data8>
d:\CH573FEVT\LaserRangeFinder\obj/../src/TFTc/TFT_init.c:257

	// 13. ËÆæÁΩÆVDVÁîµÂéã
	TFT_Write_Command(htft, 0xC4); // VDVËÆæÁΩÆ
     a2a:	8522                	mv	a0,s0
     a2c:	0c400593          	li	a1,196
     a30:	29b9                	jal	e8e <TFT_Write_Command>
d:\CH573FEVT\LaserRangeFinder\obj/../src/TFTc/TFT_init.c:258
	TFT_Write_Data8(htft, 0x20);   // VDVÁîµÂéãÂÄº
     a32:	8522                	mv	a0,s0
     a34:	02000593          	li	a1,32
     a38:	2ef9                	jal	e16 <TFT_Write_Data8>
d:\CH573FEVT\LaserRangeFinder\obj/../src/TFTc/TFT_init.c:261

	// 14. ËÆæÁΩÆÊ≠£Â∏∏Ê®°Âºè‰∏ãÁöÑÂ∏ßÁéáÊéßÂà∂
	TFT_Write_Command(htft, 0xC6); // Â∏ßÁéáÊéßÂà∂
     a3a:	8522                	mv	a0,s0
     a3c:	0c600593          	li	a1,198
     a40:	21b9                	jal	e8e <TFT_Write_Command>
d:\CH573FEVT\LaserRangeFinder\obj/../src/TFTc/TFT_init.c:264

	// TFT_Write_Data8(htft, 0x00); // 119HzÂà∑Êñ∞Áéá
	TFT_Write_Data8(htft, 0x05); // 90HzÂà∑Êñ∞Áéá
     a42:	8522                	mv	a0,s0
     a44:	4595                	li	a1,5
     a46:	2ec1                	jal	e16 <TFT_Write_Data8>
d:\CH573FEVT\LaserRangeFinder\obj/../src/TFTc/TFT_init.c:268
	// TFT_Write_Data8(htft, 0x0F);   // 60HzÂà∑Êñ∞Áéá

	// 15. ËÆæÁΩÆÁîµÊ∫êÊéßÂà∂1
	TFT_Write_Command(htft, 0xD0); // ÁîµÊ∫êÊéßÂà∂1
     a48:	8522                	mv	a0,s0
     a4a:	0d000593          	li	a1,208
     a4e:	2181                	jal	e8e <TFT_Write_Command>
d:\CH573FEVT\LaserRangeFinder\obj/../src/TFTc/TFT_init.c:269
	TFT_Write_Data8(htft, 0xA4);   // ÂèÇÊï∞1
     a50:	8522                	mv	a0,s0
     a52:	0a400593          	li	a1,164
     a56:	26c1                	jal	e16 <TFT_Write_Data8>
d:\CH573FEVT\LaserRangeFinder\obj/../src/TFTc/TFT_init.c:270
	TFT_Write_Data8(htft, 0xA1);   // ÂèÇÊï∞2
     a58:	8522                	mv	a0,s0
     a5a:	0a100593          	li	a1,161
     a5e:	2e65                	jal	e16 <TFT_Write_Data8>
d:\CH573FEVT\LaserRangeFinder\obj/../src/TFTc/TFT_init.c:273

	// 16. ËÆæÁΩÆGateÊéßÂà∂2
	TFT_Write_Command(htft, 0xD6); // GateÊéßÂà∂2
     a60:	8522                	mv	a0,s0
     a62:	0d600593          	li	a1,214
     a66:	2125                	jal	e8e <TFT_Write_Command>
d:\CH573FEVT\LaserRangeFinder\obj/../src/TFTc/TFT_init.c:274
	TFT_Write_Data8(htft, 0xA1);   // Áù°Áú†Ê®°Âºè‰∏ãGateËæìÂá∫GND
     a68:	8522                	mv	a0,s0
     a6a:	0a100593          	li	a1,161
     a6e:	2665                	jal	e16 <TFT_Write_Data8>
d:\CH573FEVT\LaserRangeFinder\obj/../src/TFTc/TFT_init.c:277

	// 17. Ê≠£ÊûÅÊÄß‰ºΩÈ©¨Ê†°Ê≠£
	TFT_Write_Command(htft, 0xE0); // Ê≠£‰ºΩÈ©¨Ê†°Ê≠£
     a70:	8522                	mv	a0,s0
     a72:	0e000593          	li	a1,224
     a76:	2921                	jal	e8e <TFT_Write_Command>
d:\CH573FEVT\LaserRangeFinder\obj/../src/TFTc/TFT_init.c:278
	TFT_Write_Data8(htft, 0xD0);   // ‰ºΩÈ©¨ÂÄº1
     a78:	8522                	mv	a0,s0
     a7a:	0d000593          	li	a1,208
     a7e:	2e61                	jal	e16 <TFT_Write_Data8>
d:\CH573FEVT\LaserRangeFinder\obj/../src/TFTc/TFT_init.c:279
	TFT_Write_Data8(htft, 0x04);   // ‰ºΩÈ©¨ÂÄº2
     a80:	8522                	mv	a0,s0
     a82:	4591                	li	a1,4
     a84:	2e49                	jal	e16 <TFT_Write_Data8>
d:\CH573FEVT\LaserRangeFinder\obj/../src/TFTc/TFT_init.c:281
	/* ÂêéÁª≠14‰∏™‰ºΩÈ©¨Ê†°Ê≠£ÂèÇÊï∞ */
	TFT_Write_Data8(htft, 0x0D);
     a86:	8522                	mv	a0,s0
     a88:	45b5                	li	a1,13
     a8a:	2671                	jal	e16 <TFT_Write_Data8>
d:\CH573FEVT\LaserRangeFinder\obj/../src/TFTc/TFT_init.c:282
	TFT_Write_Data8(htft, 0x11);
     a8c:	8522                	mv	a0,s0
     a8e:	45c5                	li	a1,17
     a90:	2659                	jal	e16 <TFT_Write_Data8>
d:\CH573FEVT\LaserRangeFinder\obj/../src/TFTc/TFT_init.c:283
	TFT_Write_Data8(htft, 0x13);
     a92:	8522                	mv	a0,s0
     a94:	45cd                	li	a1,19
     a96:	2641                	jal	e16 <TFT_Write_Data8>
d:\CH573FEVT\LaserRangeFinder\obj/../src/TFTc/TFT_init.c:284
	TFT_Write_Data8(htft, 0x2B);
     a98:	8522                	mv	a0,s0
     a9a:	02b00593          	li	a1,43
     a9e:	2ea5                	jal	e16 <TFT_Write_Data8>
d:\CH573FEVT\LaserRangeFinder\obj/../src/TFTc/TFT_init.c:285
	TFT_Write_Data8(htft, 0x3F);
     aa0:	8522                	mv	a0,s0
     aa2:	03f00593          	li	a1,63
     aa6:	2e85                	jal	e16 <TFT_Write_Data8>
d:\CH573FEVT\LaserRangeFinder\obj/../src/TFTc/TFT_init.c:286
	TFT_Write_Data8(htft, 0x54);
     aa8:	8522                	mv	a0,s0
     aaa:	05400593          	li	a1,84
     aae:	26a5                	jal	e16 <TFT_Write_Data8>
d:\CH573FEVT\LaserRangeFinder\obj/../src/TFTc/TFT_init.c:287
	TFT_Write_Data8(htft, 0x4C);
     ab0:	8522                	mv	a0,s0
     ab2:	04c00593          	li	a1,76
     ab6:	2685                	jal	e16 <TFT_Write_Data8>
d:\CH573FEVT\LaserRangeFinder\obj/../src/TFTc/TFT_init.c:288
	TFT_Write_Data8(htft, 0x18);
     ab8:	8522                	mv	a0,s0
     aba:	45e1                	li	a1,24
     abc:	2ea9                	jal	e16 <TFT_Write_Data8>
d:\CH573FEVT\LaserRangeFinder\obj/../src/TFTc/TFT_init.c:289
	TFT_Write_Data8(htft, 0x0D);
     abe:	8522                	mv	a0,s0
     ac0:	45b5                	li	a1,13
     ac2:	2e91                	jal	e16 <TFT_Write_Data8>
d:\CH573FEVT\LaserRangeFinder\obj/../src/TFTc/TFT_init.c:290
	TFT_Write_Data8(htft, 0x0B);
     ac4:	8522                	mv	a0,s0
     ac6:	45ad                	li	a1,11
     ac8:	26b9                	jal	e16 <TFT_Write_Data8>
d:\CH573FEVT\LaserRangeFinder\obj/../src/TFTc/TFT_init.c:291
	TFT_Write_Data8(htft, 0x1F);
     aca:	8522                	mv	a0,s0
     acc:	45fd                	li	a1,31
     ace:	26a1                	jal	e16 <TFT_Write_Data8>
d:\CH573FEVT\LaserRangeFinder\obj/../src/TFTc/TFT_init.c:292
	TFT_Write_Data8(htft, 0x23);
     ad0:	8522                	mv	a0,s0
     ad2:	02300593          	li	a1,35
     ad6:	2681                	jal	e16 <TFT_Write_Data8>
d:\CH573FEVT\LaserRangeFinder\obj/../src/TFTc/TFT_init.c:295

	// 18. Ë¥üÊûÅÊÄß‰ºΩÈ©¨Ê†°Ê≠£
	TFT_Write_Command(htft, 0xE1); // Ë¥ü‰ºΩÈ©¨Ê†°Ê≠£
     ad8:	8522                	mv	a0,s0
     ada:	0e100593          	li	a1,225
     ade:	2e45                	jal	e8e <TFT_Write_Command>
d:\CH573FEVT\LaserRangeFinder\obj/../src/TFTc/TFT_init.c:296
	TFT_Write_Data8(htft, 0xD0);   // ‰ºΩÈ©¨ÂÄº1
     ae0:	8522                	mv	a0,s0
     ae2:	0d000593          	li	a1,208
     ae6:	2e05                	jal	e16 <TFT_Write_Data8>
d:\CH573FEVT\LaserRangeFinder\obj/../src/TFTc/TFT_init.c:297
	TFT_Write_Data8(htft, 0x04);   // ‰ºΩÈ©¨ÂÄº2
     ae8:	8522                	mv	a0,s0
     aea:	4591                	li	a1,4
     aec:	262d                	jal	e16 <TFT_Write_Data8>
d:\CH573FEVT\LaserRangeFinder\obj/../src/TFTc/TFT_init.c:299
	/* ÂêéÁª≠14‰∏™‰ºΩÈ©¨Ê†°Ê≠£ÂèÇÊï∞ */
	TFT_Write_Data8(htft, 0x0C);
     aee:	8522                	mv	a0,s0
     af0:	45b1                	li	a1,12
     af2:	2615                	jal	e16 <TFT_Write_Data8>
d:\CH573FEVT\LaserRangeFinder\obj/../src/TFTc/TFT_init.c:300
	TFT_Write_Data8(htft, 0x11);
     af4:	8522                	mv	a0,s0
     af6:	45c5                	li	a1,17
     af8:	2e39                	jal	e16 <TFT_Write_Data8>
d:\CH573FEVT\LaserRangeFinder\obj/../src/TFTc/TFT_init.c:301
	TFT_Write_Data8(htft, 0x13);
     afa:	8522                	mv	a0,s0
     afc:	45cd                	li	a1,19
     afe:	2e21                	jal	e16 <TFT_Write_Data8>
d:\CH573FEVT\LaserRangeFinder\obj/../src/TFTc/TFT_init.c:302
	TFT_Write_Data8(htft, 0x2C);
     b00:	8522                	mv	a0,s0
     b02:	02c00593          	li	a1,44
     b06:	2e01                	jal	e16 <TFT_Write_Data8>
d:\CH573FEVT\LaserRangeFinder\obj/../src/TFTc/TFT_init.c:303
	TFT_Write_Data8(htft, 0x3F);
     b08:	8522                	mv	a0,s0
     b0a:	03f00593          	li	a1,63
     b0e:	2621                	jal	e16 <TFT_Write_Data8>
d:\CH573FEVT\LaserRangeFinder\obj/../src/TFTc/TFT_init.c:304
	TFT_Write_Data8(htft, 0x44);
     b10:	8522                	mv	a0,s0
     b12:	04400593          	li	a1,68
     b16:	2601                	jal	e16 <TFT_Write_Data8>
d:\CH573FEVT\LaserRangeFinder\obj/../src/TFTc/TFT_init.c:305
	TFT_Write_Data8(htft, 0x51);
     b18:	8522                	mv	a0,s0
     b1a:	05100593          	li	a1,81
     b1e:	2ce5                	jal	e16 <TFT_Write_Data8>
d:\CH573FEVT\LaserRangeFinder\obj/../src/TFTc/TFT_init.c:306
	TFT_Write_Data8(htft, 0x2F);
     b20:	8522                	mv	a0,s0
     b22:	02f00593          	li	a1,47
     b26:	2cc5                	jal	e16 <TFT_Write_Data8>
d:\CH573FEVT\LaserRangeFinder\obj/../src/TFTc/TFT_init.c:307
	TFT_Write_Data8(htft, 0x1F);
     b28:	8522                	mv	a0,s0
     b2a:	45fd                	li	a1,31
     b2c:	24ed                	jal	e16 <TFT_Write_Data8>
d:\CH573FEVT\LaserRangeFinder\obj/../src/TFTc/TFT_init.c:308
	TFT_Write_Data8(htft, 0x1F);
     b2e:	8522                	mv	a0,s0
     b30:	45fd                	li	a1,31
     b32:	24d5                	jal	e16 <TFT_Write_Data8>
d:\CH573FEVT\LaserRangeFinder\obj/../src/TFTc/TFT_init.c:309
	TFT_Write_Data8(htft, 0x20);
     b34:	8522                	mv	a0,s0
     b36:	02000593          	li	a1,32
     b3a:	2cf1                	jal	e16 <TFT_Write_Data8>
d:\CH573FEVT\LaserRangeFinder\obj/../src/TFTc/TFT_init.c:310
	TFT_Write_Data8(htft, 0x23);
     b3c:	8522                	mv	a0,s0
     b3e:	02300593          	li	a1,35
     b42:	2cd1                	jal	e16 <TFT_Write_Data8>
d:\CH573FEVT\LaserRangeFinder\obj/../src/TFTc/TFT_init.c:313

	// 19. ÂºÄÂêØÊòæÁ§∫ÂèçËΩ¨ÔºàÂèØÈÄâÔºâ
	TFT_Write_Command(htft, 0x21); // ÊòæÁ§∫ÂèçËΩ¨ON
     b44:	8522                	mv	a0,s0
     b46:	02100593          	li	a1,33
     b4a:	2691                	jal	e8e <TFT_Write_Command>
d:\CH573FEVT\LaserRangeFinder\obj/../src/TFTc/TFT_init.c:316

	// 20. ÂºÄÂêØÊòæÁ§∫
	TFT_Write_Command(htft, 0x29); // ÊòæÁ§∫ON
     b4c:	8522                	mv	a0,s0
     b4e:	02900593          	li	a1,41
     b52:	2e35                	jal	e8e <TFT_Write_Command>
d:\CH573FEVT\LaserRangeFinder\obj/../src/TFTc/TFT_init.c:318
	HAL_Delay(20);				   // Á≠âÂæÖÊòæÁ§∫Á®≥ÂÆö
}
     b54:	4422                	lw	s0,8(sp)
     b56:	40b2                	lw	ra,12(sp)
d:\CH573FEVT\LaserRangeFinder\obj/../src/TFTc/TFT_init.c:317
	HAL_Delay(20);				   // Á≠âÂæÖÊòæÁ§∫Á®≥ÂÆö
     b58:	4551                	li	a0,20
d:\CH573FEVT\LaserRangeFinder\obj/../src/TFTc/TFT_init.c:318
}
     b5a:	0141                	addi	sp,sp,16
d:\CH573FEVT\LaserRangeFinder\obj/../src/TFTc/TFT_init.c:317
	HAL_Delay(20);				   // Á≠âÂæÖÊòæÁ§∫Á®≥ÂÆö
     b5c:	20003317          	auipc	t1,0x20003
     b60:	f9830067          	jr	-104(t1) # 20003af4 <mDelaymS>

00000b64 <TFT_Wait_DMA_Transfer_Complete>:
TFT_Wait_DMA_Transfer_Complete():
d:\CH573FEVT\LaserRangeFinder\obj/../src/TFTc/TFT_io.c:458
 * @retval Êó†
 * @note   ‰ªÖÂú® DMA Ê®°Âºè‰∏ã‰∏î DMA ‰º†ËæìÊ≠£Âú®ËøõË°åÊó∂ÈòªÂ°û„ÄÇ
 */
static void TFT_Wait_DMA_Transfer_Complete(TFT_HandleTypeDef *htft)
{
	if (htft == NULL)
     b64:	c909                	beqz	a0,b76 <TFT_Wait_DMA_Transfer_Complete+0x12>
d:\CH573FEVT\LaserRangeFinder\obj/../src/TFTc/TFT_io.c:462
		return;

	// ‰ªÖÂΩì DMA Ë¢´ÂêØÁî®‰∏îÂΩìÂâçÊúâÊ¥ªÂä®ÁöÑ DMA ‰º†ËæìÊó∂ÊâçÈúÄË¶ÅÁ≠âÂæÖ
	if (htft->is_dma_enabled)
     b66:	02c54783          	lbu	a5,44(a0)
     b6a:	c791                	beqz	a5,b76 <TFT_Wait_DMA_Transfer_Complete+0x12>
d:\CH573FEVT\LaserRangeFinder\obj/../src/TFTc/TFT_io.c:464 (discriminator 1)
	{
		while (htft->is_dma_transfer_active)
     b6c:	02d54783          	lbu	a5,45(a0)
     b70:	0ff7f793          	andi	a5,a5,255
     b74:	bfdd                	j	b6a <TFT_Wait_DMA_Transfer_Complete+0x6>
d:\CH573FEVT\LaserRangeFinder\obj/../src/TFTc/TFT_io.c:472
			// ‰æãÂ¶Ç: osSemaphoreWait(spiDmaSemaphore, osWaitForever);
			// ÊàñËÄÖ‰ΩøÁî® __WFI() Êåá‰ª§ËÆ© CPU ËøõÂÖ•‰ΩéÂäüËÄóÊ®°ÂºèÁ≠âÂæÖ‰∏≠Êñ≠„ÄÇ
		}
	}
	// Â¶ÇÊûú DMA Êú™ÂêØÁî®ÊàñÊ≤°ÊúâÊ¥ªÂä®ÁöÑ‰º†ËæìÔºåÊ≠§ÂáΩÊï∞Á´ãÂç≥ËøîÂõû„ÄÇ
}
     b76:	8082                	ret

00000b78 <TFT_Init_Instance>:
TFT_Init_Instance():
d:\CH573FEVT\LaserRangeFinder\obj/../src/TFTc/TFT_io.c:45
	htft->buffer_size = TFT_BUFFER_SIZE;
     b78:	6785                	lui	a5,0x1
     b7a:	80078793          	addi	a5,a5,-2048 # 800 <memset+0x1a>
     b7e:	d51c                	sw	a5,40(a0)
d:\CH573FEVT\LaserRangeFinder\obj/../src/TFTc/TFT_io.c:50
	htft->display_direction = DISPLAY_DIRECTION;
     b80:	20000793          	li	a5,512
     b84:	02f51723          	sh	a5,46(a0)
d:\CH573FEVT\LaserRangeFinder\obj/../src/TFTc/TFT_io.c:52
	htft->y_offset = TFT_Y_OFFSET;
     b88:	4785                	li	a5,1
d:\CH573FEVT\LaserRangeFinder\obj/../src/TFTc/TFT_io.c:40
	htft->spi_handle = hspi;
     b8a:	c10c                	sw	a1,0(a0)
d:\CH573FEVT\LaserRangeFinder\obj/../src/TFTc/TFT_io.c:41
	htft->cs_port = cs_port;
     b8c:	00c50223          	sb	a2,4(a0)
d:\CH573FEVT\LaserRangeFinder\obj/../src/TFTc/TFT_io.c:42
	htft->cs_pin = cs_pin;
     b90:	c514                	sw	a3,8(a0)
d:\CH573FEVT\LaserRangeFinder\obj/../src/TFTc/TFT_io.c:47
	htft->tx_buffer = NULL; // ÂêéÁª≠‰ºöÂàÜÈÖçÂÜÖÂ≠ò
     b92:	02052223          	sw	zero,36(a0)
d:\CH573FEVT\LaserRangeFinder\obj/../src/TFTc/TFT_io.c:52
	htft->y_offset = TFT_Y_OFFSET;
     b96:	02f50823          	sb	a5,48(a0)
d:\CH573FEVT\LaserRangeFinder\obj/../src/TFTc/TFT_io.c:53
}
     b9a:	8082                	ret

00000b9c <TFT_Config_Pins>:
TFT_Config_Pins():
d:\CH573FEVT\LaserRangeFinder\obj/../src/TFTc/TFT_io.c:71
	htft->dc_port = dc_port;
     b9c:	00b50623          	sb	a1,12(a0)
d:\CH573FEVT\LaserRangeFinder\obj/../src/TFTc/TFT_io.c:72
	htft->dc_pin = dc_pin;
     ba0:	c910                	sw	a2,16(a0)
d:\CH573FEVT\LaserRangeFinder\obj/../src/TFTc/TFT_io.c:73
	htft->res_port = res_port;
     ba2:	00d50a23          	sb	a3,20(a0)
d:\CH573FEVT\LaserRangeFinder\obj/../src/TFTc/TFT_io.c:74
	htft->res_pin = res_pin;
     ba6:	cd18                	sw	a4,24(a0)
d:\CH573FEVT\LaserRangeFinder\obj/../src/TFTc/TFT_io.c:75
	htft->bl_port = bl_port;
     ba8:	00f50e23          	sb	a5,28(a0)
d:\CH573FEVT\LaserRangeFinder\obj/../src/TFTc/TFT_io.c:76
	htft->bl_pin = bl_pin;
     bac:	03052023          	sw	a6,32(a0)
d:\CH573FEVT\LaserRangeFinder\obj/../src/TFTc/TFT_io.c:77
}
     bb0:	8082                	ret

00000bb2 <TFT_Config_Display>:
TFT_Config_Display():
d:\CH573FEVT\LaserRangeFinder\obj/../src/TFTc/TFT_io.c:91
	htft->display_direction = display_direction;
     bb2:	02b50723          	sb	a1,46(a0)
d:\CH573FEVT\LaserRangeFinder\obj/../src/TFTc/TFT_io.c:92
	htft->x_offset = x_offset;
     bb6:	02c507a3          	sb	a2,47(a0)
d:\CH573FEVT\LaserRangeFinder\obj/../src/TFTc/TFT_io.c:93
	htft->y_offset = y_offset;
     bba:	02d50823          	sb	a3,48(a0)
d:\CH573FEVT\LaserRangeFinder\obj/../src/TFTc/TFT_io.c:94
}
     bbe:	8082                	ret

00000bc0 <TFT_Pin_RES_Set>:
TFT_Pin_RES_Set():
d:\CH573FEVT\LaserRangeFinder\obj/../src/TFTc/TFT_io.c:128
	if (htft->res_port == 0)
     bc0:	01454703          	lbu	a4,20(a0)
     bc4:	4d1c                	lw	a5,24(a0)
d:\CH573FEVT\LaserRangeFinder\obj/../src/TFTc/TFT_io.c:131
			GPIOA_SetBits(htft->res_pin);
     bc6:	400016b7          	lui	a3,0x40001
d:\CH573FEVT\LaserRangeFinder\obj/../src/TFTc/TFT_io.c:128
	if (htft->res_port == 0)
     bca:	ef11                	bnez	a4,be6 <TFT_Pin_RES_Set+0x26>
d:\CH573FEVT\LaserRangeFinder\obj/../src/TFTc/TFT_io.c:130
		if (level)
     bcc:	c599                	beqz	a1,bda <TFT_Pin_RES_Set+0x1a>
d:\CH573FEVT\LaserRangeFinder\obj/../src/TFTc/TFT_io.c:131
			GPIOA_SetBits(htft->res_pin);
     bce:	0a86a703          	lw	a4,168(a3) # 400010a8 <_eusrstack+0x1fff90a8>
     bd2:	8fd9                	or	a5,a5,a4
     bd4:	0af6a423          	sw	a5,168(a3)
     bd8:	8082                	ret
d:\CH573FEVT\LaserRangeFinder\obj/../src/TFTc/TFT_io.c:133
			GPIOA_ResetBits(htft->res_pin);
     bda:	0ac6a703          	lw	a4,172(a3)
     bde:	8fd9                	or	a5,a5,a4
     be0:	0af6a623          	sw	a5,172(a3)
     be4:	8082                	ret
d:\CH573FEVT\LaserRangeFinder\obj/../src/TFTc/TFT_io.c:137
		if (level)
     be6:	c599                	beqz	a1,bf4 <TFT_Pin_RES_Set+0x34>
d:\CH573FEVT\LaserRangeFinder\obj/../src/TFTc/TFT_io.c:138
			GPIOB_SetBits(htft->res_pin);
     be8:	0c86a703          	lw	a4,200(a3)
     bec:	8fd9                	or	a5,a5,a4
     bee:	0cf6a423          	sw	a5,200(a3)
     bf2:	8082                	ret
d:\CH573FEVT\LaserRangeFinder\obj/../src/TFTc/TFT_io.c:140
			GPIOB_ResetBits(htft->res_pin);
     bf4:	0cc6a703          	lw	a4,204(a3)
     bf8:	8fd9                	or	a5,a5,a4
     bfa:	0cf6a623          	sw	a5,204(a3)
d:\CH573FEVT\LaserRangeFinder\obj/../src/TFTc/TFT_io.c:148
}
     bfe:	8082                	ret

00000c00 <TFT_Pin_DC_Set>:
TFT_Pin_DC_Set():
d:\CH573FEVT\LaserRangeFinder\obj/../src/TFTc/TFT_io.c:160
	if (htft->dc_port == 0)
     c00:	00c54703          	lbu	a4,12(a0)
     c04:	491c                	lw	a5,16(a0)
d:\CH573FEVT\LaserRangeFinder\obj/../src/TFTc/TFT_io.c:163
			GPIOA_SetBits(htft->dc_pin);
     c06:	400016b7          	lui	a3,0x40001
d:\CH573FEVT\LaserRangeFinder\obj/../src/TFTc/TFT_io.c:160
	if (htft->dc_port == 0)
     c0a:	ef11                	bnez	a4,c26 <TFT_Pin_DC_Set+0x26>
d:\CH573FEVT\LaserRangeFinder\obj/../src/TFTc/TFT_io.c:162
		if (level)
     c0c:	c599                	beqz	a1,c1a <TFT_Pin_DC_Set+0x1a>
d:\CH573FEVT\LaserRangeFinder\obj/../src/TFTc/TFT_io.c:163
			GPIOA_SetBits(htft->dc_pin);
     c0e:	0a86a703          	lw	a4,168(a3) # 400010a8 <_eusrstack+0x1fff90a8>
     c12:	8fd9                	or	a5,a5,a4
     c14:	0af6a423          	sw	a5,168(a3)
     c18:	8082                	ret
d:\CH573FEVT\LaserRangeFinder\obj/../src/TFTc/TFT_io.c:165
			GPIOA_ResetBits(htft->dc_pin);
     c1a:	0ac6a703          	lw	a4,172(a3)
     c1e:	8fd9                	or	a5,a5,a4
     c20:	0af6a623          	sw	a5,172(a3)
     c24:	8082                	ret
d:\CH573FEVT\LaserRangeFinder\obj/../src/TFTc/TFT_io.c:169
		if (level)
     c26:	c599                	beqz	a1,c34 <TFT_Pin_DC_Set+0x34>
d:\CH573FEVT\LaserRangeFinder\obj/../src/TFTc/TFT_io.c:170
			GPIOB_SetBits(htft->dc_pin);
     c28:	0c86a703          	lw	a4,200(a3)
     c2c:	8fd9                	or	a5,a5,a4
     c2e:	0cf6a423          	sw	a5,200(a3)
     c32:	8082                	ret
d:\CH573FEVT\LaserRangeFinder\obj/../src/TFTc/TFT_io.c:172
			GPIOB_ResetBits(htft->dc_pin);
     c34:	0cc6a703          	lw	a4,204(a3)
     c38:	8fd9                	or	a5,a5,a4
     c3a:	0cf6a623          	sw	a5,204(a3)
d:\CH573FEVT\LaserRangeFinder\obj/../src/TFTc/TFT_io.c:180
}
     c3e:	8082                	ret

00000c40 <TFT_Pin_CS_Set>:
TFT_Pin_CS_Set():
d:\CH573FEVT\LaserRangeFinder\obj/../src/TFTc/TFT_io.c:192
	if (htft->cs_port == 0)
     c40:	00454703          	lbu	a4,4(a0)
     c44:	451c                	lw	a5,8(a0)
d:\CH573FEVT\LaserRangeFinder\obj/../src/TFTc/TFT_io.c:195
			GPIOA_SetBits(htft->cs_pin);
     c46:	400016b7          	lui	a3,0x40001
d:\CH573FEVT\LaserRangeFinder\obj/../src/TFTc/TFT_io.c:192
	if (htft->cs_port == 0)
     c4a:	ef11                	bnez	a4,c66 <TFT_Pin_CS_Set+0x26>
d:\CH573FEVT\LaserRangeFinder\obj/../src/TFTc/TFT_io.c:194
		if (level)
     c4c:	c599                	beqz	a1,c5a <TFT_Pin_CS_Set+0x1a>
d:\CH573FEVT\LaserRangeFinder\obj/../src/TFTc/TFT_io.c:195
			GPIOA_SetBits(htft->cs_pin);
     c4e:	0a86a703          	lw	a4,168(a3) # 400010a8 <_eusrstack+0x1fff90a8>
     c52:	8fd9                	or	a5,a5,a4
     c54:	0af6a423          	sw	a5,168(a3)
     c58:	8082                	ret
d:\CH573FEVT\LaserRangeFinder\obj/../src/TFTc/TFT_io.c:197
			GPIOA_ResetBits(htft->cs_pin);
     c5a:	0ac6a703          	lw	a4,172(a3)
     c5e:	8fd9                	or	a5,a5,a4
     c60:	0af6a623          	sw	a5,172(a3)
     c64:	8082                	ret
d:\CH573FEVT\LaserRangeFinder\obj/../src/TFTc/TFT_io.c:201
		if (level)
     c66:	c599                	beqz	a1,c74 <TFT_Pin_CS_Set+0x34>
d:\CH573FEVT\LaserRangeFinder\obj/../src/TFTc/TFT_io.c:202
			GPIOB_SetBits(htft->cs_pin);
     c68:	0c86a703          	lw	a4,200(a3)
     c6c:	8fd9                	or	a5,a5,a4
     c6e:	0cf6a423          	sw	a5,200(a3)
     c72:	8082                	ret
d:\CH573FEVT\LaserRangeFinder\obj/../src/TFTc/TFT_io.c:204
			GPIOB_ResetBits(htft->cs_pin);
     c74:	0cc6a703          	lw	a4,204(a3)
     c78:	8fd9                	or	a5,a5,a4
     c7a:	0cf6a623          	sw	a5,204(a3)
d:\CH573FEVT\LaserRangeFinder\obj/../src/TFTc/TFT_io.c:212
}
     c7e:	8082                	ret

00000c80 <TFT_Pin_BLK_Set>:
TFT_Pin_BLK_Set():
d:\CH573FEVT\LaserRangeFinder\obj/../src/TFTc/TFT_io.c:225
	if (htft->bl_port == 0)
     c80:	01c54703          	lbu	a4,28(a0)
     c84:	511c                	lw	a5,32(a0)
d:\CH573FEVT\LaserRangeFinder\obj/../src/TFTc/TFT_io.c:228
			GPIOA_SetBits(htft->bl_pin);
     c86:	400016b7          	lui	a3,0x40001
d:\CH573FEVT\LaserRangeFinder\obj/../src/TFTc/TFT_io.c:225
	if (htft->bl_port == 0)
     c8a:	ef11                	bnez	a4,ca6 <TFT_Pin_BLK_Set+0x26>
d:\CH573FEVT\LaserRangeFinder\obj/../src/TFTc/TFT_io.c:227
		if (level)
     c8c:	c599                	beqz	a1,c9a <TFT_Pin_BLK_Set+0x1a>
d:\CH573FEVT\LaserRangeFinder\obj/../src/TFTc/TFT_io.c:228
			GPIOA_SetBits(htft->bl_pin);
     c8e:	0a86a703          	lw	a4,168(a3) # 400010a8 <_eusrstack+0x1fff90a8>
     c92:	8fd9                	or	a5,a5,a4
     c94:	0af6a423          	sw	a5,168(a3)
     c98:	8082                	ret
d:\CH573FEVT\LaserRangeFinder\obj/../src/TFTc/TFT_io.c:230
			GPIOA_ResetBits(htft->bl_pin);
     c9a:	0ac6a703          	lw	a4,172(a3)
     c9e:	8fd9                	or	a5,a5,a4
     ca0:	0af6a623          	sw	a5,172(a3)
     ca4:	8082                	ret
d:\CH573FEVT\LaserRangeFinder\obj/../src/TFTc/TFT_io.c:234
		if (level)
     ca6:	c599                	beqz	a1,cb4 <TFT_Pin_BLK_Set+0x34>
d:\CH573FEVT\LaserRangeFinder\obj/../src/TFTc/TFT_io.c:235
			GPIOB_SetBits(htft->bl_pin);
     ca8:	0c86a703          	lw	a4,200(a3)
     cac:	8fd9                	or	a5,a5,a4
     cae:	0cf6a423          	sw	a5,200(a3)
     cb2:	8082                	ret
d:\CH573FEVT\LaserRangeFinder\obj/../src/TFTc/TFT_io.c:237
			GPIOB_ResetBits(htft->bl_pin);
     cb4:	0cc6a703          	lw	a4,204(a3)
     cb8:	8fd9                	or	a5,a5,a4
     cba:	0cf6a623          	sw	a5,204(a3)
d:\CH573FEVT\LaserRangeFinder\obj/../src/TFTc/TFT_io.c:245
}
     cbe:	8082                	ret

00000cc0 <TFT_SPI_Send>:
TFT_SPI_Send():
d:\CH573FEVT\LaserRangeFinder\obj/../src/TFTc/TFT_io.c:311
	if (htft == NULL || htft->spi_handle == NULL || length == 0 || data_buffer == NULL)
     cc0:	c92d                	beqz	a0,d32 <TFT_SPI_Send+0x72>
d:\CH573FEVT\LaserRangeFinder\obj/../src/TFTc/TFT_io.c:311 (discriminator 1)
     cc2:	411c                	lw	a5,0(a0)
d:\CH573FEVT\LaserRangeFinder\obj/../src/TFTc/TFT_io.c:310 (discriminator 1)
{
     cc4:	1101                	addi	sp,sp,-32
     cc6:	cc22                	sw	s0,24(sp)
     cc8:	ce06                	sw	ra,28(sp)
     cca:	ca26                	sw	s1,20(sp)
     ccc:	c84a                	sw	s2,16(sp)
     cce:	c64e                	sw	s3,12(sp)
     cd0:	842a                	mv	s0,a0
d:\CH573FEVT\LaserRangeFinder\obj/../src/TFTc/TFT_io.c:311 (discriminator 1)
	if (htft == NULL || htft->spi_handle == NULL || length == 0 || data_buffer == NULL)
     cd2:	cba9                	beqz	a5,d24 <TFT_SPI_Send+0x64>
d:\CH573FEVT\LaserRangeFinder\obj/../src/TFTc/TFT_io.c:311 (discriminator 2)
     cd4:	ca21                	beqz	a2,d24 <TFT_SPI_Send+0x64>
d:\CH573FEVT\LaserRangeFinder\obj/../src/TFTc/TFT_io.c:311 (discriminator 3)
     cd6:	c5b9                	beqz	a1,d24 <TFT_SPI_Send+0x64>
     cd8:	89b6                	mv	s3,a3
     cda:	8932                	mv	s2,a2
     cdc:	84ae                	mv	s1,a1
d:\CH573FEVT\LaserRangeFinder\obj/../src/TFTc/TFT_io.c:314
	TFT_Wait_DMA_Transfer_Complete(htft); // Á°Æ‰øù‰∏ä‰∏ÄÊ¨° DMA ‰º†Ëæì (Â¶ÇÊûúÊúâ) Â∑≤ÂÆåÊàê
     cde:	3559                	jal	b64 <TFT_Wait_DMA_Transfer_Complete>
d:\CH573FEVT\LaserRangeFinder\obj/../src/TFTc/TFT_io.c:316
	TFT_Pin_DC_Set(htft, 1); // ËÆæÁΩÆ‰∏∫Êï∞ÊçÆÊ®°Âºè
     ce0:	4585                	li	a1,1
     ce2:	8522                	mv	a0,s0
     ce4:	3f31                	jal	c00 <TFT_Pin_DC_Set>
d:\CH573FEVT\LaserRangeFinder\obj/../src/TFTc/TFT_io.c:317
	TFT_Pin_CS_Set(htft, 0); // Êãâ‰ΩéÁâáÈÄâÔºåÂºÄÂßã‰º†Ëæì
     ce6:	4581                	li	a1,0
     ce8:	8522                	mv	a0,s0
     cea:	3f99                	jal	c40 <TFT_Pin_CS_Set>
d:\CH573FEVT\LaserRangeFinder\obj/../src/TFTc/TFT_io.c:319
	if (htft->is_dma_enabled) // Â¶ÇÊûúÂêØÁî®‰∫Ü DMA
     cec:	02c44783          	lbu	a5,44(s0)
     cf0:	c78d                	beqz	a5,d1a <TFT_SPI_Send+0x5a>
d:\CH573FEVT\LaserRangeFinder\obj/../src/TFTc/TFT_io.c:321
		htft->is_dma_transfer_active = 1; // ËÆæÁΩÆ DMA ÂøôÊ†áÂøó
     cf2:	4785                	li	a5,1
     cf4:	02f406a3          	sb	a5,45(s0)
TFT_Platform_SPI_Transmit_DMA_Start():
d:\CH573FEVT\LaserRangeFinder\obj/../src/TFTc/TFT_io.c:288
	SPI0_MasterDMATrans(pData, Size); // ‰ΩøÁî®Ê≤ÅÊÅíSPI0 DMA‰º†Ëæì„ÄÇÂΩìÊó∂ÂÜôËøô‰∏™ÂáΩÊï∞ÊòØÂõ†‰∏∫STM32ÁöÑDMAÊòØÈùûÈòªÂ°ûÂºèÔºåË¶ÅËÄÉËôëÊó∂Â∫è„ÄÇÊ≤ÅÊÅíÁöÑ‰∏çÁî®
     cf8:	85ca                	mv	a1,s2
     cfa:	8526                	mv	a0,s1
     cfc:	12f000ef          	jal	ra,162a <SPI0_MasterDMATrans>
TFT_SPI_Send():
d:\CH573FEVT\LaserRangeFinder\obj/../src/TFTc/TFT_io.c:325
		if (wait_completion)
     d00:	02098263          	beqz	s3,d24 <TFT_SPI_Send+0x64>
d:\CH573FEVT\LaserRangeFinder\obj/../src/TFTc/TFT_io.c:327
			TFT_Wait_DMA_Transfer_Complete(htft); // Á≠âÂæÖ DMA ÂÆåÊàê
     d04:	8522                	mv	a0,s0
     d06:	3db9                	jal	b64 <TFT_Wait_DMA_Transfer_Complete>
d:\CH573FEVT\LaserRangeFinder\obj/../src/TFTc/TFT_io.c:336
		TFT_Pin_CS_Set(htft, 1);														// ÈòªÂ°û‰º†ËæìÂÆåÊàêÂêéÁ´ãÂç≥ÊãâÈ´òÁâáÈÄâ
     d08:	8522                	mv	a0,s0
d:\CH573FEVT\LaserRangeFinder\obj/../src/TFTc/TFT_io.c:338
}
     d0a:	4462                	lw	s0,24(sp)
     d0c:	40f2                	lw	ra,28(sp)
     d0e:	44d2                	lw	s1,20(sp)
     d10:	4942                	lw	s2,16(sp)
     d12:	49b2                	lw	s3,12(sp)
d:\CH573FEVT\LaserRangeFinder\obj/../src/TFTc/TFT_io.c:336
		TFT_Pin_CS_Set(htft, 1);														// ÈòªÂ°û‰º†ËæìÂÆåÊàêÂêéÁ´ãÂç≥ÊãâÈ´òÁâáÈÄâ
     d14:	4585                	li	a1,1
d:\CH573FEVT\LaserRangeFinder\obj/../src/TFTc/TFT_io.c:338
}
     d16:	6105                	addi	sp,sp,32
d:\CH573FEVT\LaserRangeFinder\obj/../src/TFTc/TFT_io.c:336
		TFT_Pin_CS_Set(htft, 1);														// ÈòªÂ°û‰º†ËæìÂÆåÊàêÂêéÁ´ãÂç≥ÊãâÈ´òÁâáÈÄâ
     d18:	b725                	j	c40 <TFT_Pin_CS_Set>
TFT_Platform_SPI_Transmit_Blocking():
d:\CH573FEVT\LaserRangeFinder\obj/../src/TFTc/TFT_io.c:264
	SPI0_MasterDMATrans(pData, Size); // ‰ΩøÁî®Ê≤ÅÊÅíSPI0 DMA‰º†Ëæì„ÄÇÂÆûÈôÖÊµãËØïÊó∂ÂèëÁé∞Ê≤ÅÊÅíÁöÑDMAÊòØÈòªÂ°ûÂºèÔºå‰∏çÁî®ËÄÉËôëÊó∂Â∫èÈóÆÈ¢ò
     d1a:	85ca                	mv	a1,s2
     d1c:	8526                	mv	a0,s1
     d1e:	10d000ef          	jal	ra,162a <SPI0_MasterDMATrans>
     d22:	b7dd                	j	d08 <TFT_SPI_Send+0x48>
TFT_SPI_Send():
d:\CH573FEVT\LaserRangeFinder\obj/../src/TFTc/TFT_io.c:338
}
     d24:	40f2                	lw	ra,28(sp)
     d26:	4462                	lw	s0,24(sp)
     d28:	44d2                	lw	s1,20(sp)
     d2a:	4942                	lw	s2,16(sp)
     d2c:	49b2                	lw	s3,12(sp)
     d2e:	6105                	addi	sp,sp,32
     d30:	8082                	ret
     d32:	8082                	ret

00000d34 <TFT_Flush_Buffer>:
TFT_Flush_Buffer():
d:\CH573FEVT\LaserRangeFinder\obj/../src/TFTc/TFT_io.c:373
	if (htft == NULL || htft->tx_buffer == NULL || htft->buffer_write_index == 0)
     d34:	c115                	beqz	a0,d58 <TFT_Flush_Buffer+0x24>
     d36:	86ae                	mv	a3,a1
d:\CH573FEVT\LaserRangeFinder\obj/../src/TFTc/TFT_io.c:373 (discriminator 1)
     d38:	514c                	lw	a1,36(a0)
d:\CH573FEVT\LaserRangeFinder\obj/../src/TFTc/TFT_io.c:372 (discriminator 1)
{
     d3a:	1141                	addi	sp,sp,-16
     d3c:	c422                	sw	s0,8(sp)
     d3e:	c606                	sw	ra,12(sp)
     d40:	842a                	mv	s0,a0
d:\CH573FEVT\LaserRangeFinder\obj/../src/TFTc/TFT_io.c:373 (discriminator 1)
	if (htft == NULL || htft->tx_buffer == NULL || htft->buffer_write_index == 0)
     d42:	c599                	beqz	a1,d50 <TFT_Flush_Buffer+0x1c>
d:\CH573FEVT\LaserRangeFinder\obj/../src/TFTc/TFT_io.c:373 (discriminator 2)
     d44:	02a55603          	lhu	a2,42(a0)
     d48:	c601                	beqz	a2,d50 <TFT_Flush_Buffer+0x1c>
d:\CH573FEVT\LaserRangeFinder\obj/../src/TFTc/TFT_io.c:377
	TFT_SPI_Send(htft, htft->tx_buffer, htft->buffer_write_index, wait_completion);
     d4a:	3f9d                	jal	cc0 <TFT_SPI_Send>
d:\CH573FEVT\LaserRangeFinder\obj/../src/TFTc/TFT_io.c:379
	htft->buffer_write_index = 0; // ÂèëÈÄÅÂêéÈáçÁΩÆÁºìÂÜ≤Âå∫Á¥¢Âºï
     d4c:	02041523          	sh	zero,42(s0)
d:\CH573FEVT\LaserRangeFinder\obj/../src/TFTc/TFT_io.c:380
}
     d50:	40b2                	lw	ra,12(sp)
     d52:	4422                	lw	s0,8(sp)
     d54:	0141                	addi	sp,sp,16
     d56:	8082                	ret
     d58:	8082                	ret

00000d5a <TFT_Buffer_Write16>:
TFT_Buffer_Write16():
d:\CH573FEVT\LaserRangeFinder\obj/../src/TFTc/TFT_io.c:351
	if (htft == NULL || htft->tx_buffer == NULL)
     d5a:	cd29                	beqz	a0,db4 <TFT_Buffer_Write16+0x5a>
d:\CH573FEVT\LaserRangeFinder\obj/../src/TFTc/TFT_io.c:351 (discriminator 1)
     d5c:	515c                	lw	a5,36(a0)
d:\CH573FEVT\LaserRangeFinder\obj/../src/TFTc/TFT_io.c:349 (discriminator 1)
{
     d5e:	1141                	addi	sp,sp,-16
     d60:	c422                	sw	s0,8(sp)
     d62:	c606                	sw	ra,12(sp)
     d64:	c226                	sw	s1,4(sp)
     d66:	842a                	mv	s0,a0
d:\CH573FEVT\LaserRangeFinder\obj/../src/TFTc/TFT_io.c:351 (discriminator 1)
	if (htft == NULL || htft->tx_buffer == NULL)
     d68:	c3a9                	beqz	a5,daa <TFT_Buffer_Write16+0x50>
d:\CH573FEVT\LaserRangeFinder\obj/../src/TFTc/TFT_io.c:355
	if (htft->buffer_write_index >= htft->buffer_size - 1)
     d6a:	02855783          	lhu	a5,40(a0)
     d6e:	02a55703          	lhu	a4,42(a0)
     d72:	84ae                	mv	s1,a1
     d74:	17fd                	addi	a5,a5,-1
     d76:	00f74463          	blt	a4,a5,d7e <TFT_Buffer_Write16+0x24>
d:\CH573FEVT\LaserRangeFinder\obj/../src/TFTc/TFT_io.c:357
		TFT_Flush_Buffer(htft, 0); // ÁºìÂÜ≤Âå∫Êª°ÔºåÂà∑Êñ∞ÁºìÂÜ≤Âå∫Ôºå‰∏çÁ≠âÂæÖÂÆåÊàê
     d7a:	4581                	li	a1,0
     d7c:	3f65                	jal	d34 <TFT_Flush_Buffer>
d:\CH573FEVT\LaserRangeFinder\obj/../src/TFTc/TFT_io.c:361
	htft->tx_buffer[htft->buffer_write_index++] = (data >> 8) & 0xFF; // È´òÂ≠óËäÇ
     d7e:	02a45703          	lhu	a4,42(s0)
     d82:	505c                	lw	a5,36(s0)
     d84:	00170693          	addi	a3,a4,1
     d88:	02d41523          	sh	a3,42(s0)
     d8c:	97ba                	add	a5,a5,a4
     d8e:	0084d713          	srli	a4,s1,0x8
     d92:	00e78023          	sb	a4,0(a5)
d:\CH573FEVT\LaserRangeFinder\obj/../src/TFTc/TFT_io.c:362
	htft->tx_buffer[htft->buffer_write_index++] = data & 0xFF;		  // ‰ΩéÂ≠óËäÇ
     d96:	02a45703          	lhu	a4,42(s0)
     d9a:	505c                	lw	a5,36(s0)
     d9c:	00170693          	addi	a3,a4,1
     da0:	02d41523          	sh	a3,42(s0)
     da4:	97ba                	add	a5,a5,a4
     da6:	00978023          	sb	s1,0(a5)
d:\CH573FEVT\LaserRangeFinder\obj/../src/TFTc/TFT_io.c:363
}
     daa:	40b2                	lw	ra,12(sp)
     dac:	4422                	lw	s0,8(sp)
     dae:	4492                	lw	s1,4(sp)
     db0:	0141                	addi	sp,sp,16
     db2:	8082                	ret
     db4:	8082                	ret

00000db6 <TFT_Reset_Buffer>:
TFT_Reset_Buffer():
d:\CH573FEVT\LaserRangeFinder\obj/../src/TFTc/TFT_io.c:389
	if (htft == NULL)
     db6:	c119                	beqz	a0,dbc <TFT_Reset_Buffer+0x6>
d:\CH573FEVT\LaserRangeFinder\obj/../src/TFTc/TFT_io.c:392
	htft->buffer_write_index = 0;
     db8:	02051523          	sh	zero,42(a0)
d:\CH573FEVT\LaserRangeFinder\obj/../src/TFTc/TFT_io.c:393
}
     dbc:	8082                	ret

00000dbe <TFT_IO_Init>:
TFT_IO_Init():
d:\CH573FEVT\LaserRangeFinder\obj/../src/TFTc/TFT_io.c:402
	if (htft == NULL || htft->spi_handle == NULL)
     dbe:	c939                	beqz	a0,e14 <TFT_IO_Init+0x56>
d:\CH573FEVT\LaserRangeFinder\obj/../src/TFTc/TFT_io.c:402 (discriminator 1)
     dc0:	411c                	lw	a5,0(a0)
     dc2:	cba9                	beqz	a5,e14 <TFT_IO_Init+0x56>
d:\CH573FEVT\LaserRangeFinder\obj/../src/TFTc/TFT_io.c:409
	if (htft->tx_buffer == NULL)
     dc4:	515c                	lw	a5,36(a0)
d:\CH573FEVT\LaserRangeFinder\obj/../src/TFTc/TFT_io.c:401
{
     dc6:	1141                	addi	sp,sp,-16
     dc8:	c422                	sw	s0,8(sp)
     dca:	c606                	sw	ra,12(sp)
     dcc:	842a                	mv	s0,a0
d:\CH573FEVT\LaserRangeFinder\obj/../src/TFTc/TFT_io.c:409
	if (htft->tx_buffer == NULL)
     dce:	c785                	beqz	a5,df6 <TFT_IO_Init+0x38>
d:\CH573FEVT\LaserRangeFinder\obj/../src/TFTc/TFT_io.c:432
	GPIOA_ModeCfg(GPIO_Pin_12 | GPIO_Pin_13 | GPIO_Pin_14, GPIO_ModeOut_PP_5mA); // ÂàùÂßãÂåñSPI0ÂØπÂ∫îÁöÑGPIO
     dd0:	458d                	li	a1,3
     dd2:	651d                	lui	a0,0x7
d:\CH573FEVT\LaserRangeFinder\obj/../src/TFTc/TFT_io.c:419
	htft->buffer_write_index = 0; // ÂàùÂßãÂåñÁºìÂÜ≤Âå∫Á¥¢Âºï
     dd4:	02041523          	sh	zero,42(s0)
d:\CH573FEVT\LaserRangeFinder\obj/../src/TFTc/TFT_io.c:432
	GPIOA_ModeCfg(GPIO_Pin_12 | GPIO_Pin_13 | GPIO_Pin_14, GPIO_ModeOut_PP_5mA); // ÂàùÂßãÂåñSPI0ÂØπÂ∫îÁöÑGPIO
     dd8:	64a000ef          	jal	ra,1422 <GPIOA_ModeCfg>
d:\CH573FEVT\LaserRangeFinder\obj/../src/TFTc/TFT_io.c:433
	SPI0_MasterDefInit();														 // ÂàùÂßãÂåñSPI0‰∏∫‰∏ªÊ®°Âºè
     ddc:	01d000ef          	jal	ra,15f8 <SPI0_MasterDefInit>
TFT_Register_Device():
d:\CH573FEVT\LaserRangeFinder\obj/../src/TFTc/TFT_io.c:106
		if (g_tft_handles[i] == NULL || g_tft_handles[i]->spi_handle == htft->spi_handle)
     de0:	80818793          	addi	a5,gp,-2040 # 20004068 <_edata>
     de4:	439c                	lw	a5,0(a5)
TFT_IO_Init():
d:\CH573FEVT\LaserRangeFinder\obj/../src/TFTc/TFT_io.c:435
	htft->is_dma_enabled = 0; // ËØ∑‰∏çË¶Å‰øÆÊîπ‰∏∫1„ÄÇÊ≤ÅÊÅíÁöÑDMAÊòØÈòªÂ°ûÂºèÔºåÂ∑≤ÁªèÂú®TFT_Platform_SPI_Transmit_BlockingÊõøÊç¢‰∏∫DMA‰º†Ëæì
     de6:	02040623          	sb	zero,44(s0)
d:\CH573FEVT\LaserRangeFinder\obj/../src/TFTc/TFT_io.c:444
	htft->is_dma_transfer_active = 0; // ÂàùÂßãÂåñ DMA ‰º†ËæìÁä∂ÊÄÅÊ†áÂøó
     dea:	020406a3          	sb	zero,45(s0)
TFT_Register_Device():
d:\CH573FEVT\LaserRangeFinder\obj/../src/TFTc/TFT_io.c:106
		if (g_tft_handles[i] == NULL || g_tft_handles[i]->spi_handle == htft->spi_handle)
     dee:	ef91                	bnez	a5,e0a <TFT_IO_Init+0x4c>
d:\CH573FEVT\LaserRangeFinder\obj/../src/TFTc/TFT_io.c:108
			g_tft_handles[i] = htft;
     df0:	8081a423          	sw	s0,-2040(gp) # 20004068 <_edata>
d:\CH573FEVT\LaserRangeFinder\obj/../src/TFTc/TFT_io.c:109
			break;
     df4:	a039                	j	e02 <TFT_IO_Init+0x44>
TFT_IO_Init():
d:\CH573FEVT\LaserRangeFinder\obj/../src/TFTc/TFT_io.c:411
		htft->tx_buffer = (uint8_t *)malloc(htft->buffer_size);
     df6:	02855503          	lhu	a0,40(a0) # 7028 <_data_lma+0x36c8>
     dfa:	231000ef          	jal	ra,182a <malloc>
     dfe:	d048                	sw	a0,36(s0)
d:\CH573FEVT\LaserRangeFinder\obj/../src/TFTc/TFT_io.c:412
		if (htft->tx_buffer == NULL)
     e00:	f961                	bnez	a0,dd0 <TFT_IO_Init+0x12>
d:\CH573FEVT\LaserRangeFinder\obj/../src/TFTc/TFT_io.c:448
}
     e02:	40b2                	lw	ra,12(sp)
     e04:	4422                	lw	s0,8(sp)
     e06:	0141                	addi	sp,sp,16
     e08:	8082                	ret
TFT_Register_Device():
d:\CH573FEVT\LaserRangeFinder\obj/../src/TFTc/TFT_io.c:106
		if (g_tft_handles[i] == NULL || g_tft_handles[i]->spi_handle == htft->spi_handle)
     e0a:	4398                	lw	a4,0(a5)
     e0c:	401c                	lw	a5,0(s0)
     e0e:	fef71ae3          	bne	a4,a5,e02 <TFT_IO_Init+0x44>
     e12:	bff9                	j	df0 <TFT_IO_Init+0x32>
     e14:	8082                	ret

00000e16 <TFT_Write_Data8>:
TFT_Write_Data8():
d:\CH573FEVT\LaserRangeFinder\obj/../src/TFTc/TFT_io.c:483
 * @retval Êó†
 * @note   Ê≠§ÂáΩÊï∞ÊÄªÊòØ‰ΩøÁî®ÈòªÂ°ûÂºè SPI ‰º†ËæìÔºåÂπ∂ÂÅáÂÆöÂú®ÂèëÈÄÅÂâç DC ÂºïËÑöÂ∑≤ËÆæ‰∏∫Êï∞ÊçÆÊ®°Âºè„ÄÇ
 *         ÈÄöÂ∏∏Âú®ÂèëÈÄÅÂëΩ‰ª§ÂêéË∞ÉÁî®ÔºåÁî®‰∫éÂèëÈÄÅÂëΩ‰ª§ÂèÇÊï∞„ÄÇ
 */
void TFT_Write_Data8(TFT_HandleTypeDef *htft, uint8_t data)
{
     e16:	1101                	addi	sp,sp,-32
     e18:	ce06                	sw	ra,28(sp)
     e1a:	cc22                	sw	s0,24(sp)
     e1c:	00b107a3          	sb	a1,15(sp)
d:\CH573FEVT\LaserRangeFinder\obj/../src/TFTc/TFT_io.c:484
	if (htft == NULL || htft->spi_handle == NULL)
     e20:	c11d                	beqz	a0,e46 <TFT_Write_Data8+0x30>
d:\CH573FEVT\LaserRangeFinder\obj/../src/TFTc/TFT_io.c:484 (discriminator 1)
     e22:	411c                	lw	a5,0(a0)
     e24:	842a                	mv	s0,a0
     e26:	c385                	beqz	a5,e46 <TFT_Write_Data8+0x30>
d:\CH573FEVT\LaserRangeFinder\obj/../src/TFTc/TFT_io.c:487
		return;

	TFT_Wait_DMA_Transfer_Complete(htft); // Á°Æ‰øù‰πãÂâçÁöÑ DMA Êìç‰ΩúÂÆåÊàê
     e28:	3b35                	jal	b64 <TFT_Wait_DMA_Transfer_Complete>
d:\CH573FEVT\LaserRangeFinder\obj/../src/TFTc/TFT_io.c:488
	TFT_Pin_DC_Set(htft, 1);			  // Á°Æ‰øùÊòØÊï∞ÊçÆÊ®°Âºè
     e2a:	4585                	li	a1,1
     e2c:	8522                	mv	a0,s0
     e2e:	3bc9                	jal	c00 <TFT_Pin_DC_Set>
d:\CH573FEVT\LaserRangeFinder\obj/../src/TFTc/TFT_io.c:489
	TFT_Pin_CS_Set(htft, 0);			  // ÁâáÈÄâÈÄâ‰∏≠
     e30:	4581                	li	a1,0
     e32:	8522                	mv	a0,s0
     e34:	3531                	jal	c40 <TFT_Pin_CS_Set>
TFT_Platform_SPI_Transmit_Blocking():
d:\CH573FEVT\LaserRangeFinder\obj/../src/TFTc/TFT_io.c:264
	SPI0_MasterDMATrans(pData, Size); // ‰ΩøÁî®Ê≤ÅÊÅíSPI0 DMA‰º†Ëæì„ÄÇÂÆûÈôÖÊµãËØïÊó∂ÂèëÁé∞Ê≤ÅÊÅíÁöÑDMAÊòØÈòªÂ°ûÂºèÔºå‰∏çÁî®ËÄÉËôëÊó∂Â∫èÈóÆÈ¢ò
     e36:	4585                	li	a1,1
     e38:	00f10513          	addi	a0,sp,15
     e3c:	7ee000ef          	jal	ra,162a <SPI0_MasterDMATrans>
TFT_Write_Data8():
d:\CH573FEVT\LaserRangeFinder\obj/../src/TFTc/TFT_io.c:494

	// ‰ΩøÁî®Âπ≥Âè∞ÊäΩË±°ÁöÑÈòªÂ°ûÂºèÂèëÈÄÅÂçï‰∏™Â≠óËäÇ
	TFT_Platform_SPI_Transmit_Blocking(htft->spi_handle, &data, 1, 100);

	TFT_Pin_CS_Set(htft, 1); // ‰º†ËæìÂÆåÊàêÂêéÊãâÈ´ò CS
     e40:	4585                	li	a1,1
     e42:	8522                	mv	a0,s0
     e44:	3bf5                	jal	c40 <TFT_Pin_CS_Set>
d:\CH573FEVT\LaserRangeFinder\obj/../src/TFTc/TFT_io.c:495
}
     e46:	40f2                	lw	ra,28(sp)
     e48:	4462                	lw	s0,24(sp)
     e4a:	6105                	addi	sp,sp,32
     e4c:	8082                	ret

00000e4e <TFT_Write_Data16>:
TFT_Write_Data16():
d:\CH573FEVT\LaserRangeFinder\obj/../src/TFTc/TFT_io.c:507
 * @note   Ê≠§ÂáΩÊï∞ÊÄªÊòØ‰ΩøÁî®ÈòªÂ°ûÂºè SPI ‰º†Ëæì„ÄÇ
 *         ‰∏ªË¶ÅÁî®‰∫éÁªòÂà∂Âçï‰∏™ÁÇπÊàñÂ∞ëÈáèÊï∞ÊçÆÔºå‰∏çÁªèËøáÂèëÈÄÅÁºìÂÜ≤Âå∫„ÄÇ
 */
void TFT_Write_Data16(TFT_HandleTypeDef *htft, uint16_t data)
{
	if (htft == NULL || htft->spi_handle == NULL)
     e4e:	cd1d                	beqz	a0,e8c <TFT_Write_Data16+0x3e>
d:\CH573FEVT\LaserRangeFinder\obj/../src/TFTc/TFT_io.c:507 (discriminator 1)
     e50:	411c                	lw	a5,0(a0)
d:\CH573FEVT\LaserRangeFinder\obj/../src/TFTc/TFT_io.c:506 (discriminator 1)
{
     e52:	1101                	addi	sp,sp,-32
     e54:	cc22                	sw	s0,24(sp)
     e56:	ce06                	sw	ra,28(sp)
     e58:	842a                	mv	s0,a0
d:\CH573FEVT\LaserRangeFinder\obj/../src/TFTc/TFT_io.c:507 (discriminator 1)
	if (htft == NULL || htft->spi_handle == NULL)
     e5a:	c78d                	beqz	a5,e84 <TFT_Write_Data16+0x36>
d:\CH573FEVT\LaserRangeFinder\obj/../src/TFTc/TFT_io.c:511
		return;

	uint8_t spi_data[2];
	spi_data[0] = (data >> 8) & 0xFF; // È´òÂ≠óËäÇ (Â§ßÁ´Ø)
     e5c:	00859793          	slli	a5,a1,0x8
     e60:	81a1                	srli	a1,a1,0x8
     e62:	8ddd                	or	a1,a1,a5
     e64:	00b11623          	sh	a1,12(sp)
d:\CH573FEVT\LaserRangeFinder\obj/../src/TFTc/TFT_io.c:514
	spi_data[1] = data & 0xFF;		  // ‰ΩéÂ≠óËäÇ

	TFT_Wait_DMA_Transfer_Complete(htft); // Á°Æ‰øù‰πãÂâçÁöÑ DMA Êìç‰ΩúÂÆåÊàê
     e68:	39f5                	jal	b64 <TFT_Wait_DMA_Transfer_Complete>
d:\CH573FEVT\LaserRangeFinder\obj/../src/TFTc/TFT_io.c:515
	TFT_Pin_DC_Set(htft, 1);			  // Êï∞ÊçÆÊ®°Âºè
     e6a:	4585                	li	a1,1
     e6c:	8522                	mv	a0,s0
     e6e:	3b49                	jal	c00 <TFT_Pin_DC_Set>
d:\CH573FEVT\LaserRangeFinder\obj/../src/TFTc/TFT_io.c:516
	TFT_Pin_CS_Set(htft, 0);			  // ÁâáÈÄâÈÄâ‰∏≠
     e70:	4581                	li	a1,0
     e72:	8522                	mv	a0,s0
     e74:	33f1                	jal	c40 <TFT_Pin_CS_Set>
TFT_Platform_SPI_Transmit_Blocking():
d:\CH573FEVT\LaserRangeFinder\obj/../src/TFTc/TFT_io.c:264
	SPI0_MasterDMATrans(pData, Size); // ‰ΩøÁî®Ê≤ÅÊÅíSPI0 DMA‰º†Ëæì„ÄÇÂÆûÈôÖÊµãËØïÊó∂ÂèëÁé∞Ê≤ÅÊÅíÁöÑDMAÊòØÈòªÂ°ûÂºèÔºå‰∏çÁî®ËÄÉËôëÊó∂Â∫èÈóÆÈ¢ò
     e76:	4589                	li	a1,2
     e78:	0068                	addi	a0,sp,12
     e7a:	7b0000ef          	jal	ra,162a <SPI0_MasterDMATrans>
TFT_Write_Data16():
d:\CH573FEVT\LaserRangeFinder\obj/../src/TFTc/TFT_io.c:521

	// ‰ΩøÁî®Âπ≥Âè∞ÊäΩË±°ÁöÑÈòªÂ°ûÂºèÂèëÈÄÅ 2 ‰∏™Â≠óËäÇ
	TFT_Platform_SPI_Transmit_Blocking(htft->spi_handle, spi_data, 2, 100);

	TFT_Pin_CS_Set(htft, 1); // ‰º†ËæìÂÆåÊàêÂêéÊãâÈ´ò CS
     e7e:	4585                	li	a1,1
     e80:	8522                	mv	a0,s0
     e82:	3b7d                	jal	c40 <TFT_Pin_CS_Set>
d:\CH573FEVT\LaserRangeFinder\obj/../src/TFTc/TFT_io.c:522
}
     e84:	40f2                	lw	ra,28(sp)
     e86:	4462                	lw	s0,24(sp)
     e88:	6105                	addi	sp,sp,32
     e8a:	8082                	ret
     e8c:	8082                	ret

00000e8e <TFT_Write_Command>:
TFT_Write_Command():
d:\CH573FEVT\LaserRangeFinder\obj/../src/TFTc/TFT_io.c:533
 * @retval Êó†
 * @note   ÂèëÈÄÅÂëΩ‰ª§Ââç‰ºöÂÖàÂà∑Êñ∞ÁºìÂÜ≤Âå∫ (ÈòªÂ°ûÁ≠âÂæÖ)„ÄÇ
 *         ÂëΩ‰ª§Êú¨Ë∫´‰ΩøÁî®ÈòªÂ°ûÂºè SPI ‰º†Ëæì„ÄÇ
 */
void TFT_Write_Command(TFT_HandleTypeDef *htft, uint8_t command)
{
     e8e:	1101                	addi	sp,sp,-32
     e90:	ce06                	sw	ra,28(sp)
     e92:	cc22                	sw	s0,24(sp)
     e94:	00b107a3          	sb	a1,15(sp)
d:\CH573FEVT\LaserRangeFinder\obj/../src/TFTc/TFT_io.c:534
	if (htft == NULL || htft->spi_handle == NULL)
     e98:	c505                	beqz	a0,ec0 <TFT_Write_Command+0x32>
d:\CH573FEVT\LaserRangeFinder\obj/../src/TFTc/TFT_io.c:534 (discriminator 1)
     e9a:	411c                	lw	a5,0(a0)
     e9c:	842a                	mv	s0,a0
     e9e:	c38d                	beqz	a5,ec0 <TFT_Write_Command+0x32>
d:\CH573FEVT\LaserRangeFinder\obj/../src/TFTc/TFT_io.c:538
		return;

	// ÂèëÈÄÅÂëΩ‰ª§ÂâçÔºåÁ°Æ‰øùÁºìÂÜ≤Âå∫‰∏≠ÁöÑÊâÄÊúâÊï∞ÊçÆÂ∑≤ÂèëÈÄÅÂÆåÊàê
	TFT_Flush_Buffer(htft, 1); // Á≠âÂæÖÁºìÂÜ≤Âå∫Âà∑Êñ∞ÂÆåÊàê
     ea0:	4585                	li	a1,1
     ea2:	3d49                	jal	d34 <TFT_Flush_Buffer>
d:\CH573FEVT\LaserRangeFinder\obj/../src/TFTc/TFT_io.c:542

	// ‰∏çÈúÄË¶ÅÂÜçÊ¨°Ë∞ÉÁî® TFT_Wait_DMA_Transfer_Complete()ÔºåÂõ†‰∏∫ Flush_Buffer(1) Â∑≤ÁªèÁ≠âÂæÖ‰∫Ü

	TFT_Pin_DC_Set(htft, 0); // ËÆæÁΩÆ‰∏∫ÂëΩ‰ª§Ê®°Âºè
     ea4:	4581                	li	a1,0
     ea6:	8522                	mv	a0,s0
     ea8:	3ba1                	jal	c00 <TFT_Pin_DC_Set>
d:\CH573FEVT\LaserRangeFinder\obj/../src/TFTc/TFT_io.c:543
	TFT_Pin_CS_Set(htft, 0); // ÁâáÈÄâÈÄâ‰∏≠
     eaa:	4581                	li	a1,0
     eac:	8522                	mv	a0,s0
     eae:	3b49                	jal	c40 <TFT_Pin_CS_Set>
TFT_Platform_SPI_Transmit_Blocking():
d:\CH573FEVT\LaserRangeFinder\obj/../src/TFTc/TFT_io.c:264
	SPI0_MasterDMATrans(pData, Size); // ‰ΩøÁî®Ê≤ÅÊÅíSPI0 DMA‰º†Ëæì„ÄÇÂÆûÈôÖÊµãËØïÊó∂ÂèëÁé∞Ê≤ÅÊÅíÁöÑDMAÊòØÈòªÂ°ûÂºèÔºå‰∏çÁî®ËÄÉËôëÊó∂Â∫èÈóÆÈ¢ò
     eb0:	4585                	li	a1,1
     eb2:	00f10513          	addi	a0,sp,15
     eb6:	774000ef          	jal	ra,162a <SPI0_MasterDMATrans>
TFT_Write_Command():
d:\CH573FEVT\LaserRangeFinder\obj/../src/TFTc/TFT_io.c:548

	// ‰ΩøÁî®Âπ≥Âè∞ÊäΩË±°ÁöÑÈòªÂ°ûÂºèÂèëÈÄÅÂëΩ‰ª§Â≠óËäÇ
	TFT_Platform_SPI_Transmit_Blocking(htft->spi_handle, &command, 1, 100);

	TFT_Pin_CS_Set(htft, 1); // ÂëΩ‰ª§ÂèëÈÄÅÂÆåÊàêÂêéÁ´ãÂç≥ÊãâÈ´ò CS
     eba:	4585                	li	a1,1
     ebc:	8522                	mv	a0,s0
     ebe:	3349                	jal	c40 <TFT_Pin_CS_Set>
d:\CH573FEVT\LaserRangeFinder\obj/../src/TFTc/TFT_io.c:549
}
     ec0:	40f2                	lw	ra,28(sp)
     ec2:	4462                	lw	s0,24(sp)
     ec4:	6105                	addi	sp,sp,32
     ec6:	8082                	ret

00000ec8 <TFT_Set_Address>:
TFT_Set_Address():
d:\CH573FEVT\LaserRangeFinder\obj/../src/TFTc/TFT_io.c:563
 * @retval Êó†
 * @note   ËÆæÁΩÆÂêéÔºåÂêéÁª≠ÊâÄÊúâÁöÑÊï∞ÊçÆ‰º†ËæìÈÉΩ‰ºöÂÜôÂÖ•Ê≠§Âå∫ÂüüÔºåÁ™óÂè£Âú®‰∏çÂêåÂ±èÂπïÊñπÂêë‰∏ã‰ºöËá™Âä®ÈÄÇÈÖç
 */
void TFT_Set_Address(TFT_HandleTypeDef *htft, uint16_t x_start, uint16_t y_start, uint16_t x_end, uint16_t y_end)
{
	if (htft == NULL)
     ec8:	cd45                	beqz	a0,f80 <TFT_Set_Address+0xb8>
d:\CH573FEVT\LaserRangeFinder\obj/../src/TFTc/TFT_io.c:562
{
     eca:	1101                	addi	sp,sp,-32
     ecc:	ca26                	sw	s1,20(sp)
     ece:	84ae                	mv	s1,a1
d:\CH573FEVT\LaserRangeFinder\obj/../src/TFTc/TFT_io.c:567
		return;

	// ËÆæÁΩÆÂú∞ÂùÄÂâçÔºåÁ°Æ‰øùÁºìÂÜ≤Âå∫‰∏≠ÁöÑÊâÄÊúâÊï∞ÊçÆÂ∑≤ÂèëÈÄÅÂÆåÊàê
	TFT_Flush_Buffer(htft, 1); // Á≠âÂæÖÁºìÂÜ≤Âå∫Âà∑Êñ∞ÂÆåÊàê
     ed0:	4585                	li	a1,1
d:\CH573FEVT\LaserRangeFinder\obj/../src/TFTc/TFT_io.c:562
{
     ed2:	ce06                	sw	ra,28(sp)
     ed4:	cc22                	sw	s0,24(sp)
     ed6:	c84a                	sw	s2,16(sp)
     ed8:	842a                	mv	s0,a0
     eda:	c64e                	sw	s3,12(sp)
     edc:	c452                	sw	s4,8(sp)
     ede:	893a                	mv	s2,a4
     ee0:	8a36                	mv	s4,a3
     ee2:	89b2                	mv	s3,a2
d:\CH573FEVT\LaserRangeFinder\obj/../src/TFTc/TFT_io.c:567
	TFT_Flush_Buffer(htft, 1); // Á≠âÂæÖÁºìÂÜ≤Âå∫Âà∑Êñ∞ÂÆåÊàê
     ee4:	3d81                	jal	d34 <TFT_Flush_Buffer>
d:\CH573FEVT\LaserRangeFinder\obj/../src/TFTc/TFT_io.c:570

	// --- ËÆæÁΩÆÂàóÂú∞ÂùÄ (Column Address Set, CASET, 0x2A) ---
	TFT_Write_Command(htft, 0x2A);
     ee6:	02a00593          	li	a1,42
     eea:	8522                	mv	a0,s0
     eec:	374d                	jal	e8e <TFT_Write_Command>
d:\CH573FEVT\LaserRangeFinder\obj/../src/TFTc/TFT_io.c:573

	// Ê†πÊçÆÂ±èÂπïÊñπÂêëÂíåÂûãÂè∑ËÆæÁΩÆÂàóÂú∞ÂùÄ
	if (htft->display_direction == 0 || htft->display_direction == 2) // 0¬∞Êàñ180¬∞
     eee:	02e44783          	lbu	a5,46(s0)
     ef2:	0fd7f793          	andi	a5,a5,253
     ef6:	e3ad                	bnez	a5,f58 <TFT_Set_Address+0x90>
d:\CH573FEVT\LaserRangeFinder\obj/../src/TFTc/TFT_io.c:575
	{
		TFT_Write_Data16(htft, x_start + htft->x_offset);
     ef8:	02f44583          	lbu	a1,47(s0)
     efc:	8522                	mv	a0,s0
     efe:	95a6                	add	a1,a1,s1
     f00:	05c2                	slli	a1,a1,0x10
     f02:	81c1                	srli	a1,a1,0x10
     f04:	37a9                	jal	e4e <TFT_Write_Data16>
d:\CH573FEVT\LaserRangeFinder\obj/../src/TFTc/TFT_io.c:576
		TFT_Write_Data16(htft, x_end + htft->x_offset);
     f06:	02f44583          	lbu	a1,47(s0)
d:\CH573FEVT\LaserRangeFinder\obj/../src/TFTc/TFT_io.c:581
	}
	else // 90¬∞Êàñ270¬∞
	{
		TFT_Write_Data16(htft, x_start + htft->y_offset);
		TFT_Write_Data16(htft, x_end + htft->y_offset);
     f0a:	95d2                	add	a1,a1,s4
     f0c:	05c2                	slli	a1,a1,0x10
     f0e:	81c1                	srli	a1,a1,0x10
     f10:	8522                	mv	a0,s0
     f12:	3f35                	jal	e4e <TFT_Write_Data16>
d:\CH573FEVT\LaserRangeFinder\obj/../src/TFTc/TFT_io.c:585
	}

	// --- ËÆæÁΩÆË°åÂú∞ÂùÄËåÉÂõ¥ (Set Row Address, 0x2B) ---
	TFT_Write_Command(htft, 0x2B);
     f14:	02b00593          	li	a1,43
     f18:	8522                	mv	a0,s0
     f1a:	3f95                	jal	e8e <TFT_Write_Command>
d:\CH573FEVT\LaserRangeFinder\obj/../src/TFTc/TFT_io.c:588

	// Ê†πÊçÆÂ±èÂπïÊñπÂêëÂíåÂûãÂè∑ËÆæÁΩÆË°åÂú∞ÂùÄ
	if (htft->display_direction == 0 || htft->display_direction == 2) // 0¬∞Êàñ180¬∞
     f1c:	02e44783          	lbu	a5,46(s0)
     f20:	0fd7f793          	andi	a5,a5,253
     f24:	e7a1                	bnez	a5,f6c <TFT_Set_Address+0xa4>
d:\CH573FEVT\LaserRangeFinder\obj/../src/TFTc/TFT_io.c:590
	{
		TFT_Write_Data16(htft, y_start + htft->y_offset);
     f26:	03044583          	lbu	a1,48(s0)
     f2a:	8522                	mv	a0,s0
     f2c:	95ce                	add	a1,a1,s3
     f2e:	05c2                	slli	a1,a1,0x10
     f30:	81c1                	srli	a1,a1,0x10
     f32:	3f31                	jal	e4e <TFT_Write_Data16>
d:\CH573FEVT\LaserRangeFinder\obj/../src/TFTc/TFT_io.c:591
		TFT_Write_Data16(htft, y_end + htft->y_offset);
     f34:	03044583          	lbu	a1,48(s0)
d:\CH573FEVT\LaserRangeFinder\obj/../src/TFTc/TFT_io.c:596
	}
	else // 90¬∞Êàñ270¬∞
	{
		TFT_Write_Data16(htft, y_start + htft->x_offset);
		TFT_Write_Data16(htft, y_end + htft->x_offset);
     f38:	95ca                	add	a1,a1,s2
     f3a:	05c2                	slli	a1,a1,0x10
     f3c:	8522                	mv	a0,s0
     f3e:	81c1                	srli	a1,a1,0x10
     f40:	3739                	jal	e4e <TFT_Write_Data16>
d:\CH573FEVT\LaserRangeFinder\obj/../src/TFTc/TFT_io.c:601
	}

	// --- ÂèëÈÄÅÂÜô GRAM ÂëΩ‰ª§ (Memory Write, 0x2C) ---
	// ÂêéÁª≠ÂèëÈÄÅÁöÑÊï∞ÊçÆÂ∞ÜË¢´ÂÜôÂÖ•Áî±Ê≠§Á™óÂè£ÂÆö‰πâÁöÑ GRAM Âå∫Âüü
	TFT_Write_Command(htft, 0x2C);
     f42:	8522                	mv	a0,s0
d:\CH573FEVT\LaserRangeFinder\obj/../src/TFTc/TFT_io.c:602
}
     f44:	4462                	lw	s0,24(sp)
     f46:	40f2                	lw	ra,28(sp)
     f48:	44d2                	lw	s1,20(sp)
     f4a:	4942                	lw	s2,16(sp)
     f4c:	49b2                	lw	s3,12(sp)
     f4e:	4a22                	lw	s4,8(sp)
d:\CH573FEVT\LaserRangeFinder\obj/../src/TFTc/TFT_io.c:601
	TFT_Write_Command(htft, 0x2C);
     f50:	02c00593          	li	a1,44
d:\CH573FEVT\LaserRangeFinder\obj/../src/TFTc/TFT_io.c:602
}
     f54:	6105                	addi	sp,sp,32
d:\CH573FEVT\LaserRangeFinder\obj/../src/TFTc/TFT_io.c:601
	TFT_Write_Command(htft, 0x2C);
     f56:	bf25                	j	e8e <TFT_Write_Command>
d:\CH573FEVT\LaserRangeFinder\obj/../src/TFTc/TFT_io.c:580
		TFT_Write_Data16(htft, x_start + htft->y_offset);
     f58:	03044583          	lbu	a1,48(s0)
     f5c:	8522                	mv	a0,s0
     f5e:	95a6                	add	a1,a1,s1
     f60:	05c2                	slli	a1,a1,0x10
     f62:	81c1                	srli	a1,a1,0x10
     f64:	35ed                	jal	e4e <TFT_Write_Data16>
d:\CH573FEVT\LaserRangeFinder\obj/../src/TFTc/TFT_io.c:581
		TFT_Write_Data16(htft, x_end + htft->y_offset);
     f66:	03044583          	lbu	a1,48(s0)
     f6a:	b745                	j	f0a <TFT_Set_Address+0x42>
d:\CH573FEVT\LaserRangeFinder\obj/../src/TFTc/TFT_io.c:595
		TFT_Write_Data16(htft, y_start + htft->x_offset);
     f6c:	02f44583          	lbu	a1,47(s0)
     f70:	8522                	mv	a0,s0
     f72:	95ce                	add	a1,a1,s3
     f74:	05c2                	slli	a1,a1,0x10
     f76:	81c1                	srli	a1,a1,0x10
     f78:	3dd9                	jal	e4e <TFT_Write_Data16>
d:\CH573FEVT\LaserRangeFinder\obj/../src/TFTc/TFT_io.c:596
		TFT_Write_Data16(htft, y_end + htft->x_offset);
     f7a:	02f44583          	lbu	a1,47(s0)
     f7e:	bf6d                	j	f38 <TFT_Set_Address+0x70>
     f80:	8082                	ret

00000f82 <TFT_Show_Char>:
TFT_Show_Char():
d:\CH573FEVT\LaserRangeFinder\obj/../src/TFTc/TFT_text.c:112
 * @param  back_color ËÉåÊôØÈ¢úËâ≤
 * @param  size       Â≠ó‰ΩìÂ§ßÂ∞è (ÊîØÊåÅ 8, 12, 16)
 * @param  mode       Ê®°Âºè (0: ËÉåÊôØ‰∏çÈÄèÊòé, 1: ËÉåÊôØÈÄèÊòé)
 */
void TFT_Show_Char(TFT_HandleTypeDef *htft, uint16_t x, uint16_t y, uint8_t chr, uint16_t color, uint16_t back_color, uint8_t size, uint8_t mode)
{
     f82:	715d                	addi	sp,sp,-80
     f84:	c4a2                	sw	s0,72(sp)
     f86:	c2a6                	sw	s1,68(sp)
     f88:	d65e                	sw	s7,44(sp)
     f8a:	d462                	sw	s8,40(sp)
     f8c:	8bbe                	mv	s7,a5
     f8e:	c686                	sw	ra,76(sp)
     f90:	c0ca                	sw	s2,64(sp)
     f92:	de4e                	sw	s3,60(sp)
     f94:	dc52                	sw	s4,56(sp)
     f96:	da56                	sw	s5,52(sp)
     f98:	d85a                	sw	s6,48(sp)
     f9a:	d266                	sw	s9,36(sp)
     f9c:	d06a                	sw	s10,32(sp)
     f9e:	ce6e                	sw	s11,28(sp)
     fa0:	c63a                	sw	a4,12(sp)
d:\CH573FEVT\LaserRangeFinder\obj/../src/TFTc/TFT_text.c:120
    uint8_t char_width, char_height;
    uint16_t char_index;
    uint16_t bytes_per_char;

    // Ê†πÊçÆÂ≠ó‰ΩìÂ§ßÂ∞èÈÄâÊã©ÂØπÂ∫îÂ≠óÂ∫ì
    if (size == 16)
     fa2:	47c1                	li	a5,16
d:\CH573FEVT\LaserRangeFinder\obj/../src/TFTc/TFT_text.c:112
{
     fa4:	84aa                	mv	s1,a0
     fa6:	8436                	mv	s0,a3
     fa8:	8c46                	mv	s8,a7
d:\CH573FEVT\LaserRangeFinder\obj/../src/TFTc/TFT_text.c:120
    if (size == 16)
     faa:	0af80063          	beq	a6,a5,104a <TFT_Show_Char+0xc8>
d:\CH573FEVT\LaserRangeFinder\obj/../src/TFTc/TFT_text.c:125
    {
        ascii_font = &afont16x8;
        bytes_per_char = 16; // 8Âàó√ó16Ë°åÔºåÊØèÂàó2Â≠óËäÇÔºåÂÖ±16Â≠óËäÇ
    }
    else if (size == 12)
     fae:	47b1                	li	a5,12
     fb0:	0af80363          	beq	a6,a5,1056 <TFT_Show_Char+0xd4>
d:\CH573FEVT\LaserRangeFinder\obj/../src/TFTc/TFT_text.c:134
    }
    else
    {
        ascii_font = &afont8x6;
        size = 8;
        bytes_per_char = 6; // 6Âàó√ó8Ë°åÔºåÊØèÂàó1Â≠óËäÇÔºåÂÖ±6Â≠óËäÇ
     fb4:	4d19                	li	s10,6
d:\CH573FEVT\LaserRangeFinder\obj/../src/TFTc/TFT_text.c:132
        ascii_font = &afont8x6;
     fb6:	00003797          	auipc	a5,0x3
     fba:	99678793          	addi	a5,a5,-1642 # 394c <afont8x6>
d:\CH573FEVT\LaserRangeFinder\obj/../src/TFTc/TFT_text.c:141

    char_width = ascii_font->w;
    char_height = ascii_font->h;

    // Ê£ÄÊü•Â≠óÁ¨¶ÊòØÂê¶Âú®ÂèØÊòæÁ§∫ËåÉÂõ¥ÂÜÖ
    if (chr < ' ' || chr > '~')
     fbe:	fe040713          	addi	a4,s0,-32
     fc2:	0ff77713          	andi	a4,a4,255
     fc6:	05e00693          	li	a3,94
d:\CH573FEVT\LaserRangeFinder\obj/../src/TFTc/TFT_text.c:137
    char_width = ascii_font->w;
     fca:	0017c983          	lbu	s3,1(a5)
d:\CH573FEVT\LaserRangeFinder\obj/../src/TFTc/TFT_text.c:138
    char_height = ascii_font->h;
     fce:	0007c903          	lbu	s2,0(a5)
d:\CH573FEVT\LaserRangeFinder\obj/../src/TFTc/TFT_text.c:141
    if (chr < ' ' || chr > '~')
     fd2:	00e6f463          	bgeu	a3,a4,fda <TFT_Show_Char+0x58>
d:\CH573FEVT\LaserRangeFinder\obj/../src/TFTc/TFT_text.c:143
    {
        chr = ' '; // ‰∏çÂèØÊòæÁ§∫Â≠óÁ¨¶ÊòæÁ§∫‰∏∫Á©∫Ê†º
     fd6:	02000413          	li	s0,32
d:\CH573FEVT\LaserRangeFinder\obj/../src/TFTc/TFT_text.c:146
    }

    char_index = chr - ' ';                                       // ËÆ°ÁÆóÂ≠óÁ¨¶Âú®Â≠óÂ∫ì‰∏≠ÁöÑÁ¥¢Âºï‰ΩçÁΩÆ
     fda:	1401                	addi	s0,s0,-32
d:\CH573FEVT\LaserRangeFinder\obj/../src/TFTc/TFT_text.c:147
    glyph_data = ascii_font->chars + char_index * bytes_per_char; // ÊåáÂêëÂØπÂ∫îÂ≠óÊ®°Êï∞ÊçÆ
     fdc:	0442                	slli	s0,s0,0x10
     fde:	8041                	srli	s0,s0,0x10
     fe0:	03a40433          	mul	s0,s0,s10
_TFT_Draw_Glyph():
d:\CH573FEVT\LaserRangeFinder\obj/../src/TFTc/TFT_text.c:25
    uint8_t bytes_per_column = (height + 7) / 8; // ÊØèÂàóÂ≠óËäÇÊï∞Ôºà8Ë°å=1, 12Ë°å=2Ôºâ
     fe4:	00790a13          	addi	s4,s2,7
d:\CH573FEVT\LaserRangeFinder\obj/../src/TFTc/TFT_text.c:27
    TFT_Set_Address(htft, x, y, x + width - 1, y + height - 1);
     fe8:	09c2                	slli	s3,s3,0x10
     fea:	0942                	slli	s2,s2,0x10
     fec:	fff60713          	addi	a4,a2,-1
     ff0:	fff58693          	addi	a3,a1,-1
     ff4:	0109d993          	srli	s3,s3,0x10
     ff8:	01095913          	srli	s2,s2,0x10
     ffc:	974a                	add	a4,a4,s2
     ffe:	96ce                	add	a3,a3,s3
d:\CH573FEVT\LaserRangeFinder\obj/../src/TFTc/TFT_text.c:25
    uint8_t bytes_per_column = (height + 7) / 8; // ÊØèÂàóÂ≠óËäÇÊï∞Ôºà8Ë°å=1, 12Ë°å=2Ôºâ
    1000:	403a5a13          	srai	s4,s4,0x3
d:\CH573FEVT\LaserRangeFinder\obj/../src/TFTc/TFT_text.c:27
    TFT_Set_Address(htft, x, y, x + width - 1, y + height - 1);
    1004:	0742                	slli	a4,a4,0x10
    1006:	06c2                	slli	a3,a3,0x10
TFT_Show_Char():
d:\CH573FEVT\LaserRangeFinder\obj/../src/TFTc/TFT_text.c:147
    glyph_data = ascii_font->chars + char_index * bytes_per_char; // ÊåáÂêëÂØπÂ∫îÂ≠óÊ®°Êï∞ÊçÆ
    1008:	0047ac83          	lw	s9,4(a5)
_TFT_Draw_Glyph():
d:\CH573FEVT\LaserRangeFinder\obj/../src/TFTc/TFT_text.c:27
    TFT_Set_Address(htft, x, y, x + width - 1, y + height - 1);
    100c:	8341                	srli	a4,a4,0x10
d:\CH573FEVT\LaserRangeFinder\obj/../src/TFTc/TFT_text.c:25
    uint8_t bytes_per_column = (height + 7) / 8; // ÊØèÂàóÂ≠óËäÇÊï∞Ôºà8Ë°å=1, 12Ë°å=2Ôºâ
    100e:	0ffa7793          	andi	a5,s4,255
d:\CH573FEVT\LaserRangeFinder\obj/../src/TFTc/TFT_text.c:27
    TFT_Set_Address(htft, x, y, x + width - 1, y + height - 1);
    1012:	82c1                	srli	a3,a3,0x10
    1014:	8526                	mv	a0,s1
d:\CH573FEVT\LaserRangeFinder\obj/../src/TFTc/TFT_text.c:25
    uint8_t bytes_per_column = (height + 7) / 8; // ÊØèÂàóÂ≠óËäÇÊï∞Ôºà8Ë°å=1, 12Ë°å=2Ôºâ
    1016:	c23e                	sw	a5,4(sp)
d:\CH573FEVT\LaserRangeFinder\obj/../src/TFTc/TFT_text.c:27
    TFT_Set_Address(htft, x, y, x + width - 1, y + height - 1);
    1018:	3d45                	jal	ec8 <TFT_Set_Address>
d:\CH573FEVT\LaserRangeFinder\obj/../src/TFTc/TFT_text.c:28
    TFT_Reset_Buffer(htft);
    101a:	8526                	mv	a0,s1
    101c:	9466                	add	s0,s0,s9
    101e:	3b61                	jal	db6 <TFT_Reset_Buffer>
d:\CH573FEVT\LaserRangeFinder\obj/../src/TFTc/TFT_text.c:31
    for (col = 0; col < width; col++)
    1020:	4c81                	li	s9,0
d:\CH573FEVT\LaserRangeFinder\obj/../src/TFTc/TFT_text.c:36
            for (row = 0; row < 8; row++)
    1022:	4da1                	li	s11,8
d:\CH573FEVT\LaserRangeFinder\obj/../src/TFTc/TFT_text.c:31
    for (col = 0; col < width; col++)
    1024:	093ceb63          	bltu	s9,s3,10ba <TFT_Show_Char+0x138>
TFT_Show_Char():
d:\CH573FEVT\LaserRangeFinder\obj/../src/TFTc/TFT_text.c:151

    // Ë∞ÉÁî®ÁªòÂà∂ÂáΩÊï∞
    _TFT_Draw_Glyph(htft, x, y, glyph_data, char_width, char_height, color, back_color, mode);
}
    1028:	4426                	lw	s0,72(sp)
    102a:	40b6                	lw	ra,76(sp)
    102c:	4906                	lw	s2,64(sp)
    102e:	59f2                	lw	s3,60(sp)
    1030:	5a62                	lw	s4,56(sp)
    1032:	5ad2                	lw	s5,52(sp)
    1034:	5b42                	lw	s6,48(sp)
    1036:	5bb2                	lw	s7,44(sp)
    1038:	5c22                	lw	s8,40(sp)
    103a:	5c92                	lw	s9,36(sp)
    103c:	5d02                	lw	s10,32(sp)
    103e:	4df2                	lw	s11,28(sp)
_TFT_Draw_Glyph():
d:\CH573FEVT\LaserRangeFinder\obj/../src/TFTc/TFT_text.c:61
    TFT_Flush_Buffer(htft, 1);
    1040:	8526                	mv	a0,s1
TFT_Show_Char():
d:\CH573FEVT\LaserRangeFinder\obj/../src/TFTc/TFT_text.c:151
}
    1042:	4496                	lw	s1,68(sp)
_TFT_Draw_Glyph():
d:\CH573FEVT\LaserRangeFinder\obj/../src/TFTc/TFT_text.c:61
    TFT_Flush_Buffer(htft, 1);
    1044:	4585                	li	a1,1
TFT_Show_Char():
d:\CH573FEVT\LaserRangeFinder\obj/../src/TFTc/TFT_text.c:151
}
    1046:	6161                	addi	sp,sp,80
_TFT_Draw_Glyph():
d:\CH573FEVT\LaserRangeFinder\obj/../src/TFTc/TFT_text.c:61
    TFT_Flush_Buffer(htft, 1);
    1048:	b1f5                	j	d34 <TFT_Flush_Buffer>
TFT_Show_Char():
d:\CH573FEVT\LaserRangeFinder\obj/../src/TFTc/TFT_text.c:123
        bytes_per_char = 16; // 8Âàó√ó16Ë°åÔºåÊØèÂàó2Â≠óËäÇÔºåÂÖ±16Â≠óËäÇ
    104a:	4d41                	li	s10,16
d:\CH573FEVT\LaserRangeFinder\obj/../src/TFTc/TFT_text.c:122
        ascii_font = &afont16x8;
    104c:	00003797          	auipc	a5,0x3
    1050:	8f878793          	addi	a5,a5,-1800 # 3944 <afont16x8>
    1054:	b7ad                	j	fbe <TFT_Show_Char+0x3c>
d:\CH573FEVT\LaserRangeFinder\obj/../src/TFTc/TFT_text.c:128
        bytes_per_char = 12; // 6Âàó√ó12Ë°åÔºåÊØèÂàó2Â≠óËäÇÔºåÂÖ±12Â≠óËäÇ
    1056:	4d31                	li	s10,12
d:\CH573FEVT\LaserRangeFinder\obj/../src/TFTc/TFT_text.c:127
        ascii_font = &afont12x6;
    1058:	00003797          	auipc	a5,0x3
    105c:	8e478793          	addi	a5,a5,-1820 # 393c <afont12x6>
    1060:	bfb9                	j	fbe <TFT_Show_Char+0x3c>
_TFT_Draw_Glyph():
d:\CH573FEVT\LaserRangeFinder\obj/../src/TFTc/TFT_text.c:35
            byte = glyph_data[col * bytes_per_column + byte_idx];
    1062:	015406b3          	add	a3,s0,s5
    1066:	0006c783          	lbu	a5,0(a3)
    106a:	003a9d13          	slli	s10,s5,0x3
    106e:	0d42                	slli	s10,s10,0x10
    1070:	c43e                	sw	a5,8(sp)
d:\CH573FEVT\LaserRangeFinder\obj/../src/TFTc/TFT_text.c:36
            for (row = 0; row < 8; row++)
    1072:	010d5d13          	srli	s10,s10,0x10
d:\CH573FEVT\LaserRangeFinder\obj/../src/TFTc/TFT_text.c:35
            byte = glyph_data[col * bytes_per_column + byte_idx];
    1076:	4b01                	li	s6,0
d:\CH573FEVT\LaserRangeFinder\obj/../src/TFTc/TFT_text.c:39
                if (pixel_row >= height)
    1078:	016d0633          	add	a2,s10,s6
    107c:	0642                	slli	a2,a2,0x10
    107e:	8241                	srli	a2,a2,0x10
    1080:	01267d63          	bgeu	a2,s2,109a <TFT_Show_Char+0x118>
d:\CH573FEVT\LaserRangeFinder\obj/../src/TFTc/TFT_text.c:44
                bit = (byte >> row) & 0x01; // ÊñπÂºè2ÔºöLSBÂú®‰∏ä
    1084:	47a2                	lw	a5,8(sp)
    1086:	4167d633          	sra	a2,a5,s6
d:\CH573FEVT\LaserRangeFinder\obj/../src/TFTc/TFT_text.c:46
                if (bit)
    108a:	8a05                	andi	a2,a2,1
    108c:	c21d                	beqz	a2,10b2 <TFT_Show_Char+0x130>
d:\CH573FEVT\LaserRangeFinder\obj/../src/TFTc/TFT_text.c:48
                    TFT_Buffer_Write16(htft, color); // ÂâçÊôØËâ≤
    108e:	45b2                	lw	a1,12(sp)
d:\CH573FEVT\LaserRangeFinder\obj/../src/TFTc/TFT_text.c:52
                    TFT_Buffer_Write16(htft, back_color); // ËÉåÊôØËâ≤
    1090:	8526                	mv	a0,s1
    1092:	31e1                	jal	d5a <TFT_Buffer_Write16>
d:\CH573FEVT\LaserRangeFinder\obj/../src/TFTc/TFT_text.c:57
                }
    1094:	0b05                	addi	s6,s6,1
d:\CH573FEVT\LaserRangeFinder\obj/../src/TFTc/TFT_text.c:36
            for (row = 0; row < 8; row++)
    1096:	ffbb11e3          	bne	s6,s11,1078 <TFT_Show_Char+0xf6>
    109a:	0a85                	addi	s5,s5,1
d:\CH573FEVT\LaserRangeFinder\obj/../src/TFTc/TFT_text.c:33
        for (uint8_t byte_idx = 0; byte_idx < bytes_per_column; byte_idx++)
    109c:	4792                	lw	a5,4(sp)
    109e:	0ffaf693          	andi	a3,s5,255
    10a2:	fcf6e0e3          	bltu	a3,a5,1062 <TFT_Show_Char+0xe0>
d:\CH573FEVT\LaserRangeFinder\obj/../src/TFTc/TFT_text.c:31
    for (col = 0; col < width; col++)
    10a6:	0c85                	addi	s9,s9,1
    10a8:	0cc2                	slli	s9,s9,0x10
    10aa:	010cdc93          	srli	s9,s9,0x10
    10ae:	9452                	add	s0,s0,s4
    10b0:	bf95                	j	1024 <TFT_Show_Char+0xa2>
d:\CH573FEVT\LaserRangeFinder\obj/../src/TFTc/TFT_text.c:50
                else if (mode == 0)
    10b2:	fe0c11e3          	bnez	s8,1094 <TFT_Show_Char+0x112>
d:\CH573FEVT\LaserRangeFinder\obj/../src/TFTc/TFT_text.c:52
                    TFT_Buffer_Write16(htft, back_color); // ËÉåÊôØËâ≤
    10b6:	85de                	mv	a1,s7
    10b8:	bfe1                	j	1090 <TFT_Show_Char+0x10e>
d:\CH573FEVT\LaserRangeFinder\obj/../src/TFTc/TFT_text.c:31
    for (col = 0; col < width; col++)
    10ba:	4a81                	li	s5,0
    10bc:	b7c5                	j	109c <TFT_Show_Char+0x11a>

000010be <TFT_Show_String>:
TFT_Show_String():
d:\CH573FEVT\LaserRangeFinder\obj/../src/TFTc/TFT_text.c:78
{
    10be:	715d                	addi	sp,sp,-80
    10c0:	c4a2                	sw	s0,72(sp)
    10c2:	c2a6                	sw	s1,68(sp)
    10c4:	c0ca                	sw	s2,64(sp)
    10c6:	de4e                	sw	s3,60(sp)
    10c8:	dc52                	sw	s4,56(sp)
    10ca:	da56                	sw	s5,52(sp)
    10cc:	d85a                	sw	s6,48(sp)
    10ce:	d65e                	sw	s7,44(sp)
    10d0:	d462                	sw	s8,40(sp)
    10d2:	d266                	sw	s9,36(sp)
    10d4:	d06a                	sw	s10,32(sp)
    10d6:	ce6e                	sw	s11,28(sp)
    10d8:	c686                	sw	ra,76(sp)
    10da:	89aa                	mv	s3,a0
    10dc:	842e                	mv	s0,a1
    10de:	8a32                	mv	s4,a2
    10e0:	84b6                	mv	s1,a3
    10e2:	8aba                	mv	s5,a4
    10e4:	8b3e                	mv	s6,a5
    10e6:	8942                	mv	s2,a6
    10e8:	8bc6                	mv	s7,a7
d:\CH573FEVT\LaserRangeFinder\obj/../src/TFTc/TFT_text.c:88
        if (size == 16)
    10ea:	4c41                	li	s8,16
d:\CH573FEVT\LaserRangeFinder\obj/../src/TFTc/TFT_text.c:90
        else if (size == 12)
    10ec:	4cb1                	li	s9,12
d:\CH573FEVT\LaserRangeFinder\obj/../src/TFTc/TFT_text.c:93
            char_width = afont8x6.w;
    10ee:	00003d17          	auipc	s10,0x3
    10f2:	85fd4d03          	lbu	s10,-1953(s10) # 394d <afont8x6+0x1>
d:\CH573FEVT\LaserRangeFinder\obj/../src/TFTc/TFT_text.c:91
            char_width = afont12x6.w;
    10f6:	00003d97          	auipc	s11,0x3
    10fa:	847dcd83          	lbu	s11,-1977(s11) # 393d <afont12x6+0x1>
d:\CH573FEVT\LaserRangeFinder\obj/../src/TFTc/TFT_text.c:89
            char_width = afont16x8.w;
    10fe:	00003317          	auipc	t1,0x3
    1102:	84734303          	lbu	t1,-1977(t1) # 3945 <afont16x8+0x1>
d:\CH573FEVT\LaserRangeFinder\obj/../src/TFTc/TFT_text.c:82
    while (*str) // ÈÅçÂéÜÂ≠óÁ¨¶‰∏≤Áõ¥Âà∞ÈÅáÂà∞ null ÁªàÊ≠¢Á¨¶
    1106:	0004c683          	lbu	a3,0(s1)
    110a:	e285                	bnez	a3,112a <TFT_Show_String+0x6c>
d:\CH573FEVT\LaserRangeFinder\obj/../src/TFTc/TFT_text.c:98
}
    110c:	40b6                	lw	ra,76(sp)
    110e:	4426                	lw	s0,72(sp)
    1110:	4496                	lw	s1,68(sp)
    1112:	4906                	lw	s2,64(sp)
    1114:	59f2                	lw	s3,60(sp)
    1116:	5a62                	lw	s4,56(sp)
    1118:	5ad2                	lw	s5,52(sp)
    111a:	5b42                	lw	s6,48(sp)
    111c:	5bb2                	lw	s7,44(sp)
    111e:	5c22                	lw	s8,40(sp)
    1120:	5c92                	lw	s9,36(sp)
    1122:	5d02                	lw	s10,32(sp)
    1124:	4df2                	lw	s11,28(sp)
    1126:	6161                	addi	sp,sp,80
    1128:	8082                	ret
d:\CH573FEVT\LaserRangeFinder\obj/../src/TFTc/TFT_text.c:85
        TFT_Show_Char(htft, current_x, y, *str, color, back_color, size, mode);
    112a:	87da                	mv	a5,s6
    112c:	88de                	mv	a7,s7
    112e:	884a                	mv	a6,s2
    1130:	8756                	mv	a4,s5
    1132:	8652                	mv	a2,s4
    1134:	85a2                	mv	a1,s0
    1136:	854e                	mv	a0,s3
    1138:	c61a                	sw	t1,12(sp)
    113a:	35a1                	jal	f82 <TFT_Show_Char>
d:\CH573FEVT\LaserRangeFinder\obj/../src/TFTc/TFT_text.c:88
        if (size == 16)
    113c:	4332                	lw	t1,12(sp)
d:\CH573FEVT\LaserRangeFinder\obj/../src/TFTc/TFT_text.c:89
            char_width = afont16x8.w;
    113e:	879a                	mv	a5,t1
d:\CH573FEVT\LaserRangeFinder\obj/../src/TFTc/TFT_text.c:88
        if (size == 16)
    1140:	01890663          	beq	s2,s8,114c <TFT_Show_String+0x8e>
d:\CH573FEVT\LaserRangeFinder\obj/../src/TFTc/TFT_text.c:93
            char_width = afont8x6.w;
    1144:	87ea                	mv	a5,s10
d:\CH573FEVT\LaserRangeFinder\obj/../src/TFTc/TFT_text.c:90
        else if (size == 12)
    1146:	01991363          	bne	s2,s9,114c <TFT_Show_String+0x8e>
d:\CH573FEVT\LaserRangeFinder\obj/../src/TFTc/TFT_text.c:91
            char_width = afont12x6.w;
    114a:	87ee                	mv	a5,s11
d:\CH573FEVT\LaserRangeFinder\obj/../src/TFTc/TFT_text.c:95
        current_x += char_width; // ÁßªÂä®Âà∞‰∏ã‰∏Ä‰∏™Â≠óÁ¨¶ÁöÑ‰ΩçÁΩÆ
    114c:	943e                	add	s0,s0,a5
    114e:	0442                	slli	s0,s0,0x10
    1150:	8041                	srli	s0,s0,0x10
d:\CH573FEVT\LaserRangeFinder\obj/../src/TFTc/TFT_text.c:96
        str++;                   // ÊåáÂêë‰∏ã‰∏Ä‰∏™Â≠óÁ¨¶
    1152:	0485                	addi	s1,s1,1
    1154:	bf4d                	j	1106 <TFT_Show_String+0x48>

00001156 <M01LRF_ReceiveRawdata>:
M01LRF_ReceiveRawdata():
d:\CH573FEVT\LaserRangeFinder\obj/../src/M01LaserRangeFinder.c:39

    // Âú®‰∏ãÈù¢ÊîæÂÖ•‰Ω†Âπ≥Âè∞ÁöÑ‰∏≤Âè£ÂèëÈÄÅ‰ª£Á†Å
    UART0_SendString ((uint8_t *)command, length);
}

uint16_t M01LRF_ReceiveRawdata (uint8_t *buffer, uint16_t buffer_len) {
    1156:	1101                	addi	sp,sp,-32
    1158:	cc22                	sw	s0,24(sp)
    115a:	ce06                	sw	ra,28(sp)
    115c:	ca26                	sw	s1,20(sp)
    115e:	c84a                	sw	s2,16(sp)
    1160:	c64e                	sw	s3,12(sp)
d:\CH573FEVT\LaserRangeFinder\obj/../src/M01LaserRangeFinder.c:41
    if ((buffer == NULL) || (buffer_len == 0U)) {
        return 0;
    1162:	4401                	li	s0,0
d:\CH573FEVT\LaserRangeFinder\obj/../src/M01LaserRangeFinder.c:40
    if ((buffer == NULL) || (buffer_len == 0U)) {
    1164:	c11d                	beqz	a0,118a <M01LRF_ReceiveRawdata+0x34>
d:\CH573FEVT\LaserRangeFinder\obj/../src/M01LaserRangeFinder.c:40 (discriminator 1)
    1166:	c195                	beqz	a1,118a <M01LRF_ReceiveRawdata+0x34>
    1168:	892e                	mv	s2,a1
    116a:	89aa                	mv	s3,a0
d:\CH573FEVT\LaserRangeFinder\obj/../src/M01LaserRangeFinder.c:45
    }

    uint16_t total = 0;
    uint16_t idle_attempts = 50;  // Á∫¶ 5 ms Ë∂ÖÊó∂Ôºå100 us * 50
    116c:	03200493          	li	s1,50
d:\CH573FEVT\LaserRangeFinder\obj/../src/M01LaserRangeFinder.c:47

    while ((idle_attempts > 0U) && (total < buffer_len)) {
    1170:	01247d63          	bgeu	s0,s2,118a <M01LRF_ReceiveRawdata+0x34>
d:\CH573FEVT\LaserRangeFinder\obj/../src/M01LaserRangeFinder.c:48
        uint16_t chunk = UART0_RecvString (buffer + total);
    1174:	00898533          	add	a0,s3,s0
    1178:	251d                	jal	179e <UART0_RecvString>
d:\CH573FEVT\LaserRangeFinder\obj/../src/M01LaserRangeFinder.c:50

        if (chunk != 0U) {
    117a:	c105                	beqz	a0,119a <M01LRF_ReceiveRawdata+0x44>
d:\CH573FEVT\LaserRangeFinder\obj/../src/M01LaserRangeFinder.c:51
            total += chunk;
    117c:	942a                	add	s0,s0,a0
    117e:	0442                	slli	s0,s0,0x10
    1180:	8041                	srli	s0,s0,0x10
d:\CH573FEVT\LaserRangeFinder\obj/../src/M01LaserRangeFinder.c:52
            idle_attempts = 50;
    1182:	03200493          	li	s1,50
d:\CH573FEVT\LaserRangeFinder\obj/../src/M01LaserRangeFinder.c:54

            if (total >= buffer_len) {
    1186:	ff2465e3          	bltu	s0,s2,1170 <M01LRF_ReceiveRawdata+0x1a>
d:\CH573FEVT\LaserRangeFinder\obj/../src/M01LaserRangeFinder.c:64
            mDelayuS (100);
        }
    }

    return total;
}
    118a:	8522                	mv	a0,s0
    118c:	40f2                	lw	ra,28(sp)
    118e:	4462                	lw	s0,24(sp)
    1190:	44d2                	lw	s1,20(sp)
    1192:	4942                	lw	s2,16(sp)
    1194:	49b2                	lw	s3,12(sp)
    1196:	6105                	addi	sp,sp,32
    1198:	8082                	ret
d:\CH573FEVT\LaserRangeFinder\obj/../src/M01LaserRangeFinder.c:58
            idle_attempts--;
    119a:	14fd                	addi	s1,s1,-1
    119c:	04c2                	slli	s1,s1,0x10
    119e:	80c1                	srli	s1,s1,0x10
d:\CH573FEVT\LaserRangeFinder\obj/../src/M01LaserRangeFinder.c:59
            mDelayuS (100);
    11a0:	06400513          	li	a0,100
    11a4:	20003097          	auipc	ra,0x20003
    11a8:	942080e7          	jalr	-1726(ra) # 20003ae6 <mDelayuS>
d:\CH573FEVT\LaserRangeFinder\obj/../src/M01LaserRangeFinder.c:47
    while ((idle_attempts > 0U) && (total < buffer_len)) {
    11ac:	f0f1                	bnez	s1,1170 <M01LRF_ReceiveRawdata+0x1a>
    11ae:	bff1                	j	118a <M01LRF_ReceiveRawdata+0x34>

000011b0 <M01LRF_ReadModuleStatus>:
M01LRF_ReadModuleStatus():
d:\CH573FEVT\LaserRangeFinder\obj/../src/M01LaserRangeFinder.c:67

uint16_t M01LRF_ReadModuleStatus (uint8_t *buffer, uint16_t buffer_len) {
    if ((buffer == NULL) || (buffer_len == 0U)) {
    11b0:	c915                	beqz	a0,11e4 <M01LRF_ReadModuleStatus+0x34>
d:\CH573FEVT\LaserRangeFinder\obj/../src/M01LaserRangeFinder.c:67 (discriminator 1)
    11b2:	c98d                	beqz	a1,11e4 <M01LRF_ReadModuleStatus+0x34>
d:\CH573FEVT\LaserRangeFinder\obj/../src/M01LaserRangeFinder.c:66
uint16_t M01LRF_ReadModuleStatus (uint8_t *buffer, uint16_t buffer_len) {
    11b4:	1141                	addi	sp,sp,-16
    11b6:	c422                	sw	s0,8(sp)
    11b8:	c226                	sw	s1,4(sp)
    11ba:	842a                	mv	s0,a0
M01LRF_SendRawCommand():
d:\CH573FEVT\LaserRangeFinder\obj/../src/M01LaserRangeFinder.c:36
    UART0_SendString ((uint8_t *)command, length);
    11bc:	84ae                	mv	s1,a1
    11be:	00002517          	auipc	a0,0x2
    11c2:	79650513          	addi	a0,a0,1942 # 3954 <ReadModuleStatus>
    11c6:	4595                	li	a1,5
M01LRF_ReadModuleStatus():
d:\CH573FEVT\LaserRangeFinder\obj/../src/M01LaserRangeFinder.c:66
uint16_t M01LRF_ReadModuleStatus (uint8_t *buffer, uint16_t buffer_len) {
    11c8:	c606                	sw	ra,12(sp)
M01LRF_SendRawCommand():
d:\CH573FEVT\LaserRangeFinder\obj/../src/M01LaserRangeFinder.c:36
    UART0_SendString ((uint8_t *)command, length);
    11ca:	2375                	jal	1776 <UART0_SendString>
M01LRF_ReadModuleStatus():
d:\CH573FEVT\LaserRangeFinder\obj/../src/M01LaserRangeFinder.c:72
        return 0;
    }

    M01LRF_SendRawCommand (ReadModuleStatus, sizeof (ReadModuleStatus));
    mDelaymS (2);
    11cc:	4509                	li	a0,2
    11ce:	20003097          	auipc	ra,0x20003
    11d2:	926080e7          	jalr	-1754(ra) # 20003af4 <mDelaymS>
d:\CH573FEVT\LaserRangeFinder\obj/../src/M01LaserRangeFinder.c:74

    return M01LRF_ReceiveRawdata (buffer, buffer_len);
    11d6:	8522                	mv	a0,s0
d:\CH573FEVT\LaserRangeFinder\obj/../src/M01LaserRangeFinder.c:75
}
    11d8:	4422                	lw	s0,8(sp)
    11da:	40b2                	lw	ra,12(sp)
d:\CH573FEVT\LaserRangeFinder\obj/../src/M01LaserRangeFinder.c:74
    return M01LRF_ReceiveRawdata (buffer, buffer_len);
    11dc:	85a6                	mv	a1,s1
d:\CH573FEVT\LaserRangeFinder\obj/../src/M01LaserRangeFinder.c:75
}
    11de:	4492                	lw	s1,4(sp)
    11e0:	0141                	addi	sp,sp,16
d:\CH573FEVT\LaserRangeFinder\obj/../src/M01LaserRangeFinder.c:74
    return M01LRF_ReceiveRawdata (buffer, buffer_len);
    11e2:	bf95                	j	1156 <M01LRF_ReceiveRawdata>
d:\CH573FEVT\LaserRangeFinder\obj/../src/M01LaserRangeFinder.c:75
}
    11e4:	4501                	li	a0,0
    11e6:	8082                	ret

000011e8 <M01LRF_SendEnableCommand>:
M01LRF_SendRawCommand():
d:\CH573FEVT\LaserRangeFinder\obj/../src/M01LaserRangeFinder.c:36
    UART0_SendString ((uint8_t *)command, length);
    11e8:	45a5                	li	a1,9
    11ea:	00002517          	auipc	a0,0x2
    11ee:	5da50513          	addi	a0,a0,1498 # 37c4 <ENABLE_LASER>
    11f2:	a351                	j	1776 <UART0_SendString>

000011f4 <M01LRF_SendDisableCommand>:
    11f4:	45a5                	li	a1,9
    11f6:	00002517          	auipc	a0,0x2
    11fa:	5c250513          	addi	a0,a0,1474 # 37b8 <DISABLE_LASER>
    11fe:	aba5                	j	1776 <UART0_SendString>

00001200 <main>:
main():
d:\CH573FEVT\LaserRangeFinder\obj/../src/Main.c:52
{
    1200:	7139                	addi	sp,sp,-64
d:\CH573FEVT\LaserRangeFinder\obj/../src/Main.c:53
    SetSysClock(CLK_SOURCE_PLL_60MHz);
    1202:	04800513          	li	a0,72
d:\CH573FEVT\LaserRangeFinder\obj/../src/Main.c:52
{
    1206:	de06                	sw	ra,60(sp)
    1208:	dc22                	sw	s0,56(sp)
    120a:	da26                	sw	s1,52(sp)
d:\CH573FEVT\LaserRangeFinder\obj/../src/Main.c:56
    GPIOA_SetBits(GPIO_Pin_9);
    120c:	40001437          	lui	s0,0x40001
d:\CH573FEVT\LaserRangeFinder\obj/../src/Main.c:52
{
    1210:	d84a                	sw	s2,48(sp)
    1212:	d452                	sw	s4,40(sp)
    1214:	d256                	sw	s5,36(sp)
    1216:	d05a                	sw	s6,32(sp)
    1218:	d64e                	sw	s3,44(sp)
d:\CH573FEVT\LaserRangeFinder\obj/../src/Main.c:53
    SetSysClock(CLK_SOURCE_PLL_60MHz);
    121a:	20002097          	auipc	ra,0x20002
    121e:	732080e7          	jalr	1842(ra) # 2000394c <SetSysClock>
d:\CH573FEVT\LaserRangeFinder\obj/../src/Main.c:56
    GPIOA_SetBits(GPIO_Pin_9);
    1222:	0a842783          	lw	a5,168(s0) # 400010a8 <_eusrstack+0x1fff90a8>
d:\CH573FEVT\LaserRangeFinder\obj/../src/Main.c:57
    GPIOA_ModeCfg(GPIO_Pin_8, GPIO_ModeIN_PU);
    1226:	4585                	li	a1,1
    1228:	10000513          	li	a0,256
d:\CH573FEVT\LaserRangeFinder\obj/../src/Main.c:56
    GPIOA_SetBits(GPIO_Pin_9);
    122c:	2007e793          	ori	a5,a5,512
    1230:	0af42423          	sw	a5,168(s0)
d:\CH573FEVT\LaserRangeFinder\obj/../src/Main.c:57
    GPIOA_ModeCfg(GPIO_Pin_8, GPIO_ModeIN_PU);
    1234:	22fd                	jal	1422 <GPIOA_ModeCfg>
d:\CH573FEVT\LaserRangeFinder\obj/../src/Main.c:58
    GPIOA_ModeCfg(GPIO_Pin_9, GPIO_ModeOut_PP_5mA);
    1236:	458d                	li	a1,3
    1238:	20000513          	li	a0,512
    123c:	22dd                	jal	1422 <GPIOA_ModeCfg>
d:\CH573FEVT\LaserRangeFinder\obj/../src/Main.c:59
    UART1_DefInit();
    123e:	2b6d                	jal	17f8 <UART1_DefInit>
d:\CH573FEVT\LaserRangeFinder\obj/../src/Main.c:60
    PRINT("Start @ChipID=%02X\n", R8_CHIP_ID);
    1240:	04144583          	lbu	a1,65(s0)
    1244:	00002517          	auipc	a0,0x2
    1248:	58c50513          	addi	a0,a0,1420 # 37d0 <ENABLE_LASER+0xc>
d:\CH573FEVT\LaserRangeFinder\obj/../src/Main.c:73
    GPIOA_ModeCfg(TFT_RES_Pin, GPIO_ModeOut_PP_5mA);
    124c:	6485                	lui	s1,0x1
d:\CH573FEVT\LaserRangeFinder\obj/../src/Main.c:60
    PRINT("Start @ChipID=%02X\n", R8_CHIP_ID);
    124e:	766000ef          	jal	ra,19b4 <iprintf>
d:\CH573FEVT\LaserRangeFinder\obj/../src/Main.c:65
    GPIOB_SetBits(GPIO_Pin_7);
    1252:	0c842783          	lw	a5,200(s0)
d:\CH573FEVT\LaserRangeFinder\obj/../src/Main.c:66
    GPIOB_ModeCfg(GPIO_Pin_4, GPIO_ModeIN_PU);
    1256:	4585                	li	a1,1
    1258:	4541                	li	a0,16
d:\CH573FEVT\LaserRangeFinder\obj/../src/Main.c:65
    GPIOB_SetBits(GPIO_Pin_7);
    125a:	0807e793          	ori	a5,a5,128
    125e:	0cf42423          	sw	a5,200(s0)
d:\CH573FEVT\LaserRangeFinder\obj/../src/Main.c:66
    GPIOB_ModeCfg(GPIO_Pin_4, GPIO_ModeIN_PU);
    1262:	249d                	jal	14c8 <GPIOB_ModeCfg>
d:\CH573FEVT\LaserRangeFinder\obj/../src/Main.c:67
    GPIOB_ModeCfg(GPIO_Pin_7, GPIO_ModeOut_PP_5mA);
    1264:	458d                	li	a1,3
    1266:	08000513          	li	a0,128
    126a:	2cb9                	jal	14c8 <GPIOB_ModeCfg>
d:\CH573FEVT\LaserRangeFinder\obj/../src/Main.c:68
    UART0_DefInit();
    126c:	29e1                	jal	1744 <UART0_DefInit>
d:\CH573FEVT\LaserRangeFinder\obj/../src/Main.c:69
    UART0_BaudRateCfg(9600);
    126e:	6509                	lui	a0,0x2
    1270:	58050513          	addi	a0,a0,1408 # 2580 <_printf_common+0x9e>
    1274:	2145                	jal	1714 <UART0_BaudRateCfg>
d:\CH573FEVT\LaserRangeFinder\obj/../src/Main.c:72
    GPIOA_ModeCfg(TFT_CS_Pin, GPIO_ModeOut_PP_5mA);
    1276:	458d                	li	a1,3
    1278:	6505                	lui	a0,0x1
    127a:	2265                	jal	1422 <GPIOA_ModeCfg>
d:\CH573FEVT\LaserRangeFinder\obj/../src/Main.c:73
    GPIOA_ModeCfg(TFT_RES_Pin, GPIO_ModeOut_PP_5mA);
    127c:	458d                	li	a1,3
    127e:	80048513          	addi	a0,s1,-2048 # 800 <memset+0x1a>
    1282:	2245                	jal	1422 <GPIOA_ModeCfg>
d:\CH573FEVT\LaserRangeFinder\obj/../src/Main.c:74
    GPIOA_ModeCfg(TFT_DC_Pin, GPIO_ModeOut_PP_5mA);
    1284:	458d                	li	a1,3
    1286:	40000513          	li	a0,1024
    128a:	2a61                	jal	1422 <GPIOA_ModeCfg>
d:\CH573FEVT\LaserRangeFinder\obj/../src/Main.c:75
    GPIOB_ModeCfg(TFT_BLK_Pin, GPIO_ModeOut_PP_5mA);
    128c:	458d                	li	a1,3
    128e:	00400537          	lui	a0,0x400
    1292:	2c1d                	jal	14c8 <GPIOB_ModeCfg>
d:\CH573FEVT\LaserRangeFinder\obj/../src/Main.c:77
    TFT_Init_Instance(&htft1, &SPI0, TFT_CS_GPIO_Port, TFT_CS_Pin);
    1294:	6685                	lui	a3,0x1
    1296:	4601                	li	a2,0
    1298:	80c18593          	addi	a1,gp,-2036 # 2000406c <SPI0>
    129c:	81818513          	addi	a0,gp,-2024 # 20004078 <htft1>
    12a0:	8d9ff0ef          	jal	ra,b78 <TFT_Init_Instance>
d:\CH573FEVT\LaserRangeFinder\obj/../src/Main.c:78
    TFT_Config_Pins(&htft1, TFT_DC_GPIO_Port, TFT_DC_Pin, TFT_RES_GPIO_Port, TFT_RES_Pin, TFT_BLK_GPIO_Port, TFT_BLK_Pin); // ÂøÖÈ°ªÊâãÂä®ËÆæÁΩÆÂºïËÑö
    12a4:	00400837          	lui	a6,0x400
    12a8:	4785                	li	a5,1
    12aa:	80048713          	addi	a4,s1,-2048
    12ae:	4681                	li	a3,0
    12b0:	40000613          	li	a2,1024
    12b4:	4581                	li	a1,0
    12b6:	81818513          	addi	a0,gp,-2024 # 20004078 <htft1>
    12ba:	8e3ff0ef          	jal	ra,b9c <TFT_Config_Pins>
d:\CH573FEVT\LaserRangeFinder\obj/../src/Main.c:79
    TFT_Config_Display(&htft1, 0, 0, 0);                                                                                   // ËÆæÁΩÆÊñπÂêë„ÄÅX/YÂÅèÁßª
    12be:	4681                	li	a3,0
    12c0:	4601                	li	a2,0
    12c2:	4581                	li	a1,0
    12c4:	81818513          	addi	a0,gp,-2024 # 20004078 <htft1>
    12c8:	8ebff0ef          	jal	ra,bb2 <TFT_Config_Display>
d:\CH573FEVT\LaserRangeFinder\obj/../src/Main.c:80
    TFT_Init_ST7789v3(&htft1);                                                                                             // ST7789v3Â±èÂπïÂàùÂßãÂåñ,Âè≥ÈîÆËøõÂÖ•tft_init.cÊü•ÁúãÊõ¥Â§öÂ±èÂπïÁöÑÂàùÂßãÂåñÂáΩÊï∞
    12cc:	81818513          	addi	a0,gp,-2024 # 20004078 <htft1>
    12d0:	e6aff0ef          	jal	ra,93a <TFT_Init_ST7789v3>
d:\CH573FEVT\LaserRangeFinder\obj/../src/Main.c:81
    TFT_Show_String(&htft1, 20, 20, "now ST7789v3", WHITE, BLACK, 16, 0);
    12d4:	6441                	lui	s0,0x10
    12d6:	fff40713          	addi	a4,s0,-1 # ffff <_data_lma+0xc69f>
    12da:	4881                	li	a7,0
    12dc:	4841                	li	a6,16
    12de:	4781                	li	a5,0
    12e0:	00002697          	auipc	a3,0x2
    12e4:	50468693          	addi	a3,a3,1284 # 37e4 <ENABLE_LASER+0x20>
    12e8:	4651                	li	a2,20
    12ea:	45d1                	li	a1,20
    12ec:	81818513          	addi	a0,gp,-2024 # 20004078 <htft1>
    12f0:	33f9                	jal	10be <TFT_Show_String>
d:\CH573FEVT\LaserRangeFinder\obj/../src/Main.c:90
    GPIOB_ModeCfg(KEY1_PIN, GPIO_ModeIN_PU);         // ÊåâÈîÆ1‰∏äÊãâËæìÂÖ•
    12f2:	4585                	li	a1,1
    12f4:	40000513          	li	a0,1024
    12f8:	2ac1                	jal	14c8 <GPIOB_ModeCfg>
d:\CH573FEVT\LaserRangeFinder\obj/../src/Main.c:91
    GPIOB_ITModeCfg(KEY1_PIN, GPIO_ITMode_FallEdge); // ÊåâÈîÆ1‰∏ãÈôçÊ≤øËß¶Âèë
    12fa:	4589                	li	a1,2
    12fc:	40000513          	li	a0,1024
    1300:	24bd                	jal	156e <GPIOB_ITModeCfg>
d:\CH573FEVT\LaserRangeFinder\obj/../src/Main.c:92
    GPIOB_ModeCfg(KEY2_PIN, GPIO_ModeIN_PU);         // ÊåâÈîÆ2‰∏äÊãâËæìÂÖ•
    1302:	4585                	li	a1,1
    1304:	80048513          	addi	a0,s1,-2048
    1308:	22c1                	jal	14c8 <GPIOB_ModeCfg>
d:\CH573FEVT\LaserRangeFinder\obj/../src/Main.c:93
    GPIOB_ITModeCfg(KEY2_PIN, GPIO_ITMode_FallEdge); // ÊåâÈîÆ2‰∏ãÈôçÊ≤øËß¶Âèë
    130a:	4589                	li	a1,2
    130c:	80048513          	addi	a0,s1,-2048
    1310:	2cb9                	jal	156e <GPIOB_ITModeCfg>
d:\CH573FEVT\LaserRangeFinder\obj/../src/Main.c:94
    GPIOB_ModeCfg(KEY3_PIN, GPIO_ModeIN_PU);         // ÊåâÈîÆ3‰∏äÊãâËæìÂÖ•
    1312:	4585                	li	a1,1
    1314:	6505                	lui	a0,0x1
    1316:	2a4d                	jal	14c8 <GPIOB_ModeCfg>
d:\CH573FEVT\LaserRangeFinder\obj/../src/Main.c:95
    GPIOB_ITModeCfg(KEY3_PIN, GPIO_ITMode_FallEdge); // ÊåâÈîÆ3‰∏ãÈôçÊ≤øËß¶Âèë
    1318:	4589                	li	a1,2
    131a:	6505                	lui	a0,0x1
    131c:	2c89                	jal	156e <GPIOB_ITModeCfg>
d:\CH573FEVT\LaserRangeFinder\obj/../src/Main.c:96
    GPIOB_ModeCfg(KEY4_PIN, GPIO_ModeIN_PU);         // ÊåâÈîÆ4‰∏äÊãâËæìÂÖ•
    131e:	4585                	li	a1,1
    1320:	6509                	lui	a0,0x2
    1322:	225d                	jal	14c8 <GPIOB_ModeCfg>
d:\CH573FEVT\LaserRangeFinder\obj/../src/Main.c:97
    GPIOB_ITModeCfg(KEY4_PIN, GPIO_ITMode_FallEdge); // ÊåâÈîÆ4‰∏ãÈôçÊ≤øËß¶Âèë
    1324:	4589                	li	a1,2
    1326:	6509                	lui	a0,0x2
    1328:	2499                	jal	156e <GPIOB_ITModeCfg>
PFIC_EnableIRQ():
d:/CH573FEVT/LaserRangeFinder/RVMSIS/core_riscv.h:99
 *
 * @param   IRQn    - Interrupt Numbers
 */
RV_STATIC_INLINE void PFIC_EnableIRQ(IRQn_Type IRQn)
{
    PFIC->IENR[((uint32_t)(IRQn) >> 5)] = (1 << ((uint32_t)(IRQn)&0x1F));
    132a:	e000e7b7          	lui	a5,0xe000e
    132e:	00040737          	lui	a4,0x40
    1332:	10e7a023          	sw	a4,256(a5) # e000e100 <_eusrstack+0xc0006100>
main():
d:\CH573FEVT\LaserRangeFinder\obj/../src/Main.c:100
    PRINT("ÂèØ‰ª•Êåâ‰∏ãÊåâÈîÆ‰∫Ü\n");
    1336:	00002517          	auipc	a0,0x2
    133a:	4be50513          	addi	a0,a0,1214 # 37f4 <ENABLE_LASER+0x30>
    133e:	7c2000ef          	jal	ra,1b00 <puts>
d:\CH573FEVT\LaserRangeFinder\obj/../src/Main.c:105
        TFT_Fill_Area(&htft1, 0, 40, WIDTH, HEIGHT, RED);
    1342:	80040413          	addi	s0,s0,-2048
    1346:	81818913          	addi	s2,gp,-2024 # 20004078 <htft1>
d:\CH573FEVT\LaserRangeFinder\obj/../src/Main.c:128
            PRINT("Status frame timeout\n");
    134a:	00002a17          	auipc	s4,0x2
    134e:	4e6a0a13          	addi	s4,s4,1254 # 3830 <ENABLE_LASER+0x6c>
d:\CH573FEVT\LaserRangeFinder\obj/../src/Main.c:119
            PRINT("Status frame (%u bytes): ", status_len);
    1352:	00002a97          	auipc	s5,0x2
    1356:	4baa8a93          	addi	s5,s5,1210 # 380c <ENABLE_LASER+0x48>
d:\CH573FEVT\LaserRangeFinder\obj/../src/Main.c:122
                PRINT("%02X ", status_frame[i]);
    135a:	00002b17          	auipc	s6,0x2
    135e:	4ceb0b13          	addi	s6,s6,1230 # 3828 <ENABLE_LASER+0x64>
d:\CH573FEVT\LaserRangeFinder\obj/../src/Main.c:105
        TFT_Fill_Area(&htft1, 0, 40, WIDTH, HEIGHT, RED);
    1362:	87a2                	mv	a5,s0
    1364:	14000713          	li	a4,320
    1368:	0f000693          	li	a3,240
    136c:	02800613          	li	a2,40
    1370:	4581                	li	a1,0
    1372:	854a                	mv	a0,s2
    1374:	d1aff0ef          	jal	ra,88e <TFT_Fill_Area>
d:\CH573FEVT\LaserRangeFinder\obj/../src/Main.c:106
        TFT_Fill_Area(&htft1, 0, 40, WIDTH, HEIGHT, GREEN);
    1378:	7e000793          	li	a5,2016
    137c:	14000713          	li	a4,320
    1380:	0f000693          	li	a3,240
    1384:	02800613          	li	a2,40
    1388:	4581                	li	a1,0
    138a:	854a                	mv	a0,s2
    138c:	d02ff0ef          	jal	ra,88e <TFT_Fill_Area>
d:\CH573FEVT\LaserRangeFinder\obj/../src/Main.c:107
        TFT_Fill_Area(&htft1, 0, 40, WIDTH, HEIGHT, BLUE);
    1390:	47fd                	li	a5,31
    1392:	14000713          	li	a4,320
    1396:	0f000693          	li	a3,240
    139a:	02800613          	li	a2,40
    139e:	4581                	li	a1,0
    13a0:	854a                	mv	a0,s2
    13a2:	cecff0ef          	jal	ra,88e <TFT_Fill_Area>
d:\CH573FEVT\LaserRangeFinder\obj/../src/Main.c:108
        DelayMs(500);
    13a6:	1f400513          	li	a0,500
    13aa:	20002097          	auipc	ra,0x20002
    13ae:	74a080e7          	jalr	1866(ra) # 20003af4 <mDelaymS>
d:\CH573FEVT\LaserRangeFinder\obj/../src/Main.c:109
        M01LRF_SendEnableCommand();
    13b2:	3d1d                	jal	11e8 <M01LRF_SendEnableCommand>
d:\CH573FEVT\LaserRangeFinder\obj/../src/Main.c:110
        DelayMs(2000);
    13b4:	7d000513          	li	a0,2000
    13b8:	20002097          	auipc	ra,0x20002
    13bc:	73c080e7          	jalr	1852(ra) # 20003af4 <mDelaymS>
d:\CH573FEVT\LaserRangeFinder\obj/../src/Main.c:111
        M01LRF_SendDisableCommand();
    13c0:	3d15                	jal	11f4 <M01LRF_SendDisableCommand>
d:\CH573FEVT\LaserRangeFinder\obj/../src/Main.c:112
        DelayMs(2000);
    13c2:	7d000513          	li	a0,2000
    13c6:	20002097          	auipc	ra,0x20002
    13ca:	72e080e7          	jalr	1838(ra) # 20003af4 <mDelaymS>
d:\CH573FEVT\LaserRangeFinder\obj/../src/Main.c:114
        uint8_t status_frame[32] = {0};
    13ce:	02000613          	li	a2,32
    13d2:	4581                	li	a1,0
    13d4:	850a                	mv	a0,sp
    13d6:	c10ff0ef          	jal	ra,7e6 <memset>
d:\CH573FEVT\LaserRangeFinder\obj/../src/Main.c:115
        uint16_t status_len = M01LRF_ReadModuleStatus(status_frame, sizeof(status_frame));
    13da:	02000593          	li	a1,32
    13de:	850a                	mv	a0,sp
    13e0:	3bc1                	jal	11b0 <M01LRF_ReadModuleStatus>
    13e2:	89aa                	mv	s3,a0
d:\CH573FEVT\LaserRangeFinder\obj/../src/Main.c:117
        if (status_len > 0U)
    13e4:	c91d                	beqz	a0,141a <main+0x21a>
d:\CH573FEVT\LaserRangeFinder\obj/../src/Main.c:119
            PRINT("Status frame (%u bytes): ", status_len);
    13e6:	85aa                	mv	a1,a0
    13e8:	8556                	mv	a0,s5
    13ea:	23e9                	jal	19b4 <iprintf>
d:\CH573FEVT\LaserRangeFinder\obj/../src/Main.c:120
            for (uint16_t i = 0; i < status_len; ++i)
    13ec:	4481                	li	s1,0
d:\CH573FEVT\LaserRangeFinder\obj/../src/Main.c:120 (discriminator 1)
    13ee:	01049793          	slli	a5,s1,0x10
    13f2:	83c1                	srli	a5,a5,0x10
    13f4:	0137eb63          	bltu	a5,s3,140a <main+0x20a>
d:\CH573FEVT\LaserRangeFinder\obj/../src/Main.c:124
            PRINT("\n");
    13f8:	4529                	li	a0,10
    13fa:	2bfd                	jal	19f8 <putchar>
d:\CH573FEVT\LaserRangeFinder\obj/../src/Main.c:131
        DelayMs(2000);
    13fc:	7d000513          	li	a0,2000
    1400:	20002097          	auipc	ra,0x20002
    1404:	6f4080e7          	jalr	1780(ra) # 20003af4 <mDelaymS>
d:\CH573FEVT\LaserRangeFinder\obj/../src/Main.c:103
    {
    1408:	bfa9                	j	1362 <main+0x162>
d:\CH573FEVT\LaserRangeFinder\obj/../src/Main.c:122 (discriminator 3)
                PRINT("%02X ", status_frame[i]);
    140a:	009107b3          	add	a5,sp,s1
    140e:	0007c583          	lbu	a1,0(a5)
    1412:	855a                	mv	a0,s6
    1414:	0485                	addi	s1,s1,1
    1416:	2b79                	jal	19b4 <iprintf>
    1418:	bfd9                	j	13ee <main+0x1ee>
d:\CH573FEVT\LaserRangeFinder\obj/../src/Main.c:128
            PRINT("Status frame timeout\n");
    141a:	8552                	mv	a0,s4
    141c:	6e4000ef          	jal	ra,1b00 <puts>
    1420:	bff1                	j	13fc <main+0x1fc>

00001422 <GPIOA_ModeCfg>:
GPIOA_ModeCfg():
d:\CH573FEVT\LaserRangeFinder\obj/../StdPeriphDriver/CH57x_gpio.c:27
 *
 * @return  none
 */
void GPIOA_ModeCfg(uint32_t pin, GPIOModeTypeDef mode)
{
    switch(mode)
    1422:	4791                	li	a5,4
    1424:	02b7ee63          	bltu	a5,a1,1460 <GPIOA_ModeCfg+0x3e>
    1428:	00002717          	auipc	a4,0x2
    142c:	45070713          	addi	a4,a4,1104 # 3878 <ENABLE_LASER+0xb4>
    1430:	058a                	slli	a1,a1,0x2
    1432:	95ba                	add	a1,a1,a4
    1434:	419c                	lw	a5,0(a1)
    1436:	97ba                	add	a5,a5,a4
    1438:	8782                	jr	a5
d:\CH573FEVT\LaserRangeFinder\obj/../StdPeriphDriver/CH57x_gpio.c:30
    {
        case GPIO_ModeIN_Floating:
            R32_PA_PD_DRV &= ~pin;
    143a:	400017b7          	lui	a5,0x40001
    143e:	0b47a703          	lw	a4,180(a5) # 400010b4 <_eusrstack+0x1fff90b4>
    1442:	fff54513          	not	a0,a0
    1446:	8f69                	and	a4,a4,a0
    1448:	0ae7aa23          	sw	a4,180(a5)
d:\CH573FEVT\LaserRangeFinder\obj/../StdPeriphDriver/CH57x_gpio.c:31
            R32_PA_PU &= ~pin;
    144c:	0b07a703          	lw	a4,176(a5)
d:\CH573FEVT\LaserRangeFinder\obj/../StdPeriphDriver/CH57x_gpio.c:43
            R32_PA_DIR &= ~pin;
            break;

        case GPIO_ModeIN_PD:
            R32_PA_PD_DRV |= pin;
            R32_PA_PU &= ~pin;
    1450:	8f69                	and	a4,a4,a0
    1452:	0ae7a823          	sw	a4,176(a5)
d:\CH573FEVT\LaserRangeFinder\obj/../StdPeriphDriver/CH57x_gpio.c:44
            R32_PA_DIR &= ~pin;
    1456:	0a07a703          	lw	a4,160(a5)
    145a:	8d79                	and	a0,a0,a4
d:\CH573FEVT\LaserRangeFinder\obj/../StdPeriphDriver/CH57x_gpio.c:54
            R32_PA_DIR |= pin;
            break;

        case GPIO_ModeOut_PP_20mA:
            R32_PA_PD_DRV |= pin;
            R32_PA_DIR |= pin;
    145c:	0aa7a023          	sw	a0,160(a5)
d:\CH573FEVT\LaserRangeFinder\obj/../StdPeriphDriver/CH57x_gpio.c:60
            break;

        default:
            break;
    }
}
    1460:	8082                	ret
d:\CH573FEVT\LaserRangeFinder\obj/../StdPeriphDriver/CH57x_gpio.c:36
            R32_PA_PD_DRV &= ~pin;
    1462:	400017b7          	lui	a5,0x40001
    1466:	0b47a683          	lw	a3,180(a5) # 400010b4 <_eusrstack+0x1fff90b4>
    146a:	fff54713          	not	a4,a0
    146e:	8ef9                	and	a3,a3,a4
    1470:	0ad7aa23          	sw	a3,180(a5)
d:\CH573FEVT\LaserRangeFinder\obj/../StdPeriphDriver/CH57x_gpio.c:37
            R32_PA_PU |= pin;
    1474:	0b07a683          	lw	a3,176(a5)
    1478:	8d55                	or	a0,a0,a3
    147a:	0aa7a823          	sw	a0,176(a5)
d:\CH573FEVT\LaserRangeFinder\obj/../StdPeriphDriver/CH57x_gpio.c:38
            R32_PA_DIR &= ~pin;
    147e:	0a07a683          	lw	a3,160(a5)
    1482:	8f75                	and	a4,a4,a3
    1484:	0ae7a023          	sw	a4,160(a5)
d:\CH573FEVT\LaserRangeFinder\obj/../StdPeriphDriver/CH57x_gpio.c:39
            break;
    1488:	8082                	ret
d:\CH573FEVT\LaserRangeFinder\obj/../StdPeriphDriver/CH57x_gpio.c:42
            R32_PA_PD_DRV |= pin;
    148a:	400017b7          	lui	a5,0x40001
    148e:	0b47a703          	lw	a4,180(a5) # 400010b4 <_eusrstack+0x1fff90b4>
    1492:	8f49                	or	a4,a4,a0
    1494:	0ae7aa23          	sw	a4,180(a5)
d:\CH573FEVT\LaserRangeFinder\obj/../StdPeriphDriver/CH57x_gpio.c:43
            R32_PA_PU &= ~pin;
    1498:	0b07a703          	lw	a4,176(a5)
    149c:	fff54513          	not	a0,a0
    14a0:	bf45                	j	1450 <GPIOA_ModeCfg+0x2e>
d:\CH573FEVT\LaserRangeFinder\obj/../StdPeriphDriver/CH57x_gpio.c:48
            R32_PA_PD_DRV &= ~pin;
    14a2:	400017b7          	lui	a5,0x40001
    14a6:	0b47a683          	lw	a3,180(a5) # 400010b4 <_eusrstack+0x1fff90b4>
    14aa:	fff54713          	not	a4,a0
    14ae:	8f75                	and	a4,a4,a3
d:\CH573FEVT\LaserRangeFinder\obj/../StdPeriphDriver/CH57x_gpio.c:53
            R32_PA_PD_DRV |= pin;
    14b0:	0ae7aa23          	sw	a4,180(a5)
d:\CH573FEVT\LaserRangeFinder\obj/../StdPeriphDriver/CH57x_gpio.c:54
            R32_PA_DIR |= pin;
    14b4:	0a07a703          	lw	a4,160(a5)
    14b8:	8d59                	or	a0,a0,a4
    14ba:	b74d                	j	145c <GPIOA_ModeCfg+0x3a>
d:\CH573FEVT\LaserRangeFinder\obj/../StdPeriphDriver/CH57x_gpio.c:53
            R32_PA_PD_DRV |= pin;
    14bc:	400017b7          	lui	a5,0x40001
    14c0:	0b47a703          	lw	a4,180(a5) # 400010b4 <_eusrstack+0x1fff90b4>
    14c4:	8f49                	or	a4,a4,a0
    14c6:	b7ed                	j	14b0 <GPIOA_ModeCfg+0x8e>

000014c8 <GPIOB_ModeCfg>:
GPIOB_ModeCfg():
d:\CH573FEVT\LaserRangeFinder\obj/../StdPeriphDriver/CH57x_gpio.c:74
 *
 * @return  none
 */
void GPIOB_ModeCfg(uint32_t pin, GPIOModeTypeDef mode)
{
    switch(mode)
    14c8:	4791                	li	a5,4
    14ca:	02b7ee63          	bltu	a5,a1,1506 <GPIOB_ModeCfg+0x3e>
    14ce:	00002717          	auipc	a4,0x2
    14d2:	3be70713          	addi	a4,a4,958 # 388c <ENABLE_LASER+0xc8>
    14d6:	058a                	slli	a1,a1,0x2
    14d8:	95ba                	add	a1,a1,a4
    14da:	419c                	lw	a5,0(a1)
    14dc:	97ba                	add	a5,a5,a4
    14de:	8782                	jr	a5
d:\CH573FEVT\LaserRangeFinder\obj/../StdPeriphDriver/CH57x_gpio.c:77
    {
        case GPIO_ModeIN_Floating:
            R32_PB_PD_DRV &= ~pin;
    14e0:	400017b7          	lui	a5,0x40001
    14e4:	0d47a703          	lw	a4,212(a5) # 400010d4 <_eusrstack+0x1fff90d4>
    14e8:	fff54513          	not	a0,a0
    14ec:	8f69                	and	a4,a4,a0
    14ee:	0ce7aa23          	sw	a4,212(a5)
d:\CH573FEVT\LaserRangeFinder\obj/../StdPeriphDriver/CH57x_gpio.c:78
            R32_PB_PU &= ~pin;
    14f2:	0d07a703          	lw	a4,208(a5)
d:\CH573FEVT\LaserRangeFinder\obj/../StdPeriphDriver/CH57x_gpio.c:90
            R32_PB_DIR &= ~pin;
            break;

        case GPIO_ModeIN_PD:
            R32_PB_PD_DRV |= pin;
            R32_PB_PU &= ~pin;
    14f6:	8f69                	and	a4,a4,a0
    14f8:	0ce7a823          	sw	a4,208(a5)
d:\CH573FEVT\LaserRangeFinder\obj/../StdPeriphDriver/CH57x_gpio.c:91
            R32_PB_DIR &= ~pin;
    14fc:	0c07a703          	lw	a4,192(a5)
    1500:	8d79                	and	a0,a0,a4
d:\CH573FEVT\LaserRangeFinder\obj/../StdPeriphDriver/CH57x_gpio.c:101
            R32_PB_DIR |= pin;
            break;

        case GPIO_ModeOut_PP_20mA:
            R32_PB_PD_DRV |= pin;
            R32_PB_DIR |= pin;
    1502:	0ca7a023          	sw	a0,192(a5)
d:\CH573FEVT\LaserRangeFinder\obj/../StdPeriphDriver/CH57x_gpio.c:107
            break;

        default:
            break;
    }
}
    1506:	8082                	ret
d:\CH573FEVT\LaserRangeFinder\obj/../StdPeriphDriver/CH57x_gpio.c:83
            R32_PB_PD_DRV &= ~pin;
    1508:	400017b7          	lui	a5,0x40001
    150c:	0d47a683          	lw	a3,212(a5) # 400010d4 <_eusrstack+0x1fff90d4>
    1510:	fff54713          	not	a4,a0
    1514:	8ef9                	and	a3,a3,a4
    1516:	0cd7aa23          	sw	a3,212(a5)
d:\CH573FEVT\LaserRangeFinder\obj/../StdPeriphDriver/CH57x_gpio.c:84
            R32_PB_PU |= pin;
    151a:	0d07a683          	lw	a3,208(a5)
    151e:	8d55                	or	a0,a0,a3
    1520:	0ca7a823          	sw	a0,208(a5)
d:\CH573FEVT\LaserRangeFinder\obj/../StdPeriphDriver/CH57x_gpio.c:85
            R32_PB_DIR &= ~pin;
    1524:	0c07a683          	lw	a3,192(a5)
    1528:	8f75                	and	a4,a4,a3
    152a:	0ce7a023          	sw	a4,192(a5)
d:\CH573FEVT\LaserRangeFinder\obj/../StdPeriphDriver/CH57x_gpio.c:86
            break;
    152e:	8082                	ret
d:\CH573FEVT\LaserRangeFinder\obj/../StdPeriphDriver/CH57x_gpio.c:89
            R32_PB_PD_DRV |= pin;
    1530:	400017b7          	lui	a5,0x40001
    1534:	0d47a703          	lw	a4,212(a5) # 400010d4 <_eusrstack+0x1fff90d4>
    1538:	8f49                	or	a4,a4,a0
    153a:	0ce7aa23          	sw	a4,212(a5)
d:\CH573FEVT\LaserRangeFinder\obj/../StdPeriphDriver/CH57x_gpio.c:90
            R32_PB_PU &= ~pin;
    153e:	0d07a703          	lw	a4,208(a5)
    1542:	fff54513          	not	a0,a0
    1546:	bf45                	j	14f6 <GPIOB_ModeCfg+0x2e>
d:\CH573FEVT\LaserRangeFinder\obj/../StdPeriphDriver/CH57x_gpio.c:95
            R32_PB_PD_DRV &= ~pin;
    1548:	400017b7          	lui	a5,0x40001
    154c:	0d47a683          	lw	a3,212(a5) # 400010d4 <_eusrstack+0x1fff90d4>
    1550:	fff54713          	not	a4,a0
    1554:	8f75                	and	a4,a4,a3
d:\CH573FEVT\LaserRangeFinder\obj/../StdPeriphDriver/CH57x_gpio.c:100
            R32_PB_PD_DRV |= pin;
    1556:	0ce7aa23          	sw	a4,212(a5)
d:\CH573FEVT\LaserRangeFinder\obj/../StdPeriphDriver/CH57x_gpio.c:101
            R32_PB_DIR |= pin;
    155a:	0c07a703          	lw	a4,192(a5)
    155e:	8d59                	or	a0,a0,a4
    1560:	b74d                	j	1502 <GPIOB_ModeCfg+0x3a>
d:\CH573FEVT\LaserRangeFinder\obj/../StdPeriphDriver/CH57x_gpio.c:100
            R32_PB_PD_DRV |= pin;
    1562:	400017b7          	lui	a5,0x40001
    1566:	0d47a703          	lw	a4,212(a5) # 400010d4 <_eusrstack+0x1fff90d4>
    156a:	8f49                	or	a4,a4,a0
    156c:	b7ed                	j	1556 <GPIOB_ModeCfg+0x8e>

0000156e <GPIOB_ITModeCfg>:
GPIOB_ITModeCfg():
d:\CH573FEVT\LaserRangeFinder\obj/../StdPeriphDriver/CH57x_gpio.c:162
 *
 * @return  none
 */
void GPIOB_ITModeCfg(uint32_t pin, GPIOITModeTpDef mode)
{
    uint32_t Pin = pin | ((pin & (GPIO_Pin_22 | GPIO_Pin_23)) >> 14);
    156e:	00e55793          	srli	a5,a0,0xe
    1572:	3007f793          	andi	a5,a5,768
    1576:	8fc9                	or	a5,a5,a0
    1578:	07c2                	slli	a5,a5,0x10
    157a:	4705                	li	a4,1
    157c:	83c1                	srli	a5,a5,0x10
    157e:	04e58263          	beq	a1,a4,15c2 <GPIOB_ITModeCfg+0x54>
    1582:	c18d                	beqz	a1,15a4 <GPIOB_ITModeCfg+0x36>
    1584:	4709                	li	a4,2
    1586:	04e58d63          	beq	a1,a4,15e0 <GPIOB_ITModeCfg+0x72>
    158a:	470d                	li	a4,3
    158c:	06e58063          	beq	a1,a4,15ec <GPIOB_ITModeCfg+0x7e>
d:\CH573FEVT\LaserRangeFinder\obj/../StdPeriphDriver/CH57x_gpio.c:188
            break;

        default:
            break;
    }
    R16_PB_INT_IF = Pin;
    1590:	40001737          	lui	a4,0x40001
    1594:	08f71f23          	sh	a5,158(a4) # 4000109e <_eusrstack+0x1fff909e>
d:\CH573FEVT\LaserRangeFinder\obj/../StdPeriphDriver/CH57x_gpio.c:189
    R16_PB_INT_EN |= Pin;
    1598:	09275683          	lhu	a3,146(a4)
    159c:	8fd5                	or	a5,a5,a3
    159e:	08f71923          	sh	a5,146(a4)
d:\CH573FEVT\LaserRangeFinder\obj/../StdPeriphDriver/CH57x_gpio.c:190
}
    15a2:	8082                	ret
d:\CH573FEVT\LaserRangeFinder\obj/../StdPeriphDriver/CH57x_gpio.c:166
            R16_PB_INT_MODE &= ~Pin;
    15a4:	40001737          	lui	a4,0x40001
    15a8:	09675603          	lhu	a2,150(a4) # 40001096 <_eusrstack+0x1fff9096>
    15ac:	fff7c693          	not	a3,a5
    15b0:	8ef1                	and	a3,a3,a2
d:\CH573FEVT\LaserRangeFinder\obj/../StdPeriphDriver/CH57x_gpio.c:176
            R16_PB_INT_MODE |= Pin;
    15b2:	08d71b23          	sh	a3,150(a4)
d:\CH573FEVT\LaserRangeFinder\obj/../StdPeriphDriver/CH57x_gpio.c:177
            R32_PB_CLR |= pin;
    15b6:	0cc72683          	lw	a3,204(a4)
    15ba:	8d55                	or	a0,a0,a3
    15bc:	0ca72623          	sw	a0,204(a4)
d:\CH573FEVT\LaserRangeFinder\obj/../StdPeriphDriver/CH57x_gpio.c:178
            break;
    15c0:	bfc1                	j	1590 <GPIOB_ITModeCfg+0x22>
d:\CH573FEVT\LaserRangeFinder\obj/../StdPeriphDriver/CH57x_gpio.c:171
            R16_PB_INT_MODE &= ~Pin;
    15c2:	40001737          	lui	a4,0x40001
    15c6:	09675603          	lhu	a2,150(a4) # 40001096 <_eusrstack+0x1fff9096>
    15ca:	fff7c693          	not	a3,a5
    15ce:	8ef1                	and	a3,a3,a2
d:\CH573FEVT\LaserRangeFinder\obj/../StdPeriphDriver/CH57x_gpio.c:181
            R16_PB_INT_MODE |= Pin;
    15d0:	08d71b23          	sh	a3,150(a4)
d:\CH573FEVT\LaserRangeFinder\obj/../StdPeriphDriver/CH57x_gpio.c:182
            R32_PB_OUT |= pin;
    15d4:	0c872683          	lw	a3,200(a4)
    15d8:	8d55                	or	a0,a0,a3
    15da:	0ca72423          	sw	a0,200(a4)
d:\CH573FEVT\LaserRangeFinder\obj/../StdPeriphDriver/CH57x_gpio.c:183
            break;
    15de:	bf4d                	j	1590 <GPIOB_ITModeCfg+0x22>
d:\CH573FEVT\LaserRangeFinder\obj/../StdPeriphDriver/CH57x_gpio.c:176
            R16_PB_INT_MODE |= Pin;
    15e0:	40001737          	lui	a4,0x40001
    15e4:	09675683          	lhu	a3,150(a4) # 40001096 <_eusrstack+0x1fff9096>
    15e8:	8edd                	or	a3,a3,a5
    15ea:	b7e1                	j	15b2 <GPIOB_ITModeCfg+0x44>
d:\CH573FEVT\LaserRangeFinder\obj/../StdPeriphDriver/CH57x_gpio.c:181
            R16_PB_INT_MODE |= Pin;
    15ec:	40001737          	lui	a4,0x40001
    15f0:	09675683          	lhu	a3,150(a4) # 40001096 <_eusrstack+0x1fff9096>
    15f4:	8edd                	or	a3,a3,a5
    15f6:	bfe9                	j	15d0 <GPIOB_ITModeCfg+0x62>

000015f8 <SPI0_MasterDefInit>:
SPI0_MasterDefInit():
d:\CH573FEVT\LaserRangeFinder\obj/../StdPeriphDriver/CH57x_spi0.c:26
 *
 * @return  none
 */
void SPI0_MasterDefInit(void)
{
    R8_SPI0_CLOCK_DIV = 4; // ÷˜∆µ ±÷”4∑÷∆µ
    15f8:	400047b7          	lui	a5,0x40004
    15fc:	4711                	li	a4,4
    15fe:	00e781a3          	sb	a4,3(a5) # 40004003 <_eusrstack+0x1fffc003>
d:\CH573FEVT\LaserRangeFinder\obj/../StdPeriphDriver/CH57x_spi0.c:27
    R8_SPI0_CTRL_MOD = RB_SPI_ALL_CLEAR;
    1602:	4709                	li	a4,2
    1604:	00e78023          	sb	a4,0(a5)
d:\CH573FEVT\LaserRangeFinder\obj/../StdPeriphDriver/CH57x_spi0.c:28
    R8_SPI0_CTRL_MOD = RB_SPI_MOSI_OE | RB_SPI_SCK_OE;
    1608:	06000713          	li	a4,96
    160c:	00e78023          	sb	a4,0(a5)
d:\CH573FEVT\LaserRangeFinder\obj/../StdPeriphDriver/CH57x_spi0.c:29
    R8_SPI0_CTRL_CFG |= RB_SPI_AUTO_IF;     // ∑√Œ BUFFER/FIFO◊‘∂Ø«Â≥˝IF_BYTE_END±Í÷æ
    1610:	0017c703          	lbu	a4,1(a5)
    1614:	01076713          	ori	a4,a4,16
    1618:	00e780a3          	sb	a4,1(a5)
d:\CH573FEVT\LaserRangeFinder\obj/../StdPeriphDriver/CH57x_spi0.c:30
    R8_SPI0_CTRL_CFG &= ~RB_SPI_DMA_ENABLE; // ≤ª∆Ù∂ØDMA∑Ω Ω
    161c:	0017c703          	lbu	a4,1(a5)
    1620:	0fe77713          	andi	a4,a4,254
    1624:	00e780a3          	sb	a4,1(a5)
d:\CH573FEVT\LaserRangeFinder\obj/../StdPeriphDriver/CH57x_spi0.c:31
}
    1628:	8082                	ret

0000162a <SPI0_MasterDMATrans>:
SPI0_MasterDMATrans():
d:\CH573FEVT\LaserRangeFinder\obj/../StdPeriphDriver/CH57x_spi0.c:193
 *
 * @return  none
 */
void SPI0_MasterDMATrans(uint8_t *pbuf, uint16_t len)
{
    R8_SPI0_CTRL_MOD &= ~RB_SPI_FIFO_DIR;
    162a:	400047b7          	lui	a5,0x40004
    162e:	0007c703          	lbu	a4,0(a5) # 40004000 <_eusrstack+0x1fffc000>
    1632:	0ef77713          	andi	a4,a4,239
    1636:	00e78023          	sb	a4,0(a5)
d:\CH573FEVT\LaserRangeFinder\obj/../StdPeriphDriver/CH57x_spi0.c:194
    R16_SPI0_DMA_BEG = (uint32_t)pbuf;
    163a:	01051713          	slli	a4,a0,0x10
d:\CH573FEVT\LaserRangeFinder\obj/../StdPeriphDriver/CH57x_spi0.c:195
    R16_SPI0_DMA_END = (uint32_t)(pbuf + len);
    163e:	952e                	add	a0,a0,a1
d:\CH573FEVT\LaserRangeFinder\obj/../StdPeriphDriver/CH57x_spi0.c:194
    R16_SPI0_DMA_BEG = (uint32_t)pbuf;
    1640:	8341                	srli	a4,a4,0x10
d:\CH573FEVT\LaserRangeFinder\obj/../StdPeriphDriver/CH57x_spi0.c:195
    R16_SPI0_DMA_END = (uint32_t)(pbuf + len);
    1642:	0542                	slli	a0,a0,0x10
d:\CH573FEVT\LaserRangeFinder\obj/../StdPeriphDriver/CH57x_spi0.c:194
    R16_SPI0_DMA_BEG = (uint32_t)pbuf;
    1644:	00e79c23          	sh	a4,24(a5)
d:\CH573FEVT\LaserRangeFinder\obj/../StdPeriphDriver/CH57x_spi0.c:195
    R16_SPI0_DMA_END = (uint32_t)(pbuf + len);
    1648:	8141                	srli	a0,a0,0x10
    164a:	00a79e23          	sh	a0,28(a5)
d:\CH573FEVT\LaserRangeFinder\obj/../StdPeriphDriver/CH57x_spi0.c:196
    R16_SPI0_TOTAL_CNT = len;
    164e:	00b79623          	sh	a1,12(a5)
d:\CH573FEVT\LaserRangeFinder\obj/../StdPeriphDriver/CH57x_spi0.c:197
    R8_SPI0_INT_FLAG = RB_SPI_IF_CNT_END | RB_SPI_IF_DMA_END;
    1652:	4725                	li	a4,9
    1654:	00e78323          	sb	a4,6(a5)
d:\CH573FEVT\LaserRangeFinder\obj/../StdPeriphDriver/CH57x_spi0.c:198
    R8_SPI0_CTRL_CFG |= RB_SPI_DMA_ENABLE;
    1658:	0017c703          	lbu	a4,1(a5)
    165c:	00176713          	ori	a4,a4,1
    1660:	00e780a3          	sb	a4,1(a5)
d:\CH573FEVT\LaserRangeFinder\obj/../StdPeriphDriver/CH57x_spi0.c:199 (discriminator 1)
    while(!(R8_SPI0_INT_FLAG & RB_SPI_IF_CNT_END));
    1664:	0067c703          	lbu	a4,6(a5)
    1668:	8b05                	andi	a4,a4,1
    166a:	df6d                	beqz	a4,1664 <SPI0_MasterDMATrans+0x3a>
d:\CH573FEVT\LaserRangeFinder\obj/../StdPeriphDriver/CH57x_spi0.c:200
    R8_SPI0_CTRL_CFG &= ~RB_SPI_DMA_ENABLE;
    166c:	0017c703          	lbu	a4,1(a5)
    1670:	0fe77713          	andi	a4,a4,254
    1674:	00e780a3          	sb	a4,1(a5)
d:\CH573FEVT\LaserRangeFinder\obj/../StdPeriphDriver/CH57x_spi0.c:201
}
    1678:	8082                	ret

0000167a <GetSysClock>:
GetSysClock():
d:\CH573FEVT\LaserRangeFinder\obj/../StdPeriphDriver/CH57x_sys.c:94
    rev = R16_CLK_SYS_CFG & 0xff;
    167a:	400017b7          	lui	a5,0x40001
    167e:	0087d503          	lhu	a0,8(a5) # 40001008 <_eusrstack+0x1fff9008>
    1682:	0542                	slli	a0,a0,0x10
    1684:	8141                	srli	a0,a0,0x10
d:\CH573FEVT\LaserRangeFinder\obj/../StdPeriphDriver/CH57x_sys.c:95
    if((rev & 0x40) == (0 << 6))
    1686:	04057793          	andi	a5,a0,64
    168a:	eb91                	bnez	a5,169e <GetSysClock+0x24>
d:\CH573FEVT\LaserRangeFinder\obj/../StdPeriphDriver/CH57x_sys.c:97
        return (32000000 / (rev & 0x1f));
    168c:	01f57793          	andi	a5,a0,31
    1690:	01e85537          	lui	a0,0x1e85
d:\CH573FEVT\LaserRangeFinder\obj/../StdPeriphDriver/CH57x_sys.c:101
        return (480000000 / (rev & 0x1f));
    1694:	80050513          	addi	a0,a0,-2048 # 1e84800 <_data_lma+0x1e80ea0>
    1698:	02f54533          	div	a0,a0,a5
    169c:	8082                	ret
d:\CH573FEVT\LaserRangeFinder\obj/../StdPeriphDriver/CH57x_sys.c:99
    else if((rev & RB_CLK_SYS_MOD) == (1 << 6))
    169e:	0c057793          	andi	a5,a0,192
    16a2:	04000713          	li	a4,64
    16a6:	00e79763          	bne	a5,a4,16b4 <GetSysClock+0x3a>
d:\CH573FEVT\LaserRangeFinder\obj/../StdPeriphDriver/CH57x_sys.c:101
        return (480000000 / (rev & 0x1f));
    16aa:	01f57793          	andi	a5,a0,31
    16ae:	1c9c4537          	lui	a0,0x1c9c4
    16b2:	b7cd                	j	1694 <GetSysClock+0x1a>
d:\CH573FEVT\LaserRangeFinder\obj/../StdPeriphDriver/CH57x_sys.c:105
        return (32000);
    16b4:	6521                	lui	a0,0x8
    16b6:	d0050513          	addi	a0,a0,-768 # 7d00 <_data_lma+0x43a0>
d:\CH573FEVT\LaserRangeFinder\obj/../StdPeriphDriver/CH57x_sys.c:107
}
    16ba:	8082                	ret

000016bc <_write>:
_write():
d:\CH573FEVT\LaserRangeFinder\obj/../StdPeriphDriver/CH57x_sys.c:354

#ifdef DEBUG
int _write(int fd, char *buf, int size)
{
    int i;
    for(i = 0; i < size; i++)
    16bc:	4781                	li	a5,0
d:\CH573FEVT\LaserRangeFinder\obj/../StdPeriphDriver/CH57x_sys.c:360
    {
#if DEBUG == Debug_UART0
        while(R8_UART0_TFC == UART_FIFO_SIZE);                  /* µ»¥˝ ˝æ›∑¢ÀÕ */
        R8_UART0_THR = *buf++; /* ∑¢ÀÕ ˝æ› */
#elif DEBUG == Debug_UART1
        while(R8_UART1_TFC == UART_FIFO_SIZE);                  /* µ»¥˝ ˝æ›∑¢ÀÕ */
    16be:	40003737          	lui	a4,0x40003
    16c2:	46a1                	li	a3,8
d:\CH573FEVT\LaserRangeFinder\obj/../StdPeriphDriver/CH57x_sys.c:354 (discriminator 1)
    for(i = 0; i < size; i++)
    16c4:	00c7c463          	blt	a5,a2,16cc <_write+0x10>
d:\CH573FEVT\LaserRangeFinder\obj/../StdPeriphDriver/CH57x_sys.c:371
        while(R8_UART3_TFC == UART_FIFO_SIZE);                  /* µ»¥˝ ˝æ›∑¢ÀÕ */
        R8_UART3_THR = *buf++; /* ∑¢ÀÕ ˝æ› */
#endif
    }
    return size;
}
    16c8:	8532                	mv	a0,a2
    16ca:	8082                	ret
d:\CH573FEVT\LaserRangeFinder\obj/../StdPeriphDriver/CH57x_sys.c:360 (discriminator 1)
        while(R8_UART1_TFC == UART_FIFO_SIZE);                  /* µ»¥˝ ˝æ›∑¢ÀÕ */
    16cc:	40b74503          	lbu	a0,1035(a4) # 4000340b <_eusrstack+0x1fffb40b>
    16d0:	fea68ee3          	beq	a3,a0,16cc <_write+0x10>
d:\CH573FEVT\LaserRangeFinder\obj/../StdPeriphDriver/CH57x_sys.c:361 (discriminator 2)
        R8_UART1_THR = *buf++; /* ∑¢ÀÕ ˝æ› */
    16d4:	00f58533          	add	a0,a1,a5
    16d8:	00054503          	lbu	a0,0(a0)
d:\CH573FEVT\LaserRangeFinder\obj/../StdPeriphDriver/CH57x_sys.c:354 (discriminator 2)
    for(i = 0; i < size; i++)
    16dc:	0785                	addi	a5,a5,1
d:\CH573FEVT\LaserRangeFinder\obj/../StdPeriphDriver/CH57x_sys.c:361 (discriminator 2)
        R8_UART1_THR = *buf++; /* ∑¢ÀÕ ˝æ› */
    16de:	40a70423          	sb	a0,1032(a4)
    16e2:	b7cd                	j	16c4 <_write+0x8>

000016e4 <_sbrk>:
_sbrk():
d:\CH573FEVT\LaserRangeFinder\obj/../StdPeriphDriver/CH57x_sys.c:389
{
    extern char _end[];
    extern char _heap_end[];
    static char *curbrk = _end;

    if ((curbrk + incr < _end) || (curbrk + incr > _heap_end))
    16e4:	20003797          	auipc	a5,0x20003
    16e8:	97c78793          	addi	a5,a5,-1668 # 20004060 <curbrk.3772>
    16ec:	439c                	lw	a5,0(a5)
    16ee:	85018713          	addi	a4,gp,-1968 # 200040b0 <_ebss>
    16f2:	953e                	add	a0,a0,a5
    16f4:	00e56e63          	bltu	a0,a4,1710 <_sbrk+0x2c>
d:\CH573FEVT\LaserRangeFinder\obj/../StdPeriphDriver/CH57x_sys.c:389 (discriminator 1)
    16f8:	20006717          	auipc	a4,0x20006
    16fc:	70870713          	addi	a4,a4,1800 # 20007e00 <_heap_end>
    1700:	00a76863          	bltu	a4,a0,1710 <_sbrk+0x2c>
d:\CH573FEVT\LaserRangeFinder\obj/../StdPeriphDriver/CH57x_sys.c:392
    return NULL - 1;

    curbrk += incr;
    1704:	20003717          	auipc	a4,0x20003
    1708:	94a72e23          	sw	a0,-1700(a4) # 20004060 <curbrk.3772>
d:\CH573FEVT\LaserRangeFinder\obj/../StdPeriphDriver/CH57x_sys.c:394
    return curbrk - incr;
}
    170c:	853e                	mv	a0,a5
    170e:	8082                	ret
d:\CH573FEVT\LaserRangeFinder\obj/../StdPeriphDriver/CH57x_sys.c:390
    return NULL - 1;
    1710:	57fd                	li	a5,-1
    1712:	bfed                	j	170c <_sbrk+0x28>

00001714 <UART0_BaudRateCfg>:
UART0_BaudRateCfg():
d:\CH573FEVT\LaserRangeFinder\obj/../StdPeriphDriver/CH57x_uart0.c:43
 * @param   baudrate    - ÔøΩÔøΩÔøΩÔøΩÔøΩÔøΩ
 *
 * @return  none
 */
void UART0_BaudRateCfg(uint32_t baudrate)
{
    1714:	1141                	addi	sp,sp,-16
    1716:	c422                	sw	s0,8(sp)
    1718:	c606                	sw	ra,12(sp)
    171a:	842a                	mv	s0,a0
d:\CH573FEVT\LaserRangeFinder\obj/../StdPeriphDriver/CH57x_uart0.c:46
    uint32_t x;

    x = 10 * GetSysClock() / 8 / baudrate;
    171c:	3fb9                	jal	167a <GetSysClock>
    171e:	4729                	li	a4,10
    1720:	02e507b3          	mul	a5,a0,a4
d:\CH573FEVT\LaserRangeFinder\obj/../StdPeriphDriver/CH57x_uart0.c:49
    x = (x + 5) / 10;
    R16_UART0_DL = (uint16_t)x;
}
    1724:	40b2                	lw	ra,12(sp)
d:\CH573FEVT\LaserRangeFinder\obj/../StdPeriphDriver/CH57x_uart0.c:46
    x = 10 * GetSysClock() / 8 / baudrate;
    1726:	838d                	srli	a5,a5,0x3
    1728:	0287d7b3          	divu	a5,a5,s0
d:\CH573FEVT\LaserRangeFinder\obj/../StdPeriphDriver/CH57x_uart0.c:49
}
    172c:	4422                	lw	s0,8(sp)
d:\CH573FEVT\LaserRangeFinder\obj/../StdPeriphDriver/CH57x_uart0.c:47
    x = (x + 5) / 10;
    172e:	0795                	addi	a5,a5,5
    1730:	02e7d7b3          	divu	a5,a5,a4
d:\CH573FEVT\LaserRangeFinder\obj/../StdPeriphDriver/CH57x_uart0.c:48
    R16_UART0_DL = (uint16_t)x;
    1734:	40003737          	lui	a4,0x40003
    1738:	07c2                	slli	a5,a5,0x10
    173a:	83c1                	srli	a5,a5,0x10
    173c:	00f71623          	sh	a5,12(a4) # 4000300c <_eusrstack+0x1fffb00c>
d:\CH573FEVT\LaserRangeFinder\obj/../StdPeriphDriver/CH57x_uart0.c:49
}
    1740:	0141                	addi	sp,sp,16
    1742:	8082                	ret

00001744 <UART0_DefInit>:
UART0_DefInit():
d:\CH573FEVT\LaserRangeFinder\obj/../StdPeriphDriver/CH57x_uart0.c:26
    UART0_BaudRateCfg(115200);
    1744:	6571                	lui	a0,0x1c
d:\CH573FEVT\LaserRangeFinder\obj/../StdPeriphDriver/CH57x_uart0.c:25
{
    1746:	1141                	addi	sp,sp,-16
d:\CH573FEVT\LaserRangeFinder\obj/../StdPeriphDriver/CH57x_uart0.c:26
    UART0_BaudRateCfg(115200);
    1748:	20050513          	addi	a0,a0,512 # 1c200 <_data_lma+0x188a0>
d:\CH573FEVT\LaserRangeFinder\obj/../StdPeriphDriver/CH57x_uart0.c:25
{
    174c:	c606                	sw	ra,12(sp)
d:\CH573FEVT\LaserRangeFinder\obj/../StdPeriphDriver/CH57x_uart0.c:26
    UART0_BaudRateCfg(115200);
    174e:	37d9                	jal	1714 <UART0_BaudRateCfg>
d:\CH573FEVT\LaserRangeFinder\obj/../StdPeriphDriver/CH57x_uart0.c:27
    R8_UART0_FCR = (2 << 6) | RB_FCR_TX_FIFO_CLR | RB_FCR_RX_FIFO_CLR | RB_FCR_FIFO_EN; // FIFOÔøΩÚø™£ÔøΩÔøΩÔøΩÔøΩÔøΩÔøΩÔøΩ4ÔøΩ÷ΩÔøΩ
    1750:	400037b7          	lui	a5,0x40003
    1754:	f8700713          	li	a4,-121
    1758:	00e78123          	sb	a4,2(a5) # 40003002 <_eusrstack+0x1fffb002>
d:\CH573FEVT\LaserRangeFinder\obj/../StdPeriphDriver/CH57x_uart0.c:28
    R8_UART0_LCR = RB_LCR_WORD_SZ;
    175c:	470d                	li	a4,3
    175e:	00e781a3          	sb	a4,3(a5)
d:\CH573FEVT\LaserRangeFinder\obj/../StdPeriphDriver/CH57x_uart0.c:29
    R8_UART0_IER = RB_IER_TXD_EN;
    1762:	04000713          	li	a4,64
    1766:	00e780a3          	sb	a4,1(a5)
d:\CH573FEVT\LaserRangeFinder\obj/../StdPeriphDriver/CH57x_uart0.c:30
    R8_UART0_DIV = 1;
    176a:	4705                	li	a4,1
    176c:	00e78723          	sb	a4,14(a5)
d:\CH573FEVT\LaserRangeFinder\obj/../StdPeriphDriver/CH57x_uart0.c:31
}
    1770:	40b2                	lw	ra,12(sp)
    1772:	0141                	addi	sp,sp,16
    1774:	8082                	ret

00001776 <UART0_SendString>:
UART0_SendString():
d:\CH573FEVT\LaserRangeFinder\obj/../StdPeriphDriver/CH57x_uart0.c:122
{
    uint16_t len = l;

    while(len)
    {
        if(R8_UART0_TFC != UART_FIFO_SIZE)
    1776:	400037b7          	lui	a5,0x40003
    177a:	4721                	li	a4,8
    177c:	400036b7          	lui	a3,0x40003
d:\CH573FEVT\LaserRangeFinder\obj/../StdPeriphDriver/CH57x_uart0.c:120
    while(len)
    1780:	e191                	bnez	a1,1784 <UART0_SendString+0xe>
d:\CH573FEVT\LaserRangeFinder\obj/../StdPeriphDriver/CH57x_uart0.c:128
        {
            R8_UART0_THR = *buf++;
            len--;
        }
    }
}
    1782:	8082                	ret
d:\CH573FEVT\LaserRangeFinder\obj/../StdPeriphDriver/CH57x_uart0.c:122
        if(R8_UART0_TFC != UART_FIFO_SIZE)
    1784:	00b7c603          	lbu	a2,11(a5) # 4000300b <_eusrstack+0x1fffb00b>
    1788:	fec70ce3          	beq	a4,a2,1780 <UART0_SendString+0xa>
d:\CH573FEVT\LaserRangeFinder\obj/../StdPeriphDriver/CH57x_uart0.c:124
            R8_UART0_THR = *buf++;
    178c:	0505                	addi	a0,a0,1
    178e:	fff54603          	lbu	a2,-1(a0)
d:\CH573FEVT\LaserRangeFinder\obj/../StdPeriphDriver/CH57x_uart0.c:125
            len--;
    1792:	15fd                	addi	a1,a1,-1
    1794:	05c2                	slli	a1,a1,0x10
d:\CH573FEVT\LaserRangeFinder\obj/../StdPeriphDriver/CH57x_uart0.c:124
            R8_UART0_THR = *buf++;
    1796:	00c68423          	sb	a2,8(a3) # 40003008 <_eusrstack+0x1fffb008>
d:\CH573FEVT\LaserRangeFinder\obj/../StdPeriphDriver/CH57x_uart0.c:125
            len--;
    179a:	81c1                	srli	a1,a1,0x10
    179c:	b7d5                	j	1780 <UART0_SendString+0xa>

0000179e <UART0_RecvString>:
UART0_RecvString():
d:\CH573FEVT\LaserRangeFinder\obj/../StdPeriphDriver/CH57x_uart0.c:143
 */
uint16_t UART0_RecvString(uint8_t *buf)
{
    uint16_t len = 0;

    while(R8_UART0_RFC)
    179e:	4781                	li	a5,0
    17a0:	400036b7          	lui	a3,0x40003
    17a4:	00a6c703          	lbu	a4,10(a3) # 4000300a <_eusrstack+0x1fffb00a>
    17a8:	01079613          	slli	a2,a5,0x10
    17ac:	8241                	srli	a2,a2,0x10
    17ae:	0ff77713          	andi	a4,a4,255
    17b2:	e319                	bnez	a4,17b8 <UART0_RecvString+0x1a>
d:\CH573FEVT\LaserRangeFinder\obj/../StdPeriphDriver/CH57x_uart0.c:150
        *buf++ = R8_UART0_RBR;
        len++;
    }

    return (len);
}
    17b4:	8532                	mv	a0,a2
    17b6:	8082                	ret
d:\CH573FEVT\LaserRangeFinder\obj/../StdPeriphDriver/CH57x_uart0.c:145
        *buf++ = R8_UART0_RBR;
    17b8:	0086c603          	lbu	a2,8(a3)
    17bc:	00f50733          	add	a4,a0,a5
    17c0:	0785                	addi	a5,a5,1
    17c2:	00c70023          	sb	a2,0(a4)
d:\CH573FEVT\LaserRangeFinder\obj/../StdPeriphDriver/CH57x_uart0.c:146
        len++;
    17c6:	bff9                	j	17a4 <UART0_RecvString+0x6>

000017c8 <UART1_BaudRateCfg>:
UART1_BaudRateCfg():
d:\CH573FEVT\LaserRangeFinder\obj/../StdPeriphDriver/CH57x_uart1.c:43
 * @param   baudrate    - ≤®Ãÿ¬ 
 *
 * @return  none
 */
void UART1_BaudRateCfg(uint32_t baudrate)
{
    17c8:	1141                	addi	sp,sp,-16
    17ca:	c422                	sw	s0,8(sp)
    17cc:	c606                	sw	ra,12(sp)
    17ce:	842a                	mv	s0,a0
d:\CH573FEVT\LaserRangeFinder\obj/../StdPeriphDriver/CH57x_uart1.c:46
    uint32_t x;

    x = 10 * GetSysClock() / 8 / baudrate;
    17d0:	356d                	jal	167a <GetSysClock>
    17d2:	4729                	li	a4,10
    17d4:	02e507b3          	mul	a5,a0,a4
d:\CH573FEVT\LaserRangeFinder\obj/../StdPeriphDriver/CH57x_uart1.c:49
    x = (x + 5) / 10;
    R16_UART1_DL = (uint16_t)x;
}
    17d8:	40b2                	lw	ra,12(sp)
d:\CH573FEVT\LaserRangeFinder\obj/../StdPeriphDriver/CH57x_uart1.c:46
    x = 10 * GetSysClock() / 8 / baudrate;
    17da:	838d                	srli	a5,a5,0x3
    17dc:	0287d7b3          	divu	a5,a5,s0
d:\CH573FEVT\LaserRangeFinder\obj/../StdPeriphDriver/CH57x_uart1.c:49
}
    17e0:	4422                	lw	s0,8(sp)
d:\CH573FEVT\LaserRangeFinder\obj/../StdPeriphDriver/CH57x_uart1.c:47
    x = (x + 5) / 10;
    17e2:	0795                	addi	a5,a5,5
    17e4:	02e7d7b3          	divu	a5,a5,a4
d:\CH573FEVT\LaserRangeFinder\obj/../StdPeriphDriver/CH57x_uart1.c:48
    R16_UART1_DL = (uint16_t)x;
    17e8:	40003737          	lui	a4,0x40003
    17ec:	07c2                	slli	a5,a5,0x10
    17ee:	83c1                	srli	a5,a5,0x10
    17f0:	40f71623          	sh	a5,1036(a4) # 4000340c <_eusrstack+0x1fffb40c>
d:\CH573FEVT\LaserRangeFinder\obj/../StdPeriphDriver/CH57x_uart1.c:49
}
    17f4:	0141                	addi	sp,sp,16
    17f6:	8082                	ret

000017f8 <UART1_DefInit>:
UART1_DefInit():
d:\CH573FEVT\LaserRangeFinder\obj/../StdPeriphDriver/CH57x_uart1.c:26
    UART1_BaudRateCfg(115200);
    17f8:	6571                	lui	a0,0x1c
d:\CH573FEVT\LaserRangeFinder\obj/../StdPeriphDriver/CH57x_uart1.c:25
{
    17fa:	1141                	addi	sp,sp,-16
d:\CH573FEVT\LaserRangeFinder\obj/../StdPeriphDriver/CH57x_uart1.c:26
    UART1_BaudRateCfg(115200);
    17fc:	20050513          	addi	a0,a0,512 # 1c200 <_data_lma+0x188a0>
d:\CH573FEVT\LaserRangeFinder\obj/../StdPeriphDriver/CH57x_uart1.c:25
{
    1800:	c606                	sw	ra,12(sp)
d:\CH573FEVT\LaserRangeFinder\obj/../StdPeriphDriver/CH57x_uart1.c:26
    UART1_BaudRateCfg(115200);
    1802:	37d9                	jal	17c8 <UART1_BaudRateCfg>
d:\CH573FEVT\LaserRangeFinder\obj/../StdPeriphDriver/CH57x_uart1.c:27
    R8_UART1_FCR = (2 << 6) | RB_FCR_TX_FIFO_CLR | RB_FCR_RX_FIFO_CLR | RB_FCR_FIFO_EN; // FIFO¥Úø™£¨¥•∑¢µ„4◊÷Ω⁄
    1804:	400037b7          	lui	a5,0x40003
    1808:	f8700713          	li	a4,-121
    180c:	40e78123          	sb	a4,1026(a5) # 40003402 <_eusrstack+0x1fffb402>
d:\CH573FEVT\LaserRangeFinder\obj/../StdPeriphDriver/CH57x_uart1.c:28
    R8_UART1_LCR = RB_LCR_WORD_SZ;
    1810:	470d                	li	a4,3
    1812:	40e781a3          	sb	a4,1027(a5)
d:\CH573FEVT\LaserRangeFinder\obj/../StdPeriphDriver/CH57x_uart1.c:29
    R8_UART1_IER = RB_IER_TXD_EN;
    1816:	04000713          	li	a4,64
    181a:	40e780a3          	sb	a4,1025(a5)
d:\CH573FEVT\LaserRangeFinder\obj/../StdPeriphDriver/CH57x_uart1.c:30
    R8_UART1_DIV = 1;
    181e:	4705                	li	a4,1
    1820:	40e78723          	sb	a4,1038(a5)
d:\CH573FEVT\LaserRangeFinder\obj/../StdPeriphDriver/CH57x_uart1.c:31
}
    1824:	40b2                	lw	ra,12(sp)
    1826:	0141                	addi	sp,sp,16
    1828:	8082                	ret

0000182a <malloc>:
malloc():
    182a:	20003797          	auipc	a5,0x20003
    182e:	83a78793          	addi	a5,a5,-1990 # 20004064 <_impure_ptr>
    1832:	85aa                	mv	a1,a0
    1834:	4388                	lw	a0,0(a5)
    1836:	a06d                	j	18e0 <_malloc_r>

00001838 <_free_r>:
_free_r():
    1838:	c1dd                	beqz	a1,18de <_free_r+0xa6>
    183a:	ffc5a783          	lw	a5,-4(a1)
    183e:	1141                	addi	sp,sp,-16
    1840:	c422                	sw	s0,8(sp)
    1842:	c606                	sw	ra,12(sp)
    1844:	c226                	sw	s1,4(sp)
    1846:	ffc58413          	addi	s0,a1,-4
    184a:	0007d363          	bgez	a5,1850 <_free_r+0x18>
    184e:	943e                	add	s0,s0,a5
    1850:	84aa                	mv	s1,a0
    1852:	187000ef          	jal	ra,21d8 <__malloc_lock>
    1856:	81018793          	addi	a5,gp,-2032 # 20004070 <__malloc_free_list>
    185a:	439c                	lw	a5,0(a5)
    185c:	ef81                	bnez	a5,1874 <_free_r+0x3c>
    185e:	00042223          	sw	zero,4(s0)
    1862:	8081a823          	sw	s0,-2032(gp) # 20004070 <__malloc_free_list>
    1866:	4422                	lw	s0,8(sp)
    1868:	40b2                	lw	ra,12(sp)
    186a:	8526                	mv	a0,s1
    186c:	4492                	lw	s1,4(sp)
    186e:	0141                	addi	sp,sp,16
    1870:	16b0006f          	j	21da <__malloc_unlock>
    1874:	00f47e63          	bgeu	s0,a5,1890 <_free_r+0x58>
    1878:	4014                	lw	a3,0(s0)
    187a:	00d40733          	add	a4,s0,a3
    187e:	00e79663          	bne	a5,a4,188a <_free_r+0x52>
    1882:	4398                	lw	a4,0(a5)
    1884:	43dc                	lw	a5,4(a5)
    1886:	9736                	add	a4,a4,a3
    1888:	c018                	sw	a4,0(s0)
    188a:	c05c                	sw	a5,4(s0)
    188c:	bfd9                	j	1862 <_free_r+0x2a>
    188e:	87ba                	mv	a5,a4
    1890:	43d8                	lw	a4,4(a5)
    1892:	c319                	beqz	a4,1898 <_free_r+0x60>
    1894:	fee47de3          	bgeu	s0,a4,188e <_free_r+0x56>
    1898:	4394                	lw	a3,0(a5)
    189a:	00d78633          	add	a2,a5,a3
    189e:	00861f63          	bne	a2,s0,18bc <_free_r+0x84>
    18a2:	4010                	lw	a2,0(s0)
    18a4:	96b2                	add	a3,a3,a2
    18a6:	c394                	sw	a3,0(a5)
    18a8:	00d78633          	add	a2,a5,a3
    18ac:	fac71de3          	bne	a4,a2,1866 <_free_r+0x2e>
    18b0:	4310                	lw	a2,0(a4)
    18b2:	4358                	lw	a4,4(a4)
    18b4:	96b2                	add	a3,a3,a2
    18b6:	c394                	sw	a3,0(a5)
    18b8:	c3d8                	sw	a4,4(a5)
    18ba:	b775                	j	1866 <_free_r+0x2e>
    18bc:	00c47563          	bgeu	s0,a2,18c6 <_free_r+0x8e>
    18c0:	47b1                	li	a5,12
    18c2:	c09c                	sw	a5,0(s1)
    18c4:	b74d                	j	1866 <_free_r+0x2e>
    18c6:	4010                	lw	a2,0(s0)
    18c8:	00c406b3          	add	a3,s0,a2
    18cc:	00d71663          	bne	a4,a3,18d8 <_free_r+0xa0>
    18d0:	4314                	lw	a3,0(a4)
    18d2:	4358                	lw	a4,4(a4)
    18d4:	96b2                	add	a3,a3,a2
    18d6:	c014                	sw	a3,0(s0)
    18d8:	c058                	sw	a4,4(s0)
    18da:	c3c0                	sw	s0,4(a5)
    18dc:	b769                	j	1866 <_free_r+0x2e>
    18de:	8082                	ret

000018e0 <_malloc_r>:
_malloc_r():
    18e0:	1101                	addi	sp,sp,-32
    18e2:	ca26                	sw	s1,20(sp)
    18e4:	00358493          	addi	s1,a1,3
    18e8:	98f1                	andi	s1,s1,-4
    18ea:	ce06                	sw	ra,28(sp)
    18ec:	cc22                	sw	s0,24(sp)
    18ee:	c84a                	sw	s2,16(sp)
    18f0:	c64e                	sw	s3,12(sp)
    18f2:	04a1                	addi	s1,s1,8
    18f4:	47b1                	li	a5,12
    18f6:	04f4f363          	bgeu	s1,a5,193c <_malloc_r+0x5c>
    18fa:	44b1                	li	s1,12
    18fc:	04b4e263          	bltu	s1,a1,1940 <_malloc_r+0x60>
    1900:	892a                	mv	s2,a0
    1902:	0d7000ef          	jal	ra,21d8 <__malloc_lock>
    1906:	81018793          	addi	a5,gp,-2032 # 20004070 <__malloc_free_list>
    190a:	4398                	lw	a4,0(a5)
    190c:	843a                	mv	s0,a4
    190e:	e039                	bnez	s0,1954 <_malloc_r+0x74>
    1910:	81418793          	addi	a5,gp,-2028 # 20004074 <__malloc_sbrk_start>
    1914:	439c                	lw	a5,0(a5)
    1916:	e791                	bnez	a5,1922 <_malloc_r+0x42>
    1918:	4581                	li	a1,0
    191a:	854a                	mv	a0,s2
    191c:	2acd                	jal	1b0e <_sbrk_r>
    191e:	80a1aa23          	sw	a0,-2028(gp) # 20004074 <__malloc_sbrk_start>
    1922:	85a6                	mv	a1,s1
    1924:	854a                	mv	a0,s2
    1926:	22e5                	jal	1b0e <_sbrk_r>
    1928:	59fd                	li	s3,-1
    192a:	07351963          	bne	a0,s3,199c <_malloc_r+0xbc>
    192e:	47b1                	li	a5,12
    1930:	00f92023          	sw	a5,0(s2)
    1934:	854a                	mv	a0,s2
    1936:	0a5000ef          	jal	ra,21da <__malloc_unlock>
    193a:	a029                	j	1944 <_malloc_r+0x64>
    193c:	fc04d0e3          	bgez	s1,18fc <_malloc_r+0x1c>
    1940:	47b1                	li	a5,12
    1942:	c11c                	sw	a5,0(a0)
    1944:	4501                	li	a0,0
    1946:	40f2                	lw	ra,28(sp)
    1948:	4462                	lw	s0,24(sp)
    194a:	44d2                	lw	s1,20(sp)
    194c:	4942                	lw	s2,16(sp)
    194e:	49b2                	lw	s3,12(sp)
    1950:	6105                	addi	sp,sp,32
    1952:	8082                	ret
    1954:	401c                	lw	a5,0(s0)
    1956:	8f85                	sub	a5,a5,s1
    1958:	0207cf63          	bltz	a5,1996 <_malloc_r+0xb6>
    195c:	46ad                	li	a3,11
    195e:	00f6f663          	bgeu	a3,a5,196a <_malloc_r+0x8a>
    1962:	c01c                	sw	a5,0(s0)
    1964:	943e                	add	s0,s0,a5
    1966:	c004                	sw	s1,0(s0)
    1968:	a031                	j	1974 <_malloc_r+0x94>
    196a:	405c                	lw	a5,4(s0)
    196c:	02871363          	bne	a4,s0,1992 <_malloc_r+0xb2>
    1970:	80f1a823          	sw	a5,-2032(gp) # 20004070 <__malloc_free_list>
    1974:	854a                	mv	a0,s2
    1976:	065000ef          	jal	ra,21da <__malloc_unlock>
    197a:	00b40513          	addi	a0,s0,11
    197e:	00440793          	addi	a5,s0,4
    1982:	9961                	andi	a0,a0,-8
    1984:	40f50733          	sub	a4,a0,a5
    1988:	df5d                	beqz	a4,1946 <_malloc_r+0x66>
    198a:	943a                	add	s0,s0,a4
    198c:	8f89                	sub	a5,a5,a0
    198e:	c01c                	sw	a5,0(s0)
    1990:	bf5d                	j	1946 <_malloc_r+0x66>
    1992:	c35c                	sw	a5,4(a4)
    1994:	b7c5                	j	1974 <_malloc_r+0x94>
    1996:	8722                	mv	a4,s0
    1998:	4040                	lw	s0,4(s0)
    199a:	bf95                	j	190e <_malloc_r+0x2e>
    199c:	00350413          	addi	s0,a0,3
    19a0:	9871                	andi	s0,s0,-4
    19a2:	fc8502e3          	beq	a0,s0,1966 <_malloc_r+0x86>
    19a6:	40a405b3          	sub	a1,s0,a0
    19aa:	854a                	mv	a0,s2
    19ac:	228d                	jal	1b0e <_sbrk_r>
    19ae:	fb351ce3          	bne	a0,s3,1966 <_malloc_r+0x86>
    19b2:	bfb5                	j	192e <_malloc_r+0x4e>

000019b4 <iprintf>:
printf():
    19b4:	7139                	addi	sp,sp,-64
    19b6:	da3e                	sw	a5,52(sp)
    19b8:	d22e                	sw	a1,36(sp)
    19ba:	d432                	sw	a2,40(sp)
    19bc:	d636                	sw	a3,44(sp)
    19be:	d83a                	sw	a4,48(sp)
    19c0:	dc42                	sw	a6,56(sp)
    19c2:	de46                	sw	a7,60(sp)
    19c4:	20002797          	auipc	a5,0x20002
    19c8:	6a078793          	addi	a5,a5,1696 # 20004064 <_impure_ptr>
    19cc:	cc22                	sw	s0,24(sp)
    19ce:	4380                	lw	s0,0(a5)
    19d0:	ca26                	sw	s1,20(sp)
    19d2:	ce06                	sw	ra,28(sp)
    19d4:	84aa                	mv	s1,a0
    19d6:	c409                	beqz	s0,19e0 <iprintf+0x2c>
    19d8:	4c1c                	lw	a5,24(s0)
    19da:	e399                	bnez	a5,19e0 <iprintf+0x2c>
    19dc:	8522                	mv	a0,s0
    19de:	2369                	jal	1f68 <__sinit>
    19e0:	440c                	lw	a1,8(s0)
    19e2:	1054                	addi	a3,sp,36
    19e4:	8626                	mv	a2,s1
    19e6:	8522                	mv	a0,s0
    19e8:	c636                	sw	a3,12(sp)
    19ea:	05f000ef          	jal	ra,2248 <_vfiprintf_r>
    19ee:	40f2                	lw	ra,28(sp)
    19f0:	4462                	lw	s0,24(sp)
    19f2:	44d2                	lw	s1,20(sp)
    19f4:	6121                	addi	sp,sp,64
    19f6:	8082                	ret

000019f8 <putchar>:
putchar():
    19f8:	1101                	addi	sp,sp,-32
    19fa:	20002797          	auipc	a5,0x20002
    19fe:	66a78793          	addi	a5,a5,1642 # 20004064 <_impure_ptr>
    1a02:	cc22                	sw	s0,24(sp)
    1a04:	4380                	lw	s0,0(a5)
    1a06:	ce06                	sw	ra,28(sp)
    1a08:	85aa                	mv	a1,a0
    1a0a:	c419                	beqz	s0,1a18 <putchar+0x20>
    1a0c:	4c1c                	lw	a5,24(s0)
    1a0e:	e789                	bnez	a5,1a18 <putchar+0x20>
    1a10:	c62a                	sw	a0,12(sp)
    1a12:	8522                	mv	a0,s0
    1a14:	2b91                	jal	1f68 <__sinit>
    1a16:	45b2                	lw	a1,12(sp)
    1a18:	4410                	lw	a2,8(s0)
    1a1a:	8522                	mv	a0,s0
    1a1c:	4462                	lw	s0,24(sp)
    1a1e:	40f2                	lw	ra,28(sp)
    1a20:	6105                	addi	sp,sp,32
    1a22:	6750006f          	j	2896 <_putc_r>

00001a26 <_puts_r>:
_puts_r():
    1a26:	1101                	addi	sp,sp,-32
    1a28:	ca26                	sw	s1,20(sp)
    1a2a:	c84a                	sw	s2,16(sp)
    1a2c:	ce06                	sw	ra,28(sp)
    1a2e:	cc22                	sw	s0,24(sp)
    1a30:	c64e                	sw	s3,12(sp)
    1a32:	c452                	sw	s4,8(sp)
    1a34:	84aa                	mv	s1,a0
    1a36:	892e                	mv	s2,a1
    1a38:	c501                	beqz	a0,1a40 <_puts_r+0x1a>
    1a3a:	4d1c                	lw	a5,24(a0)
    1a3c:	e391                	bnez	a5,1a40 <_puts_r+0x1a>
    1a3e:	232d                	jal	1f68 <__sinit>
    1a40:	4c9c                	lw	a5,24(s1)
    1a42:	4480                	lw	s0,8(s1)
    1a44:	e399                	bnez	a5,1a4a <_puts_r+0x24>
    1a46:	8526                	mv	a0,s1
    1a48:	2305                	jal	1f68 <__sinit>
    1a4a:	00002797          	auipc	a5,0x2
    1a4e:	e7678793          	addi	a5,a5,-394 # 38c0 <__sf_fake_stdin>
    1a52:	02f41c63          	bne	s0,a5,1a8a <_puts_r+0x64>
    1a56:	40c0                	lw	s0,4(s1)
    1a58:	00c45783          	lhu	a5,12(s0)
    1a5c:	8ba1                	andi	a5,a5,8
    1a5e:	c7b1                	beqz	a5,1aaa <_puts_r+0x84>
    1a60:	481c                	lw	a5,16(s0)
    1a62:	c7a1                	beqz	a5,1aaa <_puts_r+0x84>
    1a64:	59fd                	li	s3,-1
    1a66:	4a29                	li	s4,10
    1a68:	441c                	lw	a5,8(s0)
    1a6a:	00094583          	lbu	a1,0(s2)
    1a6e:	17fd                	addi	a5,a5,-1
    1a70:	e9b1                	bnez	a1,1ac4 <_puts_r+0x9e>
    1a72:	c41c                	sw	a5,8(s0)
    1a74:	0607de63          	bgez	a5,1af0 <_puts_r+0xca>
    1a78:	8622                	mv	a2,s0
    1a7a:	45a9                	li	a1,10
    1a7c:	8526                	mv	a0,s1
    1a7e:	286d                	jal	1b38 <__swbuf_r>
    1a80:	57fd                	li	a5,-1
    1a82:	02f50863          	beq	a0,a5,1ab2 <_puts_r+0x8c>
    1a86:	4529                	li	a0,10
    1a88:	a035                	j	1ab4 <_puts_r+0x8e>
    1a8a:	00002797          	auipc	a5,0x2
    1a8e:	e5678793          	addi	a5,a5,-426 # 38e0 <__sf_fake_stdout>
    1a92:	00f41463          	bne	s0,a5,1a9a <_puts_r+0x74>
    1a96:	4480                	lw	s0,8(s1)
    1a98:	b7c1                	j	1a58 <_puts_r+0x32>
    1a9a:	00002797          	auipc	a5,0x2
    1a9e:	e0678793          	addi	a5,a5,-506 # 38a0 <__sf_fake_stderr>
    1aa2:	faf41be3          	bne	s0,a5,1a58 <_puts_r+0x32>
    1aa6:	44c0                	lw	s0,12(s1)
    1aa8:	bf45                	j	1a58 <_puts_r+0x32>
    1aaa:	85a2                	mv	a1,s0
    1aac:	8526                	mv	a0,s1
    1aae:	22a9                	jal	1bf8 <__swsetup_r>
    1ab0:	d955                	beqz	a0,1a64 <_puts_r+0x3e>
    1ab2:	557d                	li	a0,-1
    1ab4:	40f2                	lw	ra,28(sp)
    1ab6:	4462                	lw	s0,24(sp)
    1ab8:	44d2                	lw	s1,20(sp)
    1aba:	4942                	lw	s2,16(sp)
    1abc:	49b2                	lw	s3,12(sp)
    1abe:	4a22                	lw	s4,8(sp)
    1ac0:	6105                	addi	sp,sp,32
    1ac2:	8082                	ret
    1ac4:	c41c                	sw	a5,8(s0)
    1ac6:	0905                	addi	s2,s2,1
    1ac8:	0007d763          	bgez	a5,1ad6 <_puts_r+0xb0>
    1acc:	4c18                	lw	a4,24(s0)
    1ace:	00e7cb63          	blt	a5,a4,1ae4 <_puts_r+0xbe>
    1ad2:	01458963          	beq	a1,s4,1ae4 <_puts_r+0xbe>
    1ad6:	401c                	lw	a5,0(s0)
    1ad8:	00178713          	addi	a4,a5,1
    1adc:	c018                	sw	a4,0(s0)
    1ade:	00b78023          	sb	a1,0(a5)
    1ae2:	b759                	j	1a68 <_puts_r+0x42>
    1ae4:	8622                	mv	a2,s0
    1ae6:	8526                	mv	a0,s1
    1ae8:	2881                	jal	1b38 <__swbuf_r>
    1aea:	f7351fe3          	bne	a0,s3,1a68 <_puts_r+0x42>
    1aee:	b7d1                	j	1ab2 <_puts_r+0x8c>
    1af0:	401c                	lw	a5,0(s0)
    1af2:	00178713          	addi	a4,a5,1
    1af6:	c018                	sw	a4,0(s0)
    1af8:	4729                	li	a4,10
    1afa:	00e78023          	sb	a4,0(a5)
    1afe:	b761                	j	1a86 <_puts_r+0x60>

00001b00 <puts>:
puts():
    1b00:	20002797          	auipc	a5,0x20002
    1b04:	56478793          	addi	a5,a5,1380 # 20004064 <_impure_ptr>
    1b08:	85aa                	mv	a1,a0
    1b0a:	4388                	lw	a0,0(a5)
    1b0c:	bf29                	j	1a26 <_puts_r>

00001b0e <_sbrk_r>:
_sbrk_r():
    1b0e:	1141                	addi	sp,sp,-16
    1b10:	c422                	sw	s0,8(sp)
    1b12:	842a                	mv	s0,a0
    1b14:	852e                	mv	a0,a1
    1b16:	8401a623          	sw	zero,-1972(gp) # 200040ac <errno>
    1b1a:	c606                	sw	ra,12(sp)
    1b1c:	bc9ff0ef          	jal	ra,16e4 <_sbrk>
    1b20:	57fd                	li	a5,-1
    1b22:	00f51763          	bne	a0,a5,1b30 <_sbrk_r+0x22>
    1b26:	84c18793          	addi	a5,gp,-1972 # 200040ac <errno>
    1b2a:	439c                	lw	a5,0(a5)
    1b2c:	c391                	beqz	a5,1b30 <_sbrk_r+0x22>
    1b2e:	c01c                	sw	a5,0(s0)
    1b30:	40b2                	lw	ra,12(sp)
    1b32:	4422                	lw	s0,8(sp)
    1b34:	0141                	addi	sp,sp,16
    1b36:	8082                	ret

00001b38 <__swbuf_r>:
__swbuf_r():
    1b38:	1101                	addi	sp,sp,-32
    1b3a:	cc22                	sw	s0,24(sp)
    1b3c:	ca26                	sw	s1,20(sp)
    1b3e:	c84a                	sw	s2,16(sp)
    1b40:	ce06                	sw	ra,28(sp)
    1b42:	c64e                	sw	s3,12(sp)
    1b44:	84aa                	mv	s1,a0
    1b46:	892e                	mv	s2,a1
    1b48:	8432                	mv	s0,a2
    1b4a:	c501                	beqz	a0,1b52 <__swbuf_r+0x1a>
    1b4c:	4d1c                	lw	a5,24(a0)
    1b4e:	e391                	bnez	a5,1b52 <__swbuf_r+0x1a>
    1b50:	2921                	jal	1f68 <__sinit>
    1b52:	00002797          	auipc	a5,0x2
    1b56:	d6e78793          	addi	a5,a5,-658 # 38c0 <__sf_fake_stdin>
    1b5a:	06f41963          	bne	s0,a5,1bcc <__swbuf_r+0x94>
    1b5e:	40c0                	lw	s0,4(s1)
    1b60:	4c1c                	lw	a5,24(s0)
    1b62:	c41c                	sw	a5,8(s0)
    1b64:	00c45783          	lhu	a5,12(s0)
    1b68:	8ba1                	andi	a5,a5,8
    1b6a:	c3c9                	beqz	a5,1bec <__swbuf_r+0xb4>
    1b6c:	481c                	lw	a5,16(s0)
    1b6e:	cfbd                	beqz	a5,1bec <__swbuf_r+0xb4>
    1b70:	481c                	lw	a5,16(s0)
    1b72:	4008                	lw	a0,0(s0)
    1b74:	0ff97993          	andi	s3,s2,255
    1b78:	0ff97913          	andi	s2,s2,255
    1b7c:	8d1d                	sub	a0,a0,a5
    1b7e:	485c                	lw	a5,20(s0)
    1b80:	00f54663          	blt	a0,a5,1b8c <__swbuf_r+0x54>
    1b84:	85a2                	mv	a1,s0
    1b86:	8526                	mv	a0,s1
    1b88:	24c1                	jal	1e48 <_fflush_r>
    1b8a:	e52d                	bnez	a0,1bf4 <__swbuf_r+0xbc>
    1b8c:	441c                	lw	a5,8(s0)
    1b8e:	0505                	addi	a0,a0,1
    1b90:	17fd                	addi	a5,a5,-1
    1b92:	c41c                	sw	a5,8(s0)
    1b94:	401c                	lw	a5,0(s0)
    1b96:	00178713          	addi	a4,a5,1
    1b9a:	c018                	sw	a4,0(s0)
    1b9c:	01378023          	sb	s3,0(a5)
    1ba0:	485c                	lw	a5,20(s0)
    1ba2:	00a78963          	beq	a5,a0,1bb4 <__swbuf_r+0x7c>
    1ba6:	00c45783          	lhu	a5,12(s0)
    1baa:	8b85                	andi	a5,a5,1
    1bac:	cb81                	beqz	a5,1bbc <__swbuf_r+0x84>
    1bae:	47a9                	li	a5,10
    1bb0:	00f91663          	bne	s2,a5,1bbc <__swbuf_r+0x84>
    1bb4:	85a2                	mv	a1,s0
    1bb6:	8526                	mv	a0,s1
    1bb8:	2c41                	jal	1e48 <_fflush_r>
    1bba:	ed0d                	bnez	a0,1bf4 <__swbuf_r+0xbc>
    1bbc:	40f2                	lw	ra,28(sp)
    1bbe:	4462                	lw	s0,24(sp)
    1bc0:	854a                	mv	a0,s2
    1bc2:	44d2                	lw	s1,20(sp)
    1bc4:	4942                	lw	s2,16(sp)
    1bc6:	49b2                	lw	s3,12(sp)
    1bc8:	6105                	addi	sp,sp,32
    1bca:	8082                	ret
    1bcc:	00002797          	auipc	a5,0x2
    1bd0:	d1478793          	addi	a5,a5,-748 # 38e0 <__sf_fake_stdout>
    1bd4:	00f41463          	bne	s0,a5,1bdc <__swbuf_r+0xa4>
    1bd8:	4480                	lw	s0,8(s1)
    1bda:	b759                	j	1b60 <__swbuf_r+0x28>
    1bdc:	00002797          	auipc	a5,0x2
    1be0:	cc478793          	addi	a5,a5,-828 # 38a0 <__sf_fake_stderr>
    1be4:	f6f41ee3          	bne	s0,a5,1b60 <__swbuf_r+0x28>
    1be8:	44c0                	lw	s0,12(s1)
    1bea:	bf9d                	j	1b60 <__swbuf_r+0x28>
    1bec:	85a2                	mv	a1,s0
    1bee:	8526                	mv	a0,s1
    1bf0:	2021                	jal	1bf8 <__swsetup_r>
    1bf2:	dd3d                	beqz	a0,1b70 <__swbuf_r+0x38>
    1bf4:	597d                	li	s2,-1
    1bf6:	b7d9                	j	1bbc <__swbuf_r+0x84>

00001bf8 <__swsetup_r>:
__swsetup_r():
    1bf8:	1141                	addi	sp,sp,-16
    1bfa:	20002797          	auipc	a5,0x20002
    1bfe:	46a78793          	addi	a5,a5,1130 # 20004064 <_impure_ptr>
    1c02:	c226                	sw	s1,4(sp)
    1c04:	4384                	lw	s1,0(a5)
    1c06:	c422                	sw	s0,8(sp)
    1c08:	c04a                	sw	s2,0(sp)
    1c0a:	c606                	sw	ra,12(sp)
    1c0c:	892a                	mv	s2,a0
    1c0e:	842e                	mv	s0,a1
    1c10:	c489                	beqz	s1,1c1a <__swsetup_r+0x22>
    1c12:	4c9c                	lw	a5,24(s1)
    1c14:	e399                	bnez	a5,1c1a <__swsetup_r+0x22>
    1c16:	8526                	mv	a0,s1
    1c18:	2e81                	jal	1f68 <__sinit>
    1c1a:	00002797          	auipc	a5,0x2
    1c1e:	ca678793          	addi	a5,a5,-858 # 38c0 <__sf_fake_stdin>
    1c22:	02f41c63          	bne	s0,a5,1c5a <__swsetup_r+0x62>
    1c26:	40c0                	lw	s0,4(s1)
    1c28:	00c41703          	lh	a4,12(s0)
    1c2c:	01071793          	slli	a5,a4,0x10
    1c30:	83c1                	srli	a5,a5,0x10
    1c32:	0087f693          	andi	a3,a5,8
    1c36:	eebd                	bnez	a3,1cb4 <__swsetup_r+0xbc>
    1c38:	0107f693          	andi	a3,a5,16
    1c3c:	ee9d                	bnez	a3,1c7a <__swsetup_r+0x82>
    1c3e:	47a5                	li	a5,9
    1c40:	00f92023          	sw	a5,0(s2)
    1c44:	04076713          	ori	a4,a4,64
    1c48:	00e41623          	sh	a4,12(s0)
    1c4c:	557d                	li	a0,-1
    1c4e:	40b2                	lw	ra,12(sp)
    1c50:	4422                	lw	s0,8(sp)
    1c52:	4492                	lw	s1,4(sp)
    1c54:	4902                	lw	s2,0(sp)
    1c56:	0141                	addi	sp,sp,16
    1c58:	8082                	ret
    1c5a:	00002797          	auipc	a5,0x2
    1c5e:	c8678793          	addi	a5,a5,-890 # 38e0 <__sf_fake_stdout>
    1c62:	00f41463          	bne	s0,a5,1c6a <__swsetup_r+0x72>
    1c66:	4480                	lw	s0,8(s1)
    1c68:	b7c1                	j	1c28 <__swsetup_r+0x30>
    1c6a:	00002797          	auipc	a5,0x2
    1c6e:	c3678793          	addi	a5,a5,-970 # 38a0 <__sf_fake_stderr>
    1c72:	faf41be3          	bne	s0,a5,1c28 <__swsetup_r+0x30>
    1c76:	44c0                	lw	s0,12(s1)
    1c78:	bf45                	j	1c28 <__swsetup_r+0x30>
    1c7a:	8b91                	andi	a5,a5,4
    1c7c:	c795                	beqz	a5,1ca8 <__swsetup_r+0xb0>
    1c7e:	584c                	lw	a1,52(s0)
    1c80:	c991                	beqz	a1,1c94 <__swsetup_r+0x9c>
    1c82:	04440793          	addi	a5,s0,68
    1c86:	00f58563          	beq	a1,a5,1c90 <__swsetup_r+0x98>
    1c8a:	854a                	mv	a0,s2
    1c8c:	badff0ef          	jal	ra,1838 <_free_r>
    1c90:	02042a23          	sw	zero,52(s0)
    1c94:	00c45783          	lhu	a5,12(s0)
    1c98:	00042223          	sw	zero,4(s0)
    1c9c:	fdb7f793          	andi	a5,a5,-37
    1ca0:	00f41623          	sh	a5,12(s0)
    1ca4:	481c                	lw	a5,16(s0)
    1ca6:	c01c                	sw	a5,0(s0)
    1ca8:	00c45783          	lhu	a5,12(s0)
    1cac:	0087e793          	ori	a5,a5,8
    1cb0:	00f41623          	sh	a5,12(s0)
    1cb4:	481c                	lw	a5,16(s0)
    1cb6:	ef81                	bnez	a5,1cce <__swsetup_r+0xd6>
    1cb8:	00c45783          	lhu	a5,12(s0)
    1cbc:	20000713          	li	a4,512
    1cc0:	2807f793          	andi	a5,a5,640
    1cc4:	00e78563          	beq	a5,a4,1cce <__swsetup_r+0xd6>
    1cc8:	85a2                	mv	a1,s0
    1cca:	854a                	mv	a0,s2
    1ccc:	21b5                	jal	2138 <__smakebuf_r>
    1cce:	00c45783          	lhu	a5,12(s0)
    1cd2:	0017f713          	andi	a4,a5,1
    1cd6:	c705                	beqz	a4,1cfe <__swsetup_r+0x106>
    1cd8:	485c                	lw	a5,20(s0)
    1cda:	00042423          	sw	zero,8(s0)
    1cde:	40f007b3          	neg	a5,a5
    1ce2:	cc1c                	sw	a5,24(s0)
    1ce4:	481c                	lw	a5,16(s0)
    1ce6:	4501                	li	a0,0
    1ce8:	f3bd                	bnez	a5,1c4e <__swsetup_r+0x56>
    1cea:	00c41783          	lh	a5,12(s0)
    1cee:	0807f713          	andi	a4,a5,128
    1cf2:	df31                	beqz	a4,1c4e <__swsetup_r+0x56>
    1cf4:	0407e793          	ori	a5,a5,64
    1cf8:	00f41623          	sh	a5,12(s0)
    1cfc:	bf81                	j	1c4c <__swsetup_r+0x54>
    1cfe:	8b89                	andi	a5,a5,2
    1d00:	4701                	li	a4,0
    1d02:	e391                	bnez	a5,1d06 <__swsetup_r+0x10e>
    1d04:	4858                	lw	a4,20(s0)
    1d06:	c418                	sw	a4,8(s0)
    1d08:	bff1                	j	1ce4 <__swsetup_r+0xec>

00001d0a <__sflush_r>:
__sflush_r():
    1d0a:	00c5d783          	lhu	a5,12(a1)
    1d0e:	1101                	addi	sp,sp,-32
    1d10:	cc22                	sw	s0,24(sp)
    1d12:	ca26                	sw	s1,20(sp)
    1d14:	ce06                	sw	ra,28(sp)
    1d16:	c84a                	sw	s2,16(sp)
    1d18:	c64e                	sw	s3,12(sp)
    1d1a:	0087f713          	andi	a4,a5,8
    1d1e:	84aa                	mv	s1,a0
    1d20:	842e                	mv	s0,a1
    1d22:	ef79                	bnez	a4,1e00 <__sflush_r+0xf6>
    1d24:	41d8                	lw	a4,4(a1)
    1d26:	00e04d63          	bgtz	a4,1d40 <__sflush_r+0x36>
    1d2a:	41b8                	lw	a4,64(a1)
    1d2c:	00e04a63          	bgtz	a4,1d40 <__sflush_r+0x36>
    1d30:	4501                	li	a0,0
    1d32:	40f2                	lw	ra,28(sp)
    1d34:	4462                	lw	s0,24(sp)
    1d36:	44d2                	lw	s1,20(sp)
    1d38:	4942                	lw	s2,16(sp)
    1d3a:	49b2                	lw	s3,12(sp)
    1d3c:	6105                	addi	sp,sp,32
    1d3e:	8082                	ret
    1d40:	5458                	lw	a4,44(s0)
    1d42:	d77d                	beqz	a4,1d30 <__sflush_r+0x26>
    1d44:	0004a903          	lw	s2,0(s1)
    1d48:	01379693          	slli	a3,a5,0x13
    1d4c:	0004a023          	sw	zero,0(s1)
    1d50:	0606de63          	bgez	a3,1dcc <__sflush_r+0xc2>
    1d54:	4870                	lw	a2,84(s0)
    1d56:	00c45783          	lhu	a5,12(s0)
    1d5a:	8b91                	andi	a5,a5,4
    1d5c:	c799                	beqz	a5,1d6a <__sflush_r+0x60>
    1d5e:	405c                	lw	a5,4(s0)
    1d60:	8e1d                	sub	a2,a2,a5
    1d62:	585c                	lw	a5,52(s0)
    1d64:	c399                	beqz	a5,1d6a <__sflush_r+0x60>
    1d66:	403c                	lw	a5,64(s0)
    1d68:	8e1d                	sub	a2,a2,a5
    1d6a:	545c                	lw	a5,44(s0)
    1d6c:	500c                	lw	a1,32(s0)
    1d6e:	4681                	li	a3,0
    1d70:	8526                	mv	a0,s1
    1d72:	9782                	jalr	a5
    1d74:	57fd                	li	a5,-1
    1d76:	00c45703          	lhu	a4,12(s0)
    1d7a:	00f51d63          	bne	a0,a5,1d94 <__sflush_r+0x8a>
    1d7e:	4094                	lw	a3,0(s1)
    1d80:	47f5                	li	a5,29
    1d82:	06d7e963          	bltu	a5,a3,1df4 <__sflush_r+0xea>
    1d86:	204007b7          	lui	a5,0x20400
    1d8a:	0785                	addi	a5,a5,1
    1d8c:	00d7d7b3          	srl	a5,a5,a3
    1d90:	8b85                	andi	a5,a5,1
    1d92:	c3ad                	beqz	a5,1df4 <__sflush_r+0xea>
    1d94:	481c                	lw	a5,16(s0)
    1d96:	00042223          	sw	zero,4(s0)
    1d9a:	c01c                	sw	a5,0(s0)
    1d9c:	01371793          	slli	a5,a4,0x13
    1da0:	0007d863          	bgez	a5,1db0 <__sflush_r+0xa6>
    1da4:	57fd                	li	a5,-1
    1da6:	00f51463          	bne	a0,a5,1dae <__sflush_r+0xa4>
    1daa:	409c                	lw	a5,0(s1)
    1dac:	e391                	bnez	a5,1db0 <__sflush_r+0xa6>
    1dae:	c868                	sw	a0,84(s0)
    1db0:	584c                	lw	a1,52(s0)
    1db2:	0124a023          	sw	s2,0(s1)
    1db6:	ddad                	beqz	a1,1d30 <__sflush_r+0x26>
    1db8:	04440793          	addi	a5,s0,68
    1dbc:	00f58563          	beq	a1,a5,1dc6 <__sflush_r+0xbc>
    1dc0:	8526                	mv	a0,s1
    1dc2:	a77ff0ef          	jal	ra,1838 <_free_r>
    1dc6:	02042a23          	sw	zero,52(s0)
    1dca:	b79d                	j	1d30 <__sflush_r+0x26>
    1dcc:	500c                	lw	a1,32(s0)
    1dce:	4601                	li	a2,0
    1dd0:	4685                	li	a3,1
    1dd2:	8526                	mv	a0,s1
    1dd4:	9702                	jalr	a4
    1dd6:	57fd                	li	a5,-1
    1dd8:	862a                	mv	a2,a0
    1dda:	f6f51ee3          	bne	a0,a5,1d56 <__sflush_r+0x4c>
    1dde:	409c                	lw	a5,0(s1)
    1de0:	dbbd                	beqz	a5,1d56 <__sflush_r+0x4c>
    1de2:	4775                	li	a4,29
    1de4:	00e78563          	beq	a5,a4,1dee <__sflush_r+0xe4>
    1de8:	4759                	li	a4,22
    1dea:	04e79463          	bne	a5,a4,1e32 <__sflush_r+0x128>
    1dee:	0124a023          	sw	s2,0(s1)
    1df2:	bf3d                	j	1d30 <__sflush_r+0x26>
    1df4:	04076713          	ori	a4,a4,64
    1df8:	00e41623          	sh	a4,12(s0)
    1dfc:	557d                	li	a0,-1
    1dfe:	bf15                	j	1d32 <__sflush_r+0x28>
    1e00:	0105a983          	lw	s3,16(a1)
    1e04:	f20986e3          	beqz	s3,1d30 <__sflush_r+0x26>
    1e08:	0005a903          	lw	s2,0(a1)
    1e0c:	8b8d                	andi	a5,a5,3
    1e0e:	0135a023          	sw	s3,0(a1)
    1e12:	41390933          	sub	s2,s2,s3
    1e16:	4701                	li	a4,0
    1e18:	e391                	bnez	a5,1e1c <__sflush_r+0x112>
    1e1a:	49d8                	lw	a4,20(a1)
    1e1c:	c418                	sw	a4,8(s0)
    1e1e:	f12059e3          	blez	s2,1d30 <__sflush_r+0x26>
    1e22:	541c                	lw	a5,40(s0)
    1e24:	500c                	lw	a1,32(s0)
    1e26:	86ca                	mv	a3,s2
    1e28:	864e                	mv	a2,s3
    1e2a:	8526                	mv	a0,s1
    1e2c:	9782                	jalr	a5
    1e2e:	00a04963          	bgtz	a0,1e40 <__sflush_r+0x136>
    1e32:	00c45783          	lhu	a5,12(s0)
    1e36:	0407e793          	ori	a5,a5,64
    1e3a:	00f41623          	sh	a5,12(s0)
    1e3e:	bf7d                	j	1dfc <__sflush_r+0xf2>
    1e40:	99aa                	add	s3,s3,a0
    1e42:	40a90933          	sub	s2,s2,a0
    1e46:	bfe1                	j	1e1e <__sflush_r+0x114>

00001e48 <_fflush_r>:
_fflush_r():
    1e48:	499c                	lw	a5,16(a1)
    1e4a:	cfb9                	beqz	a5,1ea8 <_fflush_r+0x60>
    1e4c:	1101                	addi	sp,sp,-32
    1e4e:	cc22                	sw	s0,24(sp)
    1e50:	ce06                	sw	ra,28(sp)
    1e52:	842a                	mv	s0,a0
    1e54:	c511                	beqz	a0,1e60 <_fflush_r+0x18>
    1e56:	4d1c                	lw	a5,24(a0)
    1e58:	e781                	bnez	a5,1e60 <_fflush_r+0x18>
    1e5a:	c62e                	sw	a1,12(sp)
    1e5c:	2231                	jal	1f68 <__sinit>
    1e5e:	45b2                	lw	a1,12(sp)
    1e60:	00002797          	auipc	a5,0x2
    1e64:	a6078793          	addi	a5,a5,-1440 # 38c0 <__sf_fake_stdin>
    1e68:	00f59b63          	bne	a1,a5,1e7e <_fflush_r+0x36>
    1e6c:	404c                	lw	a1,4(s0)
    1e6e:	00c59783          	lh	a5,12(a1)
    1e72:	c795                	beqz	a5,1e9e <_fflush_r+0x56>
    1e74:	8522                	mv	a0,s0
    1e76:	4462                	lw	s0,24(sp)
    1e78:	40f2                	lw	ra,28(sp)
    1e7a:	6105                	addi	sp,sp,32
    1e7c:	b579                	j	1d0a <__sflush_r>
    1e7e:	00002797          	auipc	a5,0x2
    1e82:	a6278793          	addi	a5,a5,-1438 # 38e0 <__sf_fake_stdout>
    1e86:	00f59463          	bne	a1,a5,1e8e <_fflush_r+0x46>
    1e8a:	440c                	lw	a1,8(s0)
    1e8c:	b7cd                	j	1e6e <_fflush_r+0x26>
    1e8e:	00002797          	auipc	a5,0x2
    1e92:	a1278793          	addi	a5,a5,-1518 # 38a0 <__sf_fake_stderr>
    1e96:	fcf59ce3          	bne	a1,a5,1e6e <_fflush_r+0x26>
    1e9a:	444c                	lw	a1,12(s0)
    1e9c:	bfc9                	j	1e6e <_fflush_r+0x26>
    1e9e:	40f2                	lw	ra,28(sp)
    1ea0:	4462                	lw	s0,24(sp)
    1ea2:	4501                	li	a0,0
    1ea4:	6105                	addi	sp,sp,32
    1ea6:	8082                	ret
    1ea8:	4501                	li	a0,0
    1eaa:	8082                	ret

00001eac <std>:
std():
    1eac:	1141                	addi	sp,sp,-16
    1eae:	c422                	sw	s0,8(sp)
    1eb0:	c606                	sw	ra,12(sp)
    1eb2:	842a                	mv	s0,a0
    1eb4:	00b51623          	sh	a1,12(a0)
    1eb8:	00c51723          	sh	a2,14(a0)
    1ebc:	00052023          	sw	zero,0(a0)
    1ec0:	00052223          	sw	zero,4(a0)
    1ec4:	00052423          	sw	zero,8(a0)
    1ec8:	06052223          	sw	zero,100(a0)
    1ecc:	00052823          	sw	zero,16(a0)
    1ed0:	00052a23          	sw	zero,20(a0)
    1ed4:	00052c23          	sw	zero,24(a0)
    1ed8:	4621                	li	a2,8
    1eda:	4581                	li	a1,0
    1edc:	05c50513          	addi	a0,a0,92
    1ee0:	907fe0ef          	jal	ra,7e6 <memset>
    1ee4:	00001797          	auipc	a5,0x1
    1ee8:	a3878793          	addi	a5,a5,-1480 # 291c <__sread>
    1eec:	d05c                	sw	a5,36(s0)
    1eee:	00001797          	auipc	a5,0x1
    1ef2:	a5e78793          	addi	a5,a5,-1442 # 294c <__swrite>
    1ef6:	d41c                	sw	a5,40(s0)
    1ef8:	00001797          	auipc	a5,0x1
    1efc:	aa278793          	addi	a5,a5,-1374 # 299a <__sseek>
    1f00:	d45c                	sw	a5,44(s0)
    1f02:	00001797          	auipc	a5,0x1
    1f06:	ace78793          	addi	a5,a5,-1330 # 29d0 <__sclose>
    1f0a:	d000                	sw	s0,32(s0)
    1f0c:	d81c                	sw	a5,48(s0)
    1f0e:	40b2                	lw	ra,12(sp)
    1f10:	4422                	lw	s0,8(sp)
    1f12:	0141                	addi	sp,sp,16
    1f14:	8082                	ret

00001f16 <_cleanup_r>:
_cleanup_r():
    1f16:	00000597          	auipc	a1,0x0
    1f1a:	f3258593          	addi	a1,a1,-206 # 1e48 <_fflush_r>
    1f1e:	aa91                	j	2072 <_fwalk_reent>

00001f20 <__sfmoreglue>:
__sfmoreglue():
    1f20:	1141                	addi	sp,sp,-16
    1f22:	c226                	sw	s1,4(sp)
    1f24:	06800613          	li	a2,104
    1f28:	fff58493          	addi	s1,a1,-1
    1f2c:	02c484b3          	mul	s1,s1,a2
    1f30:	c04a                	sw	s2,0(sp)
    1f32:	892e                	mv	s2,a1
    1f34:	c422                	sw	s0,8(sp)
    1f36:	c606                	sw	ra,12(sp)
    1f38:	07448593          	addi	a1,s1,116
    1f3c:	9a5ff0ef          	jal	ra,18e0 <_malloc_r>
    1f40:	842a                	mv	s0,a0
    1f42:	cd01                	beqz	a0,1f5a <__sfmoreglue+0x3a>
    1f44:	00052023          	sw	zero,0(a0)
    1f48:	01252223          	sw	s2,4(a0)
    1f4c:	0531                	addi	a0,a0,12
    1f4e:	c408                	sw	a0,8(s0)
    1f50:	06848613          	addi	a2,s1,104
    1f54:	4581                	li	a1,0
    1f56:	891fe0ef          	jal	ra,7e6 <memset>
    1f5a:	8522                	mv	a0,s0
    1f5c:	40b2                	lw	ra,12(sp)
    1f5e:	4422                	lw	s0,8(sp)
    1f60:	4492                	lw	s1,4(sp)
    1f62:	4902                	lw	s2,0(sp)
    1f64:	0141                	addi	sp,sp,16
    1f66:	8082                	ret

00001f68 <__sinit>:
__sinit():
    1f68:	4d1c                	lw	a5,24(a0)
    1f6a:	e3bd                	bnez	a5,1fd0 <__sinit+0x68>
    1f6c:	1141                	addi	sp,sp,-16
    1f6e:	c606                	sw	ra,12(sp)
    1f70:	c422                	sw	s0,8(sp)
    1f72:	00000797          	auipc	a5,0x0
    1f76:	fa478793          	addi	a5,a5,-92 # 1f16 <_cleanup_r>
    1f7a:	d51c                	sw	a5,40(a0)
    1f7c:	00002797          	auipc	a5,0x2
    1f80:	9e078793          	addi	a5,a5,-1568 # 395c <_global_impure_ptr>
    1f84:	439c                	lw	a5,0(a5)
    1f86:	04052423          	sw	zero,72(a0)
    1f8a:	04052623          	sw	zero,76(a0)
    1f8e:	04052823          	sw	zero,80(a0)
    1f92:	00f51463          	bne	a0,a5,1f9a <__sinit+0x32>
    1f96:	4785                	li	a5,1
    1f98:	cd1c                	sw	a5,24(a0)
    1f9a:	842a                	mv	s0,a0
    1f9c:	281d                	jal	1fd2 <__sfp>
    1f9e:	c048                	sw	a0,4(s0)
    1fa0:	8522                	mv	a0,s0
    1fa2:	2805                	jal	1fd2 <__sfp>
    1fa4:	c408                	sw	a0,8(s0)
    1fa6:	8522                	mv	a0,s0
    1fa8:	202d                	jal	1fd2 <__sfp>
    1faa:	c448                	sw	a0,12(s0)
    1fac:	4048                	lw	a0,4(s0)
    1fae:	4601                	li	a2,0
    1fb0:	4591                	li	a1,4
    1fb2:	3ded                	jal	1eac <std>
    1fb4:	4408                	lw	a0,8(s0)
    1fb6:	4605                	li	a2,1
    1fb8:	45a5                	li	a1,9
    1fba:	3dcd                	jal	1eac <std>
    1fbc:	4448                	lw	a0,12(s0)
    1fbe:	4609                	li	a2,2
    1fc0:	45c9                	li	a1,18
    1fc2:	35ed                	jal	1eac <std>
    1fc4:	4785                	li	a5,1
    1fc6:	cc1c                	sw	a5,24(s0)
    1fc8:	40b2                	lw	ra,12(sp)
    1fca:	4422                	lw	s0,8(sp)
    1fcc:	0141                	addi	sp,sp,16
    1fce:	8082                	ret
    1fd0:	8082                	ret

00001fd2 <__sfp>:
__sfp():
    1fd2:	1141                	addi	sp,sp,-16
    1fd4:	00002797          	auipc	a5,0x2
    1fd8:	98878793          	addi	a5,a5,-1656 # 395c <_global_impure_ptr>
    1fdc:	c226                	sw	s1,4(sp)
    1fde:	4384                	lw	s1,0(a5)
    1fe0:	c04a                	sw	s2,0(sp)
    1fe2:	c606                	sw	ra,12(sp)
    1fe4:	4c9c                	lw	a5,24(s1)
    1fe6:	c422                	sw	s0,8(sp)
    1fe8:	892a                	mv	s2,a0
    1fea:	e399                	bnez	a5,1ff0 <__sfp+0x1e>
    1fec:	8526                	mv	a0,s1
    1fee:	3fad                	jal	1f68 <__sinit>
    1ff0:	04848493          	addi	s1,s1,72
    1ff4:	4480                	lw	s0,8(s1)
    1ff6:	40dc                	lw	a5,4(s1)
    1ff8:	17fd                	addi	a5,a5,-1
    1ffa:	0007d663          	bgez	a5,2006 <__sfp+0x34>
    1ffe:	409c                	lw	a5,0(s1)
    2000:	cfb9                	beqz	a5,205e <__sfp+0x8c>
    2002:	4084                	lw	s1,0(s1)
    2004:	bfc5                	j	1ff4 <__sfp+0x22>
    2006:	00c41703          	lh	a4,12(s0)
    200a:	e739                	bnez	a4,2058 <__sfp+0x86>
    200c:	77c1                	lui	a5,0xffff0
    200e:	0785                	addi	a5,a5,1
    2010:	06042223          	sw	zero,100(s0)
    2014:	00042023          	sw	zero,0(s0)
    2018:	00042223          	sw	zero,4(s0)
    201c:	00042423          	sw	zero,8(s0)
    2020:	c45c                	sw	a5,12(s0)
    2022:	00042823          	sw	zero,16(s0)
    2026:	00042a23          	sw	zero,20(s0)
    202a:	00042c23          	sw	zero,24(s0)
    202e:	4621                	li	a2,8
    2030:	4581                	li	a1,0
    2032:	05c40513          	addi	a0,s0,92
    2036:	fb0fe0ef          	jal	ra,7e6 <memset>
    203a:	02042a23          	sw	zero,52(s0)
    203e:	02042c23          	sw	zero,56(s0)
    2042:	04042423          	sw	zero,72(s0)
    2046:	04042623          	sw	zero,76(s0)
    204a:	8522                	mv	a0,s0
    204c:	40b2                	lw	ra,12(sp)
    204e:	4422                	lw	s0,8(sp)
    2050:	4492                	lw	s1,4(sp)
    2052:	4902                	lw	s2,0(sp)
    2054:	0141                	addi	sp,sp,16
    2056:	8082                	ret
    2058:	06840413          	addi	s0,s0,104
    205c:	bf71                	j	1ff8 <__sfp+0x26>
    205e:	4591                	li	a1,4
    2060:	854a                	mv	a0,s2
    2062:	3d7d                	jal	1f20 <__sfmoreglue>
    2064:	c088                	sw	a0,0(s1)
    2066:	fd51                	bnez	a0,2002 <__sfp+0x30>
    2068:	47b1                	li	a5,12
    206a:	00f92023          	sw	a5,0(s2)
    206e:	4401                	li	s0,0
    2070:	bfe9                	j	204a <__sfp+0x78>

00002072 <_fwalk_reent>:
_fwalk_reent():
    2072:	7179                	addi	sp,sp,-48
    2074:	d422                	sw	s0,40(sp)
    2076:	d04a                	sw	s2,32(sp)
    2078:	cc52                	sw	s4,24(sp)
    207a:	ca56                	sw	s5,20(sp)
    207c:	c85a                	sw	s6,16(sp)
    207e:	c65e                	sw	s7,12(sp)
    2080:	d606                	sw	ra,44(sp)
    2082:	d226                	sw	s1,36(sp)
    2084:	ce4e                	sw	s3,28(sp)
    2086:	8a2a                	mv	s4,a0
    2088:	8aae                	mv	s5,a1
    208a:	04850413          	addi	s0,a0,72
    208e:	4901                	li	s2,0
    2090:	4b05                	li	s6,1
    2092:	5bfd                	li	s7,-1
    2094:	ec09                	bnez	s0,20ae <_fwalk_reent+0x3c>
    2096:	50b2                	lw	ra,44(sp)
    2098:	5422                	lw	s0,40(sp)
    209a:	854a                	mv	a0,s2
    209c:	5492                	lw	s1,36(sp)
    209e:	5902                	lw	s2,32(sp)
    20a0:	49f2                	lw	s3,28(sp)
    20a2:	4a62                	lw	s4,24(sp)
    20a4:	4ad2                	lw	s5,20(sp)
    20a6:	4b42                	lw	s6,16(sp)
    20a8:	4bb2                	lw	s7,12(sp)
    20aa:	6145                	addi	sp,sp,48
    20ac:	8082                	ret
    20ae:	4404                	lw	s1,8(s0)
    20b0:	00442983          	lw	s3,4(s0)
    20b4:	19fd                	addi	s3,s3,-1
    20b6:	0009d463          	bgez	s3,20be <_fwalk_reent+0x4c>
    20ba:	4000                	lw	s0,0(s0)
    20bc:	bfe1                	j	2094 <_fwalk_reent+0x22>
    20be:	00c4d783          	lhu	a5,12(s1)
    20c2:	00fb7b63          	bgeu	s6,a5,20d8 <_fwalk_reent+0x66>
    20c6:	00e49783          	lh	a5,14(s1)
    20ca:	01778763          	beq	a5,s7,20d8 <_fwalk_reent+0x66>
    20ce:	85a6                	mv	a1,s1
    20d0:	8552                	mv	a0,s4
    20d2:	9a82                	jalr	s5
    20d4:	00a96933          	or	s2,s2,a0
    20d8:	06848493          	addi	s1,s1,104
    20dc:	bfe1                	j	20b4 <_fwalk_reent+0x42>

000020de <__swhatbuf_r>:
__swhatbuf_r():
    20de:	7119                	addi	sp,sp,-128
    20e0:	daa6                	sw	s1,116(sp)
    20e2:	84ae                	mv	s1,a1
    20e4:	00e59583          	lh	a1,14(a1)
    20e8:	dca2                	sw	s0,120(sp)
    20ea:	de86                	sw	ra,124(sp)
    20ec:	8432                	mv	s0,a2
    20ee:	0005dc63          	bgez	a1,2106 <__swhatbuf_r+0x28>
    20f2:	00c4d783          	lhu	a5,12(s1)
    20f6:	0006a023          	sw	zero,0(a3)
    20fa:	0807f793          	andi	a5,a5,128
    20fe:	e785                	bnez	a5,2126 <__swhatbuf_r+0x48>
    2100:	40000793          	li	a5,1024
    2104:	a01d                	j	212a <__swhatbuf_r+0x4c>
    2106:	0830                	addi	a2,sp,24
    2108:	c636                	sw	a3,12(sp)
    210a:	123000ef          	jal	ra,2a2c <_fstat_r>
    210e:	46b2                	lw	a3,12(sp)
    2110:	fe0541e3          	bltz	a0,20f2 <__swhatbuf_r+0x14>
    2114:	4772                	lw	a4,28(sp)
    2116:	67bd                	lui	a5,0xf
    2118:	8ff9                	and	a5,a5,a4
    211a:	7779                	lui	a4,0xffffe
    211c:	97ba                	add	a5,a5,a4
    211e:	0017b793          	seqz	a5,a5
    2122:	c29c                	sw	a5,0(a3)
    2124:	bff1                	j	2100 <__swhatbuf_r+0x22>
    2126:	04000793          	li	a5,64
    212a:	c01c                	sw	a5,0(s0)
    212c:	50f6                	lw	ra,124(sp)
    212e:	5466                	lw	s0,120(sp)
    2130:	54d6                	lw	s1,116(sp)
    2132:	4501                	li	a0,0
    2134:	6109                	addi	sp,sp,128
    2136:	8082                	ret

00002138 <__smakebuf_r>:
__smakebuf_r():
    2138:	00c5d783          	lhu	a5,12(a1)
    213c:	1101                	addi	sp,sp,-32
    213e:	cc22                	sw	s0,24(sp)
    2140:	ce06                	sw	ra,28(sp)
    2142:	ca26                	sw	s1,20(sp)
    2144:	c84a                	sw	s2,16(sp)
    2146:	8b89                	andi	a5,a5,2
    2148:	842e                	mv	s0,a1
    214a:	cf89                	beqz	a5,2164 <__smakebuf_r+0x2c>
    214c:	04740793          	addi	a5,s0,71
    2150:	c01c                	sw	a5,0(s0)
    2152:	c81c                	sw	a5,16(s0)
    2154:	4785                	li	a5,1
    2156:	c85c                	sw	a5,20(s0)
    2158:	40f2                	lw	ra,28(sp)
    215a:	4462                	lw	s0,24(sp)
    215c:	44d2                	lw	s1,20(sp)
    215e:	4942                	lw	s2,16(sp)
    2160:	6105                	addi	sp,sp,32
    2162:	8082                	ret
    2164:	0074                	addi	a3,sp,12
    2166:	0030                	addi	a2,sp,8
    2168:	84aa                	mv	s1,a0
    216a:	3f95                	jal	20de <__swhatbuf_r>
    216c:	45a2                	lw	a1,8(sp)
    216e:	892a                	mv	s2,a0
    2170:	8526                	mv	a0,s1
    2172:	f6eff0ef          	jal	ra,18e0 <_malloc_r>
    2176:	ed01                	bnez	a0,218e <__smakebuf_r+0x56>
    2178:	00c41783          	lh	a5,12(s0)
    217c:	2007f713          	andi	a4,a5,512
    2180:	ff61                	bnez	a4,2158 <__smakebuf_r+0x20>
    2182:	9bf1                	andi	a5,a5,-4
    2184:	0027e793          	ori	a5,a5,2
    2188:	00f41623          	sh	a5,12(s0)
    218c:	b7c1                	j	214c <__smakebuf_r+0x14>
    218e:	00000797          	auipc	a5,0x0
    2192:	d8878793          	addi	a5,a5,-632 # 1f16 <_cleanup_r>
    2196:	d49c                	sw	a5,40(s1)
    2198:	00c45783          	lhu	a5,12(s0)
    219c:	c008                	sw	a0,0(s0)
    219e:	c808                	sw	a0,16(s0)
    21a0:	0807e793          	ori	a5,a5,128
    21a4:	00f41623          	sh	a5,12(s0)
    21a8:	47a2                	lw	a5,8(sp)
    21aa:	c85c                	sw	a5,20(s0)
    21ac:	47b2                	lw	a5,12(sp)
    21ae:	cf91                	beqz	a5,21ca <__smakebuf_r+0x92>
    21b0:	00e41583          	lh	a1,14(s0)
    21b4:	8526                	mv	a0,s1
    21b6:	0a1000ef          	jal	ra,2a56 <_isatty_r>
    21ba:	c901                	beqz	a0,21ca <__smakebuf_r+0x92>
    21bc:	00c45783          	lhu	a5,12(s0)
    21c0:	9bf1                	andi	a5,a5,-4
    21c2:	0017e793          	ori	a5,a5,1
    21c6:	00f41623          	sh	a5,12(s0)
    21ca:	00c45783          	lhu	a5,12(s0)
    21ce:	00f96933          	or	s2,s2,a5
    21d2:	01241623          	sh	s2,12(s0)
    21d6:	b749                	j	2158 <__smakebuf_r+0x20>

000021d8 <__malloc_lock>:
__malloc_lock():
    21d8:	8082                	ret

000021da <__malloc_unlock>:
__malloc_unlock():
    21da:	8082                	ret

000021dc <__sfputc_r>:
__sfputc_r():
    21dc:	461c                	lw	a5,8(a2)
    21de:	17fd                	addi	a5,a5,-1
    21e0:	c61c                	sw	a5,8(a2)
    21e2:	0007da63          	bgez	a5,21f6 <__sfputc_r+0x1a>
    21e6:	4e18                	lw	a4,24(a2)
    21e8:	00e7c563          	blt	a5,a4,21f2 <__sfputc_r+0x16>
    21ec:	47a9                	li	a5,10
    21ee:	00f59463          	bne	a1,a5,21f6 <__sfputc_r+0x1a>
    21f2:	947ff06f          	j	1b38 <__swbuf_r>
    21f6:	421c                	lw	a5,0(a2)
    21f8:	852e                	mv	a0,a1
    21fa:	00178713          	addi	a4,a5,1
    21fe:	c218                	sw	a4,0(a2)
    2200:	00b78023          	sb	a1,0(a5)
    2204:	8082                	ret

00002206 <__sfputs_r>:
__sfputs_r():
    2206:	1101                	addi	sp,sp,-32
    2208:	cc22                	sw	s0,24(sp)
    220a:	ca26                	sw	s1,20(sp)
    220c:	c84a                	sw	s2,16(sp)
    220e:	c64e                	sw	s3,12(sp)
    2210:	c452                	sw	s4,8(sp)
    2212:	ce06                	sw	ra,28(sp)
    2214:	892a                	mv	s2,a0
    2216:	89ae                	mv	s3,a1
    2218:	8432                	mv	s0,a2
    221a:	00d604b3          	add	s1,a2,a3
    221e:	5a7d                	li	s4,-1
    2220:	00941463          	bne	s0,s1,2228 <__sfputs_r+0x22>
    2224:	4501                	li	a0,0
    2226:	a809                	j	2238 <__sfputs_r+0x32>
    2228:	00044583          	lbu	a1,0(s0)
    222c:	864e                	mv	a2,s3
    222e:	854a                	mv	a0,s2
    2230:	3775                	jal	21dc <__sfputc_r>
    2232:	0405                	addi	s0,s0,1
    2234:	ff4516e3          	bne	a0,s4,2220 <__sfputs_r+0x1a>
    2238:	40f2                	lw	ra,28(sp)
    223a:	4462                	lw	s0,24(sp)
    223c:	44d2                	lw	s1,20(sp)
    223e:	4942                	lw	s2,16(sp)
    2240:	49b2                	lw	s3,12(sp)
    2242:	4a22                	lw	s4,8(sp)
    2244:	6105                	addi	sp,sp,32
    2246:	8082                	ret

00002248 <_vfiprintf_r>:
_vfiprintf_r():
    2248:	7135                	addi	sp,sp,-160
    224a:	cd22                	sw	s0,152(sp)
    224c:	cb26                	sw	s1,148(sp)
    224e:	c94a                	sw	s2,144(sp)
    2250:	c74e                	sw	s3,140(sp)
    2252:	cf06                	sw	ra,156(sp)
    2254:	c552                	sw	s4,136(sp)
    2256:	c356                	sw	s5,132(sp)
    2258:	c15a                	sw	s6,128(sp)
    225a:	dede                	sw	s7,124(sp)
    225c:	dce2                	sw	s8,120(sp)
    225e:	dae6                	sw	s9,116(sp)
    2260:	89aa                	mv	s3,a0
    2262:	84ae                	mv	s1,a1
    2264:	8932                	mv	s2,a2
    2266:	8436                	mv	s0,a3
    2268:	c501                	beqz	a0,2270 <_vfiprintf_r+0x28>
    226a:	4d1c                	lw	a5,24(a0)
    226c:	e391                	bnez	a5,2270 <_vfiprintf_r+0x28>
    226e:	39ed                	jal	1f68 <__sinit>
    2270:	00001797          	auipc	a5,0x1
    2274:	65078793          	addi	a5,a5,1616 # 38c0 <__sf_fake_stdin>
    2278:	0cf49c63          	bne	s1,a5,2350 <_vfiprintf_r+0x108>
    227c:	0049a483          	lw	s1,4(s3)
    2280:	00c4d783          	lhu	a5,12(s1)
    2284:	8ba1                	andi	a5,a5,8
    2286:	c7fd                	beqz	a5,2374 <_vfiprintf_r+0x12c>
    2288:	489c                	lw	a5,16(s1)
    228a:	c7ed                	beqz	a5,2374 <_vfiprintf_r+0x12c>
    228c:	02000793          	li	a5,32
    2290:	02f104a3          	sb	a5,41(sp)
    2294:	03000793          	li	a5,48
    2298:	d202                	sw	zero,36(sp)
    229a:	02f10523          	sb	a5,42(sp)
    229e:	c622                	sw	s0,12(sp)
    22a0:	02500b93          	li	s7,37
    22a4:	00001a97          	auipc	s5,0x1
    22a8:	65ca8a93          	addi	s5,s5,1628 # 3900 <__sf_fake_stdout+0x20>
    22ac:	4c05                	li	s8,1
    22ae:	4b29                	li	s6,10
    22b0:	844a                	mv	s0,s2
    22b2:	00044783          	lbu	a5,0(s0)
    22b6:	c399                	beqz	a5,22bc <_vfiprintf_r+0x74>
    22b8:	0f779163          	bne	a5,s7,239a <_vfiprintf_r+0x152>
    22bc:	41240cb3          	sub	s9,s0,s2
    22c0:	000c8d63          	beqz	s9,22da <_vfiprintf_r+0x92>
    22c4:	86e6                	mv	a3,s9
    22c6:	864a                	mv	a2,s2
    22c8:	85a6                	mv	a1,s1
    22ca:	854e                	mv	a0,s3
    22cc:	3f2d                	jal	2206 <__sfputs_r>
    22ce:	57fd                	li	a5,-1
    22d0:	1ef50763          	beq	a0,a5,24be <_vfiprintf_r+0x276>
    22d4:	5692                	lw	a3,36(sp)
    22d6:	96e6                	add	a3,a3,s9
    22d8:	d236                	sw	a3,36(sp)
    22da:	00044783          	lbu	a5,0(s0)
    22de:	1e078063          	beqz	a5,24be <_vfiprintf_r+0x276>
    22e2:	57fd                	li	a5,-1
    22e4:	00140913          	addi	s2,s0,1
    22e8:	c802                	sw	zero,16(sp)
    22ea:	ce02                	sw	zero,28(sp)
    22ec:	ca3e                	sw	a5,20(sp)
    22ee:	cc02                	sw	zero,24(sp)
    22f0:	040109a3          	sb	zero,83(sp)
    22f4:	d482                	sw	zero,104(sp)
    22f6:	00094583          	lbu	a1,0(s2)
    22fa:	4615                	li	a2,5
    22fc:	8556                	mv	a0,s5
    22fe:	7ac000ef          	jal	ra,2aaa <memchr>
    2302:	00190413          	addi	s0,s2,1
    2306:	47c2                	lw	a5,16(sp)
    2308:	e959                	bnez	a0,239e <_vfiprintf_r+0x156>
    230a:	0107f713          	andi	a4,a5,16
    230e:	c709                	beqz	a4,2318 <_vfiprintf_r+0xd0>
    2310:	02000713          	li	a4,32
    2314:	04e109a3          	sb	a4,83(sp)
    2318:	0087f713          	andi	a4,a5,8
    231c:	c709                	beqz	a4,2326 <_vfiprintf_r+0xde>
    231e:	02b00713          	li	a4,43
    2322:	04e109a3          	sb	a4,83(sp)
    2326:	00094683          	lbu	a3,0(s2)
    232a:	02a00713          	li	a4,42
    232e:	08e68063          	beq	a3,a4,23ae <_vfiprintf_r+0x166>
    2332:	47f2                	lw	a5,28(sp)
    2334:	844a                	mv	s0,s2
    2336:	4681                	li	a3,0
    2338:	4625                	li	a2,9
    233a:	00044703          	lbu	a4,0(s0)
    233e:	00140593          	addi	a1,s0,1
    2342:	fd070713          	addi	a4,a4,-48 # ffffdfd0 <_eusrstack+0xdfff5fd0>
    2346:	0ae67963          	bgeu	a2,a4,23f8 <_vfiprintf_r+0x1b0>
    234a:	cab5                	beqz	a3,23be <_vfiprintf_r+0x176>
    234c:	ce3e                	sw	a5,28(sp)
    234e:	a885                	j	23be <_vfiprintf_r+0x176>
    2350:	00001797          	auipc	a5,0x1
    2354:	59078793          	addi	a5,a5,1424 # 38e0 <__sf_fake_stdout>
    2358:	00f49563          	bne	s1,a5,2362 <_vfiprintf_r+0x11a>
    235c:	0089a483          	lw	s1,8(s3)
    2360:	b705                	j	2280 <_vfiprintf_r+0x38>
    2362:	00001797          	auipc	a5,0x1
    2366:	53e78793          	addi	a5,a5,1342 # 38a0 <__sf_fake_stderr>
    236a:	f0f49be3          	bne	s1,a5,2280 <_vfiprintf_r+0x38>
    236e:	00c9a483          	lw	s1,12(s3)
    2372:	b739                	j	2280 <_vfiprintf_r+0x38>
    2374:	85a6                	mv	a1,s1
    2376:	854e                	mv	a0,s3
    2378:	881ff0ef          	jal	ra,1bf8 <__swsetup_r>
    237c:	d901                	beqz	a0,228c <_vfiprintf_r+0x44>
    237e:	557d                	li	a0,-1
    2380:	40fa                	lw	ra,156(sp)
    2382:	446a                	lw	s0,152(sp)
    2384:	44da                	lw	s1,148(sp)
    2386:	494a                	lw	s2,144(sp)
    2388:	49ba                	lw	s3,140(sp)
    238a:	4a2a                	lw	s4,136(sp)
    238c:	4a9a                	lw	s5,132(sp)
    238e:	4b0a                	lw	s6,128(sp)
    2390:	5bf6                	lw	s7,124(sp)
    2392:	5c66                	lw	s8,120(sp)
    2394:	5cd6                	lw	s9,116(sp)
    2396:	610d                	addi	sp,sp,160
    2398:	8082                	ret
    239a:	0405                	addi	s0,s0,1
    239c:	bf19                	j	22b2 <_vfiprintf_r+0x6a>
    239e:	41550533          	sub	a0,a0,s5
    23a2:	00ac1533          	sll	a0,s8,a0
    23a6:	8fc9                	or	a5,a5,a0
    23a8:	c83e                	sw	a5,16(sp)
    23aa:	8922                	mv	s2,s0
    23ac:	b7a9                	j	22f6 <_vfiprintf_r+0xae>
    23ae:	4732                	lw	a4,12(sp)
    23b0:	00470693          	addi	a3,a4,4
    23b4:	4318                	lw	a4,0(a4)
    23b6:	c636                	sw	a3,12(sp)
    23b8:	02074963          	bltz	a4,23ea <_vfiprintf_r+0x1a2>
    23bc:	ce3a                	sw	a4,28(sp)
    23be:	00044703          	lbu	a4,0(s0)
    23c2:	02e00793          	li	a5,46
    23c6:	04f71f63          	bne	a4,a5,2424 <_vfiprintf_r+0x1dc>
    23ca:	00144703          	lbu	a4,1(s0)
    23ce:	02a00793          	li	a5,42
    23d2:	02f71b63          	bne	a4,a5,2408 <_vfiprintf_r+0x1c0>
    23d6:	47b2                	lw	a5,12(sp)
    23d8:	0409                	addi	s0,s0,2
    23da:	00478713          	addi	a4,a5,4
    23de:	439c                	lw	a5,0(a5)
    23e0:	c63a                	sw	a4,12(sp)
    23e2:	0207c163          	bltz	a5,2404 <_vfiprintf_r+0x1bc>
    23e6:	ca3e                	sw	a5,20(sp)
    23e8:	a835                	j	2424 <_vfiprintf_r+0x1dc>
    23ea:	40e00733          	neg	a4,a4
    23ee:	0027e793          	ori	a5,a5,2
    23f2:	ce3a                	sw	a4,28(sp)
    23f4:	c83e                	sw	a5,16(sp)
    23f6:	b7e1                	j	23be <_vfiprintf_r+0x176>
    23f8:	036787b3          	mul	a5,a5,s6
    23fc:	4685                	li	a3,1
    23fe:	842e                	mv	s0,a1
    2400:	97ba                	add	a5,a5,a4
    2402:	bf25                	j	233a <_vfiprintf_r+0xf2>
    2404:	57fd                	li	a5,-1
    2406:	b7c5                	j	23e6 <_vfiprintf_r+0x19e>
    2408:	0405                	addi	s0,s0,1
    240a:	ca02                	sw	zero,20(sp)
    240c:	4681                	li	a3,0
    240e:	4781                	li	a5,0
    2410:	4625                	li	a2,9
    2412:	00044703          	lbu	a4,0(s0)
    2416:	00140593          	addi	a1,s0,1
    241a:	fd070713          	addi	a4,a4,-48
    241e:	06e67663          	bgeu	a2,a4,248a <_vfiprintf_r+0x242>
    2422:	f2f1                	bnez	a3,23e6 <_vfiprintf_r+0x19e>
    2424:	00044583          	lbu	a1,0(s0)
    2428:	460d                	li	a2,3
    242a:	00001517          	auipc	a0,0x1
    242e:	4de50513          	addi	a0,a0,1246 # 3908 <__sf_fake_stdout+0x28>
    2432:	2da5                	jal	2aaa <memchr>
    2434:	cd11                	beqz	a0,2450 <_vfiprintf_r+0x208>
    2436:	00001797          	auipc	a5,0x1
    243a:	4d278793          	addi	a5,a5,1234 # 3908 <__sf_fake_stdout+0x28>
    243e:	8d1d                	sub	a0,a0,a5
    2440:	04000793          	li	a5,64
    2444:	00a797b3          	sll	a5,a5,a0
    2448:	4542                	lw	a0,16(sp)
    244a:	0405                	addi	s0,s0,1
    244c:	8d5d                	or	a0,a0,a5
    244e:	c82a                	sw	a0,16(sp)
    2450:	00044583          	lbu	a1,0(s0)
    2454:	4619                	li	a2,6
    2456:	00001517          	auipc	a0,0x1
    245a:	4b650513          	addi	a0,a0,1206 # 390c <__sf_fake_stdout+0x2c>
    245e:	00140913          	addi	s2,s0,1
    2462:	02b10423          	sb	a1,40(sp)
    2466:	2591                	jal	2aaa <memchr>
    2468:	c13d                	beqz	a0,24ce <_vfiprintf_r+0x286>
    246a:	ffffe797          	auipc	a5,0xffffe
    246e:	b9678793          	addi	a5,a5,-1130 # 0 <_sinit>
    2472:	e795                	bnez	a5,249e <_vfiprintf_r+0x256>
    2474:	4742                	lw	a4,16(sp)
    2476:	47b2                	lw	a5,12(sp)
    2478:	10077713          	andi	a4,a4,256
    247c:	cf09                	beqz	a4,2496 <_vfiprintf_r+0x24e>
    247e:	0791                	addi	a5,a5,4
    2480:	c63e                	sw	a5,12(sp)
    2482:	5792                	lw	a5,36(sp)
    2484:	97d2                	add	a5,a5,s4
    2486:	d23e                	sw	a5,36(sp)
    2488:	b525                	j	22b0 <_vfiprintf_r+0x68>
    248a:	036787b3          	mul	a5,a5,s6
    248e:	4685                	li	a3,1
    2490:	842e                	mv	s0,a1
    2492:	97ba                	add	a5,a5,a4
    2494:	bfbd                	j	2412 <_vfiprintf_r+0x1ca>
    2496:	079d                	addi	a5,a5,7
    2498:	9be1                	andi	a5,a5,-8
    249a:	07a1                	addi	a5,a5,8
    249c:	b7d5                	j	2480 <_vfiprintf_r+0x238>
    249e:	0078                	addi	a4,sp,12
    24a0:	00000697          	auipc	a3,0x0
    24a4:	d6668693          	addi	a3,a3,-666 # 2206 <__sfputs_r>
    24a8:	8626                	mv	a2,s1
    24aa:	080c                	addi	a1,sp,16
    24ac:	854e                	mv	a0,s3
    24ae:	00000097          	auipc	ra,0x0
    24b2:	000000e7          	jalr	zero # 0 <_sinit>
    24b6:	57fd                	li	a5,-1
    24b8:	8a2a                	mv	s4,a0
    24ba:	fcf514e3          	bne	a0,a5,2482 <_vfiprintf_r+0x23a>
    24be:	00c4d783          	lhu	a5,12(s1)
    24c2:	0407f793          	andi	a5,a5,64
    24c6:	ea079ce3          	bnez	a5,237e <_vfiprintf_r+0x136>
    24ca:	5512                	lw	a0,36(sp)
    24cc:	bd55                	j	2380 <_vfiprintf_r+0x138>
    24ce:	0078                	addi	a4,sp,12
    24d0:	00000697          	auipc	a3,0x0
    24d4:	d3668693          	addi	a3,a3,-714 # 2206 <__sfputs_r>
    24d8:	8626                	mv	a2,s1
    24da:	080c                	addi	a1,sp,16
    24dc:	854e                	mv	a0,s3
    24de:	2a01                	jal	25ee <_printf_i>
    24e0:	bfd9                	j	24b6 <_vfiprintf_r+0x26e>

000024e2 <_printf_common>:
_printf_common():
    24e2:	7179                	addi	sp,sp,-48
    24e4:	ca56                	sw	s5,20(sp)
    24e6:	499c                	lw	a5,16(a1)
    24e8:	8aba                	mv	s5,a4
    24ea:	4598                	lw	a4,8(a1)
    24ec:	d422                	sw	s0,40(sp)
    24ee:	d226                	sw	s1,36(sp)
    24f0:	ce4e                	sw	s3,28(sp)
    24f2:	cc52                	sw	s4,24(sp)
    24f4:	d606                	sw	ra,44(sp)
    24f6:	d04a                	sw	s2,32(sp)
    24f8:	c85a                	sw	s6,16(sp)
    24fa:	c65e                	sw	s7,12(sp)
    24fc:	89aa                	mv	s3,a0
    24fe:	842e                	mv	s0,a1
    2500:	84b2                	mv	s1,a2
    2502:	8a36                	mv	s4,a3
    2504:	00e7d363          	bge	a5,a4,250a <_printf_common+0x28>
    2508:	87ba                	mv	a5,a4
    250a:	c09c                	sw	a5,0(s1)
    250c:	04344703          	lbu	a4,67(s0)
    2510:	c319                	beqz	a4,2516 <_printf_common+0x34>
    2512:	0785                	addi	a5,a5,1
    2514:	c09c                	sw	a5,0(s1)
    2516:	401c                	lw	a5,0(s0)
    2518:	0207f793          	andi	a5,a5,32
    251c:	c781                	beqz	a5,2524 <_printf_common+0x42>
    251e:	409c                	lw	a5,0(s1)
    2520:	0789                	addi	a5,a5,2
    2522:	c09c                	sw	a5,0(s1)
    2524:	00042903          	lw	s2,0(s0)
    2528:	00697913          	andi	s2,s2,6
    252c:	00091a63          	bnez	s2,2540 <_printf_common+0x5e>
    2530:	01940b13          	addi	s6,s0,25
    2534:	5bfd                	li	s7,-1
    2536:	445c                	lw	a5,12(s0)
    2538:	4098                	lw	a4,0(s1)
    253a:	8f99                	sub	a5,a5,a4
    253c:	04f94c63          	blt	s2,a5,2594 <_printf_common+0xb2>
    2540:	401c                	lw	a5,0(s0)
    2542:	04344683          	lbu	a3,67(s0)
    2546:	0207f793          	andi	a5,a5,32
    254a:	00d036b3          	snez	a3,a3
    254e:	eba5                	bnez	a5,25be <_printf_common+0xdc>
    2550:	04340613          	addi	a2,s0,67
    2554:	85d2                	mv	a1,s4
    2556:	854e                	mv	a0,s3
    2558:	9a82                	jalr	s5
    255a:	57fd                	li	a5,-1
    255c:	04f50363          	beq	a0,a5,25a2 <_printf_common+0xc0>
    2560:	401c                	lw	a5,0(s0)
    2562:	4611                	li	a2,4
    2564:	4098                	lw	a4,0(s1)
    2566:	8b99                	andi	a5,a5,6
    2568:	4454                	lw	a3,12(s0)
    256a:	4481                	li	s1,0
    256c:	00c79763          	bne	a5,a2,257a <_printf_common+0x98>
    2570:	40e684b3          	sub	s1,a3,a4
    2574:	0004d363          	bgez	s1,257a <_printf_common+0x98>
    2578:	4481                	li	s1,0
    257a:	441c                	lw	a5,8(s0)
    257c:	4818                	lw	a4,16(s0)
    257e:	00f75463          	bge	a4,a5,2586 <_printf_common+0xa4>
    2582:	8f99                	sub	a5,a5,a4
    2584:	94be                	add	s1,s1,a5
    2586:	4901                	li	s2,0
    2588:	0469                	addi	s0,s0,26
    258a:	5b7d                	li	s6,-1
    258c:	05249863          	bne	s1,s2,25dc <_printf_common+0xfa>
    2590:	4501                	li	a0,0
    2592:	a809                	j	25a4 <_printf_common+0xc2>
    2594:	4685                	li	a3,1
    2596:	865a                	mv	a2,s6
    2598:	85d2                	mv	a1,s4
    259a:	854e                	mv	a0,s3
    259c:	9a82                	jalr	s5
    259e:	01751e63          	bne	a0,s7,25ba <_printf_common+0xd8>
    25a2:	557d                	li	a0,-1
    25a4:	50b2                	lw	ra,44(sp)
    25a6:	5422                	lw	s0,40(sp)
    25a8:	5492                	lw	s1,36(sp)
    25aa:	5902                	lw	s2,32(sp)
    25ac:	49f2                	lw	s3,28(sp)
    25ae:	4a62                	lw	s4,24(sp)
    25b0:	4ad2                	lw	s5,20(sp)
    25b2:	4b42                	lw	s6,16(sp)
    25b4:	4bb2                	lw	s7,12(sp)
    25b6:	6145                	addi	sp,sp,48
    25b8:	8082                	ret
    25ba:	0905                	addi	s2,s2,1
    25bc:	bfad                	j	2536 <_printf_common+0x54>
    25be:	00d40733          	add	a4,s0,a3
    25c2:	03000613          	li	a2,48
    25c6:	04c701a3          	sb	a2,67(a4)
    25ca:	04544703          	lbu	a4,69(s0)
    25ce:	00168793          	addi	a5,a3,1
    25d2:	97a2                	add	a5,a5,s0
    25d4:	0689                	addi	a3,a3,2
    25d6:	04e781a3          	sb	a4,67(a5)
    25da:	bf9d                	j	2550 <_printf_common+0x6e>
    25dc:	4685                	li	a3,1
    25de:	8622                	mv	a2,s0
    25e0:	85d2                	mv	a1,s4
    25e2:	854e                	mv	a0,s3
    25e4:	9a82                	jalr	s5
    25e6:	fb650ee3          	beq	a0,s6,25a2 <_printf_common+0xc0>
    25ea:	0905                	addi	s2,s2,1
    25ec:	b745                	j	258c <_printf_common+0xaa>

000025ee <_printf_i>:
_printf_i():
    25ee:	7179                	addi	sp,sp,-48
    25f0:	d422                	sw	s0,40(sp)
    25f2:	d226                	sw	s1,36(sp)
    25f4:	d04a                	sw	s2,32(sp)
    25f6:	ce4e                	sw	s3,28(sp)
    25f8:	d606                	sw	ra,44(sp)
    25fa:	cc52                	sw	s4,24(sp)
    25fc:	ca56                	sw	s5,20(sp)
    25fe:	c85a                	sw	s6,16(sp)
    2600:	89b6                	mv	s3,a3
    2602:	0185c683          	lbu	a3,24(a1)
    2606:	06900793          	li	a5,105
    260a:	8932                	mv	s2,a2
    260c:	84aa                	mv	s1,a0
    260e:	842e                	mv	s0,a1
    2610:	04358613          	addi	a2,a1,67
    2614:	02f68d63          	beq	a3,a5,264e <_printf_i+0x60>
    2618:	06d7e263          	bltu	a5,a3,267c <_printf_i+0x8e>
    261c:	05800793          	li	a5,88
    2620:	18f68763          	beq	a3,a5,27ae <_printf_i+0x1c0>
    2624:	00d7ed63          	bltu	a5,a3,263e <_printf_i+0x50>
    2628:	22068063          	beqz	a3,2848 <_printf_i+0x25a>
    262c:	04300793          	li	a5,67
    2630:	0af68e63          	beq	a3,a5,26ec <_printf_i+0xfe>
    2634:	04240a93          	addi	s5,s0,66
    2638:	04d40123          	sb	a3,66(s0)
    263c:	a0c9                	j	26fe <_printf_i+0x110>
    263e:	06300793          	li	a5,99
    2642:	0af68563          	beq	a3,a5,26ec <_printf_i+0xfe>
    2646:	06400793          	li	a5,100
    264a:	fef695e3          	bne	a3,a5,2634 <_printf_i+0x46>
    264e:	401c                	lw	a5,0(s0)
    2650:	4308                	lw	a0,0(a4)
    2652:	0807f693          	andi	a3,a5,128
    2656:	00450593          	addi	a1,a0,4
    265a:	c6c5                	beqz	a3,2702 <_printf_i+0x114>
    265c:	411c                	lw	a5,0(a0)
    265e:	c30c                	sw	a1,0(a4)
    2660:	0007d863          	bgez	a5,2670 <_printf_i+0x82>
    2664:	02d00713          	li	a4,45
    2668:	40f007b3          	neg	a5,a5
    266c:	04e401a3          	sb	a4,67(s0)
    2670:	00001697          	auipc	a3,0x1
    2674:	2a468693          	addi	a3,a3,676 # 3914 <__sf_fake_stdout+0x34>
    2678:	4729                	li	a4,10
    267a:	a86d                	j	2734 <_printf_i+0x146>
    267c:	07000793          	li	a5,112
    2680:	16f68363          	beq	a3,a5,27e6 <_printf_i+0x1f8>
    2684:	02d7e563          	bltu	a5,a3,26ae <_printf_i+0xc0>
    2688:	06e00793          	li	a5,110
    268c:	18f68a63          	beq	a3,a5,2820 <_printf_i+0x232>
    2690:	06f00793          	li	a5,111
    2694:	faf690e3          	bne	a3,a5,2634 <_printf_i+0x46>
    2698:	400c                	lw	a1,0(s0)
    269a:	431c                	lw	a5,0(a4)
    269c:	0805f813          	andi	a6,a1,128
    26a0:	00478513          	addi	a0,a5,4
    26a4:	06080763          	beqz	a6,2712 <_printf_i+0x124>
    26a8:	c308                	sw	a0,0(a4)
    26aa:	439c                	lw	a5,0(a5)
    26ac:	a88d                	j	271e <_printf_i+0x130>
    26ae:	07500793          	li	a5,117
    26b2:	fef683e3          	beq	a3,a5,2698 <_printf_i+0xaa>
    26b6:	07800793          	li	a5,120
    26ba:	12f68a63          	beq	a3,a5,27ee <_printf_i+0x200>
    26be:	07300793          	li	a5,115
    26c2:	f6f699e3          	bne	a3,a5,2634 <_printf_i+0x46>
    26c6:	431c                	lw	a5,0(a4)
    26c8:	41d0                	lw	a2,4(a1)
    26ca:	4581                	li	a1,0
    26cc:	00478693          	addi	a3,a5,4
    26d0:	c314                	sw	a3,0(a4)
    26d2:	0007aa83          	lw	s5,0(a5)
    26d6:	8556                	mv	a0,s5
    26d8:	2ec9                	jal	2aaa <memchr>
    26da:	c501                	beqz	a0,26e2 <_printf_i+0xf4>
    26dc:	41550533          	sub	a0,a0,s5
    26e0:	c048                	sw	a0,4(s0)
    26e2:	405c                	lw	a5,4(s0)
    26e4:	c81c                	sw	a5,16(s0)
    26e6:	040401a3          	sb	zero,67(s0)
    26ea:	a871                	j	2786 <_printf_i+0x198>
    26ec:	431c                	lw	a5,0(a4)
    26ee:	04240a93          	addi	s5,s0,66
    26f2:	00478693          	addi	a3,a5,4
    26f6:	439c                	lw	a5,0(a5)
    26f8:	c314                	sw	a3,0(a4)
    26fa:	04f40123          	sb	a5,66(s0)
    26fe:	4785                	li	a5,1
    2700:	b7d5                	j	26e4 <_printf_i+0xf6>
    2702:	0407f693          	andi	a3,a5,64
    2706:	411c                	lw	a5,0(a0)
    2708:	c30c                	sw	a1,0(a4)
    270a:	dab9                	beqz	a3,2660 <_printf_i+0x72>
    270c:	07c2                	slli	a5,a5,0x10
    270e:	87c1                	srai	a5,a5,0x10
    2710:	bf81                	j	2660 <_printf_i+0x72>
    2712:	0405f593          	andi	a1,a1,64
    2716:	c308                	sw	a0,0(a4)
    2718:	d9c9                	beqz	a1,26aa <_printf_i+0xbc>
    271a:	0007d783          	lhu	a5,0(a5)
    271e:	06f00713          	li	a4,111
    2722:	0ee68763          	beq	a3,a4,2810 <_printf_i+0x222>
    2726:	00001697          	auipc	a3,0x1
    272a:	1ee68693          	addi	a3,a3,494 # 3914 <__sf_fake_stdout+0x34>
    272e:	4729                	li	a4,10
    2730:	040401a3          	sb	zero,67(s0)
    2734:	404c                	lw	a1,4(s0)
    2736:	c40c                	sw	a1,8(s0)
    2738:	0005c563          	bltz	a1,2742 <_printf_i+0x154>
    273c:	4008                	lw	a0,0(s0)
    273e:	996d                	andi	a0,a0,-5
    2740:	c008                	sw	a0,0(s0)
    2742:	e399                	bnez	a5,2748 <_printf_i+0x15a>
    2744:	8ab2                	mv	s5,a2
    2746:	cd91                	beqz	a1,2762 <_printf_i+0x174>
    2748:	8ab2                	mv	s5,a2
    274a:	02e7f5b3          	remu	a1,a5,a4
    274e:	1afd                	addi	s5,s5,-1
    2750:	95b6                	add	a1,a1,a3
    2752:	0005c583          	lbu	a1,0(a1)
    2756:	00ba8023          	sb	a1,0(s5)
    275a:	02e7d5b3          	divu	a1,a5,a4
    275e:	0ae7ff63          	bgeu	a5,a4,281c <_printf_i+0x22e>
    2762:	47a1                	li	a5,8
    2764:	00f71e63          	bne	a4,a5,2780 <_printf_i+0x192>
    2768:	401c                	lw	a5,0(s0)
    276a:	8b85                	andi	a5,a5,1
    276c:	cb91                	beqz	a5,2780 <_printf_i+0x192>
    276e:	4058                	lw	a4,4(s0)
    2770:	481c                	lw	a5,16(s0)
    2772:	00e7c763          	blt	a5,a4,2780 <_printf_i+0x192>
    2776:	03000793          	li	a5,48
    277a:	fefa8fa3          	sb	a5,-1(s5)
    277e:	1afd                	addi	s5,s5,-1
    2780:	41560633          	sub	a2,a2,s5
    2784:	c810                	sw	a2,16(s0)
    2786:	874e                	mv	a4,s3
    2788:	86ca                	mv	a3,s2
    278a:	0070                	addi	a2,sp,12
    278c:	85a2                	mv	a1,s0
    278e:	8526                	mv	a0,s1
    2790:	3b89                	jal	24e2 <_printf_common>
    2792:	5a7d                	li	s4,-1
    2794:	0b451e63          	bne	a0,s4,2850 <_printf_i+0x262>
    2798:	557d                	li	a0,-1
    279a:	50b2                	lw	ra,44(sp)
    279c:	5422                	lw	s0,40(sp)
    279e:	5492                	lw	s1,36(sp)
    27a0:	5902                	lw	s2,32(sp)
    27a2:	49f2                	lw	s3,28(sp)
    27a4:	4a62                	lw	s4,24(sp)
    27a6:	4ad2                	lw	s5,20(sp)
    27a8:	4b42                	lw	s6,16(sp)
    27aa:	6145                	addi	sp,sp,48
    27ac:	8082                	ret
    27ae:	04d582a3          	sb	a3,69(a1)
    27b2:	00001697          	auipc	a3,0x1
    27b6:	16268693          	addi	a3,a3,354 # 3914 <__sf_fake_stdout+0x34>
    27ba:	400c                	lw	a1,0(s0)
    27bc:	4308                	lw	a0,0(a4)
    27be:	0805f813          	andi	a6,a1,128
    27c2:	411c                	lw	a5,0(a0)
    27c4:	0511                	addi	a0,a0,4
    27c6:	02080d63          	beqz	a6,2800 <_printf_i+0x212>
    27ca:	c308                	sw	a0,0(a4)
    27cc:	0015f713          	andi	a4,a1,1
    27d0:	c701                	beqz	a4,27d8 <_printf_i+0x1ea>
    27d2:	0205e593          	ori	a1,a1,32
    27d6:	c00c                	sw	a1,0(s0)
    27d8:	4741                	li	a4,16
    27da:	fbb9                	bnez	a5,2730 <_printf_i+0x142>
    27dc:	400c                	lw	a1,0(s0)
    27de:	fdf5f593          	andi	a1,a1,-33
    27e2:	c00c                	sw	a1,0(s0)
    27e4:	b7b1                	j	2730 <_printf_i+0x142>
    27e6:	419c                	lw	a5,0(a1)
    27e8:	0207e793          	ori	a5,a5,32
    27ec:	c19c                	sw	a5,0(a1)
    27ee:	07800793          	li	a5,120
    27f2:	04f402a3          	sb	a5,69(s0)
    27f6:	00001697          	auipc	a3,0x1
    27fa:	13268693          	addi	a3,a3,306 # 3928 <__sf_fake_stdout+0x48>
    27fe:	bf75                	j	27ba <_printf_i+0x1cc>
    2800:	0405f813          	andi	a6,a1,64
    2804:	c308                	sw	a0,0(a4)
    2806:	fc0803e3          	beqz	a6,27cc <_printf_i+0x1de>
    280a:	07c2                	slli	a5,a5,0x10
    280c:	83c1                	srli	a5,a5,0x10
    280e:	bf7d                	j	27cc <_printf_i+0x1de>
    2810:	00001697          	auipc	a3,0x1
    2814:	10468693          	addi	a3,a3,260 # 3914 <__sf_fake_stdout+0x34>
    2818:	4721                	li	a4,8
    281a:	bf19                	j	2730 <_printf_i+0x142>
    281c:	87ae                	mv	a5,a1
    281e:	b735                	j	274a <_printf_i+0x15c>
    2820:	4194                	lw	a3,0(a1)
    2822:	431c                	lw	a5,0(a4)
    2824:	49cc                	lw	a1,20(a1)
    2826:	0806f813          	andi	a6,a3,128
    282a:	00478513          	addi	a0,a5,4
    282e:	00080663          	beqz	a6,283a <_printf_i+0x24c>
    2832:	c308                	sw	a0,0(a4)
    2834:	439c                	lw	a5,0(a5)
    2836:	c38c                	sw	a1,0(a5)
    2838:	a801                	j	2848 <_printf_i+0x25a>
    283a:	c308                	sw	a0,0(a4)
    283c:	0406f693          	andi	a3,a3,64
    2840:	439c                	lw	a5,0(a5)
    2842:	daf5                	beqz	a3,2836 <_printf_i+0x248>
    2844:	00b79023          	sh	a1,0(a5)
    2848:	00042823          	sw	zero,16(s0)
    284c:	8ab2                	mv	s5,a2
    284e:	bf25                	j	2786 <_printf_i+0x198>
    2850:	4814                	lw	a3,16(s0)
    2852:	8656                	mv	a2,s5
    2854:	85ca                	mv	a1,s2
    2856:	8526                	mv	a0,s1
    2858:	9982                	jalr	s3
    285a:	f3450fe3          	beq	a0,s4,2798 <_printf_i+0x1aa>
    285e:	401c                	lw	a5,0(s0)
    2860:	8b89                	andi	a5,a5,2
    2862:	e78d                	bnez	a5,288c <_printf_i+0x29e>
    2864:	47b2                	lw	a5,12(sp)
    2866:	4448                	lw	a0,12(s0)
    2868:	f2f559e3          	bge	a0,a5,279a <_printf_i+0x1ac>
    286c:	853e                	mv	a0,a5
    286e:	b735                	j	279a <_printf_i+0x1ac>
    2870:	4685                	li	a3,1
    2872:	8656                	mv	a2,s5
    2874:	85ca                	mv	a1,s2
    2876:	8526                	mv	a0,s1
    2878:	9982                	jalr	s3
    287a:	f1650fe3          	beq	a0,s6,2798 <_printf_i+0x1aa>
    287e:	0a05                	addi	s4,s4,1
    2880:	445c                	lw	a5,12(s0)
    2882:	4732                	lw	a4,12(sp)
    2884:	8f99                	sub	a5,a5,a4
    2886:	fefa45e3          	blt	s4,a5,2870 <_printf_i+0x282>
    288a:	bfe9                	j	2864 <_printf_i+0x276>
    288c:	4a01                	li	s4,0
    288e:	01940a93          	addi	s5,s0,25
    2892:	5b7d                	li	s6,-1
    2894:	b7f5                	j	2880 <_printf_i+0x292>

00002896 <_putc_r>:
_putc_r():
    2896:	1101                	addi	sp,sp,-32
    2898:	cc22                	sw	s0,24(sp)
    289a:	ce06                	sw	ra,28(sp)
    289c:	842a                	mv	s0,a0
    289e:	c909                	beqz	a0,28b0 <_putc_r+0x1a>
    28a0:	4d1c                	lw	a5,24(a0)
    28a2:	e799                	bnez	a5,28b0 <_putc_r+0x1a>
    28a4:	c632                	sw	a2,12(sp)
    28a6:	c42e                	sw	a1,8(sp)
    28a8:	ec0ff0ef          	jal	ra,1f68 <__sinit>
    28ac:	4632                	lw	a2,12(sp)
    28ae:	45a2                	lw	a1,8(sp)
    28b0:	00001797          	auipc	a5,0x1
    28b4:	01078793          	addi	a5,a5,16 # 38c0 <__sf_fake_stdin>
    28b8:	02f61663          	bne	a2,a5,28e4 <_putc_r+0x4e>
    28bc:	4050                	lw	a2,4(s0)
    28be:	461c                	lw	a5,8(a2)
    28c0:	17fd                	addi	a5,a5,-1
    28c2:	c61c                	sw	a5,8(a2)
    28c4:	0407d063          	bgez	a5,2904 <_putc_r+0x6e>
    28c8:	4e18                	lw	a4,24(a2)
    28ca:	00e7c763          	blt	a5,a4,28d8 <_putc_r+0x42>
    28ce:	0ff5f793          	andi	a5,a1,255
    28d2:	4729                	li	a4,10
    28d4:	02e79863          	bne	a5,a4,2904 <_putc_r+0x6e>
    28d8:	8522                	mv	a0,s0
    28da:	4462                	lw	s0,24(sp)
    28dc:	40f2                	lw	ra,28(sp)
    28de:	6105                	addi	sp,sp,32
    28e0:	a58ff06f          	j	1b38 <__swbuf_r>
    28e4:	00001797          	auipc	a5,0x1
    28e8:	ffc78793          	addi	a5,a5,-4 # 38e0 <__sf_fake_stdout>
    28ec:	00f61463          	bne	a2,a5,28f4 <_putc_r+0x5e>
    28f0:	4410                	lw	a2,8(s0)
    28f2:	b7f1                	j	28be <_putc_r+0x28>
    28f4:	00001797          	auipc	a5,0x1
    28f8:	fac78793          	addi	a5,a5,-84 # 38a0 <__sf_fake_stderr>
    28fc:	fcf611e3          	bne	a2,a5,28be <_putc_r+0x28>
    2900:	4450                	lw	a2,12(s0)
    2902:	bf75                	j	28be <_putc_r+0x28>
    2904:	421c                	lw	a5,0(a2)
    2906:	0ff5f513          	andi	a0,a1,255
    290a:	00178713          	addi	a4,a5,1
    290e:	c218                	sw	a4,0(a2)
    2910:	00b78023          	sb	a1,0(a5)
    2914:	40f2                	lw	ra,28(sp)
    2916:	4462                	lw	s0,24(sp)
    2918:	6105                	addi	sp,sp,32
    291a:	8082                	ret

0000291c <__sread>:
__sread():
    291c:	1141                	addi	sp,sp,-16
    291e:	c422                	sw	s0,8(sp)
    2920:	842e                	mv	s0,a1
    2922:	00e59583          	lh	a1,14(a1)
    2926:	c606                	sw	ra,12(sp)
    2928:	2a71                	jal	2ac4 <_read_r>
    292a:	00054963          	bltz	a0,293c <__sread+0x20>
    292e:	487c                	lw	a5,84(s0)
    2930:	97aa                	add	a5,a5,a0
    2932:	c87c                	sw	a5,84(s0)
    2934:	40b2                	lw	ra,12(sp)
    2936:	4422                	lw	s0,8(sp)
    2938:	0141                	addi	sp,sp,16
    293a:	8082                	ret
    293c:	00c45783          	lhu	a5,12(s0)
    2940:	777d                	lui	a4,0xfffff
    2942:	177d                	addi	a4,a4,-1
    2944:	8ff9                	and	a5,a5,a4
    2946:	00f41623          	sh	a5,12(s0)
    294a:	b7ed                	j	2934 <__sread+0x18>

0000294c <__swrite>:
__swrite():
    294c:	00c5d783          	lhu	a5,12(a1)
    2950:	1101                	addi	sp,sp,-32
    2952:	cc22                	sw	s0,24(sp)
    2954:	ca26                	sw	s1,20(sp)
    2956:	c84a                	sw	s2,16(sp)
    2958:	c64e                	sw	s3,12(sp)
    295a:	ce06                	sw	ra,28(sp)
    295c:	1007f793          	andi	a5,a5,256
    2960:	84aa                	mv	s1,a0
    2962:	842e                	mv	s0,a1
    2964:	8932                	mv	s2,a2
    2966:	89b6                	mv	s3,a3
    2968:	c791                	beqz	a5,2974 <__swrite+0x28>
    296a:	00e59583          	lh	a1,14(a1)
    296e:	4689                	li	a3,2
    2970:	4601                	li	a2,0
    2972:	2231                	jal	2a7e <_lseek_r>
    2974:	00c45783          	lhu	a5,12(s0)
    2978:	777d                	lui	a4,0xfffff
    297a:	177d                	addi	a4,a4,-1
    297c:	8ff9                	and	a5,a5,a4
    297e:	00f41623          	sh	a5,12(s0)
    2982:	00e41583          	lh	a1,14(s0)
    2986:	4462                	lw	s0,24(sp)
    2988:	40f2                	lw	ra,28(sp)
    298a:	86ce                	mv	a3,s3
    298c:	864a                	mv	a2,s2
    298e:	49b2                	lw	s3,12(sp)
    2990:	4942                	lw	s2,16(sp)
    2992:	8526                	mv	a0,s1
    2994:	44d2                	lw	s1,20(sp)
    2996:	6105                	addi	sp,sp,32
    2998:	a83d                	j	29d6 <_write_r>

0000299a <__sseek>:
__sseek():
    299a:	1141                	addi	sp,sp,-16
    299c:	c422                	sw	s0,8(sp)
    299e:	842e                	mv	s0,a1
    29a0:	00e59583          	lh	a1,14(a1)
    29a4:	c606                	sw	ra,12(sp)
    29a6:	28e1                	jal	2a7e <_lseek_r>
    29a8:	57fd                	li	a5,-1
    29aa:	00c45703          	lhu	a4,12(s0)
    29ae:	00f51b63          	bne	a0,a5,29c4 <__sseek+0x2a>
    29b2:	77fd                	lui	a5,0xfffff
    29b4:	17fd                	addi	a5,a5,-1
    29b6:	8ff9                	and	a5,a5,a4
    29b8:	00f41623          	sh	a5,12(s0)
    29bc:	40b2                	lw	ra,12(sp)
    29be:	4422                	lw	s0,8(sp)
    29c0:	0141                	addi	sp,sp,16
    29c2:	8082                	ret
    29c4:	6785                	lui	a5,0x1
    29c6:	8fd9                	or	a5,a5,a4
    29c8:	00f41623          	sh	a5,12(s0)
    29cc:	c868                	sw	a0,84(s0)
    29ce:	b7fd                	j	29bc <__sseek+0x22>

000029d0 <__sclose>:
__sclose():
    29d0:	00e59583          	lh	a1,14(a1)
    29d4:	a805                	j	2a04 <_close_r>

000029d6 <_write_r>:
_write_r():
    29d6:	1141                	addi	sp,sp,-16
    29d8:	c422                	sw	s0,8(sp)
    29da:	842a                	mv	s0,a0
    29dc:	852e                	mv	a0,a1
    29de:	85b2                	mv	a1,a2
    29e0:	8636                	mv	a2,a3
    29e2:	8401a623          	sw	zero,-1972(gp) # 200040ac <errno>
    29e6:	c606                	sw	ra,12(sp)
    29e8:	cd5fe0ef          	jal	ra,16bc <_write>
    29ec:	57fd                	li	a5,-1
    29ee:	00f51763          	bne	a0,a5,29fc <_write_r+0x26>
    29f2:	84c18793          	addi	a5,gp,-1972 # 200040ac <errno>
    29f6:	439c                	lw	a5,0(a5)
    29f8:	c391                	beqz	a5,29fc <_write_r+0x26>
    29fa:	c01c                	sw	a5,0(s0)
    29fc:	40b2                	lw	ra,12(sp)
    29fe:	4422                	lw	s0,8(sp)
    2a00:	0141                	addi	sp,sp,16
    2a02:	8082                	ret

00002a04 <_close_r>:
_close_r():
    2a04:	1141                	addi	sp,sp,-16
    2a06:	c422                	sw	s0,8(sp)
    2a08:	842a                	mv	s0,a0
    2a0a:	852e                	mv	a0,a1
    2a0c:	8401a623          	sw	zero,-1972(gp) # 200040ac <errno>
    2a10:	c606                	sw	ra,12(sp)
    2a12:	28f9                	jal	2af0 <_close>
    2a14:	57fd                	li	a5,-1
    2a16:	00f51763          	bne	a0,a5,2a24 <_close_r+0x20>
    2a1a:	84c18793          	addi	a5,gp,-1972 # 200040ac <errno>
    2a1e:	439c                	lw	a5,0(a5)
    2a20:	c391                	beqz	a5,2a24 <_close_r+0x20>
    2a22:	c01c                	sw	a5,0(s0)
    2a24:	40b2                	lw	ra,12(sp)
    2a26:	4422                	lw	s0,8(sp)
    2a28:	0141                	addi	sp,sp,16
    2a2a:	8082                	ret

00002a2c <_fstat_r>:
_fstat_r():
    2a2c:	1141                	addi	sp,sp,-16
    2a2e:	c422                	sw	s0,8(sp)
    2a30:	842a                	mv	s0,a0
    2a32:	852e                	mv	a0,a1
    2a34:	85b2                	mv	a1,a2
    2a36:	8401a623          	sw	zero,-1972(gp) # 200040ac <errno>
    2a3a:	c606                	sw	ra,12(sp)
    2a3c:	20c1                	jal	2afc <_fstat>
    2a3e:	57fd                	li	a5,-1
    2a40:	00f51763          	bne	a0,a5,2a4e <_fstat_r+0x22>
    2a44:	84c18793          	addi	a5,gp,-1972 # 200040ac <errno>
    2a48:	439c                	lw	a5,0(a5)
    2a4a:	c391                	beqz	a5,2a4e <_fstat_r+0x22>
    2a4c:	c01c                	sw	a5,0(s0)
    2a4e:	40b2                	lw	ra,12(sp)
    2a50:	4422                	lw	s0,8(sp)
    2a52:	0141                	addi	sp,sp,16
    2a54:	8082                	ret

00002a56 <_isatty_r>:
_isatty_r():
    2a56:	1141                	addi	sp,sp,-16
    2a58:	c422                	sw	s0,8(sp)
    2a5a:	842a                	mv	s0,a0
    2a5c:	852e                	mv	a0,a1
    2a5e:	8401a623          	sw	zero,-1972(gp) # 200040ac <errno>
    2a62:	c606                	sw	ra,12(sp)
    2a64:	2055                	jal	2b08 <_isatty>
    2a66:	57fd                	li	a5,-1
    2a68:	00f51763          	bne	a0,a5,2a76 <_isatty_r+0x20>
    2a6c:	84c18793          	addi	a5,gp,-1972 # 200040ac <errno>
    2a70:	439c                	lw	a5,0(a5)
    2a72:	c391                	beqz	a5,2a76 <_isatty_r+0x20>
    2a74:	c01c                	sw	a5,0(s0)
    2a76:	40b2                	lw	ra,12(sp)
    2a78:	4422                	lw	s0,8(sp)
    2a7a:	0141                	addi	sp,sp,16
    2a7c:	8082                	ret

00002a7e <_lseek_r>:
_lseek_r():
    2a7e:	1141                	addi	sp,sp,-16
    2a80:	c422                	sw	s0,8(sp)
    2a82:	842a                	mv	s0,a0
    2a84:	852e                	mv	a0,a1
    2a86:	85b2                	mv	a1,a2
    2a88:	8636                	mv	a2,a3
    2a8a:	8401a623          	sw	zero,-1972(gp) # 200040ac <errno>
    2a8e:	c606                	sw	ra,12(sp)
    2a90:	2051                	jal	2b14 <_lseek>
    2a92:	57fd                	li	a5,-1
    2a94:	00f51763          	bne	a0,a5,2aa2 <_lseek_r+0x24>
    2a98:	84c18793          	addi	a5,gp,-1972 # 200040ac <errno>
    2a9c:	439c                	lw	a5,0(a5)
    2a9e:	c391                	beqz	a5,2aa2 <_lseek_r+0x24>
    2aa0:	c01c                	sw	a5,0(s0)
    2aa2:	40b2                	lw	ra,12(sp)
    2aa4:	4422                	lw	s0,8(sp)
    2aa6:	0141                	addi	sp,sp,16
    2aa8:	8082                	ret

00002aaa <memchr>:
memchr():
    2aaa:	0ff5f593          	andi	a1,a1,255
    2aae:	962a                	add	a2,a2,a0
    2ab0:	00c51463          	bne	a0,a2,2ab8 <memchr+0xe>
    2ab4:	4501                	li	a0,0
    2ab6:	8082                	ret
    2ab8:	00054783          	lbu	a5,0(a0)
    2abc:	feb78de3          	beq	a5,a1,2ab6 <memchr+0xc>
    2ac0:	0505                	addi	a0,a0,1
    2ac2:	b7fd                	j	2ab0 <memchr+0x6>

00002ac4 <_read_r>:
_read_r():
    2ac4:	1141                	addi	sp,sp,-16
    2ac6:	c422                	sw	s0,8(sp)
    2ac8:	842a                	mv	s0,a0
    2aca:	852e                	mv	a0,a1
    2acc:	85b2                	mv	a1,a2
    2ace:	8636                	mv	a2,a3
    2ad0:	8401a623          	sw	zero,-1972(gp) # 200040ac <errno>
    2ad4:	c606                	sw	ra,12(sp)
    2ad6:	20a9                	jal	2b20 <_read>
    2ad8:	57fd                	li	a5,-1
    2ada:	00f51763          	bne	a0,a5,2ae8 <_read_r+0x24>
    2ade:	84c18793          	addi	a5,gp,-1972 # 200040ac <errno>
    2ae2:	439c                	lw	a5,0(a5)
    2ae4:	c391                	beqz	a5,2ae8 <_read_r+0x24>
    2ae6:	c01c                	sw	a5,0(s0)
    2ae8:	40b2                	lw	ra,12(sp)
    2aea:	4422                	lw	s0,8(sp)
    2aec:	0141                	addi	sp,sp,16
    2aee:	8082                	ret

00002af0 <_close>:
_close():
    2af0:	05800793          	li	a5,88
    2af4:	84f1a623          	sw	a5,-1972(gp) # 200040ac <errno>
    2af8:	557d                	li	a0,-1
    2afa:	8082                	ret

00002afc <_fstat>:
_fstat():
    2afc:	05800793          	li	a5,88
    2b00:	84f1a623          	sw	a5,-1972(gp) # 200040ac <errno>
    2b04:	557d                	li	a0,-1
    2b06:	8082                	ret

00002b08 <_isatty>:
_isatty():
    2b08:	05800793          	li	a5,88
    2b0c:	84f1a623          	sw	a5,-1972(gp) # 200040ac <errno>
    2b10:	4501                	li	a0,0
    2b12:	8082                	ret

00002b14 <_lseek>:
_lseek():
    2b14:	05800793          	li	a5,88
    2b18:	84f1a623          	sw	a5,-1972(gp) # 200040ac <errno>
    2b1c:	557d                	li	a0,-1
    2b1e:	8082                	ret

00002b20 <_read>:
_read():
    2b20:	05800793          	li	a5,88
    2b24:	84f1a623          	sw	a5,-1972(gp) # 200040ac <errno>
    2b28:	557d                	li	a0,-1
    2b2a:	8082                	ret

00002b2c <ascii_12x6>:
	...
    2b38:	0000 00fc 0000 0000 0002 0000 0c00 0c02     ................
    2b48:	0002 0000 0000 0000 d090 d0bc 90bc 0300     ................
    2b58:	0300 0000 2418 44fe 008c 0203 0207 0001     .....$.D........
    2b68:	2418 b0d8 804c 0300 0100 0102 38c0 38e4     .$..L........8.8
    2b78:	00e0 0201 0102 0202 0608 0000 0000 0000     ................
    2b88:	0000 0000 0000 f800 0204 0000 0100 0402     ................
    2b98:	0200 f804 0000 0400 0102 0000 6090 60f8     .............`.`
    2ba8:	0090 0000 0001 0000 2020 20fc 0020 0000     ........  .  ...
    2bb8:	0001 0000 0000 0000 0000 0608 0000 0000     ................
    2bc8:	2020 2020 0020 0000 0000 0000 0000 0000          ...........
    2bd8:	0000 0200 0000 0000 8000 1c60 0002 0304     ..........`.....
    2be8:	0000 0000 04f8 0404 00f8 0201 0202 0001     ................
    2bf8:	0800 00fc 0000 0200 0203 0000 8418 2444     ..............D$
    2c08:	0018 0203 0202 0002 0408 2424 00d8 0201     ..........$$....
    2c18:	0202 0001 b040 fc88 0080 0000 0300 0002     ....@...........
    2c28:	243c 2424 00c4 0201 0202 0001 24f8 2c24     <$$$.........$$,
    2c38:	00c0 0201 0202 0001 040c 1ce4 0004 0000     ................
    2c48:	0003 0000 24d8 2424 00d8 0201 0202 0001     .....$$$........
    2c58:	4438 4444 00f8 0300 0202 0001 0000 0010     8DDD............
    2c68:	0000 0000 0002 0000 0000 0020 0000 0000     .......... .....
    2c78:	0006 0000 2000 8850 0204 0000 0000 0201     ..... P.........
    2c88:	9090 9090 0090 0000 0000 0000 0200 8804     ................
    2c98:	2050 0200 0001 0000 0418 24c4 0018 0000     P .........$....
    2ca8:	0002 0000 04f8 94e4 00f8 0201 0202 0002     ................
    2cb8:	e000 f09c 0080 0302 0000 0203 fc04 2424     ..............$$
    2cc8:	00d8 0302 0202 0001 04f8 0404 000c 0201     ................
    2cd8:	0202 0001 fc04 0404 00f8 0302 0202 0001     ................
    2ce8:	fc04 7424 000c 0302 0202 0003 fc04 7424     ..$t..........$t
    2cf8:	000c 0302 0002 0000 08f0 4404 40cc 0100     ...........D.@..
    2d08:	0202 0001 fc04 2020 04fc 0302 0000 0203     ......  ........
    2d18:	0404 04fc 0004 0202 0203 0002 0400 fc04     ................
    2d28:	0404 0406 0304 0000 fc04 d024 040c 0302     ..........$.....
    2d38:	0002 0203 fc04 0004 0000 0302 0202 0302     ................
    2d48:	3cfc 3cc0 00fc 0003 0003 0003 fc04 c430     .<.<..........0.
    2d58:	04fc 0302 0002 0003 04f8 0404 00f8 0201     ................
    2d68:	0202 0001 fc04 2424 0018 0302 0002 0000     ......$$........
    2d78:	84f8 0484 00f8 0201 0702 0005 fc04 6424     ..............$d
    2d88:	0098 0302 0002 0203 2418 4424 008c 0203     .........$$D....
    2d98:	0202 0001 040c 04fc 000c 0200 0203 0000     ................
    2da8:	fc04 0000 04fc 0100 0202 0001 7c04 e080     .............|..
    2db8:	041c 0000 0003 0000 e01c e03c 001c 0300     ..........<.....
    2dc8:	0300 0000 9c04 9c60 0004 0302 0300 0002     ......`.........
    2dd8:	1c04 1ce0 0004 0200 0203 0000 840c 1c64     ..............d.
    2de8:	0004 0302 0202 0003 0000 02fe 0002 0000     ................
    2df8:	0407 0004 0e00 c030 0000 0000 0100 0002     ......0.........
    2e08:	0200 fe02 0000 0400 0704 0000 0400 0402     ................
	...
    2e24:	0000 0808 0808 0808 0000 0002 0000 0000     ................
    2e34:	0000 0000 4000 a0a0 00c0 0100 0202 0203     .....@..........
    2e44:	fc04 2020 00c0 0300 0202 0001 c000 2020     ..  ..........  
    2e54:	0060 0100 0202 0002 c000 2420 00fc 0100     `......... $....
    2e64:	0202 0203 c000 a0a0 00c0 0100 0202 0002     ................
    2e74:	2000 24f8 0424 0200 0203 0002 4000 a0a0     . .$$........@..
    2e84:	2060 0700 0a0a 040a fc04 2020 00c0 0302     ` ........  ....
    2e94:	0002 0203 2000 00e4 0000 0200 0203 0000     ..... ..........
    2ea4:	0000 e420 0000 0808 0708 0000 fc04 e080     .. .............
    2eb4:	2020 0302 0002 0203 0404 00fc 0000 0202       ..............
    2ec4:	0203 0002 20e0 20e0 00c0 0003 0003 0003     ..... . ........
    2ed4:	e020 2020 00c0 0302 0002 0203 c000 2020      .  ..........  
    2ee4:	00c0 0100 0202 0001 e020 2020 00c0 0f08     ........ .  ....
    2ef4:	020a 0001 c000 2020 00e0 0100 0a02 080f     ......  ........
    2f04:	e020 2040 0020 0302 0002 0000 6000 a0a0      .@  ........`..
    2f14:	0020 0200 0202 0003 2000 20f8 0000 0000      ........ . ....
    2f24:	0201 0002 e020 2000 00e0 0100 0202 0203     .... .. ........
    2f34:	e020 8020 2060 0000 0103 0000 8060 80e0      . .` ......`...
    2f44:	0060 0300 0300 0000 6020 6080 0020 0302     `....... `.` ...
    2f54:	0300 0002 e020 8020 2060 0808 0107 0000     .... . .` ......
    2f64:	2000 60a0 0020 0200 0203 0002 0000 de20     . .` ......... .
    2f74:	0002 0000 0700 0004 0000 ff00 0000 0000     ................
    2f84:	0f00 0000 0200 20de 0000 0400 0007 0000     ....... ........
    2f94:	0102 0402 0204 0000 0000 0000               ............

00002fa0 <ascii_16x8>:
	...
    2fb0:	0000 0800 0808 0808 0808 0000 1818 0000     ................
    2fc0:	4800 246c 0012 0000 0000 0000 0000 0000     .Hl$............
    2fd0:	0000 2400 2424 127f 1212 127f 1212 0000     ...$$$..........
    2fe0:	0000 1c08 2a2a 0c0a 2818 2a28 1c2a 0808     ....**...((**...
    2ff0:	0000 2200 1525 1515 582a 5454 2254 0000     ..."%...*XTTT"..
    3000:	0000 0c00 1212 0a12 2576 1129 6e91 0000     ........v%)..n..
    3010:	0600 0406 0003 0000 0000 0000 0000 0000     ................
    3020:	4000 1020 0810 0808 0808 1008 2010 0040     .@ .......... @.
    3030:	0200 0804 1008 1010 1010 0810 0408 0002     ................
    3040:	0000 0000 0808 1c6b 6b1c 0808 0000 0000     ......k..k......
    3050:	0000 0000 0808 0808 087f 0808 0008 0000     ................
	...
    306c:	0606 0304 0000 0000 0000 0000 00fe 0000     ................
	...
    308c:	0606 0000 0000 4080 2040 1020 0810 0408     .......@@  .....
    309c:	0204 0002 0000 1800 4224 4242 4242 4242     ........$BBBBBBB
    30ac:	1824 0000 0000 0800 080e 0808 0808 0808     $...............
    30bc:	3e08 0000 0000 3c00 4242 2042 1020 0408     .>.....<BBB  ...
    30cc:	7e42 0000 0000 3c00 4242 1820 4020 4240     B~.....<BB . @@B
    30dc:	1c22 0000 0000 2000 2830 2424 2222 207e     "...... 0($$""~ 
    30ec:	7820 0000 0000 7e00 0202 1a02 4026 4240      x.....~....&@@B
    30fc:	1c22 0000 0000 3800 0224 1a02 4226 4242     "......8$...&BBB
    310c:	1824 0000 0000 7e00 2222 1010 0808 0808     $......~""......
    311c:	0808 0000 0000 3c00 4242 2442 2418 4242     .......<BBB$.$BB
    312c:	3c42 0000 0000 1800 4224 4242 5864 4040     B<......$BBBdX@@
    313c:	1c24 0000 0000 0000 0000 1818 0000 0000     $...............
    314c:	1818 0000 0000 0000 0000 0800 0000 0000     ................
    315c:	0800 0408 0000 4000 1020 0408 0402 1008     .......@ .......
    316c:	4020 0000 0000 0000 0000 007f 0000 007f      @..............
    317c:	0000 0000 0000 0200 0804 2010 2040 0810     ........... @ ..
    318c:	0204 0000 0000 3c00 4242 4046 1020 0010     .......<BBF@ ...
    319c:	1818 0000 0000 1c00 5a22 5555 5555 422d     ........"ZUUUU-B
    31ac:	1c22 0000 0000 0800 1808 1414 3c24 4222     "...........$<"B
    31bc:	e742 0000 0000 1f00 2222 1e22 4222 4242     B......."""."BBB
    31cc:	1f22 0000 0000 7c00 4242 0101 0101 4201     "......|BB.....B
    31dc:	1c22 0000 0000 1f00 4222 4242 4242 4242     "......."BBBBBBB
    31ec:	1f22 0000 0000 3f00 1242 1e12 1212 4202     "......?B......B
    31fc:	3f42 0000 0000 3f00 1242 1e12 1212 0202     B?.....?B.......
    320c:	0702 0000 0000 3c00 2222 0101 7101 2221     .......<""...q!"
    321c:	1c22 0000 0000 e700 4242 4242 427e 4242     ".......BBBB~BBB
    322c:	e742 0000 0000 3e00 0808 0808 0808 0808     B......>........
    323c:	3e08 0000 0000 7c00 1010 1010 1010 1010     .>.....|........
    324c:	1010 0f11 0000 7700 1222 0e0a 120a 2212     .......w"......"
    325c:	7722 0000 0000 0700 0202 0202 0202 0202     "w..............
    326c:	7f42 0000 0000 7700 3636 3636 2a2a 2a2a     B......w6666****
    327c:	6b2a 0000 0000 e300 4646 4a4a 5252 6252     *k......FFJJRRRb
    328c:	4762 0000 0000 1c00 4122 4141 4141 4141     bG......"AAAAAAA
    329c:	1c22 0000 0000 3f00 4242 4242 023e 0202     "......?BBBB>...
    32ac:	0702 0000 0000 1c00 4122 4141 4141 534d     ........"AAAAAMS
    32bc:	1c32 0060 0000 3f00 4242 3e42 1212 2222     2.`....?BBB>..""
    32cc:	c742 0000 0000 7c00 4242 0402 2018 4240     B......|BB... @B
    32dc:	3e42 0000 0000 7f00 0849 0808 0808 0808     B>......I.......
    32ec:	1c08 0000 0000 e700 4242 4242 4242 4242     ........BBBBBBBB
    32fc:	3c42 0000 0000 e700 4242 2422 1424 1814     B<......BB"$$...
    330c:	0808 0000 0000 6b00 4949 4949 5555 2236     .......kIIIIUU6"
    331c:	2222 0000 0000 e700 2442 1824 1818 2424     ""......B$$...$$
    332c:	e742 0000 0000 7700 2222 1414 0808 0808     B......w""......
    333c:	1c08 0000 0000 7e00 2021 1010 0408 4204     .......~! .....B
    334c:	3f42 0000 7800 0808 0808 0808 0808 0808     B?...x..........
    335c:	0808 0078 0000 0202 0404 0808 1008 2010     ..x............ 
    336c:	2020 4040 1e00 1010 1010 1010 1010 1010       @@............
    337c:	1010 001e 3800 0044 0000 0000 0000 0000     .....8D.........
	...
    339c:	0000 ff00 0600 0008 0000 0000 0000 0000     ................
	...
    33b4:	0000 3c00 7842 4244 fc42 0000 0000 0300     ...<BxDBB.......
    33c4:	0202 1a02 4226 4242 1a26 0000 0000 0000     ....&BBB&.......
    33d4:	0000 3800 0244 0202 3844 0000 0000 6000     ...8D...D8.....`
    33e4:	4040 7840 4244 4242 d864 0000 0000 0000     @@@xDBBBd.......
    33f4:	0000 3c00 7e42 0202 3c42 0000 0000 f000     ...<B~..B<......
    3404:	0888 7e08 0808 0808 3e08 0000 0000 0000     ...~.....>......
    3414:	0000 7c00 2222 021c 423c 3c42 0000 0300     ...|""..<BB<....
    3424:	0202 3a02 4246 4242 e742 0000 0000 0c00     ...:FBBBB.......
    3434:	000c 0e00 0808 0808 3e08 0000 0000 3000     .........>.....0
    3444:	0030 3800 2020 2020 2020 1e22 0000 0300     0..8      ".....
    3454:	0202 7202 0a12 1216 7722 0000 0000 0e00     ...r...."w......
    3464:	0808 0808 0808 0808 3e08 0000 0000 0000     .........>......
    3474:	0000 7f00 9292 9292 b792 0000 0000 0000     ................
    3484:	0000 3b00 4246 4242 e742 0000 0000 0000     ...;FBBBB.......
    3494:	0000 3c00 4242 4242 3c42 0000 0000 0000     ...<BBBBB<......
    34a4:	0000 1b00 4226 4242 1e22 0702 0000 0000     ....&BBB".......
    34b4:	0000 7800 4244 4242 7844 e040 0000 0000     ...xDBBBDx@.....
    34c4:	0000 7700 044c 0404 1f04 0000 0000 0000     ...wL...........
    34d4:	0000 7c00 0242 403c 3e42 0000 0000 0000     ...|B.<@B>......
    34e4:	0800 3e08 0808 0808 3008 0000 0000 0000     ...>.....0......
    34f4:	0000 6300 4242 4242 dc62 0000 0000 0000     ...cBBBBb.......
    3504:	0000 e700 2442 1424 0808 0000 0000 0000     ....B$$.........
    3514:	0000 eb00 4949 5555 2222 0000 0000 0000     ....IIUU""......
    3524:	0000 7600 1824 1818 6e24 0000 0000 0000     ...v$...$n......
    3534:	0000 e700 2442 1424 0818 0708 0000 0000     ....B$$.........
    3544:	0000 7e00 1022 0808 7e44 0000 c000 2020     ...~"...D~....  
    3554:	2020 1020 2020 2020 2020 00c0 1010 1010        .      ......
    3564:	1010 1010 1010 1010 1010 1010 0600 0808     ................
    3574:	0808 1008 0808 0808 0808 0006 320c 00c2     .............2..
	...

00003590 <ascii_8x6>:
	...
    3598:	2f00 0000 0000 0007 0007 1400 147f 147f     ./..............
    35a8:	2400 7f2a 122a 6200 0864 2313 3600 5549     .$*.*..bd..#.6IU
    35b8:	5022 0000 0305 0000 0000 221c 0041 0000     "P........."A...
    35c8:	2241 001c 1400 3e08 1408 0800 3e08 0808     A".....>.....>..
    35d8:	0000 a000 0060 0800 0808 0808 0000 6060     ....`.........``
    35e8:	0000 2000 0810 0204 3e00 4951 3e45 0000     ... .....>QIE>..
    35f8:	7f42 0040 4200 5161 4649 2100 4541 314b     B.@..BaQIF.!AEK1
    3608:	1800 1214 107f 2700 4545 3945 3c00 494a     .......'EEE9.<JI
    3618:	3049 0100 0971 0305 3600 4949 3649 0600     I0..q....6III6..
    3628:	4949 1e29 0000 3636 0000 0000 3656 0000     II)...66....V6..
    3638:	0800 2214 0041 1400 1414 1414 0000 2241     ..."A.........A"
    3648:	0814 0200 5101 0609 3200 5949 3e51 7c00     .....Q...2IYQ>.|
    3658:	1112 7c12 7f00 4949 3649 3e00 4141 2241     ...|..III6.>AAA"
    3668:	7f00 4141 1c22 7f00 4949 4149 7f00 0909     ..AA"...IIIA....
    3678:	0109 3e00 4941 7a49 7f00 0808 7f08 0000     ...>AIIz........
    3688:	7f41 0041 2000 4140 013f 7f00 1408 4122     A.A.. @A?....."A
    3698:	7f00 4040 4040 7f00 0c02 7f02 7f00 0804     ..@@@@..........
    36a8:	7f10 3e00 4141 3e41 7f00 0909 0609 3e00     ...>AAA>.......>
    36b8:	5141 5e21 7f00 1909 4629 4600 4949 3149     AQ!^....)F.FIII1
    36c8:	0100 7f01 0101 3f00 4040 3f40 1f00 4020     .......?@@@?.. @
    36d8:	1f20 3f00 3840 3f40 6300 0814 6314 0700      ..?@8@?.c...c..
    36e8:	7008 0708 6100 4951 4345 0000 417f 0041     .p...aQIEC...AA.
    36f8:	5500 552a 552a 0000 4141 007f 0400 0102     .U*U*U..AA......
    3708:	0402 4000 4040 4040 0000 0201 0004 2000     ...@@@@@....... 
    3718:	5454 7854 7f00 4448 3844 3800 4444 2044     TTTx..HDD8.8DDD 
    3728:	3800 4444 7f48 3800 5454 1854 0800 097e     .8DDH..8TTT...~.
    3738:	0201 1800 a4a4 7ca4 7f00 0408 7804 0000     .......|.....x..
    3748:	7d44 0040 4000 8480 007d 7f00 2810 0044     D}@..@..}....(D.
    3758:	0000 7f41 0040 7c00 1804 7804 7c00 0408     ..A.@..|...x.|..
    3768:	7804 3800 4444 3844 fc00 2424 1824 1800     .x.8DDD8..$$$...
    3778:	2424 fc18 7c00 0408 0804 4800 5454 2054     $$...|.....HTTT 
    3788:	0400 443f 2040 3c00 4040 7c20 1c00 4020     ..?D@ .<@@ |.. @
    3798:	1c20 3c00 3040 3c40 4400 1028 4428 1c00      ..<@0@<.D(.(D..
    37a8:	a0a0 7ca0 4400 5464 444c 1414 1414 1414     ...|.DdTLD......

000037b8 <DISABLE_LASER>:
    37b8:	00aa be01 0100 0000 00c0 0000               ............

000037c4 <ENABLE_LASER>:
    37c4:	00aa be01 0100 0100 00c1 0000 7453 7261     ............Star
    37d4:	2074 4340 6968 4970 3d44 3025 5832 000a     t @ChipID=%02X..
    37e4:	6f6e 2077 5453 3737 3938 3376 0000 0000     now ST7789v3....
    37f4:	8fe5 e4af a5bb 8ce6 e489 8bb8 8ce6 e989     ................
    3804:	ae94 bae4 0086 0000 7453 7461 7375 6620     ........Status f
    3814:	6172 656d 2820 7525 6220 7479 7365 3a29     rame (%u bytes):
    3824:	0020 0000 3025 5832 0020 0000 7453 7461      ...%02X ...Stat
    3834:	7375 6620 6172 656d 7420 6d69 6f65 7475     us frame timeout
    3844:	0000 0000 656b 3179 e620 898c b8e4 008b     ....key1 .......
    3854:	656b 3279 e620 898c b8e4 008b 656b 3379     key2 .......key3
    3864:	e620 898c b8e4 008b 656b 3479 e620 898c      .......key4 ...
    3874:	b8e4 008b dbc2 ffff dbea ffff dc12 ffff     ................
    3884:	dc2a ffff dc44 ffff dc54 ffff dc7c ffff     *...D...T...|...
    3894:	dca4 ffff dcbc ffff dcd6 ffff               ............

000038a0 <__sf_fake_stderr>:
	...

000038c0 <__sf_fake_stdin>:
	...

000038e0 <__sf_fake_stdout>:
	...
    3900:	2d23 2b30 0020 0000 6c68 004c 6665 4567     #-0+ ...hlL.efgE
    3910:	4746 0000 3130 3332 3534 3736 3938 4241     FG..0123456789AB
    3920:	4443 4645 0000 0000 3130 3332 3534 3736     CDEF....01234567
    3930:	3938 6261 6463 6665 0000 0000               89abcdef....

0000393c <afont12x6>:
    393c:	060c 0000 2b2c 0000                         ....,+..

00003944 <afont16x8>:
    3944:	0810 0000 2fa0 0000                         ...../..

0000394c <afont8x6>:
    394c:	0608 0000 3590 0000                         .....5..

00003954 <ReadModuleStatus>:
    3954:	80aa 0000 0080 0000                         ........

0000395c <_global_impure_ptr>:
    395c:	4000 2000                                   .@. 
